#include "hi_asm_define.h"
	.arch armv7-a
	.fpu softvfp
	.eabi_attribute 20, 1
	.eabi_attribute 21, 1
	.eabi_attribute 23, 3
	.eabi_attribute 24, 1
	.eabi_attribute 25, 1
	.eabi_attribute 26, 2
	.eabi_attribute 30, 2
	.eabi_attribute 34, 0
	.eabi_attribute 18, 4
	.file	"scd_drv.c"
	.text
	.align	2
	.global	WriteCabacTabDsp
	.type	WriteCabacTabDsp, %function
WriteCabacTabDsp:
	UNWIND(.fnstart)
	@ args = 0, pretend = 0, frame = 0
	@ frame_needed = 1, uses_anonymous_args = 0
	UNWIND(.movsp ip)
	mov	ip, sp
	stmfd	sp!, {fp, ip, lr, pc}
	UNWIND(.pad #4)
	UNWIND(.save {fp, ip, lr})
	UNWIND(.setfp fp, ip, #-4)
	sub	fp, ip, #4
	bl	MEM_Phy2Vir
	ldr	r3, .L5
	cmp	r0, #0
	beq	.L4
	mov	r2, #5120
	ldr	r1, .L5+4
	ldr	r3, [r3, #52]
	sub	sp, fp, #12
	ldmia	sp, {fp, sp, lr}
	bx	r3
.L4:
	mov	r2, #98
	ldr	r1, .L5+8
	mov	r0, #22
	ldr	r3, [r3, #68]
	sub	sp, fp, #12
	ldmia	sp, {fp, sp, lr}
	bx	r3
.L6:
	.align	2
.L5:
	.word	vfmw_Osal_Func_Ptr_S
	.word	g_CabacMN
	.word	.LC2
	UNWIND(.fnend)
	.size	WriteCabacTabDsp, .-WriteCabacTabDsp
	.align	2
	.global	WriteHexFile
	.type	WriteHexFile, %function
WriteHexFile:
	UNWIND(.fnstart)
	@ args = 0, pretend = 0, frame = 0
	@ frame_needed = 1, uses_anonymous_args = 0
	UNWIND(.movsp ip)
	mov	ip, sp
	stmfd	sp!, {r4, r5, r6, r7, fp, ip, lr, pc}
	UNWIND(.pad #4)
	UNWIND(.save {r4, r5, r6, r7, fp, ip, lr})
	UNWIND(.setfp fp, ip, #-4)
	sub	fp, ip, #4
	subs	r6, r1, #0
	mov	r4, r0
	ldmnefd	sp, {r4, r5, r6, r7, fp, sp, pc}
	ldr	r5, .L21
	ldr	r0, [r5]
	bl	MEM_Phy2Vir
	ldr	r3, .L21+4
	cmp	r0, #0
	beq	.L18
	cmp	r4, #6
	beq	.L19
	cmp	r4, #0
	bne	.L13
	mov	r2, #17920
	ldr	r1, .L21+8
	ldr	r3, [r3, #52]
	blx	r3
.L12:
	ldr	r0, [r5, #4]
	mov	r1, #4480
	add	r0, r0, #264
	bl	MEM_WritePhyWord
	ldr	r0, [r5, #4]
	ldr	r1, [r5]
	add	r0, r0, #268
	bl	MEM_WritePhyWord
	ldr	r0, [r5, #4]
	mov	r1, #0
	add	r0, r0, #256
	bl	MEM_WritePhyWord
	ldr	r0, [r5, #4]
	mov	r1, #1
	add	r0, r0, #256
	bl	MEM_WritePhyWord
.L14:
	movw	r0, #49412
	movt	r0, 63683
	bl	MEM_ReadPhyWord
	ands	r0, r0, #1
	beq	.L14
	cmp	r4, #6
	beq	.L20
	cmp	r4, #0
	ldreq	r2, .L21+12
	streq	r0, [r2]
	ldmfd	sp, {r4, r5, r6, r7, fp, sp, pc}
.L13:
	mov	r0, r6
	ldr	r1, .L21+16
	ldr	r3, [r3, #68]
	sub	sp, fp, #28
	ldmfd	sp, {r4, r5, r6, r7, fp, sp, lr}
	bx	r3
.L19:
	mov	r2, #17920
	ldr	r1, .L21+20
	ldr	r3, [r3, #52]
	blx	r3
	b	.L12
.L20:
	ldr	r3, .L21+12
	mov	r2, #2
	str	r2, [r3]
	ldmfd	sp, {r4, r5, r6, r7, fp, sp, pc}
.L18:
	ldr	r2, [r5]
	ldr	r1, .L21+24
	ldr	r3, [r3, #68]
	sub	sp, fp, #28
	ldmfd	sp, {r4, r5, r6, r7, fp, sp, lr}
	bx	r3
.L22:
	.align	2
.L21:
	.word	.LANCHOR0
	.word	vfmw_Osal_Func_Ptr_S
	.word	.LANCHOR2+1552
	.word	g_DspDrvState
	.word	.LC4
	.word	.LANCHOR1
	.word	.LC3
	UNWIND(.fnend)
	.size	WriteHexFile, .-WriteHexFile
	.align	2
	.global	GetInstIDByRawArray
	.type	GetInstIDByRawArray, %function
GetInstIDByRawArray:
	UNWIND(.fnstart)
	@ args = 0, pretend = 0, frame = 0
	@ frame_needed = 1, uses_anonymous_args = 0
	UNWIND(.movsp ip)
	mov	ip, sp
	stmfd	sp!, {fp, ip, lr, pc}
	UNWIND(.pad #4)
	UNWIND(.save {fp, ip, lr})
	UNWIND(.setfp fp, ip, #-4)
	sub	fp, ip, #4
	ldr	r2, .L32
	mov	r3, #0
.L26:
	ldr	r1, [r2, #40]
	add	r2, r2, #48
	cmp	r1, #0
	add	ip, r1, #104
	beq	.L24
	cmp	r0, ip
	beq	.L27
.L24:
	add	r3, r3, #1
	cmp	r3, #16
	bne	.L26
	mvn	r0, #0
	ldmfd	sp, {fp, sp, pc}
.L27:
	mov	r0, r3
	ldmfd	sp, {fp, sp, pc}
.L33:
	.align	2
.L32:
	.word	.LANCHOR0+8
	UNWIND(.fnend)
	.size	GetInstIDByRawArray, .-GetInstIDByRawArray
	.align	2
	.global	ResetSCD
	.type	ResetSCD, %function
ResetSCD:
	UNWIND(.fnstart)
	@ args = 0, pretend = 0, frame = 0
	@ frame_needed = 1, uses_anonymous_args = 0
	UNWIND(.movsp ip)
	mov	ip, sp
	stmfd	sp!, {r4, r5, r6, r7, fp, ip, lr, pc}
	UNWIND(.pad #4)
	UNWIND(.save {r4, r5, r6, r7, fp, ip, lr})
	UNWIND(.setfp fp, ip, #-4)
	sub	fp, ip, #4
	movw	r0, #51228
	ldr	r5, .L48
	movt	r0, 63683
	bl	MEM_ReadPhyWord
	ldr	ip, [r5]
	ldr	r4, [ip, #120]
	tst	r4, #1
	mov	r6, r0
	beq	.L45
	orr	r4, r4, #32
	str	r4, [ip, #120]
	ldr	r3, [ip, #372]
	tst	r3, #2
	bne	.L40
	movw	r0, #9999
	b	.L38
.L47:
	subs	r0, r0, #1
	beq	.L46
.L38:
	ldr	r2, [ip, #372]
	tst	r2, #2
	beq	.L47
.L40:
	ldr	r3, .L48+4
	bfc	r4, #5, #1
	and	r1, r6, #1
	str	r4, [ip, #120]
	ldr	r0, [r3, #4]
	add	r0, r0, #2064
	add	r0, r0, #12
	bl	MEM_WritePhyWord
	mov	r0, #1
	ldmfd	sp, {r4, r5, r6, r7, fp, sp, pc}
.L45:
	ldr	r3, .L48+8
	mov	r0, #26
	ldr	r1, .L48+12
	ldr	r3, [r3, #68]
	blx	r3
	mov	r0, #1
	ldmfd	sp, {r4, r5, r6, r7, fp, sp, pc}
.L46:
	ldr	r2, .L48+8
	ldr	r1, .L48+16
	ldr	r3, [r2, #68]
	blx	r3
	ldr	ip, [r5]
	b	.L40
.L49:
	.align	2
.L48:
	.word	g_pstRegCrg
	.word	.LANCHOR0
	.word	vfmw_Osal_Func_Ptr_S
	.word	.LC5
	.word	.LC6
	UNWIND(.fnend)
	.size	ResetSCD, .-ResetSCD
	.align	2
	.global	SCDDRV_ResetSCD
	.type	SCDDRV_ResetSCD, %function
SCDDRV_ResetSCD:
	UNWIND(.fnstart)
	@ args = 0, pretend = 0, frame = 0
	@ frame_needed = 1, uses_anonymous_args = 0
	UNWIND(.movsp ip)
	mov	ip, sp
	stmfd	sp!, {r4, r5, fp, ip, lr, pc}
	UNWIND(.pad #4)
	UNWIND(.save {r4, r5, fp, ip, lr})
	UNWIND(.setfp fp, ip, #-4)
	sub	fp, ip, #4
	ldr	r4, .L52
	ldr	r3, [r4, #856]
	cmp	r3, r0
	ldmnefd	sp, {r4, r5, fp, sp, pc}
	mov	r0, #0
	bl	ResetSCD
	mov	r3, #0
	str	r3, [r4, #860]
	ldmfd	sp, {r4, r5, fp, sp, pc}
.L53:
	.align	2
.L52:
	.word	.LANCHOR0
	UNWIND(.fnend)
	.size	SCDDRV_ResetSCD, .-SCDDRV_ResetSCD
	.align	2
	.global	SCDDRV_MaskInt
	.type	SCDDRV_MaskInt, %function
SCDDRV_MaskInt:
	UNWIND(.fnstart)
	@ args = 0, pretend = 0, frame = 0
	@ frame_needed = 1, uses_anonymous_args = 0
	UNWIND(.movsp ip)
	mov	ip, sp
	stmfd	sp!, {fp, ip, lr, pc}
	UNWIND(.pad #4)
	UNWIND(.save {fp, ip, lr})
	UNWIND(.setfp fp, ip, #-4)
	sub	fp, ip, #4
	ldr	r3, .L55
	mov	r1, #1
	ldr	r0, [r3, #4]
	add	r0, r0, #2064
	add	r0, r0, #12
	sub	sp, fp, #12
	ldmia	sp, {fp, sp, lr}
	b	MEM_WritePhyWord
.L56:
	.align	2
.L55:
	.word	.LANCHOR0
	UNWIND(.fnend)
	.size	SCDDRV_MaskInt, .-SCDDRV_MaskInt
	.align	2
	.global	SCDDRV_EnableInt
	.type	SCDDRV_EnableInt, %function
SCDDRV_EnableInt:
	UNWIND(.fnstart)
	@ args = 0, pretend = 0, frame = 0
	@ frame_needed = 1, uses_anonymous_args = 0
	UNWIND(.movsp ip)
	mov	ip, sp
	stmfd	sp!, {fp, ip, lr, pc}
	UNWIND(.pad #4)
	UNWIND(.save {fp, ip, lr})
	UNWIND(.setfp fp, ip, #-4)
	sub	fp, ip, #4
	ldr	r3, .L58
	mov	r1, #0
	ldr	r0, [r3, #4]
	add	r0, r0, #2064
	add	r0, r0, #12
	sub	sp, fp, #12
	ldmia	sp, {fp, sp, lr}
	b	MEM_WritePhyWord
.L59:
	.align	2
.L58:
	.word	.LANCHOR0
	UNWIND(.fnend)
	.size	SCDDRV_EnableInt, .-SCDDRV_EnableInt
	.align	2
	.global	ResetRawStreamArray
	.type	ResetRawStreamArray, %function
ResetRawStreamArray:
	UNWIND(.fnstart)
	@ args = 0, pretend = 0, frame = 0
	@ frame_needed = 1, uses_anonymous_args = 0
	UNWIND(.movsp ip)
	mov	ip, sp
	stmfd	sp!, {fp, ip, lr, pc}
	UNWIND(.pad #4)
	UNWIND(.save {fp, ip, lr})
	UNWIND(.setfp fp, ip, #-4)
	sub	fp, ip, #4
	cmp	r0, #0
	ldmeqfd	sp, {fp, sp, pc}
	ldr	r3, .L62
	movw	r2, #32792
	movt	r2, 1
	mov	r1, #0
	ldr	r3, [r3, #48]
	sub	sp, fp, #12
	ldmia	sp, {fp, sp, lr}
	bx	r3
.L63:
	.align	2
.L62:
	.word	vfmw_Osal_Func_Ptr_S
	UNWIND(.fnend)
	.size	ResetRawStreamArray, .-ResetRawStreamArray
	.align	2
	.global	InsertRawPacket
	.type	InsertRawPacket, %function
InsertRawPacket:
	UNWIND(.fnstart)
	@ args = 0, pretend = 0, frame = 0
	@ frame_needed = 1, uses_anonymous_args = 0
	UNWIND(.movsp ip)
	mov	ip, sp
	stmfd	sp!, {r4, r5, fp, ip, lr, pc}
	UNWIND(.pad #4)
	UNWIND(.save {r4, r5, fp, ip, lr})
	UNWIND(.setfp fp, ip, #-4)
	sub	fp, ip, #4
	cmp	r1, #0
	cmpne	r0, #0
	moveq	r5, #1
	movne	r5, #0
	beq	.L66
	add	r4, r0, #98304
	ldmib	r4, {ip, lr}
	add	r3, ip, #1
	mov	r2, r3, asr #31
	mov	r2, r2, lsr #22
	add	r3, r3, r2
	ubfx	r3, r3, #0, #10
	rsb	r3, r2, r3
	cmp	r3, lr
	beq	.L67
	ldr	lr, .L68
	mov	r3, ip, asl #7
	sub	ip, r3, ip, asl #5
	mov	r2, #96
	add	r0, r0, ip
	ldr	r3, [lr, #52]
	blx	r3
	ldr	r3, [r4, #4]
	mov	r0, r5
	add	r3, r3, #1
	mov	r2, r3, asr #31
	mov	r2, r2, lsr #22
	add	r3, r3, r2
	ubfx	r3, r3, #0, #10
	rsb	r3, r2, r3
	str	r3, [r4, #4]
	ldmfd	sp, {r4, r5, fp, sp, pc}
.L66:
	mvn	r0, #0
	ldmfd	sp, {r4, r5, fp, sp, pc}
.L67:
	mvn	r0, #3
	ldmfd	sp, {r4, r5, fp, sp, pc}
.L69:
	.align	2
.L68:
	.word	vfmw_Osal_Func_Ptr_S
	UNWIND(.fnend)
	.size	InsertRawPacket, .-InsertRawPacket
	.align	2
	.global	GetRawState
	.type	GetRawState, %function
GetRawState:
	UNWIND(.fnstart)
	@ args = 0, pretend = 0, frame = 0
	@ frame_needed = 1, uses_anonymous_args = 0
	UNWIND(.movsp ip)
	mov	ip, sp
	stmfd	sp!, {fp, ip, lr, pc}
	UNWIND(.pad #4)
	UNWIND(.save {fp, ip, lr})
	UNWIND(.setfp fp, ip, #-4)
	sub	fp, ip, #4
	cmp	r0, #15
	bhi	.L73
	ldr	r3, .L75
	mov	r2, r0, asl #6
	sub	r0, r2, r0, asl #4
	add	r0, r3, r0
	ldr	r3, [r0, #48]
	cmp	r3, #0
	beq	.L73
	add	r2, r3, #98304
	ldr	r3, [r2, #108]
	ldr	r1, [r2, #112]
	add	r3, r3, #1
	mov	r2, r3, asr #31
	mov	r2, r2, lsr #22
	add	r3, r3, r2
	ubfx	r3, r3, #0, #10
	rsb	r3, r2, r3
	cmp	r3, r1
	mvneq	r0, #3
	movne	r0, #0
	ldmfd	sp, {fp, sp, pc}
.L73:
	mvn	r0, #3
	ldmfd	sp, {fp, sp, pc}
.L76:
	.align	2
.L75:
	.word	.LANCHOR0
	UNWIND(.fnend)
	.size	GetRawState, .-GetRawState
	.align	2
	.global	ShowFirstRawPacket
	.type	ShowFirstRawPacket, %function
ShowFirstRawPacket:
	UNWIND(.fnstart)
	@ args = 0, pretend = 0, frame = 0
	@ frame_needed = 1, uses_anonymous_args = 0
	UNWIND(.movsp ip)
	mov	ip, sp
	stmfd	sp!, {r4, r5, fp, ip, lr, pc}
	UNWIND(.pad #4)
	UNWIND(.save {r4, r5, fp, ip, lr})
	UNWIND(.setfp fp, ip, #-4)
	sub	fp, ip, #4
	cmp	r1, #0
	cmpne	r0, #0
	mov	lr, r0
	moveq	r4, #1
	movne	r4, #0
	beq	.L79
	add	r2, r0, #98304
	ldr	r3, [r2]
	ldr	r0, [r2, #4]
	cmp	r3, r0
	beq	.L80
	ldr	r5, .L81
	mov	ip, r3, asl #7
	sub	ip, ip, r3, asl #5
	str	r3, [r2, #16]
	mov	r0, r1
	mov	r2, #96
	add	r1, lr, ip
	ldr	r3, [r5, #52]
	blx	r3
	mov	r0, r4
	ldmfd	sp, {r4, r5, fp, sp, pc}
.L79:
	mvn	r0, #0
	ldmfd	sp, {r4, r5, fp, sp, pc}
.L80:
	mvn	r0, #2
	ldmfd	sp, {r4, r5, fp, sp, pc}
.L82:
	.align	2
.L81:
	.word	vfmw_Osal_Func_Ptr_S
	UNWIND(.fnend)
	.size	ShowFirstRawPacket, .-ShowFirstRawPacket
	.align	2
	.global	ShowNextRawPacket
	.type	ShowNextRawPacket, %function
ShowNextRawPacket:
	UNWIND(.fnstart)
	@ args = 0, pretend = 0, frame = 0
	@ frame_needed = 1, uses_anonymous_args = 0
	UNWIND(.movsp ip)
	mov	ip, sp
	stmfd	sp!, {r4, r5, fp, ip, lr, pc}
	UNWIND(.pad #4)
	UNWIND(.save {r4, r5, fp, ip, lr})
	UNWIND(.setfp fp, ip, #-4)
	sub	fp, ip, #4
	cmp	r1, #0
	cmpne	r0, #0
	mov	lr, r0
	moveq	r4, #1
	movne	r4, #0
	beq	.L85
	add	ip, r0, #98304
	ldr	r2, [ip, #16]
	ldr	r0, [ip, #4]
	add	r2, r2, #1
	mov	r3, r2, asr #31
	mov	r3, r3, lsr #22
	add	r2, r2, r3
	ubfx	r2, r2, #0, #10
	rsb	r3, r3, r2
	cmp	r0, r3
	beq	.L86
	ldr	r5, .L87
	mov	r2, r3, asl #7
	sub	r2, r2, r3, asl #5
	str	r3, [ip, #16]
	mov	r0, r1
	add	r1, lr, r2
	ldr	r3, [r5, #52]
	mov	r2, #96
	blx	r3
	mov	r0, r4
	ldmfd	sp, {r4, r5, fp, sp, pc}
.L85:
	mvn	r0, #0
	ldmfd	sp, {r4, r5, fp, sp, pc}
.L86:
	mvn	r0, #2
	ldmfd	sp, {r4, r5, fp, sp, pc}
.L88:
	.align	2
.L87:
	.word	vfmw_Osal_Func_Ptr_S
	UNWIND(.fnend)
	.size	ShowNextRawPacket, .-ShowNextRawPacket
	.align	2
	.global	SetFirstOffset
	.type	SetFirstOffset, %function
SetFirstOffset:
	UNWIND(.fnstart)
	@ args = 0, pretend = 0, frame = 0
	@ frame_needed = 1, uses_anonymous_args = 0
	UNWIND(.movsp ip)
	mov	ip, sp
	stmfd	sp!, {fp, ip, lr, pc}
	UNWIND(.pad #4)
	UNWIND(.save {fp, ip, lr})
	UNWIND(.setfp fp, ip, #-4)
	sub	fp, ip, #4
	cmp	r0, #0
	beq	.L93
	add	r3, r0, #98304
	ldmia	r3, {r2, ip}
	cmp	r2, ip
	beq	.L92
	mov	ip, r2, asl #7
	ldr	lr, [r3, #12]
	sub	r2, ip, r2, asl #5
	add	r0, r0, r2
	add	r1, r1, lr
	ldr	r2, [r0, #8]
	cmp	r1, r2
	bge	.L93
	str	r1, [r3, #12]
	mov	r0, #0
	ldmfd	sp, {fp, sp, pc}
.L93:
	mvn	r0, #0
	ldmfd	sp, {fp, sp, pc}
.L92:
	mvn	r0, #2
	ldmfd	sp, {fp, sp, pc}
	UNWIND(.fnend)
	.size	SetFirstOffset, .-SetFirstOffset
	.align	2
	.global	GetFirstOffset
	.type	GetFirstOffset, %function
GetFirstOffset:
	UNWIND(.fnstart)
	@ args = 0, pretend = 0, frame = 0
	@ frame_needed = 1, uses_anonymous_args = 0
	UNWIND(.movsp ip)
	mov	ip, sp
	stmfd	sp!, {fp, ip, lr, pc}
	UNWIND(.pad #4)
	UNWIND(.save {fp, ip, lr})
	UNWIND(.setfp fp, ip, #-4)
	sub	fp, ip, #4
	cmp	r1, #0
	cmpne	r0, #0
	moveq	r2, #1
	movne	r2, #0
	beq	.L96
	add	r3, r0, #98304
	ldr	ip, [r3]
	ldr	r0, [r3, #4]
	cmp	ip, r0
	beq	.L97
	ldr	r3, [r3, #12]
	mov	r0, r2
	str	r3, [r1]
	ldmfd	sp, {fp, sp, pc}
.L96:
	mvn	r0, #0
	ldmfd	sp, {fp, sp, pc}
.L97:
	mvn	r0, #2
	ldmfd	sp, {fp, sp, pc}
	UNWIND(.fnend)
	.size	GetFirstOffset, .-GetFirstOffset
	.align	2
	.global	DeleteRawPacket
	.type	DeleteRawPacket, %function
DeleteRawPacket:
	UNWIND(.fnstart)
	@ args = 0, pretend = 0, frame = 8
	@ frame_needed = 1, uses_anonymous_args = 0
	UNWIND(.movsp ip)
	mov	ip, sp
	stmfd	sp!, {r4, r5, r6, r7, r8, r9, r10, fp, ip, lr, pc}
	UNWIND(.pad #4)
	UNWIND(.save {r4, r5, r6, r7, r8, r9, r10, fp, ip, lr})
	UNWIND(.setfp fp, ip, #-4)
	sub	fp, ip, #4
	UNWIND(.pad #12)
	sub	sp, sp, #12
	cmp	r1, #0
	cmpne	r0, #0
	mov	r6, r0
	mov	r8, r1
	moveq	r3, #1
	movne	r3, #0
	beq	.L114
	ldr	r2, .L127
.L103:
	ldr	r1, [r2, #40]
	add	r2, r2, #48
	cmp	r1, #0
	add	r0, r1, #104
	beq	.L100
	cmp	r6, r0
	beq	.L125
.L100:
	add	r3, r3, #1
	cmp	r3, #16
	bne	.L103
.L101:
	ldr	r3, .L127+4
	movw	r2, #735
	ldr	r1, .L127+8
	mov	r0, #0
	ldr	r3, [r3, #68]
	blx	r3
	mvn	r0, #0
	b	.L121
.L125:
	cmp	r3, #0
	blt	.L101
	add	r2, r6, #98304
	str	r2, [fp, #-52]
	ldmia	r2, {r1, r2}
	cmp	r1, r2
	addgt	r2, r2, #1024
	rsb	r2, r1, r2
	cmp	r2, r8
	bcc	.L126
	cmp	r8, #0
	mov	r4, r1
	beq	.L107
	ldr	r9, .L127+4
	mov	r5, #0
	mov	r10, r3, asl #4
	mov	r3, r3, asl #6
	str	r3, [fp, #-48]
.L108:
	mov	r3, r4, asl #7
	ldr	r1, .L127+12
	sub	r3, r3, r4, asl #5
	mov	r0, #26
	add	r7, r6, r3
	ldr	ip, [r9, #68]
	ldr	r2, [r6, r3]
	add	r5, r5, #1
	ldr	r3, [r7, #8]
	add	r4, r4, #1
	blx	ip
	ldr	r3, [fp, #-48]
	ldr	r1, [r7, #8]
	cmp	r5, r8
	rsb	r2, r10, r3
	ldr	r3, .L127+16
	ubfx	r4, r4, #0, #10
	add	r2, r3, r2
	ldr	r2, [r2, #48]
	add	r2, r2, #98304
	ldr	r3, [r2, #124]
	rsb	r3, r1, r3
	bic	r3, r3, r3, asr #31
	str	r3, [r2, #124]
	bne	.L108
	ldr	r2, [fp, #-52]
	ldr	r3, [r2]
	add	r5, r5, r3
	str	r5, [r2]
	cmp	r5, #1024
	ldrge	r3, [fp, #-52]
	subge	r5, r5, #1024
	strge	r5, [r3]
.L113:
	ldr	r3, [fp, #-52]
	mov	r0, #0
	str	r0, [r3, #12]
.L121:
	sub	sp, fp, #40
	ldmfd	sp, {r4, r5, r6, r7, r8, r9, r10, fp, sp, pc}
.L107:
	ldr	r3, [fp, #-52]
	cmp	r1, #1024
	str	r1, [r3]
	ldrge	r3, [fp, #-52]
	subge	r1, r1, #1024
	strge	r1, [r3]
.L111:
	mov	r0, #0
	sub	sp, fp, #40
	ldmfd	sp, {r4, r5, r6, r7, r8, r9, r10, fp, sp, pc}
.L114:
	mvn	r0, #0
	b	.L121
.L126:
	ldr	ip, .L127+4
	mov	r3, r8
	ldr	r1, .L127+20
	mov	r0, #26
	ldr	ip, [ip, #68]
	blx	ip
	mvn	r0, #0
	b	.L121
.L128:
	.align	2
.L127:
	.word	.LANCHOR0+8
	.word	vfmw_Osal_Func_Ptr_S
	.word	.LC7
	.word	.LC9
	.word	.LANCHOR0
	.word	.LC8
	UNWIND(.fnend)
	.size	DeleteRawPacket, .-DeleteRawPacket
	.align	2
	.global	GetRawNumOffsert
	.type	GetRawNumOffsert, %function
GetRawNumOffsert:
	UNWIND(.fnstart)
	@ args = 32, pretend = 0, frame = 16
	@ frame_needed = 1, uses_anonymous_args = 0
	UNWIND(.movsp ip)
	mov	ip, sp
	stmfd	sp!, {r4, r5, r6, r7, r8, r9, r10, fp, ip, lr, pc}
	UNWIND(.pad #4)
	UNWIND(.save {r4, r5, r6, r7, r8, r9, r10, fp, ip, lr})
	UNWIND(.setfp fp, ip, #-4)
	sub	fp, ip, #4
	UNWIND(.pad #20)
	sub	sp, sp, #20
	clz	ip, r0
	mov	r7, r1
	add	r8, fp, #24
	mov	ip, ip, lsr #5
	str	r2, [fp, #-52]
	orrs	r1, ip, r7, lsr #31
	str	r3, [fp, #-56]
	mov	r5, r0
	ldr	r6, [fp, #4]
	ldmia	r8, {r8, r9, r10}
	bne	.L139
	cmp	r3, #0
	cmpne	r2, #0
	moveq	r3, #1
	movne	r3, #0
	str	r3, [fp, #-60]
	beq	.L139
	add	r3, r0, #98304
	cmp	ip, #0
	str	r3, [fp, #-48]
	ldr	lr, [r3]
	mov	ip, r3
	ldr	r0, [r3, #12]
	mov	r1, lr, asl #5
	mov	r2, lr, asl #7
	rsb	r3, r1, r2
	add	r3, r5, r3
	ldr	r4, [r3, #8]
	rsb	r4, r0, r4
	bne	.L131
	ldr	r3, [ip, #4]
	subs	r3, r3, lr
	addmi	r3, r3, #1024
.L137:
	rsb	r1, r1, r2
	add	lr, r3, lr
	add	r1, r5, r1
	ldr	r0, [fp, #8]
	ldrd	r2, [r1, #16]
	strd	r2, [r6]
	ldrd	r2, [r1, #32]
	strd	r2, [r0]
	ldrd	r2, [r1, #16]
	ldr	r0, [fp, #12]
	strd	r2, [r10]
	ldrd	r2, [r1, #40]
	strd	r2, [r0]
	ldr	r2, [fp, #16]
	ldr	r3, [r1, #56]
	str	r3, [r2]
	ldr	r2, [fp, #20]
	ldr	r3, [r1, #60]
	str	r3, [r2]
	ldr	r3, [r1, #64]
	str	r3, [r8]
	ldr	r3, [r1, #68]
	str	r3, [r9]
	ldr	r3, [fp, #-48]
	ldr	ip, [r3]
	cmp	r7, r4
	cmpge	lr, ip
	strgt	r8, [fp, #24]
	strgt	r9, [fp, #28]
	bgt	.L135
	b	.L136
.L134:
	strd	r0, [r6]
	cmp	r7, r4
	cmpge	lr, ip
	ldrd	r0, [r2, #32]
	ldr	r3, [fp, #8]
	strd	r0, [r3]
	ldrd	r0, [r2, #16]
	ldr	r3, [fp, #12]
	strd	r0, [r10]
	ldrd	r0, [r2, #40]
	strd	r0, [r3]
	ldr	r1, [fp, #16]
	ldr	r3, [r2, #56]
	str	r3, [r1]
	ldr	r1, [fp, #20]
	ldr	r3, [r2, #60]
	str	r3, [r1]
	ldr	r1, [fp, #24]
	ldr	r3, [r2, #64]
	str	r3, [r1]
	ldr	r1, [fp, #28]
	ldr	r3, [r2, #68]
	str	r3, [r1]
	ble	.L143
.L135:
	add	ip, ip, #1
	mvn	r9, #0
	mvn	r8, #0
	mov	r3, ip, asr #31
	mov	r2, r3, lsr #22
	add	r3, ip, r2
	ubfx	r3, r3, #0, #10
	rsb	r3, r2, r3
	mov	r1, r3, asl #5
	mov	r3, r3, asl #7
	rsb	r2, r1, r3
	add	r2, r5, r2
	ldrd	r0, [r2, #16]
	ldr	r3, [r2, #8]
	cmp	r1, r9
	cmpeq	r0, r8
	add	r4, r4, r3
	ldreqd	r0, [r6]
	b	.L134
.L143:
	ldr	r3, [fp, #-48]
	ldr	r1, [r3]
	cmp	r1, ip
	beq	.L136
	ldr	r3, [r2, #8]
	mov	r0, #0
	ldr	r2, [fp, #-52]
	rsb	ip, r1, ip
	rsb	r4, r3, r4
	ldr	r3, [fp, #-56]
	rsb	r7, r4, r7
	str	ip, [r2]
	str	r7, [r3]
.L142:
	sub	sp, fp, #40
	ldmfd	sp, {r4, r5, r6, r7, r8, r9, r10, fp, sp, pc}
.L136:
	ldr	r3, [fp, #-52]
	mov	r0, #0
	str	r0, [r3]
	ldr	r3, [fp, #-56]
	str	r7, [r3]
	sub	sp, fp, #40
	ldmfd	sp, {r4, r5, r6, r7, r8, r9, r10, fp, sp, pc}
.L131:
	ldr	ip, .L144
	movw	r3, #871
	ldr	r2, .L144+4
	mov	r0, #22
	ldr	r1, .L144+8
	ldr	ip, [ip, #68]
	blx	ip
	ldr	r3, [fp, #-48]
	ldr	lr, [r3]
	ldr	r3, [fp, #-60]
	mov	r1, lr, asl #5
	mov	r2, lr, asl #7
	b	.L137
.L139:
	mvn	r0, #0
	b	.L142
.L145:
	.align	2
.L144:
	.word	vfmw_Osal_Func_Ptr_S
	.word	.LANCHOR3
	.word	.LC10
	UNWIND(.fnend)
	.size	GetRawNumOffsert, .-GetRawNumOffsert
	.align	2
	.global	DeleteRawLen
	.type	DeleteRawLen, %function
DeleteRawLen:
	UNWIND(.fnstart)
	@ args = 0, pretend = 0, frame = 56
	@ frame_needed = 1, uses_anonymous_args = 0
	UNWIND(.movsp ip)
	mov	ip, sp
	stmfd	sp!, {r4, r5, r6, r7, r8, r9, r10, fp, ip, lr, pc}
	UNWIND(.pad #4)
	UNWIND(.save {r4, r5, r6, r7, r8, r9, r10, fp, ip, lr})
	UNWIND(.setfp fp, ip, #-4)
	sub	fp, ip, #4
	UNWIND(.pad #92)
	sub	sp, sp, #92
	clz	r3, r0
	mov	r6, r0
	mov	r3, r3, lsr #5
	orrs	ip, r3, r1, lsr #31
	bne	.L154
	cmp	r3, #0
	str	ip, [fp, #-100]
	str	ip, [fp, #-96]
	bne	.L154
	add	r4, r0, #98304
	ldr	r3, [r4, #20]
	ldr	ip, [r4, #12]
	rsb	r3, ip, r3
	movs	r7, r3, asr #31
	bne	.L156
	cmp	r1, r3
	bgt	.L154
	sub	r3, fp, #52
	sub	r2, fp, #80
	str	r3, [sp, #28]
	sub	r3, fp, #84
	str	r2, [sp, #24]
	sub	r2, fp, #88
	str	r3, [sp, #20]
	sub	r3, fp, #92
	str	r2, [sp, #16]
	sub	r2, fp, #60
	str	r3, [sp, #12]
	sub	r3, fp, #68
	str	r2, [sp, #8]
	sub	r2, fp, #76
	str	r3, [sp, #4]
	sub	r3, fp, #96
	str	r2, [sp]
	sub	r2, fp, #100
	bl	GetRawNumOffsert
	ldr	ip, [fp, #-100]
	ldr	r8, [r4]
	movw	r2, #987
	ldr	r10, [fp, #-96]
	mov	r0, #26
	add	r8, ip, r8
	ldr	r9, .L160
	mov	r3, ip
	ldr	r1, .L160+4
	mov	lr, r8, asr #31
	mov	r5, lr, lsr #22
	add	lr, r8, r5
	ubfx	lr, lr, #0, #10
	rsb	lr, r5, lr
	mov	r5, lr, asl #7
	sub	r5, r5, lr, asl #5
	add	r5, r6, r5
	ldrb	lr, [r5, #54]	@ zero_extendqisi2
	str	lr, [sp, #12]
	ldr	lr, [r5, #8]
	stmia	sp, {r10, ip, lr}
	ldr	ip, [r9, #68]
	blx	ip
	ldrb	r3, [r5, #54]	@ zero_extendqisi2
	cmp	r3, #0
	bne	.L150
	ldr	r1, [fp, #-100]
.L151:
	mov	r0, r6
	bl	DeleteRawPacket
	ldmia	r4, {r2, r3}
	ldr	r1, [fp, #-96]
	cmp	r2, r3
	beq	.L159
	mov	r3, r2, asl #7
	ldr	r0, [r4, #12]
	sub	r3, r3, r2, asl #5
	add	r6, r6, r3
	add	r1, r1, r0
	ldr	r3, [r6, #8]
	cmp	r1, r3
	strlt	r1, [r4, #12]
	bge	.L154
.L156:
	mov	r0, r7
	sub	sp, fp, #40
	ldmfd	sp, {r4, r5, r6, r7, r8, r9, r10, fp, sp, pc}
.L154:
	mvn	r7, #0
	mov	r0, r7
	sub	sp, fp, #40
	ldmfd	sp, {r4, r5, r6, r7, r8, r9, r10, fp, sp, pc}
.L150:
	ldr	ip, [r5, #8]
	mov	r2, #992
	ldr	r1, [fp, #-96]
	mov	r0, #26
	ldr	r3, [fp, #-100]
	str	ip, [sp, #4]
	str	r1, [sp]
	ldr	ip, [r9, #68]
	ldr	r1, .L160+8
	blx	ip
	ldr	r1, [fp, #-100]
	str	r7, [fp, #-96]
	add	r1, r1, #1
	str	r1, [fp, #-100]
	b	.L151
.L159:
	mvn	r7, #2
	mov	r0, r7
	sub	sp, fp, #40
	ldmfd	sp, {r4, r5, r6, r7, r8, r9, r10, fp, sp, pc}
.L161:
	.align	2
.L160:
	.word	vfmw_Osal_Func_Ptr_S
	.word	.LC11
	.word	.LC12
	UNWIND(.fnend)
	.size	DeleteRawLen, .-DeleteRawLen
	.align	2
	.global	DeleteLastSendRaw
	.type	DeleteLastSendRaw, %function
DeleteLastSendRaw:
	UNWIND(.fnstart)
	@ args = 0, pretend = 0, frame = 0
	@ frame_needed = 1, uses_anonymous_args = 0
	UNWIND(.movsp ip)
	mov	ip, sp
	stmfd	sp!, {r4, r5, fp, ip, lr, pc}
	UNWIND(.pad #4)
	UNWIND(.save {r4, r5, fp, ip, lr})
	UNWIND(.setfp fp, ip, #-4)
	sub	fp, ip, #4
	cmp	r0, #15
	ldmhifd	sp, {r4, r5, fp, sp, pc}
	mov	r2, r0, asl #6
	ldr	r3, .L166
	sub	r0, r2, r0, asl #4
	add	r0, r3, r0
	ldr	r0, [r0, #48]
	cmp	r0, #0
	beq	.L165
	add	r4, r0, #188416
	ldr	r1, [r4, #2232]
	cmp	r1, #0
	ldmlefd	sp, {r4, r5, fp, sp, pc}
	add	r0, r0, #104
	bl	DeleteRawPacket
	mov	r3, #0
	str	r3, [r4, #2232]
	ldmfd	sp, {r4, r5, fp, sp, pc}
.L165:
	ldr	r3, .L166+4
	movw	r2, #1032
	ldr	r1, .L166+8
	ldr	r3, [r3, #68]
	sub	sp, fp, #20
	ldmfd	sp, {r4, r5, fp, sp, lr}
	bx	r3
.L167:
	.align	2
.L166:
	.word	.LANCHOR0
	.word	vfmw_Osal_Func_Ptr_S
	.word	.LC13
	UNWIND(.fnend)
	.size	DeleteLastSendRaw, .-DeleteLastSendRaw
	.align	2
	.global	GetRawStreamSize
	.type	GetRawStreamSize, %function
GetRawStreamSize:
	UNWIND(.fnstart)
	@ args = 0, pretend = 0, frame = 0
	@ frame_needed = 1, uses_anonymous_args = 0
	UNWIND(.movsp ip)
	mov	ip, sp
	stmfd	sp!, {fp, ip, lr, pc}
	UNWIND(.pad #4)
	UNWIND(.save {fp, ip, lr})
	UNWIND(.setfp fp, ip, #-4)
	sub	fp, ip, #4
	cmp	r0, #0
	addne	r0, r0, #98304
	ldrne	r3, [r0, #20]
	strne	r3, [r1]
	ldrne	r0, [r0, #12]
	rsbne	r0, r0, r3
	strne	r0, [r1]
	movne	r0, r0, asr #31
	mvneq	r0, #0
	ldmfd	sp, {fp, sp, pc}
	UNWIND(.fnend)
	.size	GetRawStreamSize, .-GetRawStreamSize
	.align	2
	.global	GetRawStreamNum
	.type	GetRawStreamNum, %function
GetRawStreamNum:
	UNWIND(.fnstart)
	@ args = 0, pretend = 0, frame = 0
	@ frame_needed = 1, uses_anonymous_args = 0
	UNWIND(.movsp ip)
	mov	ip, sp
	stmfd	sp!, {fp, ip, lr, pc}
	UNWIND(.pad #4)
	UNWIND(.save {fp, ip, lr})
	UNWIND(.setfp fp, ip, #-4)
	sub	fp, ip, #4
	cmp	r0, #0
	beq	.L174
	add	r0, r0, #98304
	ldmia	r0, {r2, r3}
	subs	r3, r3, r2
	strpl	r3, [r1]
	addmi	r3, r3, #1024
	strmi	r3, [r1]
	movpl	r0, #0
	movmi	r0, #0
	ldmfd	sp, {fp, sp, pc}
.L174:
	mvn	r0, #0
	ldmfd	sp, {fp, sp, pc}
	UNWIND(.fnend)
	.size	GetRawStreamNum, .-GetRawStreamNum
	.align	2
	.global	GetRawStreamNumInBuffer
	.type	GetRawStreamNumInBuffer, %function
GetRawStreamNumInBuffer:
	UNWIND(.fnstart)
	@ args = 0, pretend = 0, frame = 0
	@ frame_needed = 1, uses_anonymous_args = 0
	UNWIND(.movsp ip)
	mov	ip, sp
	stmfd	sp!, {fp, ip, lr, pc}
	UNWIND(.pad #4)
	UNWIND(.save {fp, ip, lr})
	UNWIND(.setfp fp, ip, #-4)
	sub	fp, ip, #4
	cmp	r0, #0
	beq	.L178
	add	r0, r0, #98304
	ldr	r3, [r0, #4]
	ldr	r2, [r0, #8]
	subs	r3, r3, r2
	strpl	r3, [r1]
	addmi	r3, r3, #1024
	strmi	r3, [r1]
	movpl	r0, #0
	movmi	r0, #0
	ldmfd	sp, {fp, sp, pc}
.L178:
	mvn	r0, #0
	ldmfd	sp, {fp, sp, pc}
	UNWIND(.fnend)
	.size	GetRawStreamNumInBuffer, .-GetRawStreamNumInBuffer
	.align	2
	.global	ConfigStreamSegArray
	.type	ConfigStreamSegArray, %function
ConfigStreamSegArray:
	UNWIND(.fnstart)
	@ args = 0, pretend = 0, frame = 0
	@ frame_needed = 1, uses_anonymous_args = 0
	UNWIND(.movsp ip)
	mov	ip, sp
	stmfd	sp!, {r4, r5, r6, r7, r8, r9, fp, ip, lr, pc}
	UNWIND(.pad #4)
	UNWIND(.save {r4, r5, r6, r7, r8, r9, fp, ip, lr})
	UNWIND(.setfp fp, ip, #-4)
	sub	fp, ip, #4
	cmp	r1, #0
	cmpne	r0, #0
	mov	r7, r2
	mov	r6, r3
	mov	r5, r1
	mov	r8, r0
	beq	.L182
	cmp	r3, #262144
	movcs	r4, #0
	movcc	r4, #1
	cmp	r2, #0
	orreq	r4, r4, #1
	cmp	r4, #0
	bne	.L182
	ldr	r3, .L183
	movw	r2, #26680
	movt	r2, 1
	mov	r1, r4
	ldr	r3, [r3, #48]
	blx	r3
	add	ip, r8, #90112
	mov	r0, r4
	str	r5, [ip, #2072]
	str	r7, [r8]
	str	r5, [ip, #2080]
	str	r5, [ip, #2084]
	str	r6, [ip, #2076]
	ldmfd	sp, {r4, r5, r6, r7, r8, r9, fp, sp, pc}
.L182:
	mvn	r0, #0
	ldmfd	sp, {r4, r5, r6, r7, r8, r9, fp, sp, pc}
.L184:
	.align	2
.L183:
	.word	vfmw_Osal_Func_Ptr_S
	UNWIND(.fnend)
	.size	ConfigStreamSegArray, .-ConfigStreamSegArray
	.align	2
	.global	ResetStreamSegArray
	.type	ResetStreamSegArray, %function
ResetStreamSegArray:
	UNWIND(.fnstart)
	@ args = 0, pretend = 0, frame = 0
	@ frame_needed = 1, uses_anonymous_args = 0
	UNWIND(.movsp ip)
	mov	ip, sp
	stmfd	sp!, {r4, r5, fp, ip, lr, pc}
	UNWIND(.pad #4)
	UNWIND(.save {r4, r5, fp, ip, lr})
	UNWIND(.setfp fp, ip, #-4)
	sub	fp, ip, #4
	subs	r4, r0, #0
	ldmeqfd	sp, {r4, r5, fp, sp, pc}
	ldr	r3, .L190
	mov	r2, #92160
	mov	r1, #0
	add	r0, r4, #8
	ldr	r3, [r3, #48]
	blx	r3
	add	r0, r4, #90112
	mov	r3, #0
	ldr	r2, [r0, #2072]
	str	r3, [r0, #2056]
	str	r3, [r0, #2060]
	str	r2, [r0, #2080]
	str	r2, [r0, #2084]
	str	r3, [r0, #2064]
	ldmfd	sp, {r4, r5, fp, sp, pc}
.L191:
	.align	2
.L190:
	.word	vfmw_Osal_Func_Ptr_S
	UNWIND(.fnend)
	.size	ResetStreamSegArray, .-ResetStreamSegArray
	.align	2
	.global	GetSegBuf
	.type	GetSegBuf, %function
GetSegBuf:
	UNWIND(.fnstart)
	@ args = 0, pretend = 0, frame = 0
	@ frame_needed = 1, uses_anonymous_args = 0
	UNWIND(.movsp ip)
	mov	ip, sp
	stmfd	sp!, {fp, ip, lr, pc}
	UNWIND(.pad #4)
	UNWIND(.save {fp, ip, lr})
	UNWIND(.setfp fp, ip, #-4)
	sub	fp, ip, #4
	cmp	r2, #0
	cmpne	r1, #0
	moveq	r3, #1
	movne	r3, #0
	cmp	r0, #0
	orreq	r3, r3, #1
	cmp	r3, #0
	addeq	r0, r0, #90112
	ldreq	r3, [r0, #2072]
	streq	r3, [r1]
	ldreq	r3, [r0, #2076]
	streq	r3, [r2]
	ldmfd	sp, {fp, sp, pc}
	UNWIND(.fnend)
	.size	GetSegBuf, .-GetSegBuf
	.align	2
	.global	GetFreeSegBuf
	.type	GetFreeSegBuf, %function
GetFreeSegBuf:
	UNWIND(.fnstart)
	@ args = 0, pretend = 0, frame = 0
	@ frame_needed = 1, uses_anonymous_args = 0
	UNWIND(.movsp ip)
	mov	ip, sp
	stmfd	sp!, {fp, ip, lr, pc}
	UNWIND(.pad #4)
	UNWIND(.save {fp, ip, lr})
	UNWIND(.setfp fp, ip, #-4)
	sub	fp, ip, #4
	cmp	r2, #0
	cmpne	r1, #0
	moveq	r3, #1
	movne	r3, #0
	cmp	r0, #0
	orreq	r3, r3, #1
	cmp	r3, #0
	ldmnefd	sp, {fp, sp, pc}
	add	r0, r0, #90112
	ldr	ip, [r0, #2084]
	str	ip, [r1]
	str	r3, [r2]
	ldr	r3, [r0, #2084]
	ldr	r1, [r0, #2080]
	cmp	r3, r1
	bhi	.L201
	ldrcs	r0, [r0, #2076]
	subcc	r1, r1, #1
	ldrcc	r0, [r0, #2076]
	rsbcc	r3, r3, r1
	subcs	r3, r0, #1
.L198:
	cmp	r3, r0
	strle	r3, [r2]
	ldmfd	sp, {fp, sp, pc}
.L201:
	ldr	r0, [r0, #2076]
	sub	r1, r1, #1
	add	r1, r1, r0
	rsb	r3, r3, r1
	b	.L198
	UNWIND(.fnend)
	.size	GetFreeSegBuf, .-GetFreeSegBuf
	.align	2
	.global	CheckStream
	.type	CheckStream, %function
CheckStream:
	UNWIND(.fnstart)
	@ args = 0, pretend = 0, frame = 0
	@ frame_needed = 1, uses_anonymous_args = 0
	UNWIND(.movsp ip)
	mov	ip, sp
	stmfd	sp!, {r4, r5, r6, r7, r8, r9, r10, fp, ip, lr, pc}
	UNWIND(.pad #4)
	UNWIND(.save {r4, r5, r6, r7, r8, r9, r10, fp, ip, lr})
	UNWIND(.setfp fp, ip, #-4)
	sub	fp, ip, #4
	UNWIND(.pad #4)
	sub	sp, sp, #4
	ldr	r3, .L247
	mov	r6, r1
	ldr	r5, [r3, r1, asl #2]
	ldr	r3, [r5, #528]
	sub	r1, r3, #3
	clz	r1, r1
	mov	r1, r1, lsr #5
	cmp	r3, #0
	movne	r3, r1
	orreq	r3, r1, #1
	cmp	r3, #0
	ldmeqib	sp, {r4, r5, r6, r7, r8, r9, r10, fp, sp, pc}
	add	r4, r5, #229376
	ldr	r2, [r4, #72]
	cmp	r2, #199
	ldmgtib	sp, {r4, r5, r6, r7, r8, r9, r10, fp, sp, pc}
	ldrb	ip, [r0]	@ zero_extendqisi2
	cmp	ip, #0
	bne	.L243
	ldrb	ip, [r0, #1]	@ zero_extendqisi2
	cmp	ip, #0
	bne	.L243
	ldrb	ip, [r0, #2]	@ zero_extendqisi2
	cmp	ip, #1
	beq	.L209
.L243:
	ldr	lr, [r4, #84]
	mov	ip, #0
	ldr	r7, [r4, #80]
	mov	r0, ip
	mov	r8, ip
	mov	r9, ip
	add	r2, r2, #1
	str	ip, [r4, #84]
	str	r2, [r4, #72]
	str	lr, [r4, #80]
	str	r7, [r4, #76]
.L210:
	cmp	r3, #0
	beq	.L244
.L211:
	ldr	r3, [r4, #68]
	add	r3, r3, #1
	str	r3, [r4, #68]
.L212:
	cmp	r0, #0
	beq	.L213
	rsb	r3, lr, r8
	cmp	r3, #1
	beq	.L245
.L214:
	cmp	lr, r8
	cmpeq	r7, lr
	bne	.L213
.L215:
	cmp	r8, #1
	cmpne	r8, #20
	beq	.L213
	ldr	r3, [r4, #64]
	cmp	r3, #0
	subgt	r3, r3, #1
	strgt	r3, [r4, #64]
	ldr	r3, [r4, #68]
	add	r3, r3, #1
	str	r3, [r4, #68]
.L213:
	cmp	r2, #199
	ldmleib	sp, {r4, r5, r6, r7, r8, r9, r10, fp, sp, pc}
	ldr	r0, [r4, #64]
	ldr	r3, [r4, #68]
	rsb	r2, r3, r0
	cmp	r2, #49
	movle	r1, #0
	andgt	r1, r1, #1
	cmp	r1, #0
	bne	.L246
.L217:
	rsb	r3, r0, r3
	cmp	r3, #49
	ldmleib	sp, {r4, r5, r6, r7, r8, r9, r10, fp, sp, pc}
	ldr	r3, [r5, #528]
	cmp	r3, #0
	ldmneib	sp, {r4, r5, r6, r7, r8, r9, r10, fp, sp, pc}
	ldr	r2, .L247+4
	ldr	ip, [r2]
	cmp	ip, #0
	ldmeqib	sp, {r4, r5, r6, r7, r8, r9, r10, fp, sp, pc}
	mov	r0, r6
	mov	r2, r3
	mov	r1, #121
	sub	sp, fp, #40
	ldmfd	sp, {r4, r5, r6, r7, r8, r9, r10, fp, sp, lr}
	bx	ip
.L244:
	add	r9, r9, #73
	uxtb	r9, r9
	cmp	r9, #3
	bhi	.L212
	b	.L211
.L246:
	ldr	r2, .L247+4
	ldr	ip, [r2]
	cmp	ip, #0
	beq	.L217
	mov	r3, #0
	mov	r1, #121
	mov	r2, r3
	mov	r0, r6
	blx	ip
	ldr	r3, [r4, #68]
	ldr	r0, [r4, #64]
	b	.L217
.L245:
	rsb	r3, r7, lr
	cmp	r3, #1
	bne	.L214
	b	.L215
.L209:
	ldrb	r9, [r0, #3]	@ zero_extendqisi2
	add	r2, r2, #1
	ldr	lr, [r4, #84]
	and	r8, r9, #31
	sub	r0, r9, #1
	sub	ip, r8, #30
	add	r7, r9, #79
	cmp	r8, #19
	cmpne	ip, #1
	uxtb	r3, r0
	sub	r10, r8, #1
	str	r2, [r4, #72]
	movls	ip, #1
	movhi	ip, #0
	cmp	r10, #12
	orrls	ip, ip, #1
	cmp	r3, #183
	uxtb	r3, r7
	ldr	r7, [r4, #80]
	movls	r0, #0
	movhi	r0, #1
	cmp	r3, #4
	movhi	r3, r0
	orrls	r3, r0, #1
	cmp	r8, #0
	cmpne	r2, #2
	str	r8, [r4, #84]
	movgt	r0, #1
	movle	r0, #0
	cmp	ip, #0
	str	lr, [r4, #80]
	str	r7, [r4, #76]
	ldrne	ip, [r4, #64]
	addne	ip, ip, #1
	strne	ip, [r4, #64]
	b	.L210
.L248:
	.align	2
.L247:
	.word	s_pstVfmwChan
	.word	g_event_report
	UNWIND(.fnend)
	.size	CheckStream, .-CheckStream
	.align	2
	.global	InsertStreamSeg
	.type	InsertStreamSeg, %function
InsertStreamSeg:
	UNWIND(.fnstart)
	@ args = 0, pretend = 0, frame = 0
	@ frame_needed = 1, uses_anonymous_args = 0
	UNWIND(.movsp ip)
	mov	ip, sp
	stmfd	sp!, {r3, r4, r5, r6, r7, r8, r9, r10, fp, ip, lr, pc}
	UNWIND(.pad #4)
	UNWIND(.save {r3, r4, r5, r6, r7, r8, r9, r10, fp, ip, lr})
	UNWIND(.setfp fp, ip, #-4)
	sub	fp, ip, #4
	cmp	r1, #0
	cmpne	r0, #0
	mov	r5, r0
	mov	r7, r1
	moveq	r10, #1
	movne	r10, #0
	beq	.L251
	add	r4, r0, #90112
	movw	r6, #36409
	movt	r6, 14563
	ldr	r3, [r4, #2060]
	ldr	r1, [r4, #2056]
	add	r3, r3, #1
	smull	r8, r9, r3, r6
	mov	r0, r3, asr #31
	rsb	r0, r0, r9, asr #8
	mov	ip, r0, asl #10
	add	r0, ip, r0, lsl #7
	rsb	r3, r0, r3
	cmp	r3, r1
	beq	.L252
	mov	r1, r2
	ldr	r0, [r7]
	bl	CheckStream
	ldr	r3, [r4, #2060]
	ldr	r0, .L253
	mov	r1, r7
	mov	r2, #80
	mov	r8, r3, asl #6
	add	r8, r8, r3, lsl #4
	ldr	r3, [r0, #52]
	add	r0, r8, #8
	add	r0, r5, r0
	blx	r3
	ldr	ip, [r4, #2060]
	mov	lr, #1
	add	r3, r5, r8
	add	r2, ip, lr
	mov	r0, r10
	mov	r10, ip, asl #6
	smull	r8, r9, r2, r6
	mov	r1, r2, asr #31
	add	r6, r10, ip, lsl #4
	add	r5, r5, r6
	strb	lr, [r5, #12]
	rsb	r1, r1, r9, asr #8
	str	ip, [r3, #24]
	ldr	lr, [r4, #2088]
	mov	ip, r1, asl #10
	ldr	r3, [r4, #2092]
	add	r1, ip, r1, lsl #7
	ldr	ip, [r4, #2096]
	rsb	r2, r1, r2
	str	r2, [r4, #2060]
	add	r2, ip, #1
	ldr	r1, [r7, #12]
	ldr	ip, [r7, #8]
	add	r1, r1, ip
	str	r1, [r4, #2084]
	ldr	r1, [r7, #12]
	add	r1, lr, r1
	str	r1, [r4, #2088]
	ldr	r1, [r7, #12]
	str	r2, [r4, #2096]
	add	r3, r3, r1
	str	r3, [r4, #2092]
	ldmfd	sp, {r3, r4, r5, r6, r7, r8, r9, r10, fp, sp, pc}
.L252:
	mvn	r0, #3
	ldmfd	sp, {r3, r4, r5, r6, r7, r8, r9, r10, fp, sp, pc}
.L251:
	mvn	r0, #0
	ldmfd	sp, {r3, r4, r5, r6, r7, r8, r9, r10, fp, sp, pc}
.L254:
	.align	2
.L253:
	.word	vfmw_Osal_Func_Ptr_S
	UNWIND(.fnend)
	.size	InsertStreamSeg, .-InsertStreamSeg
	.align	2
	.global	GetStreamSeg
	.type	GetStreamSeg, %function
GetStreamSeg:
	UNWIND(.fnstart)
	@ args = 0, pretend = 0, frame = 0
	@ frame_needed = 1, uses_anonymous_args = 0
	UNWIND(.movsp ip)
	mov	ip, sp
	stmfd	sp!, {r4, r5, r6, r7, fp, ip, lr, pc}
	UNWIND(.pad #4)
	UNWIND(.save {r4, r5, r6, r7, fp, ip, lr})
	UNWIND(.setfp fp, ip, #-4)
	sub	fp, ip, #4
	UNWIND(.pad #8)
	sub	sp, sp, #8
	cmp	r1, #0
	cmpne	r0, #0
	mov	r4, r0
	mov	r0, r1
	beq	.L262
	add	r5, r4, #90112
	ldr	r3, [r5, #2056]
	ldr	lr, [r5, #2060]
	cmp	lr, r3
	beq	.L264
	mov	ip, r3, asl #4
	mov	r6, r3, asl #6
	add	r2, ip, r6
	add	r2, r4, r2
	ldrsb	r2, [r2, #12]
	cmp	r2, #1
	movwne	r1, #36409
	movtne	r1, 14563
	bne	.L259
	b	.L257
.L270:
	add	r2, r4, r2
	ldrsb	r2, [r2, #12]
	cmp	r2, #1
	beq	.L257
.L259:
	add	ip, r3, #1
	smull	r2, r3, ip, r1
	mov	r2, ip, asr #31
	rsb	r3, r2, r3, asr #8
	mov	r2, r3, asl #10
	add	r3, r2, r3, lsl #7
	rsb	r3, r3, ip
	cmp	lr, r3
	mov	ip, r3, asl #4
	mov	r6, r3, asl #6
	add	r2, ip, r6
	bne	.L270
.L264:
	mvn	r0, #2
.L256:
	sub	sp, fp, #28
	ldmfd	sp, {r4, r5, r6, r7, fp, sp, pc}
.L257:
	add	r6, ip, r6
	add	r1, r6, #8
	adds	r1, r4, r1
	beq	.L264
	ldr	r7, .L271
	mov	r2, #80
	ldr	r3, [r7, #52]
	blx	r3
	add	ip, r4, r6
	mov	r3, #2
	ldr	r1, .L271+4
	strb	r3, [ip, #12]
	mov	r0, #26
	ldr	r3, [ip, #20]
	ldr	lr, [r5, #2092]
	ldr	r2, [r5, #2096]
	rsb	lr, r3, lr
	ldr	r4, [r7, #68]
	sub	r2, r2, #1
	bic	lr, lr, lr, asr #31
	str	lr, [r5, #2092]
	bic	r2, r2, r2, asr #31
	str	r2, [r5, #2096]
	ldr	r2, [ip, #16]
	ldrb	ip, [ip, #13]	@ zero_extendqisi2
	str	ip, [sp]
	blx	r4
	mov	r0, #0
	sub	sp, fp, #28
	ldmfd	sp, {r4, r5, r6, r7, fp, sp, pc}
.L262:
	mvn	r0, #0
	b	.L256
.L272:
	.align	2
.L271:
	.word	vfmw_Osal_Func_Ptr_S
	.word	.LC14
	UNWIND(.fnend)
	.size	GetStreamSeg, .-GetStreamSeg
	.align	2
	.global	ReleaseStreamSeg
	.type	ReleaseStreamSeg, %function
ReleaseStreamSeg:
	UNWIND(.fnstart)
	@ args = 0, pretend = 0, frame = 0
	@ frame_needed = 1, uses_anonymous_args = 0
	UNWIND(.movsp ip)
	mov	ip, sp
	stmfd	sp!, {r4, r5, r6, r7, r8, r9, r10, fp, ip, lr, pc}
	UNWIND(.pad #4)
	UNWIND(.save {r4, r5, r6, r7, r8, r9, r10, fp, ip, lr})
	UNWIND(.setfp fp, ip, #-4)
	sub	fp, ip, #4
	UNWIND(.pad #12)
	sub	sp, sp, #12
	subs	r5, r0, #0
	mov	r4, r1
	beq	.L293
	movw	r3, #64382
	sub	r2, r1, #1152
	movt	r3, 65535
	cmp	r2, r3
	bls	.L293
	cmn	r1, #1
	add	r6, r5, #90112
	beq	.L307
	ldr	r3, [r6, #2056]
	ldr	ip, [r6, #2060]
	cmp	r3, ip
	beq	.L281
	cmp	r1, r3
	movwne	lr, #36409
	movtne	lr, 14563
	bne	.L284
	b	.L282
.L305:
	cmp	r4, r3
	beq	.L282
.L284:
	add	r2, r3, #1
	umull	r0, r1, r2, lr
	mov	r3, r1, lsr #8
	mov	r1, r3, asl #10
	add	r3, r1, r3, lsl #7
	rsb	r3, r3, r2
	cmp	r3, ip
	bne	.L305
.L281:
	mvn	r0, #2
.L303:
	sub	sp, fp, #40
	ldmfd	sp, {r4, r5, r6, r7, r8, r9, r10, fp, sp, pc}
.L282:
	mov	r2, r3, asl #6
	add	r3, r2, r3, lsl #4
	add	r2, r5, r3
	ldrsb	r2, [r2, #12]
	cmp	r2, #2
	addeq	r3, r3, #8
	addeq	r7, r5, r3
	bne	.L281
.L278:
	cmp	r7, #0
	beq	.L281
	ldr	r3, [r7, #12]
	mov	r2, #0
	ldr	r8, .L310
	mov	r0, #26
	strb	r2, [r7, #4]
	ldr	r2, [r7, #8]
	str	r4, [sp, #4]
	ldrb	lr, [r7, #5]	@ zero_extendqisi2
	ldr	ip, [r8, #68]
	ldr	r1, .L310+4
	str	lr, [sp]
	blx	ip
	ldr	r3, [r6, #2056]
	cmp	r3, r4
	beq	.L308
.L286:
	ldr	r2, [r7, #12]
	mov	r0, #0
	ldr	r3, [r6, #2088]
	rsb	r3, r2, r3
	bic	r3, r3, r3, asr #31
	str	r3, [r6, #2088]
	sub	sp, fp, #40
	ldmfd	sp, {r4, r5, r6, r7, r8, r9, r10, fp, sp, pc}
.L307:
	ldr	r4, [r6, #2056]
	ldr	r3, [r6, #2060]
	cmp	r4, r3
	beq	.L281
	ldr	r8, .L310
	mov	r10, r4, asl #6
	add	r10, r10, r4, lsl #4
	mov	r2, r4
	add	r7, r10, #8
	add	r10, r5, r10
	ldr	r3, [r8, #68]
	mov	r0, #0
	ldr	r1, .L310+8
	add	r7, r5, r7
	blx	r3
	ldr	r3, [r10, #20]
	cmp	r3, #0
	movne	r9, #0
	beq	.L280
.L279:
	ldr	r2, [r10, #8]
	mov	r0, #0
	ldr	r3, [r8, #68]
	ldr	r1, .L310+12
	ldrb	r2, [r2, r9]	@ zero_extendqisi2
	add	r9, r9, #1
	blx	r3
	ldr	r3, [r10, #20]
	cmp	r3, r9
	movhi	r3, #1
	movls	r3, #0
	cmp	r9, #15
	movhi	r3, #0
	cmp	r3, #0
	bne	.L279
.L280:
	ldr	r3, [r8, #68]
	mov	r0, #0
	ldr	r1, .L310+16
	blx	r3
	b	.L278
.L308:
	movw	r9, #36409
	movt	r9, 14563
	b	.L289
.L287:
	ldr	r2, [r6, #2060]
	cmp	r2, r4
	beq	.L290
	ldrsb	r2, [r3, #12]
	cmp	r2, #0
	bne	.L309
.L294:
	add	r1, r4, #1
	umull	r2, r3, r1, r9
	mov	r4, r3, lsr #8
	mov	r3, r4, asl #10
	add	r4, r3, r4, lsl #7
	rsb	r4, r4, r1
.L289:
	mov	r3, r4, asl #6
	cmp	r4, #1152
	add	r3, r3, r4, lsl #4
	add	r3, r5, r3
	bcc	.L287
	ldr	r2, .L310+20
	mov	r0, #1
	ldr	r3, [r8, #68]
	ldr	r1, .L310+24
	blx	r3
	ldr	r2, [r6, #2060]
	cmp	r2, r4
	bne	.L294
.L290:
	ldr	r3, [r6, #2084]
	str	r2, [r6, #2056]
	str	r3, [r6, #2080]
	b	.L286
.L309:
	str	r4, [r6, #2056]
	ldr	r3, [r3, #16]
	str	r3, [r6, #2080]
	b	.L286
.L293:
	mvn	r0, #0
	b	.L303
.L311:
	.align	2
.L310:
	.word	vfmw_Osal_Func_Ptr_S
	.word	.LC18
	.word	.LC15
	.word	.LC17
	.word	.LC16
	.word	.LANCHOR3+20
	.word	.LC19
	UNWIND(.fnend)
	.size	ReleaseStreamSeg, .-ReleaseStreamSeg
	.align	2
	.global	GetSegStreamSize
	.type	GetSegStreamSize, %function
GetSegStreamSize:
	UNWIND(.fnstart)
	@ args = 0, pretend = 0, frame = 0
	@ frame_needed = 1, uses_anonymous_args = 0
	UNWIND(.movsp ip)
	mov	ip, sp
	stmfd	sp!, {fp, ip, lr, pc}
	UNWIND(.pad #4)
	UNWIND(.save {fp, ip, lr})
	UNWIND(.setfp fp, ip, #-4)
	sub	fp, ip, #4
	cmp	r0, #0
	addne	r3, r0, #90112
	movne	r0, #0
	mvneq	r0, #0
	ldrne	r3, [r3, #2088]
	strne	r3, [r1]
	ldmfd	sp, {fp, sp, pc}
	UNWIND(.fnend)
	.size	GetSegStreamSize, .-GetSegStreamSize
	.align	2
	.global	GetSegStreamNum
	.type	GetSegStreamNum, %function
GetSegStreamNum:
	UNWIND(.fnstart)
	@ args = 0, pretend = 0, frame = 0
	@ frame_needed = 1, uses_anonymous_args = 0
	UNWIND(.movsp ip)
	mov	ip, sp
	stmfd	sp!, {fp, ip, lr, pc}
	UNWIND(.pad #4)
	UNWIND(.save {fp, ip, lr})
	UNWIND(.setfp fp, ip, #-4)
	sub	fp, ip, #4
	cmp	r0, #0
	beq	.L318
	add	r0, r0, #90112
	ldr	r3, [r0, #2060]
	ldr	r2, [r0, #2056]
	subs	r3, r3, r2
	strpl	r3, [r1]
	addmi	r3, r3, #1152
	strmi	r3, [r1]
	movpl	r0, #0
	movmi	r0, #0
	ldmfd	sp, {fp, sp, pc}
.L318:
	mvn	r0, #0
	ldmfd	sp, {fp, sp, pc}
	UNWIND(.fnend)
	.size	GetSegStreamNum, .-GetSegStreamNum
	.align	2
	.global	GetFreshSegStream
	.type	GetFreshSegStream, %function
GetFreshSegStream:
	UNWIND(.fnstart)
	@ args = 0, pretend = 0, frame = 0
	@ frame_needed = 1, uses_anonymous_args = 0
	UNWIND(.movsp ip)
	mov	ip, sp
	stmfd	sp!, {fp, ip, lr, pc}
	UNWIND(.pad #4)
	UNWIND(.save {fp, ip, lr})
	UNWIND(.setfp fp, ip, #-4)
	sub	fp, ip, #4
	cmp	r0, #0
	addne	r0, r0, #90112
	ldrne	r3, [r0, #2096]
	strne	r3, [r1]
	ldrne	r3, [r0, #2092]
	strne	r3, [r2]
	ldmfd	sp, {fp, sp, pc}
	UNWIND(.fnend)
	.size	GetFreshSegStream, .-GetFreshSegStream
	.align	2
	.global	SCDDRV_PrepareSleep
	.type	SCDDRV_PrepareSleep, %function
SCDDRV_PrepareSleep:
	UNWIND(.fnstart)
	@ args = 0, pretend = 0, frame = 0
	@ frame_needed = 1, uses_anonymous_args = 0
	UNWIND(.movsp ip)
	mov	ip, sp
	stmfd	sp!, {fp, ip, lr, pc}
	UNWIND(.pad #4)
	UNWIND(.save {fp, ip, lr})
	UNWIND(.setfp fp, ip, #-4)
	sub	fp, ip, #4
	ldr	r3, .L328
	add	ip, r3, r0, lsl #2
	ldr	r2, [ip, #872]
	cmp	r2, #0
	bne	.L327
	mov	r1, r0, asl #7
	sub	r0, r1, r0, asl #5
	add	r3, r3, r0
	ldr	r0, [r3, #860]
	cmp	r0, #0
	moveq	r3, #2
	movne	r3, #1
	movne	r0, r2
	str	r3, [ip, #872]
	ldmfd	sp, {fp, sp, pc}
.L327:
	mvn	r0, #0
	ldmfd	sp, {fp, sp, pc}
.L329:
	.align	2
.L328:
	.word	.LANCHOR0
	UNWIND(.fnend)
	.size	SCDDRV_PrepareSleep, .-SCDDRV_PrepareSleep
	.align	2
	.global	SCDDRV_GetSleepStage
	.type	SCDDRV_GetSleepStage, %function
SCDDRV_GetSleepStage:
	UNWIND(.fnstart)
	@ args = 0, pretend = 0, frame = 0
	@ frame_needed = 1, uses_anonymous_args = 0
	UNWIND(.movsp ip)
	mov	ip, sp
	stmfd	sp!, {fp, ip, lr, pc}
	UNWIND(.pad #4)
	UNWIND(.save {fp, ip, lr})
	UNWIND(.setfp fp, ip, #-4)
	sub	fp, ip, #4
	ldr	r3, .L331
	add	r0, r3, r0, lsl #2
	ldr	r0, [r0, #872]
	ldmfd	sp, {fp, sp, pc}
.L332:
	.align	2
.L331:
	.word	.LANCHOR0
	UNWIND(.fnend)
	.size	SCDDRV_GetSleepStage, .-SCDDRV_GetSleepStage
	.align	2
	.global	SCDDRV_ForceSleep
	.type	SCDDRV_ForceSleep, %function
SCDDRV_ForceSleep:
	UNWIND(.fnstart)
	@ args = 0, pretend = 0, frame = 0
	@ frame_needed = 1, uses_anonymous_args = 0
	UNWIND(.movsp ip)
	mov	ip, sp
	stmfd	sp!, {fp, ip, lr, pc}
	UNWIND(.pad #4)
	UNWIND(.save {fp, ip, lr})
	UNWIND(.setfp fp, ip, #-4)
	sub	fp, ip, #4
	ldr	r3, .L338
	add	r0, r3, r0, lsl #2
	ldr	r3, [r0, #872]
	cmp	r3, #2
	movne	r3, #2
	strne	r3, [r0, #872]
	ldmfd	sp, {fp, sp, pc}
.L339:
	.align	2
.L338:
	.word	.LANCHOR0
	UNWIND(.fnend)
	.size	SCDDRV_ForceSleep, .-SCDDRV_ForceSleep
	.align	2
	.global	SCDDRV_ExitSleep
	.type	SCDDRV_ExitSleep, %function
SCDDRV_ExitSleep:
	UNWIND(.fnstart)
	@ args = 0, pretend = 0, frame = 0
	@ frame_needed = 1, uses_anonymous_args = 0
	UNWIND(.movsp ip)
	mov	ip, sp
	stmfd	sp!, {r4, r5, fp, ip, lr, pc}
	UNWIND(.pad #4)
	UNWIND(.save {r4, r5, fp, ip, lr})
	UNWIND(.setfp fp, ip, #-4)
	sub	fp, ip, #4
	ldr	r3, .L343
	mov	r4, r0
	ldr	r3, [r3, #16]
	cmp	r3, #0
	beq	.L341
	blx	r3
.L342:
	ldr	r3, .L343+4
	mov	r2, #0
	add	r0, r3, r4, lsl #2
	str	r2, [r0, #872]
	ldmfd	sp, {r4, r5, fp, sp, pc}
.L341:
	ldr	ip, .L343+8
	mov	r0, r3
	movw	r2, #1649
	ldr	r1, .L343+12
	ldr	r3, [ip, #68]
	blx	r3
	b	.L342
.L344:
	.align	2
.L343:
	.word	g_vdm_hal_fun_ptr
	.word	.LANCHOR0
	.word	vfmw_Osal_Func_Ptr_S
	.word	.LC20
	UNWIND(.fnend)
	.size	SCDDRV_ExitSleep, .-SCDDRV_ExitSleep
	.align	2
	.global	SM_ClearInst
	.type	SM_ClearInst, %function
SM_ClearInst:
	UNWIND(.fnstart)
	@ args = 0, pretend = 0, frame = 0
	@ frame_needed = 1, uses_anonymous_args = 0
	UNWIND(.movsp ip)
	mov	ip, sp
	stmfd	sp!, {r4, r5, fp, ip, lr, pc}
	UNWIND(.pad #4)
	UNWIND(.save {r4, r5, fp, ip, lr})
	UNWIND(.setfp fp, ip, #-4)
	sub	fp, ip, #4
	cmp	r0, #15
	bhi	.L347
	mov	r4, r0, asl #6
	ldr	r3, .L348
	ldr	ip, .L348+4
	sub	r0, r4, r0, asl #4
	add	r4, r3, r0
	mov	r2, #204800
	mov	r1, #0
	mvn	r5, #0
	ldr	r3, [ip, #48]
	ldr	r0, [r4, #48]
	blx	r3
	ldr	r3, [r4, #48]
	mov	r0, #0
	mvn	r4, #0
	add	r3, r3, #203776
	add	r3, r3, #848
	strd	r4, [r3, #-8]
	ldmfd	sp, {r4, r5, fp, sp, pc}
.L347:
	mvn	r0, #0
	ldmfd	sp, {r4, r5, fp, sp, pc}
.L349:
	.align	2
.L348:
	.word	.LANCHOR0
	.word	vfmw_Osal_Func_Ptr_S
	UNWIND(.fnend)
	.size	SM_ClearInst, .-SM_ClearInst
	.align	2
	.global	SM_AllocDSPCtxMem
	.type	SM_AllocDSPCtxMem, %function
SM_AllocDSPCtxMem:
	UNWIND(.fnstart)
	@ args = 0, pretend = 0, frame = 16
	@ frame_needed = 1, uses_anonymous_args = 0
	UNWIND(.movsp ip)
	mov	ip, sp
	stmfd	sp!, {r4, r5, r6, r7, r8, r9, fp, ip, lr, pc}
	UNWIND(.pad #4)
	UNWIND(.save {r4, r5, r6, r7, r8, r9, fp, ip, lr})
	UNWIND(.setfp fp, ip, #-4)
	sub	fp, ip, #4
	UNWIND(.pad #24)
	sub	sp, sp, #24
	ldr	r7, .L359
	mov	r1, #0
	mov	r2, #16
	mov	r4, r0
	sub	r0, fp, #52
	ldr	r3, [r7, #48]
	mov	r5, r1
	blx	r3
	mov	r0, #8
	bl	VFMW_GetString
	sub	r3, fp, #52
	str	r5, [sp]
	mov	r1, r5
	movw	r2, #9248
	bl	MEM_AllocMemBlock
	subs	r6, r0, #0
	bne	.L351
	ldr	r5, .L359+4
	ldr	r2, [fp, #-40]
	ldr	r1, [fp, #-48]
	ldr	r0, [fp, #-44]
	bl	MEM_AddMemRecord
	mov	r3, r4, asl #6
	sub	r3, r3, r4, asl #4
	add	r0, r5, #8
	sub	r1, fp, #52
	add	r0, r0, r3
	ldr	ip, [r7, #52]
	mov	r2, #16
	add	r4, r5, r3
	blx	ip
	ldr	r8, [fp, #-44]
	add	r2, r8, #3
	bic	r0, r2, #3
	str	r0, [r4, #24]
	rsb	r5, r8, r0
	bl	MEM_Phy2Vir
	cmp	r0, #0
	str	r0, [r4, #28]
	beq	.L358
	mov	r2, #1024
	mov	r1, r6
	str	r2, [r4, #32]
	add	r5, r5, #1024
	ldr	r3, [r7, #48]
	add	r4, r4, #40
	blx	r3
	add	r0, r5, r8
	str	r0, [r4, #-4]
	bl	MEM_Phy2Vir
	cmp	r0, #0
	str	r0, [r4]
	mov	r3, r0
	movne	r2, #8192
	ldreq	r3, [r7, #68]
	ldreq	r2, .L359+8
	movne	r1, r6
	ldreq	r1, .L359+12
	mvneq	r6, #6
	ldrne	r3, [r7, #48]
	strne	r2, [r4, #4]
	blx	r3
.L354:
	mov	r0, r6
	sub	sp, fp, #36
	ldmfd	sp, {r4, r5, r6, r7, r8, r9, fp, sp, pc}
.L351:
	ldr	r3, [r7, #68]
	mov	r0, r5
	ldr	r2, .L359+8
	mvn	r6, #6
	ldr	r1, .L359+16
	blx	r3
	b	.L354
.L358:
	ldr	r3, [r7, #68]
	mvn	r6, #6
	ldr	r2, .L359+8
	ldr	r1, .L359+20
	blx	r3
	b	.L354
.L360:
	.align	2
.L359:
	.word	vfmw_Osal_Func_Ptr_S
	.word	.LANCHOR0
	.word	.LANCHOR3+40
	.word	.LC23
	.word	.LC21
	.word	.LC22
	UNWIND(.fnend)
	.size	SM_AllocDSPCtxMem, .-SM_AllocDSPCtxMem
	.align	2
	.global	SM_DeletDSPCtxMem
	.type	SM_DeletDSPCtxMem, %function
SM_DeletDSPCtxMem:
	UNWIND(.fnstart)
	@ args = 0, pretend = 0, frame = 0
	@ frame_needed = 1, uses_anonymous_args = 0
	UNWIND(.movsp ip)
	mov	ip, sp
	stmfd	sp!, {r4, r5, fp, ip, lr, pc}
	UNWIND(.pad #4)
	UNWIND(.save {r4, r5, fp, ip, lr})
	UNWIND(.setfp fp, ip, #-4)
	sub	fp, ip, #4
	mov	r4, r0
	ldr	r0, [r0, #8]
	cmp	r0, #0
	bne	.L364
	ldr	r3, .L365
	ldr	r1, .L365+4
	ldr	r3, [r3, #68]
	blx	r3
.L363:
	ldr	r2, [r4, #12]
	ldr	r1, [r4, #4]
	ldr	r0, [r4, #8]
	sub	sp, fp, #20
	ldmfd	sp, {r4, r5, fp, sp, lr}
	b	MEM_DelMemRecord
.L364:
	ldr	r1, [r4, #4]
	bl	MEM_ReleaseMemBlock
	b	.L363
.L366:
	.align	2
.L365:
	.word	vfmw_Osal_Func_Ptr_S
	.word	.LC24
	UNWIND(.fnend)
	.size	SM_DeletDSPCtxMem, .-SM_DeletDSPCtxMem
	.align	2
	.global	SM_InstInit
	.type	SM_InstInit, %function
SM_InstInit:
	UNWIND(.fnstart)
	@ args = 0, pretend = 0, frame = 0
	@ frame_needed = 1, uses_anonymous_args = 0
	UNWIND(.movsp ip)
	mov	ip, sp
	stmfd	sp!, {r4, r5, r6, r7, fp, ip, lr, pc}
	UNWIND(.pad #4)
	UNWIND(.save {r4, r5, r6, r7, fp, ip, lr})
	UNWIND(.setfp fp, ip, #-4)
	sub	fp, ip, #4
	ldr	r4, .L370
	ldr	r6, .L370+4
	add	r5, r4, #768
.L368:
	mov	r2, #48
	mov	r0, r4
	ldr	r3, [r6, #48]
	add	r4, r4, r2
	mov	r1, #0
	blx	r3
	cmp	r4, r5
	bne	.L368
	ldmfd	sp, {r4, r5, r6, r7, fp, sp, pc}
.L371:
	.align	2
.L370:
	.word	.LANCHOR0+8
	.word	vfmw_Osal_Func_Ptr_S
	UNWIND(.fnend)
	.size	SM_InstInit, .-SM_InstInit
	.align	2
	.global	SM_OpenSCDDrv
	.type	SM_OpenSCDDrv, %function
SM_OpenSCDDrv:
	UNWIND(.fnstart)
	@ args = 0, pretend = 0, frame = 16
	@ frame_needed = 1, uses_anonymous_args = 0
	UNWIND(.movsp ip)
	mov	ip, sp
	stmfd	sp!, {r4, r5, r6, r7, r8, r9, r10, fp, ip, lr, pc}
	UNWIND(.pad #4)
	UNWIND(.save {r4, r5, r6, r7, r8, r9, r10, fp, ip, lr})
	UNWIND(.setfp fp, ip, #-4)
	sub	fp, ip, #4
	UNWIND(.pad #20)
	sub	sp, sp, #20
	ldr	r9, .L401
	cmp	r2, #1
	mov	r6, r2
	mov	r2, #49152
	mov	r4, r0
	movt	r2, 63683
	str	r1, [fp, #-48]
	str	r2, [r9, #4]
	str	r2, [r9, #876]
	bhi	.L394
	cmp	r6, #0
	bgt	.L395
	ldr	r3, .L401+4
	ldr	r3, [r3, #16]
	cmp	r3, #0
	beq	.L377
	mov	r0, r6
	blx	r3
.L378:
	mov	r7, r6, asl #7
	ldr	r8, .L401
	sub	r5, r7, r6, asl #5
	add	r10, r9, r5
	add	r3, r10, #848
	str	r3, [fp, #-60]
	ldr	r2, [r10, #852]
	cmp	r2, #1
	beq	.L393
	ldr	r9, .L401+8
	add	r7, r8, #776
	add	r7, r7, r5
	mov	r0, r6
	bl	ResetSCD
	mov	r1, #0
	mov	r2, #96
	ldr	ip, [r9, #48]
	mov	r0, r7
	mov	r5, r1
	blx	ip
	ldr	r1, .L401+12
	mov	r0, #84
	add	r2, r8, r6, lsl #2
	cmp	r7, r5
	mla	r6, r0, r6, r1
	str	r5, [r2, #872]
	str	r5, [r6, #76]
	beq	.L396
	ldr	r3, [fp, #-48]
	add	r0, r4, #15
	bic	r0, r0, #15
	str	r4, [r10, #776]
	str	r0, [r10, #784]
	rsb	r6, r4, r0
	str	r3, [r10, #780]
	add	r3, r10, #784
	str	r3, [fp, #-52]
	bl	MEM_Phy2Vir
	ldr	r3, [fp, #-52]
	add	r2, r4, #12288
	add	r2, r2, r6
	mov	r1, #12288
	str	r2, [r10, #796]
	add	r7, r6, #21504
	str	r1, [r10, #792]
	add	r1, r10, #808
	str	r1, [fp, #-56]
	str	r0, [r3, #4]
	mov	r0, r2
	bl	MEM_Phy2Vir
	add	r2, r7, r4
	mov	ip, #9216
	str	r2, [r10, #808]
	str	ip, [r10, #804]
	str	r0, [r10, #800]
	mov	r0, r2
	bl	MEM_Phy2Vir
	ldr	r1, [fp, #-56]
	cmp	r0, #0
	str	r0, [r1, #4]
	beq	.L397
	ldr	ip, [r9, #48]
	mov	r2, #512
	mov	r1, r5
	blx	ip
	add	r0, r6, #22016
	mov	r2, #512
	add	r0, r0, r4
	str	r2, [r10, #816]
	str	r0, [r10, #820]
	bl	MEM_Phy2Vir
	add	r2, r10, #824
	cmp	r0, #0
	str	r0, [r10, #824]
	beq	.L398
	mov	r6, #278528
	mov	r1, r5
	str	r6, [r2, #4]
	mov	r2, r6
	ldr	r3, [r9, #48]
	add	ip, r10, #832
	str	ip, [fp, #-56]
	blx	r3
	add	r0, r7, r6
	add	r0, r0, #512
	add	r0, r0, r4
	str	r0, [r10, #832]
	bl	MEM_Phy2Vir
	ldr	ip, [fp, #-56]
	cmp	r0, #0
	str	r0, [ip, #4]
	beq	.L399
	mov	r2, r6
	ldr	ip, [r9, #48]
	mov	r1, r5
	add	r7, r7, #557056
	blx	ip
	ldr	r0, [r10, #832]
	str	r6, [r10, #840]
	add	r6, r10, #840
	bl	WriteCabacTabDsp
	add	r0, r4, r7
	add	r0, r0, #636
	add	r0, r0, #3
	bic	r0, r0, #127
	str	r0, [r8]
	bl	MEM_Phy2Vir
	cmp	r0, #0
	str	r0, [r8, #880]
	beq	.L400
	ldr	r3, [fp, #-48]
	add	r7, r7, #18432
	ldr	r2, [r8, #4]
	mov	r1, #17920
	cmp	r3, r7
	str	r5, [r10, #848]
	str	r1, [r8, #884]
	str	r2, [r6, #4]
	blt	.L393
	ldr	r3, [fp, #-52]
	ldr	r2, [r3, #4]
	cmp	r2, #0
	beq	.L393
	ldr	r3, [r10, #800]
	cmp	r3, #0
	beq	.L393
	ldr	r2, [fp, #-60]
	mov	r0, r5
	mov	r3, #1
	str	r3, [r2, #4]
.L375:
	sub	sp, fp, #40
	ldmfd	sp, {r4, r5, r6, r7, r8, r9, r10, fp, sp, pc}
.L377:
	ldr	ip, .L401+8
	mov	r0, r3
	movw	r2, #1916
	ldr	r1, .L401+16
	ldr	r3, [ip, #68]
	blx	r3
	b	.L378
.L396:
	ldr	ip, [r9, #68]
	mov	r0, r7
	movw	r3, #1939
	ldr	r2, .L401+20
	ldr	r1, .L401+24
	blx	ip
.L393:
	mvn	r0, #6
	b	.L375
.L395:
	ldr	ip, .L401+8
	movw	r3, #1912
	ldr	r2, .L401+20
	mov	r0, #0
	ldr	r1, .L401+28
	ldr	ip, [ip, #68]
	blx	ip
	mvn	r0, #6
	b	.L375
.L394:
	ldr	r3, .L401+8
	mov	r0, #0
	ldr	r2, .L401+20
	ldr	r1, .L401+32
	ldr	r3, [r3, #68]
	blx	r3
	mvn	r0, #6
	b	.L375
.L397:
	ldr	r3, [r9, #68]
	ldr	r2, .L401+20
	ldr	r1, .L401+36
	blx	r3
	mvn	r0, #0
	b	.L375
.L398:
	ldr	r3, [r9, #68]
	ldr	r2, .L401+20
	ldr	r1, .L401+40
	blx	r3
	mvn	r0, #0
	b	.L375
.L399:
	ldr	r3, [r9, #68]
	ldr	r2, .L401+20
	ldr	r1, .L401+44
	blx	r3
	mvn	r0, #0
	b	.L375
.L400:
	ldr	r3, [r9, #68]
	ldr	r2, .L401+20
	ldr	r1, .L401+48
	blx	r3
	mvn	r0, #0
	b	.L375
.L402:
	.align	2
.L401:
	.word	.LANCHOR0
	.word	g_vdm_hal_fun_ptr
	.word	vfmw_Osal_Func_Ptr_S
	.word	g_VfmwGlobalStat
	.word	.LC20
	.word	.LANCHOR3+60
	.word	.LC27
	.word	.LC26
	.word	.LC25
	.word	.LC28
	.word	.LC29
	.word	.LC30
	.word	.LC31
	UNWIND(.fnend)
	.size	SM_OpenSCDDrv, .-SM_OpenSCDDrv
	.align	2
	.global	SM_CloseSCDDrv
	.type	SM_CloseSCDDrv, %function
SM_CloseSCDDrv:
	UNWIND(.fnstart)
	@ args = 0, pretend = 0, frame = 0
	@ frame_needed = 1, uses_anonymous_args = 0
	UNWIND(.movsp ip)
	mov	ip, sp
	stmfd	sp!, {r4, r5, r6, r7, fp, ip, lr, pc}
	UNWIND(.pad #4)
	UNWIND(.save {r4, r5, r6, r7, fp, ip, lr})
	UNWIND(.setfp fp, ip, #-4)
	sub	fp, ip, #4
	ldr	r3, .L413
	mov	r4, r0
	mov	r0, #0
	add	r5, r3, #768
	mov	ip, r5
.L405:
	ldr	r2, [r3, #40]
	add	r3, r3, #48
	cmp	r2, #0
	add	r1, r2, #188416
	beq	.L404
	ldr	r2, [r1, #2360]
	cmp	r2, #0
	beq	.L404
	ldr	r2, [r1, #2348]
	cmp	r2, #0
	strle	r0, [r1, #2360]
.L404:
	cmp	r3, ip
	bne	.L405
	mov	r0, r4
	mov	r6, #0
	bl	ResetSCD
	ldr	ip, .L413+4
	mov	r3, #84
	ldr	r2, .L413+8
	mov	r0, r4, asl #7
	mov	r1, r6
	mla	r3, r3, r4, ip
	sub	r0, r0, r4, asl #5
	ldr	ip, [r2, #48]
	add	r0, r5, r0
	mov	r2, #96
	str	r6, [r3, #76]
	blx	ip
	mov	r0, r6
	ldmfd	sp, {r4, r5, r6, r7, fp, sp, pc}
.L414:
	.align	2
.L413:
	.word	.LANCHOR0+8
	.word	g_VfmwGlobalStat
	.word	vfmw_Osal_Func_Ptr_S
	UNWIND(.fnend)
	.size	SM_CloseSCDDrv, .-SM_CloseSCDDrv
	.align	2
	.global	SM_CfgBuf
	.type	SM_CfgBuf, %function
SM_CfgBuf:
	UNWIND(.fnstart)
	@ args = 0, pretend = 0, frame = 0
	@ frame_needed = 1, uses_anonymous_args = 0
	UNWIND(.movsp ip)
	mov	ip, sp
	stmfd	sp!, {r3, r4, r5, r6, r7, r8, r9, r10, fp, ip, lr, pc}
	UNWIND(.pad #4)
	UNWIND(.save {r3, r4, r5, r6, r7, r8, r9, r10, fp, ip, lr})
	UNWIND(.setfp fp, ip, #-4)
	sub	fp, ip, #4
	cmp	r0, #15
	bhi	.L423
	cmp	r1, #0
	bne	.L424
	mov	r1, r0, asl #6
	ldr	r2, .L425
	sub	r0, r1, r0, asl #4
	add	r0, r2, r0
	ldr	r3, [r0, #48]
	cmn	r2, #776
	cmpne	r3, #0
	moveq	r1, #1
	movne	r1, #0
	beq	.L419
	add	r3, r3, #188416
	ldr	r0, [r3, #2348]
	cmp	r0, #0
	ldmeqfd	sp, {r3, r4, r5, r6, r7, r8, r9, r10, fp, sp, pc}
	ldr	ip, [r2, #816]
	mov	r0, r1
	ldr	r10, [r2, #784]
	ldr	r9, [r2, #788]
	ldr	r8, [r2, #792]
	ldr	r7, [r2, #796]
	ldr	r6, [r2, #800]
	ldr	r5, [r2, #804]
	ldr	r4, [r2, #808]
	ldr	lr, [r2, #812]
	str	ip, [r3, #2308]
	str	r1, [r3, #2348]
	ldr	ip, [r2, #820]
	ldr	r1, [r2, #824]
	ldr	r2, [r2, #828]
	str	ip, [r3, #2312]
	str	r10, [r3, #2248]
	str	r2, [r3, #2320]
	mov	r2, #1152
	str	r9, [r3, #2252]
	str	r8, [r3, #2256]
	str	r7, [r3, #2260]
	str	r6, [r3, #2264]
	str	r5, [r3, #2268]
	str	r4, [r3, #2300]
	str	lr, [r3, #2304]
	str	r1, [r3, #2316]
	str	r2, [r3, #2272]
	ldmfd	sp, {r3, r4, r5, r6, r7, r8, r9, r10, fp, sp, pc}
.L419:
	mvn	r0, #0
	ldmfd	sp, {r3, r4, r5, r6, r7, r8, r9, r10, fp, sp, pc}
.L423:
	ldr	ip, .L425+4
	mov	r3, r0
	movw	r2, #2363
	ldr	r1, .L425+8
	mov	r0, #0
	ldr	ip, [ip, #68]
	blx	ip
	mvn	r0, #0
	ldmfd	sp, {r3, r4, r5, r6, r7, r8, r9, r10, fp, sp, pc}
.L424:
	ldr	ip, .L425+4
	mov	r3, r1
	movw	r2, #2369
	ldr	r1, .L425+12
	mov	r0, #0
	ldr	ip, [ip, #68]
	blx	ip
	mvn	r0, #0
	ldmfd	sp, {r3, r4, r5, r6, r7, r8, r9, r10, fp, sp, pc}
.L426:
	.align	2
.L425:
	.word	.LANCHOR0
	.word	vfmw_Osal_Func_Ptr_S
	.word	.LC32
	.word	.LC33
	UNWIND(.fnend)
	.size	SM_CfgBuf, .-SM_CfgBuf
	.align	2
	.global	SM_Start
	.type	SM_Start, %function
SM_Start:
	UNWIND(.fnstart)
	@ args = 0, pretend = 0, frame = 0
	@ frame_needed = 1, uses_anonymous_args = 0
	UNWIND(.movsp ip)
	mov	ip, sp
	stmfd	sp!, {fp, ip, lr, pc}
	UNWIND(.pad #4)
	UNWIND(.save {fp, ip, lr})
	UNWIND(.setfp fp, ip, #-4)
	sub	fp, ip, #4
	ldr	r3, .L432
	mov	r2, r0, asl #6
	sub	r0, r2, r0, asl #4
	add	r0, r3, r0
	ldr	r3, [r0, #48]
	cmp	r3, #0
	beq	.L431
	ldr	r2, [r3, #64]
	cmp	r2, #0
	beq	.L431
	add	r3, r3, #188416
	ldr	r0, [r3, #2360]
	cmp	r0, #0
	bne	.L431
	mov	r2, #1
	str	r2, [r3, #2360]
	ldmfd	sp, {fp, sp, pc}
.L431:
	mvn	r0, #6
	ldmfd	sp, {fp, sp, pc}
.L433:
	.align	2
.L432:
	.word	.LANCHOR0
	UNWIND(.fnend)
	.size	SM_Start, .-SM_Start
	.align	2
	.global	SM_Stop
	.type	SM_Stop, %function
SM_Stop:
	UNWIND(.fnstart)
	@ args = 0, pretend = 0, frame = 0
	@ frame_needed = 1, uses_anonymous_args = 0
	UNWIND(.movsp ip)
	mov	ip, sp
	stmfd	sp!, {fp, ip, lr, pc}
	UNWIND(.pad #4)
	UNWIND(.save {fp, ip, lr})
	UNWIND(.setfp fp, ip, #-4)
	sub	fp, ip, #4
	ldr	r3, .L441
	mov	r2, r0, asl #6
	sub	r0, r2, r0, asl #4
	add	r0, r3, r0
	ldr	r0, [r0, #48]
	cmp	r0, #0
	ldmeqfd	sp, {fp, sp, pc}
	add	r3, r0, #188416
	ldr	r0, [r3, #2360]
	cmp	r0, #0
	ldmeqfd	sp, {fp, sp, pc}
	ldr	r2, [r3, #2348]
	cmp	r2, #0
	movle	r0, #0
	strle	r0, [r3, #2360]
	mvngt	r0, #6
	ldmfd	sp, {fp, sp, pc}
.L442:
	.align	2
.L441:
	.word	.LANCHOR0
	UNWIND(.fnend)
	.size	SM_Stop, .-SM_Stop
	.align	2
	.global	SM_GetInfo
	.type	SM_GetInfo, %function
SM_GetInfo:
	UNWIND(.fnstart)
	@ args = 0, pretend = 0, frame = 0
	@ frame_needed = 1, uses_anonymous_args = 0
	UNWIND(.movsp ip)
	mov	ip, sp
	stmfd	sp!, {fp, ip, lr, pc}
	UNWIND(.pad #4)
	UNWIND(.save {fp, ip, lr})
	UNWIND(.setfp fp, ip, #-4)
	sub	fp, ip, #4
	cmp	r0, #15
	bhi	.L452
	mov	r2, r0, asl #6
	ldr	r3, .L461
	sub	r0, r2, r0, asl #4
	add	r0, r3, r0
	ldr	r0, [r0, #48]
	cmp	r0, #0
	beq	.L460
	add	r2, r0, #188416
	add	r3, r0, #200704
	cmn	r0, #104
	add	r0, r0, #98304
	ldr	ip, [r2, #2360]
	strb	ip, [r1]
	ldr	r3, [r3, #3940]
	str	r3, [r1, #20]
	beq	.L446
	ldr	r3, [r0, #108]
	ldr	ip, [r0, #104]
	subs	r3, r3, ip
	addmi	r3, r3, #1024
	strmi	r3, [r1, #4]
	strpl	r3, [r1, #4]
.L448:
	ldr	r3, [r0, #124]
	str	r3, [r1, #12]
	ldr	ip, [r0, #116]
	rsb	r3, ip, r3
	str	r3, [r1, #12]
.L446:
	adds	r0, r0, #128
	ldmeqfd	sp, {fp, sp, pc}
	ldr	r3, [r2, #2188]
	ldr	r0, [r2, #2184]
	subs	r3, r3, r0
	addmi	r3, r3, #1152
	strmi	r3, [r1, #8]
	strpl	r3, [r1, #8]
.L450:
	ldr	r3, [r2, #2216]
	mov	r0, #0
	str	r3, [r1, #16]
	ldmfd	sp, {fp, sp, pc}
.L460:
	cmp	r1, #0
	beq	.L452
	strb	r0, [r1]
	mvn	r0, #0
	ldmfd	sp, {fp, sp, pc}
.L452:
	mvn	r0, #0
	ldmfd	sp, {fp, sp, pc}
.L462:
	.align	2
.L461:
	.word	.LANCHOR0
	UNWIND(.fnend)
	.size	SM_GetInfo, .-SM_GetInfo
	.align	2
	.global	SM_PushRaw
	.type	SM_PushRaw, %function
SM_PushRaw:
	UNWIND(.fnstart)
	@ args = 0, pretend = 0, frame = 0
	@ frame_needed = 1, uses_anonymous_args = 0
	UNWIND(.movsp ip)
	mov	ip, sp
	stmfd	sp!, {fp, ip, lr, pc}
	UNWIND(.pad #4)
	UNWIND(.save {fp, ip, lr})
	UNWIND(.setfp fp, ip, #-4)
	sub	fp, ip, #4
	ldr	r3, .L468
	mov	r2, r0, asl #6
	ldr	lr, [r1]
	sub	r0, r2, r0, asl #4
	add	r0, r3, r0
	cmp	lr, #0
	ldr	r0, [r0, #48]
	beq	.L464
	ldr	r3, [r1, #4]
	cmp	r0, #0
	cmpne	r3, #0
	beq	.L464
	add	r0, r0, #104
	sub	sp, fp, #12
	ldmia	sp, {fp, sp, lr}
	b	InsertRawPacket
.L464:
	mvn	r0, #0
	ldmfd	sp, {fp, sp, pc}
.L469:
	.align	2
.L468:
	.word	.LANCHOR0
	UNWIND(.fnend)
	.size	SM_PushRaw, .-SM_PushRaw
	.align	2
	.global	SM_CopyRawToSeg
	.type	SM_CopyRawToSeg, %function
SM_CopyRawToSeg:
	UNWIND(.fnstart)
	@ args = 0, pretend = 0, frame = 32
	@ frame_needed = 1, uses_anonymous_args = 0
	UNWIND(.movsp ip)
	mov	ip, sp
	stmfd	sp!, {r4, r5, r6, r7, r8, r9, r10, fp, ip, lr, pc}
	UNWIND(.pad #4)
	UNWIND(.save {r4, r5, r6, r7, r8, r9, r10, fp, ip, lr})
	UNWIND(.setfp fp, ip, #-4)
	sub	fp, ip, #4
	UNWIND(.pad #36)
	sub	sp, sp, #36
	ldr	r3, .L501
	mov	r2, r0, asl #6
	str	r0, [fp, #-72]
	sub	r2, r2, r0, asl #4
	mov	r7, r1
	add	r3, r3, r2
	ldr	r5, [r3, #48]
	cmp	r5, #0
	beq	.L488
	cmn	r5, #104
	add	r8, r5, #98304
	add	r2, r8, #128
	str	r2, [fp, #-68]
	movne	r3, #0
	moveq	r3, #1
	cmn	r8, #128
	add	r2, r5, #104
	str	r2, [fp, #-64]
	movne	r10, #0
	moveq	r10, #1
	orr	r3, r10, r3
	cmp	r7, #0
	orreq	r3, r3, #1
	cmp	r3, #0
	bne	.L488
	ldr	lr, [r8, #108]
	ldr	r3, [r8, #104]
	cmp	lr, r3
	beq	.L474
	mov	r2, r3, asl #5
	mov	r9, r3, asl #7
	rsb	r1, r2, r9
	str	r2, [fp, #-48]
	add	r1, r5, r1
	mov	ip, r2
	mov	r4, #1
	mov	r2, r9
	ldr	r6, [r1, #112]
	b	.L473
.L475:
	add	r4, r4, #1
	ldr	r0, [r0, #112]
	cmp	r4, #1024
	add	r6, r6, r0
	movls	r1, #0
	movhi	r1, #1
	cmp	r3, lr
	orreq	r1, r1, #1
	cmp	r1, #0
	bne	.L474
.L473:
	rsb	r1, ip, r2
	add	r3, r3, #1
	add	r1, r5, r1
	ubfx	r3, r3, #0, #10
	ldrb	r1, [r1, #156]	@ zero_extendqisi2
	mov	ip, r3, asl #5
	mov	r2, r3, asl #7
	cmp	r1, #0
	rsb	r0, ip, r2
	add	r0, r5, r0
	bne	.L475
	cmp	r10, #0
	addne	r3, r5, #188416
	bne	.L476
	ldr	r3, .L501+4
	mov	r2, #92160
	mov	r1, r10
	add	r0, r8, #136
	ldr	r3, [r3, #48]
	blx	r3
	add	r3, r5, #188416
	ldr	r2, [r3, #2200]
	str	r10, [r3, #2184]
	str	r10, [r3, #2188]
	str	r10, [r3, #2192]
	str	r2, [r3, #2208]
	str	r2, [r3, #2212]
.L476:
	ldr	r2, [r3, #2204]
	add	r2, r2, #-67108863
	add	r2, r2, #66846720
	cmp	r2, r6
	ble	.L498
	ldr	r2, [r5, #56]
	ldr	r0, [r3, #2200]
	sub	r3, r2, #10
	ldr	r10, [r8, #128]
	bics	r3, r3, #2
	bne	.L478
	ldr	r3, .L501+8
	ldr	r3, [r3]
	ands	r3, r3, #1
	streqb	r3, [r10]
	addeq	r10, r10, #1
	ldreq	r2, [r5, #56]
.L478:
	ldr	r3, [fp, #-48]
	cmp	r2, #12
	ldr	ip, [r8, #104]
	rsb	r3, r3, r9
	add	r3, r5, r3
	ldr	r1, [r3, #108]
	ldr	r3, [r3, #112]
	str	r3, [fp, #-52]
	beq	.L499
.L479:
	str	r0, [r7, #8]
	str	ip, [fp, #-60]
	str	r1, [fp, #-56]
	bl	MEM_Phy2Vir
	ldr	r3, [fp, #-48]
	cmp	r4, #0
	ldr	ip, [fp, #-60]
	rsb	r9, r3, r9
	mov	r3, #1
	add	r9, r5, r9
	str	r0, [r7]
	rsb	r0, r0, r10
	str	r0, [r7, #12]
	ldrd	r0, [r9, #120]
	strd	r0, [r7, #24]
	ldrd	r0, [r9, #120]
	strd	r0, [r7, #32]
	ldrd	r0, [r9, #136]
	strb	r3, [r7, #5]
	strd	r0, [r7, #40]
	ldr	r1, [fp, #-56]
	beq	.L486
	cmp	r1, #0
	cmpne	r10, #0
	beq	.L474
	ldr	r3, .L501+4
	mov	r2, #0
	mov	r8, ip, asl #7
	str	r6, [fp, #-76]
	str	r4, [fp, #-60]
	mov	r6, ip
	str	r3, [fp, #-56]
	mov	r3, ip, asl #5
	mov	lr, r1
	mov	ip, r2
	mov	r4, r3
	mov	r3, r5
	ldr	r5, [fp, #-52]
	b	.L484
.L485:
	cmp	r10, #0
	cmpne	lr, #0
	beq	.L474
.L484:
	str	r3, [fp, #-48]
	mov	r1, lr
	ldr	r3, [fp, #-56]
	mov	r2, r5
	mov	r0, r10
	str	ip, [fp, #-52]
	rsb	r4, r4, r8
	add	r6, r6, #1
	ldr	r3, [r3, #52]
	ubfx	r6, r6, #0, #10
	blx	r3
	ldr	r3, [fp, #-48]
	ldr	r1, [r7, #12]
	add	r10, r10, r5
	add	r4, r3, r4
	ldr	ip, [fp, #-52]
	add	r5, r1, r5
	ldr	r1, [fp, #-60]
	ldrb	r0, [r4, #157]	@ zero_extendqisi2
	mov	r8, r6, asl #7
	mov	r4, r6, asl #5
	add	ip, ip, #1
	str	r5, [r7, #12]
	rsb	r2, r4, r8
	strb	r0, [r7, #6]
	cmp	ip, r1
	ldrd	r0, [r9, #144]
	add	r2, r3, r2
	ldr	lr, [r2, #108]
	ldr	r5, [r2, #112]
	strd	r0, [r7, #48]
	ldr	r2, [r9, #160]
	str	r2, [r7, #56]
	ldr	r2, [r9, #164]
	str	r2, [r7, #60]
	ldr	r2, [r9, #168]
	str	r2, [r7, #64]
	ldr	r2, [r9, #172]
	str	r2, [r7, #68]
	bne	.L485
	ldr	r6, [fp, #-76]
.L486:
	ldr	r2, [fp, #-72]
	mov	r1, r7
	ldr	r0, [fp, #-68]
	bl	InsertStreamSeg
	mov	r1, r6
	ldr	r0, [fp, #-64]
	bl	DeleteRawLen
	mov	r0, #0
	sub	sp, fp, #40
	ldmfd	sp, {r4, r5, r6, r7, r8, r9, r10, fp, sp, pc}
.L474:
	mvn	r0, #3
.L471:
	sub	sp, fp, #40
	ldmfd	sp, {r4, r5, r6, r7, r8, r9, r10, fp, sp, pc}
.L499:
	ldr	r3, .L501+8
	ldr	r2, [fp, #-52]
	ldr	r3, [r3]
	cmp	r2, #0
	moveq	r3, #0
	andne	r3, r3, #1
	cmp	r3, #0
	beq	.L479
	cmp	r2, #2
	bgt	.L500
	cmp	r4, #1
	add	r3, ip, #1
	ubfx	ip, r3, #0, #10
	bls	.L474
	mov	r8, ip, asl #7
	sub	r3, r8, ip, asl #5
	add	r3, r5, r3
	ldr	r2, [r3, #112]
	ldr	r1, [r3, #108]
	ldr	r3, [fp, #-52]
	add	r2, r3, r2
	cmp	r2, #2
	ble	.L481
	add	r3, ip, #1020
	sub	r2, r2, #3
	add	r3, r3, #3
	str	r2, [fp, #-52]
	ubfx	r3, r3, #0, #10
	sub	r4, r4, #1
	mov	r2, r3, asl #7
	sub	r3, r2, r3, asl #5
	add	r3, r5, r3
	ldr	lr, [r3, #112]
	rsb	lr, lr, #3
	add	r1, r1, lr
	b	.L479
.L498:
	ldr	r4, .L501+4
	mov	r2, r6
	ldr	r1, .L501+12
	mov	r0, #0
	ldr	r3, [r4, #68]
	blx	r3
	mov	r1, r6
	ldr	r0, [fp, #-64]
	bl	DeleteRawLen
	cmp	r0, #0
	beq	.L471
	ldr	r3, [r4, #68]
	movw	r2, #2632
	ldr	r1, .L501+16
	mov	r0, #0
	blx	r3
	mov	r0, #0
	b	.L471
.L500:
	sub	r3, r2, #3
	add	r1, r1, #3
	str	r3, [fp, #-52]
	b	.L479
.L488:
	mvn	r0, #0
	b	.L471
.L481:
	cmp	r4, #2
	add	r3, ip, #1
	ubfx	ip, r3, #0, #10
	bls	.L474
	mov	r8, ip, asl #7
	sub	r1, r8, ip, asl #5
	add	r1, r5, r1
	ldr	r3, [r1, #112]
	ldr	lr, [r1, #108]
	add	r2, r2, r3
	cmp	r2, #2
	ble	.L474
	add	r3, ip, #1020
	sub	r2, r2, #3
	str	r2, [fp, #-52]
	sub	r4, r4, #2
	mov	r1, r3
	add	r3, r3, #3
	add	r1, r1, #2
	ubfx	r3, r3, #0, #10
	ubfx	r8, r1, #0, #10
	mov	r1, r3, asl #7
	sub	r3, r1, r3, asl #5
	mov	r2, r8, asl #7
	sub	r2, r2, r8, asl #5
	add	r3, r5, r3
	add	r2, r5, r2
	ldr	r3, [r3, #112]
	ldr	r2, [r2, #112]
	rsb	r1, r3, #3
	rsb	r1, r2, r1
	add	r1, lr, r1
	b	.L479
.L502:
	.align	2
.L501:
	.word	.LANCHOR0
	.word	vfmw_Osal_Func_Ptr_S
	.word	g_VdmCharacter
	.word	.LC34
	.word	.LC35
	UNWIND(.fnend)
	.size	SM_CopyRawToSeg, .-SM_CopyRawToSeg
	.align	2
	.global	SM_CopyYuvToDnr
	.type	SM_CopyYuvToDnr, %function
SM_CopyYuvToDnr:
	UNWIND(.fnstart)
	@ args = 0, pretend = 0, frame = 0
	@ frame_needed = 1, uses_anonymous_args = 0
	UNWIND(.movsp ip)
	mov	ip, sp
	stmfd	sp!, {r4, r5, r6, r7, r8, r9, fp, ip, lr, pc}
	UNWIND(.pad #4)
	UNWIND(.save {r4, r5, r6, r7, r8, r9, fp, ip, lr})
	UNWIND(.setfp fp, ip, #-4)
	sub	fp, ip, #4
	ldr	r3, .L521
	mov	r2, r0, asl #6
	sub	r0, r2, r0, asl #4
	add	r0, r3, r0
	ldr	r7, [r0, #48]
	cmp	r7, #0
	beq	.L513
	add	r0, r7, #98304
	add	r5, r7, #104
	cmn	r0, #128
	movne	r4, #0
	moveq	r4, #1
	cmn	r0, #128
	cmnne	r7, #104
	beq	.L513
	ldr	r6, [r0, #104]
	ldr	r3, [r0, #108]
	cmp	r3, r6
	beq	.L514
	cmp	r4, #0
	bne	.L505
	ldr	r3, .L521+4
	mov	r2, #92160
	add	r0, r0, #136
	mov	r1, r4
	ldr	r3, [r3, #48]
	blx	r3
	add	r2, r7, #188416
	ldr	r3, [r2, #2200]
	str	r4, [r2, #2184]
	str	r4, [r2, #2188]
	str	r4, [r2, #2192]
	str	r3, [r2, #2208]
	str	r3, [r2, #2212]
.L505:
	mov	r4, r6, asl #5
	mov	r6, r6, asl #7
	rsb	r2, r4, r6
	add	r2, r7, r2
	ldr	r0, [r2, #108]
	ldr	ip, [r0]
	ldr	r3, [r0, #4]
	sub	r1, ip, #32
	cmp	r1, #1888
	bhi	.L506
	sub	r1, r3, #32
	cmp	r1, #1056
	bls	.L519
.L506:
	ldr	r8, .L521+4
	rsb	r6, r4, r6
	add	r6, r7, r6
	ldr	r1, .L521+8
	mov	r0, #0
	ldr	r3, [r8, #68]
	blx	r3
	mov	r0, r5
	ldr	r1, [r6, #112]
	bl	DeleteRawLen
	cmp	r0, #0
	bne	.L520
.L518:
	mov	r0, #0
	ldmfd	sp, {r4, r5, r6, r7, r8, r9, fp, sp, pc}
.L519:
	ldr	r1, [r2, #112]
	mov	r2, #51712
	movt	r2, 47
	sub	lr, r1, #1552
	cmp	lr, r2
	bhi	.L506
	mul	r3, r3, ip
	add	r2, r7, #188416
	ldr	r2, [r2, #2204]
	add	r2, r2, #-67108863
	add	r3, r3, r3, lsl #1
	add	r2, r2, #66846720
	add	r3, r3, r3, lsr #31
	mov	r3, r3, asr #1
	cmp	r2, r3
	ble	.L506
	add	r3, r3, #15
	cmp	r1, r3
	ble	.L506
	ldr	r3, [r0, #8]
	movw	ip, #1916
	ldr	r2, [r0, #12]
	sub	r3, r3, #4
	cmp	r3, ip
	bhi	.L509
	sub	r2, r2, #4
	movw	r3, #1084
	cmp	r2, r3
	bls	.L510
.L509:
	ldr	r8, .L521+4
	mov	r0, #0
	ldr	r1, .L521+12
	rsb	r6, r4, r6
	ldr	r3, [r8, #68]
	blx	r3
	add	r3, r7, r6
	mov	r0, r5
	ldr	r1, [r3, #112]
	bl	DeleteRawLen
	cmp	r0, #0
	beq	.L518
	ldr	r3, [r8, #68]
	movw	r2, #2859
	ldr	r1, .L521+16
	mov	r0, #0
	blx	r3
	mov	r0, #0
	ldmfd	sp, {r4, r5, r6, r7, r8, r9, fp, sp, pc}
.L520:
	ldr	r3, [r8, #68]
	movw	r2, #2844
	ldr	r1, .L521+16
	mov	r0, #0
	blx	r3
	mov	r0, #0
	ldmfd	sp, {r4, r5, r6, r7, r8, r9, fp, sp, pc}
.L513:
	mvn	r0, #0
	ldmfd	sp, {r4, r5, r6, r7, r8, r9, fp, sp, pc}
.L514:
	mvn	r0, #3
	ldmfd	sp, {r4, r5, r6, r7, r8, r9, fp, sp, pc}
.L510:
	mov	r0, r5
	bl	DeleteRawLen
	b	.L518
.L522:
	.align	2
.L521:
	.word	.LANCHOR0
	.word	vfmw_Osal_Func_Ptr_S
	.word	.LC36
	.word	.LC37
	.word	.LC35
	UNWIND(.fnend)
	.size	SM_CopyYuvToDnr, .-SM_CopyYuvToDnr
	.align	2
	.global	SM_ReadStreamSeg
	.type	SM_ReadStreamSeg, %function
SM_ReadStreamSeg:
	UNWIND(.fnstart)
	@ args = 0, pretend = 0, frame = 0
	@ frame_needed = 1, uses_anonymous_args = 0
	UNWIND(.movsp ip)
	mov	ip, sp
	stmfd	sp!, {r4, r5, r6, r7, r8, r9, fp, ip, lr, pc}
	UNWIND(.pad #4)
	UNWIND(.save {r4, r5, r6, r7, r8, r9, fp, ip, lr})
	UNWIND(.setfp fp, ip, #-4)
	sub	fp, ip, #4
	ldr	r3, .L538
	mov	r2, r0, asl #6
	sub	r2, r2, r0, asl #4
	mov	r5, r0
	add	r3, r3, r2
	mov	r6, r1
	ldr	r4, [r3, #48]
	cmp	r4, #0
	cmpne	r1, #0
	beq	.L529
	ldr	r2, [r4, #56]
	sub	r3, r2, #8
	sub	r1, r2, #4
	cmp	r1, #1
	cmphi	r3, #5
	movls	r3, #1
	movhi	r3, #0
	cmp	r2, #15
	orreq	r3, r3, #1
	cmp	r3, #0
	bne	.L525
	cmp	r2, #1
	beq	.L537
.L526:
	add	r0, r4, #98304
	mov	r1, r6
	add	r0, r0, #128
	bl	GetStreamSeg
	subs	r7, r0, #0
	bne	.L527
	ldr	r9, .L538+4
	ldr	r3, [r9, r5, asl #2]
	cmp	r3, #0
	beq	.L528
	ldr	r8, .L538+8
	ldr	r3, [r8, #16]
	blx	r3
	ldr	r3, [r8, #44]
	ldr	r2, [r9, r5, asl #2]
	ldr	r1, [r6, #12]
	ldr	r0, [r6]
	blx	r3
	ldr	r3, [r8, #12]
	mov	r0, r7
	blx	r3
.L528:
	add	r4, r4, #200704
	mov	r3, #0
	mov	r0, r3
	str	r3, [r4, #3940]
	ldmfd	sp, {r4, r5, r6, r7, r8, r9, fp, sp, pc}
.L537:
	ldr	r3, [r4, #72]
	cmp	r3, #0
	bne	.L526
.L525:
	mov	r1, r6
	mov	r0, r5
	bl	SM_CopyRawToSeg
	cmp	r0, #0
	beq	.L526
	ldr	r3, .L538+8
	mov	r0, #26
	ldr	r1, .L538+12
	mvn	r7, #6
	ldr	r3, [r3, #68]
	blx	r3
.L527:
	add	r4, r4, #200704
	mov	r0, r7
	ldr	r3, [r4, #3940]
	add	r3, r3, #1
	str	r3, [r4, #3940]
	ldmfd	sp, {r4, r5, r6, r7, r8, r9, fp, sp, pc}
.L529:
	mvn	r0, #0
	ldmfd	sp, {r4, r5, r6, r7, r8, r9, fp, sp, pc}
.L539:
	.align	2
.L538:
	.word	.LANCHOR0
	.word	vfmw_save_seg_file
	.word	vfmw_Osal_Func_Ptr_S
	.word	.LC38
	UNWIND(.fnend)
	.size	SM_ReadStreamSeg, .-SM_ReadStreamSeg
	.align	2
	.global	SM_ReleaseStreamSeg
	.type	SM_ReleaseStreamSeg, %function
SM_ReleaseStreamSeg:
	UNWIND(.fnstart)
	@ args = 0, pretend = 0, frame = 0
	@ frame_needed = 1, uses_anonymous_args = 0
	UNWIND(.movsp ip)
	mov	ip, sp
	stmfd	sp!, {fp, ip, lr, pc}
	UNWIND(.pad #4)
	UNWIND(.save {fp, ip, lr})
	UNWIND(.setfp fp, ip, #-4)
	sub	fp, ip, #4
	ldr	r3, .L542
	mov	r2, r0, asl #6
	sub	r0, r2, r0, asl #4
	add	r0, r3, r0
	ldr	r0, [r0, #48]
	cmp	r0, #0
	beq	.L541
	add	r0, r0, #98304
	add	r0, r0, #128
	sub	sp, fp, #12
	ldmia	sp, {fp, sp, lr}
	b	ReleaseStreamSeg
.L541:
	mvn	r0, #0
	ldmfd	sp, {fp, sp, pc}
.L543:
	.align	2
.L542:
	.word	.LANCHOR0
	UNWIND(.fnend)
	.size	SM_ReleaseStreamSeg, .-SM_ReleaseStreamSeg
	.align	2
	.global	SM_GiveThreadEvent
	.type	SM_GiveThreadEvent, %function
SM_GiveThreadEvent:
	UNWIND(.fnstart)
	@ args = 0, pretend = 0, frame = 0
	@ frame_needed = 1, uses_anonymous_args = 0
	UNWIND(.movsp ip)
	mov	ip, sp
	stmfd	sp!, {fp, ip, lr, pc}
	UNWIND(.pad #4)
	UNWIND(.save {fp, ip, lr})
	UNWIND(.setfp fp, ip, #-4)
	sub	fp, ip, #4
	ldr	r3, .L545
	mov	r0, #0
	ldr	r3, [r3, #128]
	sub	sp, fp, #12
	ldmia	sp, {fp, sp, lr}
	bx	r3
.L546:
	.align	2
.L545:
	.word	vfmw_Osal_Func_Ptr_S
	UNWIND(.fnend)
	.size	SM_GiveThreadEvent, .-SM_GiveThreadEvent
	.align	2
	.global	CalcInstBlockTime
	.type	CalcInstBlockTime, %function
CalcInstBlockTime:
	UNWIND(.fnstart)
	@ args = 0, pretend = 0, frame = 0
	@ frame_needed = 1, uses_anonymous_args = 0
	UNWIND(.movsp ip)
	mov	ip, sp
	stmfd	sp!, {r4, r5, fp, ip, lr, pc}
	UNWIND(.pad #4)
	UNWIND(.save {r4, r5, fp, ip, lr})
	UNWIND(.setfp fp, ip, #-4)
	sub	fp, ip, #4
	ldr	r3, .L553
	mov	r2, r0, asl #6
	sub	r2, r2, r0, asl #4
	mov	r5, r1
	add	r3, r3, r2
	ldr	r4, [r3, #48]
	cmp	r4, #0
	beq	.L552
	ldr	r3, .L553+4
	add	r4, r4, #200704
	ldr	r3, [r3]
	blx	r3
	cmp	r5, #0
	mov	r2, r0
	beq	.L549
	mov	r3, #0
	str	r2, [r4, #3904]
	mov	r0, r3
	str	r3, [r4, #3900]
	ldmfd	sp, {r4, r5, fp, sp, pc}
.L549:
	ldr	r3, [r4, #3904]
	cmp	r0, r3
	strls	r5, [r4, #3900]
	rsbhi	r0, r3, r0
	strls	r2, [r4, #3904]
	strhi	r0, [r4, #3900]
	movls	r0, r5
	ldmfd	sp, {r4, r5, fp, sp, pc}
.L552:
	mov	r0, r4
	ldmfd	sp, {r4, r5, fp, sp, pc}
.L554:
	.align	2
.L553:
	.word	.LANCHOR0
	.word	vfmw_Osal_Func_Ptr_S
	UNWIND(.fnend)
	.size	CalcInstBlockTime, .-CalcInstBlockTime
	.align	2
	.global	SetInstMode
	.type	SetInstMode, %function
SetInstMode:
	UNWIND(.fnstart)
	@ args = 0, pretend = 0, frame = 0
	@ frame_needed = 1, uses_anonymous_args = 0
	UNWIND(.movsp ip)
	mov	ip, sp
	stmfd	sp!, {fp, ip, lr, pc}
	UNWIND(.pad #4)
	UNWIND(.save {fp, ip, lr})
	UNWIND(.setfp fp, ip, #-4)
	sub	fp, ip, #4
	ldr	r2, .L558
	mov	r3, r0, asl #6
	sub	ip, r3, r0, asl #4
	sub	r0, r1, #1
	add	r2, r2, ip
	ldr	r2, [r2, #48]
	clz	r3, r2
	mov	r3, r3, lsr #5
	cmp	r0, #1
	movls	r0, r3
	orrhi	r0, r3, #1
	cmp	r0, #0
	addeq	r2, r2, #188416
	mvnne	r0, #0
	streq	r1, [r2, #2360]
	ldmfd	sp, {fp, sp, pc}
.L559:
	.align	2
.L558:
	.word	.LANCHOR0
	UNWIND(.fnend)
	.size	SetInstMode, .-SetInstMode
	.align	2
	.global	CheckScdStateReg
	.type	CheckScdStateReg, %function
CheckScdStateReg:
	UNWIND(.fnstart)
	@ args = 0, pretend = 0, frame = 0
	@ frame_needed = 1, uses_anonymous_args = 0
	UNWIND(.movsp ip)
	mov	ip, sp
	stmfd	sp!, {fp, ip, lr, pc}
	UNWIND(.pad #4)
	UNWIND(.save {fp, ip, lr})
	UNWIND(.setfp fp, ip, #-4)
	sub	fp, ip, #4
	ldr	r3, [r0, #16]
	cmp	r3, #0
	mvneq	r0, #6
	movne	r0, #0
	ldmfd	sp, {fp, sp, pc}
	UNWIND(.fnend)
	.size	CheckScdStateReg, .-CheckScdStateReg
	.align	2
	.global	ScdParseUpMsgInfo
	.type	ScdParseUpMsgInfo, %function
ScdParseUpMsgInfo:
	UNWIND(.fnstart)
	@ args = 0, pretend = 0, frame = 0
	@ frame_needed = 1, uses_anonymous_args = 0
	UNWIND(.movsp ip)
	mov	ip, sp
	stmfd	sp!, {fp, ip, lr, pc}
	UNWIND(.pad #4)
	UNWIND(.save {fp, ip, lr})
	UNWIND(.setfp fp, ip, #-4)
	sub	fp, ip, #4
	cmp	r1, #0
	beq	.L567
	ldr	ip, [r0, #12]
	mul	r3, r3, r2
	cmp	ip, #1
	ldrb	ip, [r1, #72]	@ zero_extendqisi2
	bfceq	ip, #0, #1
	orrne	ip, ip, #1
	strb	ip, [r1, #72]
	mov	ip, #0
	ldr	r2, [r0, #4]
	ldrb	lr, [r1, #72]	@ zero_extendqisi2
	ldr	r2, [r2, r3, asl #2]
	mov	r3, r3, asl #2
	add	r3, r3, #8
	mov	r2, r2, lsr #31
	bfi	lr, r2, #1, #1
	strb	lr, [r1, #72]
	ldr	r2, [r0, #4]
	uxtb	lr, lr
	ldr	r2, [r2, r3]
	mov	r2, r2, asr #16
	bfi	lr, r2, #2, #1
	strb	lr, [r1, #72]
	ldr	r2, [r0, #4]
	uxtb	lr, lr
	ldr	r2, [r2, r3]
	ubfx	r2, r2, #4, #3
	bfi	lr, r2, #3, #4
	strb	lr, [r1, #72]
	ldr	r0, [r0, #4]
	ldrh	r2, [r1, #72]
	ldr	r3, [r0, r3]
	and	r3, r3, #7
	bfi	r2, r3, #7, #4
	strh	r2, [r1, #72]	@ movhi
.L564:
	mov	r0, ip
	ldmfd	sp, {fp, sp, pc}
.L567:
	mvn	ip, #0
	b	.L564
	UNWIND(.fnend)
	.size	ScdParseUpMsgInfo, .-ScdParseUpMsgInfo
	.align	2
	.global	ScdReturnSegFilter
	.type	ScdReturnSegFilter, %function
ScdReturnSegFilter:
	UNWIND(.fnstart)
	@ args = 4, pretend = 0, frame = 16
	@ frame_needed = 1, uses_anonymous_args = 0
	UNWIND(.movsp ip)
	mov	ip, sp
	stmfd	sp!, {r4, r5, r6, r7, r8, r9, r10, fp, ip, lr, pc}
	UNWIND(.pad #4)
	UNWIND(.save {r4, r5, r6, r7, r8, r9, r10, fp, ip, lr})
	UNWIND(.setfp fp, ip, #-4)
	sub	fp, ip, #4
	UNWIND(.pad #20)
	sub	sp, sp, #20
	ldr	r7, .L608
	ldr	r9, [r0, #32]
	mov	r4, r0
	str	r3, [fp, #-48]
	mov	r5, r1
	mov	r8, #0
	ldr	r1, .L608+4
	str	r8, [r2]
	mov	r0, #24
	ldr	r3, [r7, #68]
	blx	r3
	ldr	r3, [r4, #8]
	cmp	r3, #2
	beq	.L569
	cmp	r9, r8
	ldrgt	r3, [fp, #4]
	movgt	r6, r8
	movgt	r10, r3, asl #2
	ble	.L574
.L573:
	ldr	r3, [r4, #4]
	mov	ip, r5
	ldr	lr, [r4, #20]
	mov	r2, r6
	ldr	r1, .L608+8
	mov	r0, #24
	ldr	r3, [r3, r8]
	bic	r3, r3, #-2147483648
	cmp	r3, lr
	orrcc	r3, r3, #-2147483648
	str	r3, [ip, r8]!
	ldr	r3, [r4, #4]
	add	r3, r3, r8
	add	r8, r8, r10
	ldr	r3, [r3, #4]
	str	r3, [ip, #4]
	ldr	r3, [r4, #4]
	ldr	ip, [r7, #68]
	ldr	r3, [r3, r6, asl #2]
	add	r6, r6, #1
	blx	ip
	cmp	r6, r9
	bne	.L573
.L574:
	ldr	r3, [fp, #-48]
	mov	r0, #0
	str	r0, [r4, #12]
	str	r0, [r4, #16]
	str	r9, [r3]
.L604:
	sub	sp, fp, #40
	ldmfd	sp, {r4, r5, r6, r7, r8, r9, r10, fp, sp, pc}
.L569:
	ldr	r0, [r4, #20]
	bl	MEM_Phy2Vir
	cmp	r0, #0
	beq	.L576
	ldrb	r2, [r0, #1]	@ zero_extendqisi2
	ldrb	r1, [r0]	@ zero_extendqisi2
	ldrb	r3, [r0, #3]	@ zero_extendqisi2
	ldrb	r6, [r0, #2]	@ zero_extendqisi2
	mov	r2, r2, asl #16
	orr	r2, r2, r1, asl #24
	ldr	r0, [r4, #28]
	orr	r3, r2, r3
	orr	r6, r3, r6, asl #8
	bl	MEM_Phy2Vir
	cmp	r0, #0
	beq	.L576
	cmp	r9, #0
	mov	r2, r6, lsr #24
	mov	r3, r6, lsr #16
	strb	r6, [r0, #3]
	strb	r2, [r0]
	mov	r6, r6, lsr #8
	strb	r3, [r0, #1]
	strb	r6, [r0, #2]
	ble	.L577
	add	r3, r9, #1
	str	r3, [fp, #-56]
	ldr	r3, [fp, #4]
	add	r10, r5, #4
	mov	r8, #4
	mov	r9, #1
	str	r5, [fp, #-52]
	mov	r3, r3, asl #2
	str	r3, [fp, #-60]
	mov	r6, r3
	b	.L585
.L606:
	mov	r3, #1
	str	r3, [r4, #12]
	mov	r3, #0
	str	r3, [r4, #16]
.L581:
	str	r5, [r10, #-4]
	mov	r2, r9
	ldr	r3, [r4, #4]
	add	r9, r9, #1
	ldr	r1, [fp, #-52]
	add	r10, r10, r6
	ldr	r3, [r3, r8]
	str	r3, [r1, r8]
	add	r8, r8, r6
	ldr	r3, [fp, #-56]
	cmp	r9, r3
	beq	.L605
.L585:
	ldr	r3, [r4, #4]
	ldr	r2, [r4, #20]
	add	r3, r3, r8
	ldr	r5, [r3, #-4]
	bic	r5, r5, #-2147483648
	cmp	r5, r2
	orrcc	r5, r5, #-2147483648
	cmp	r5, #0
	beq	.L576
	mov	r0, r5
	bl	MEM_Phy2Vir
	cmp	r0, #0
	beq	.L576
	ldrb	r3, [r0, #1]	@ zero_extendqisi2
	ldrb	ip, [r0]	@ zero_extendqisi2
	ldrb	r1, [r0, #3]	@ zero_extendqisi2
	mov	r3, r3, asl #16
	ldrb	r2, [r0, #2]	@ zero_extendqisi2
	orr	r3, r3, ip, asl #24
	orr	r3, r3, r1
	orr	r2, r3, r2, asl #8
	movw	r3, #438
	cmp	r2, r3
	cmpne	r2, #288
	moveq	r3, #1
	movne	r3, #0
	beq	.L606
	bic	r2, r2, #1020
	bic	r2, r2, #3
	cmp	r2, #32768
	bne	.L581
	ldr	r2, [r4, #12]
	cmp	r2, #1
	beq	.L607
.L584:
	mov	r3, #2
	str	r3, [r4, #12]
	b	.L581
.L576:
	mvn	r0, #6
	b	.L604
.L607:
	ldr	r2, [r4, #16]
	add	r2, r2, #1
	str	r2, [r4, #16]
	cmp	r2, #12
	ble	.L581
	ldr	r2, .L608+12
	ldr	ip, [r2]
	cmp	ip, #0
	beq	.L584
	mov	r2, r3
	mov	r1, #102
	ldr	r0, [r4, #36]
	blx	ip
	b	.L584
.L605:
	ldr	r3, [fp, #-48]
	cmp	r2, #0
	mov	r6, r2
	ldr	r5, [fp, #-52]
	movgt	r4, #0
	ldrgt	r8, [fp, #-60]
	str	r2, [r3]
	ble	.L588
.L587:
	mov	r2, r4
	ldr	ip, [r7, #68]
	ldr	r3, [r5], r8
	add	r4, r4, #1
	ldr	r1, .L608+8
	mov	r0, #24
	blx	ip
	cmp	r4, r6
	bne	.L587
.L588:
	mov	r0, #0
	b	.L604
.L577:
	ldr	r3, [fp, #-48]
	mov	r0, r8
	str	r8, [r3]
	b	.L604
.L609:
	.align	2
.L608:
	.word	vfmw_Osal_Func_Ptr_S
	.word	.LC39
	.word	.LC40
	.word	g_event_report
	UNWIND(.fnend)
	.size	ScdReturnSegFilter, .-ScdReturnSegFilter
	.align	2
	.global	CheckSegValid
	.type	CheckSegValid, %function
CheckSegValid:
	UNWIND(.fnstart)
	@ args = 0, pretend = 0, frame = 0
	@ frame_needed = 1, uses_anonymous_args = 0
	UNWIND(.movsp ip)
	mov	ip, sp
	stmfd	sp!, {fp, ip, lr, pc}
	UNWIND(.pad #4)
	UNWIND(.save {fp, ip, lr})
	UNWIND(.setfp fp, ip, #-4)
	sub	fp, ip, #4
	cmp	r0, #0
	beq	.L612
	ldr	r3, [r0, #8]
	cmp	r3, #0
	beq	.L614
	ldr	r3, [r0]
	cmp	r3, #0
	beq	.L614
	ldr	r3, [r0, #12]
	cmp	r3, r1
	mvngt	r0, #6
	movle	r0, #0
	ldmfd	sp, {fp, sp, pc}
.L614:
	mvn	r0, #6
	ldmfd	sp, {fp, sp, pc}
.L612:
	mvn	r0, #0
	ldmfd	sp, {fp, sp, pc}
	UNWIND(.fnend)
	.size	CheckSegValid, .-CheckSegValid
	.align	2
	.global	GetSegPts
	.type	GetSegPts, %function
GetSegPts:
	UNWIND(.fnstart)
	@ args = 0, pretend = 0, frame = 8
	@ frame_needed = 1, uses_anonymous_args = 0
	UNWIND(.movsp ip)
	mov	ip, sp
	stmfd	sp!, {r4, r5, r6, r7, fp, ip, lr, pc}
	UNWIND(.pad #4)
	UNWIND(.save {r4, r5, r6, r7, fp, ip, lr})
	UNWIND(.setfp fp, ip, #-4)
	sub	fp, ip, #4
	UNWIND(.pad #40)
	sub	sp, sp, #40
	mov	r4, r3
	sub	r3, fp, #28
	mvn	r6, #0
	mvn	r7, #0
	mov	lr, #0
	mov	r5, r2
	add	ip, r4, #32
	add	r2, r4, #68
	str	ip, [sp, #28]
	str	r2, [sp, #24]
	add	ip, r4, #64
	add	r2, r4, #60
	str	ip, [sp, #20]
	str	r2, [sp, #16]
	add	ip, r4, #56
	add	r2, r4, #48
	str	ip, [sp, #12]
	str	r2, [sp, #8]
	add	ip, r4, #40
	add	r2, r4, #24
	stmia	sp, {r2, ip}
	mvn	ip, #0
	str	lr, [r3, #-4]!
	sub	r2, fp, #36
	strd	r6, [r4, #24]
	strd	r6, [r4, #40]
	strd	r6, [r4, #32]
	strd	r6, [r4, #48]
	str	ip, [r4, #56]
	str	ip, [r4, #60]
	str	ip, [r4, #64]
	str	ip, [r4, #68]
	str	lr, [fp, #-36]
	bl	GetRawNumOffsert
	ldrd	r0, [r4, #24]
	ldrd	r2, [r5]
	cmp	r3, r1
	cmpeq	r2, r0
	beq	.L619
	strd	r0, [r5]
	sub	sp, fp, #28
	ldmfd	sp, {r4, r5, r6, r7, fp, sp, pc}
.L619:
	strd	r6, [r4, #24]
	sub	sp, fp, #28
	ldmfd	sp, {r4, r5, r6, r7, fp, sp, pc}
	UNWIND(.fnend)
	.size	GetSegPts, .-GetSegPts
	.align	2
	.global	IsVopHeader
	.type	IsVopHeader, %function
IsVopHeader:
	UNWIND(.fnstart)
	@ args = 0, pretend = 0, frame = 0
	@ frame_needed = 1, uses_anonymous_args = 0
	UNWIND(.movsp ip)
	mov	ip, sp
	stmfd	sp!, {fp, ip, lr, pc}
	UNWIND(.pad #4)
	UNWIND(.save {fp, ip, lr})
	UNWIND(.setfp fp, ip, #-4)
	sub	fp, ip, #4
	cmp	r0, #1
	beq	.L625
	cmp	r0, #2
	movne	r0, #0
	beq	.L626
.L622:
	mov	r2, #0
	movt	r2, 65025
	cmp	r1, r2
	moveq	r0, #1
	ldmfd	sp, {fp, sp, pc}
.L625:
	mov	r3, #0
	movt	r3, 46593
	rsb	r0, r3, r1
	clz	r0, r0
	mov	r0, r0, lsr #5
	b	.L622
.L626:
	ubfx	r3, r1, #16, #8
	sub	r3, r3, #128
	cmp	r3, #3
	movhi	r0, #0
	movls	r0, #1
	b	.L622
	UNWIND(.fnend)
	.size	IsVopHeader, .-IsVopHeader
	.align	2
	.global	SM_GetExteriorState
	.type	SM_GetExteriorState, %function
SM_GetExteriorState:
	UNWIND(.fnstart)
	@ args = 0, pretend = 0, frame = 0
	@ frame_needed = 1, uses_anonymous_args = 0
	UNWIND(.movsp ip)
	mov	ip, sp
	stmfd	sp!, {fp, ip, lr, pc}
	UNWIND(.pad #4)
	UNWIND(.save {fp, ip, lr})
	UNWIND(.setfp fp, ip, #-4)
	sub	fp, ip, #4
	mov	r0, #0
	ldmfd	sp, {fp, sp, pc}
	UNWIND(.fnend)
	.size	SM_GetExteriorState, .-SM_GetExteriorState
	.align	2
	.global	FillEopRawStream
	.type	FillEopRawStream, %function
FillEopRawStream:
	UNWIND(.fnstart)
	@ args = 0, pretend = 0, frame = 104
	@ frame_needed = 1, uses_anonymous_args = 0
	UNWIND(.movsp ip)
	mov	ip, sp
	stmfd	sp!, {r4, r5, fp, ip, lr, pc}
	UNWIND(.pad #4)
	UNWIND(.save {r4, r5, fp, ip, lr})
	UNWIND(.setfp fp, ip, #-4)
	sub	fp, ip, #4
	UNWIND(.pad #112)
	sub	sp, sp, #112
	ldr	r2, .L643
	mov	r3, r0, asl #6
	mov	r5, r1
	sub	r3, r3, r0, asl #4
	ldr	r1, .L643+4
	add	r3, r2, r3
	sub	r0, fp, #120
	mov	r2, #100
	ldr	r4, [r3, #48]
	bl	memcpy
	cmp	r5, #0
	beq	.L641
	ldr	r3, [r4, #56]
	cmp	r3, #17
	bhi	.L631
	mov	r2, #1
	movw	r4, #49022
	mov	r2, r2, asl r3
	movt	r4, 3
	and	r4, r4, r2
	cmp	r4, #0
	bne	.L632
	tst	r2, #1
	beq	.L631
	ldr	r3, [r5, #8]
	ldr	r2, [r5, #80]
	add	r1, r3, #15
	cmp	r1, r2
	bhi	.L642
	ldr	ip, .L643+8
	sub	r1, fp, #120
	ldr	r0, [r5, #4]
	mov	r2, #15
	ldr	ip, [ip, #52]
	add	r0, r0, r3
	blx	ip
	ldr	r3, [r5, #8]
	mov	r0, r4
	add	r3, r3, #15
	str	r3, [r5, #8]
	sub	sp, fp, #20
	ldmfd	sp, {r4, r5, fp, sp, pc}
.L632:
	ldr	r3, [r5, #8]
	ldr	r2, [r5, #80]
	cmp	r3, r2
	bhi	.L637
	mov	r0, #0
.L638:
	sub	sp, fp, #20
	ldmfd	sp, {r4, r5, fp, sp, pc}
.L631:
	ldr	ip, .L643+8
	mov	r0, #0
	ldr	r2, .L643+12
	ldr	r1, .L643+16
	ldr	ip, [ip, #68]
	blx	ip
	mvn	r0, #6
	b	.L638
.L637:
	mov	ip, #0
.L634:
	ldr	r1, .L643+8
	mov	r0, #0
	str	r2, [sp, #4]
	str	ip, [sp]
	ldr	r2, .L643+12
	ldr	ip, [r1, #68]
	ldr	r1, .L643+20
	blx	ip
	mvn	r0, #6
	b	.L638
.L642:
	mov	ip, #15
	b	.L634
.L641:
	ldr	r3, .L643+8
	mov	r0, r5
	ldr	r2, .L643+12
	ldr	r1, .L643+24
	ldr	r3, [r3, #68]
	blx	r3
	mvn	r0, #6
	b	.L638
.L644:
	.align	2
.L643:
	.word	.LANCHOR0
	.word	.LANCHOR3+76
	.word	vfmw_Osal_Func_Ptr_S
	.word	.LANCHOR3+176
	.word	.LC42
	.word	.LC43
	.word	.LC41
	UNWIND(.fnend)
	.size	FillEopRawStream, .-FillEopRawStream
	.align	2
	.global	FillEosRawStream
	.type	FillEosRawStream, %function
FillEosRawStream:
	UNWIND(.fnstart)
	@ args = 0, pretend = 0, frame = 104
	@ frame_needed = 1, uses_anonymous_args = 0
	UNWIND(.movsp ip)
	mov	ip, sp
	stmfd	sp!, {r4, r5, fp, ip, lr, pc}
	UNWIND(.pad #4)
	UNWIND(.save {r4, r5, fp, ip, lr})
	UNWIND(.setfp fp, ip, #-4)
	sub	fp, ip, #4
	UNWIND(.pad #112)
	sub	sp, sp, #112
	ldr	r2, .L667
	mov	r3, r0, asl #6
	mov	r4, r1
	sub	r3, r3, r0, asl #4
	ldr	r1, .L667+4
	add	r3, r2, r3
	sub	r0, fp, #120
	mov	r2, #100
	ldr	r5, [r3, #48]
	bl	memcpy
	cmp	r4, #0
	beq	.L665
	ldr	r3, [r5, #56]
	cmp	r3, #17
	ldrls	pc, [pc, r3, asl #2]
	b	.L648
.L650:
	.word	.L649
	.word	.L651
	.word	.L652
	.word	.L653
	.word	.L663
	.word	.L663
	.word	.L659
	.word	.L648
	.word	.L663
	.word	.L663
	.word	.L663
	.word	.L663
	.word	.L663
	.word	.L663
	.word	.L648
	.word	.L663
	.word	.L649
	.word	.L655
.L649:
	sub	r1, fp, #120
	mov	r5, #15
.L654:
	ldr	r2, [r4, #8]
	cmp	r5, r2
	bhi	.L666
	ldr	r3, .L667+8
	mov	r2, r5
	ldr	r0, [r4, #4]
	ldr	r3, [r3, #52]
	blx	r3
	str	r5, [r4, #8]
.L663:
	mov	r0, #0
.L661:
	sub	sp, fp, #20
	ldmfd	sp, {r4, r5, fp, sp, pc}
.L659:
	mov	r5, #15
	sub	r1, fp, #100
	b	.L654
.L651:
	ldr	r3, [r5, #72]
	cmp	r3, #1
	bne	.L663
	sub	r1, fp, #100
	mov	r5, #15
	b	.L654
.L652:
	mov	r5, #19
	sub	r1, fp, #80
	b	.L654
.L653:
	mov	r5, #16
	sub	r1, fp, #60
	b	.L654
.L655:
	mov	r5, #16
	sub	r1, fp, #40
	b	.L654
.L648:
	ldr	ip, .L667+8
	mov	r0, #0
	ldr	r2, .L667+12
	ldr	r1, .L667+16
	ldr	ip, [ip, #68]
	blx	ip
	mvn	r0, #6
	sub	sp, fp, #20
	ldmfd	sp, {r4, r5, fp, sp, pc}
.L666:
	ldr	r1, .L667+8
	mov	r3, r5
	str	r2, [sp]
	mov	r0, #0
	ldr	r2, .L667+12
	ldr	ip, [r1, #68]
	ldr	r1, .L667+20
	blx	ip
	mvn	r0, #6
	b	.L661
.L665:
	ldr	r3, .L667+8
	mov	r0, r4
	ldr	r2, .L667+12
	ldr	r1, .L667+24
	ldr	r3, [r3, #68]
	blx	r3
	mvn	r0, #6
	b	.L661
.L668:
	.align	2
.L667:
	.word	.LANCHOR0
	.word	.LANCHOR3+196
	.word	vfmw_Osal_Func_Ptr_S
	.word	.LANCHOR3+296
	.word	.LC42
	.word	.LC44
	.word	.LC41
	UNWIND(.fnend)
	.size	FillEosRawStream, .-FillEosRawStream
	.align	2
	.global	FillExtraData
	.type	FillExtraData, %function
FillExtraData:
	UNWIND(.fnstart)
	@ args = 0, pretend = 0, frame = 0
	@ frame_needed = 1, uses_anonymous_args = 0
	UNWIND(.movsp ip)
	mov	ip, sp
	stmfd	sp!, {r4, r5, r6, r7, r8, fp, ip, lr, pc}
	UNWIND(.pad #4)
	UNWIND(.save {r4, r5, r6, r7, r8, fp, ip, lr})
	UNWIND(.setfp fp, ip, #-4)
	sub	fp, ip, #4
	UNWIND(.pad #20)
	sub	sp, sp, #20
	clz	r3, r1
	mov	r5, r1
	mov	r3, r3, lsr #5
	cmp	r0, #15
	movls	r4, r3
	orrhi	r4, r3, #1
	cmp	r4, #0
	bne	.L686
	ldr	r2, [r1, #8]
	cmp	r2, #0
	ble	.L692
	mov	ip, r0, asl #6
	ldr	r1, .L700
	sub	r0, ip, r0, asl #4
	add	r0, r1, r0
	ldr	r6, [r0, #48]
	ldr	r3, [r6, #56]
	cmp	r3, #5
	beq	.L672
	cmp	r3, #8
	beq	.L673
	cmp	r3, #1
	movne	r0, r4
	beq	.L693
.L670:
	sub	sp, fp, #32
	ldmfd	sp, {r4, r5, r6, r7, r8, fp, sp, pc}
.L673:
	ldr	ip, [r5, #76]
	ands	r7, ip, #128
	beq	.L683
	cmp	r2, #128
	bgt	.L694
.L684:
	ldr	r3, .L700+4
	add	r1, r6, #200704
	add	r0, r6, #203776
	str	r2, [r1, #3964]
	add	r0, r0, #896
	ldmib	r5, {r1, r2}
	ldr	r3, [r3, #52]
	blx	r3
	mov	r0, r4
	sub	sp, fp, #32
	ldmfd	sp, {r4, r5, r6, r7, r8, fp, sp, pc}
.L672:
	ldr	r0, [r5, #80]
	add	r1, r2, #8
	cmp	r1, r0
	bhi	.L695
	ldr	r6, .L700+4
	ldr	r1, [r5, #4]
	ldr	r3, [r6, #56]
	add	r0, r1, #8
	blx	r3
	ldr	r3, [r6, #52]
	add	r1, r5, #84
	mov	r2, #4
	ldr	r0, [r5, #4]
	blx	r3
	ldr	r0, [r5, #4]
	ldr	r3, [r6, #52]
	mov	r2, #4
	add	r1, r5, #88
	add	r0, r0, r2
	blx	r3
	ldr	r3, [r5, #8]
	mov	r0, r4
	add	r3, r3, #8
	str	r3, [r5, #8]
	sub	sp, fp, #32
	ldmfd	sp, {r4, r5, r6, r7, r8, fp, sp, pc}
.L693:
	ldr	r1, [r6, #72]
	cmp	r1, #1
	beq	.L696
	ldr	ip, [r5, #76]
	ands	r4, ip, #128
	beq	.L679
	cmp	r2, #116
	ldr	ip, [r5, #80]
	add	r1, r2, #12
	movle	r0, #0
	movgt	r0, #1
	cmp	r1, ip
	movls	r4, r0
	orrhi	r4, r0, #1
	cmp	r4, #0
	bne	.L697
	ldr	r7, .L700+4
	ldr	r1, [r5, #4]
	ldr	r3, [r7, #56]
	add	r0, r1, #8
	blx	r3
	ldr	r3, [r7, #52]
	mov	r2, #4
	add	r1, r5, #84
	ldr	r0, [r5, #4]
	blx	r3
	ldr	r0, [r5, #4]
	mov	r2, #4
	ldr	r3, [r7, #52]
	add	r0, r0, r2
	add	r1, r5, #88
	blx	r3
	ldr	r0, [r5, #4]
	ldr	r3, [r7, #48]
	mov	r2, #4
	mov	r1, r4
	add	r0, r0, #12
	blx	r3
	add	r2, r6, #200704
	add	r0, r6, #203776
	mov	r3, #16
	add	r0, r0, #896
	str	r3, [r5, #8]
	str	r3, [r2, #3964]
	ldr	r3, [r7, #52]
	ldmib	r5, {r1, r2}
	blx	r3
	mov	r0, r4
	b	.L670
.L683:
	add	r4, r6, #200704
	ldr	ip, [r5, #80]
	ldr	r0, [r4, #3964]
	add	r1, r2, r0
	cmp	r1, ip
	bhi	.L698
.L685:
	ldr	r8, .L700+4
	ldr	r1, [r5, #4]
	ldr	r3, [r8, #56]
	add	r0, r1, r0
	blx	r3
	add	r1, r6, #203776
	ldr	r3, [r8, #52]
	add	r1, r1, #896
	ldr	r2, [r4, #3964]
	ldr	r0, [r5, #4]
	blx	r3
	ldr	r2, [r4, #3964]
	ldr	r3, [r5, #8]
	mov	r0, r7
	add	r3, r3, r2
	str	r3, [r5, #8]
	sub	sp, fp, #32
	ldmfd	sp, {r4, r5, r6, r7, r8, fp, sp, pc}
.L696:
	ldr	r0, [r5, #76]
	ands	r7, r0, #128
	bne	.L699
	ldrb	ip, [r5, #72]	@ zero_extendqisi2
	cmp	ip, #0
	moveq	r0, ip
	beq	.L670
	add	r4, r6, #200704
	ldr	lr, [r5, #80]
	ldr	r0, [r4, #3964]
	add	ip, r2, r0
	cmp	ip, lr
	bls	.L685
	ldr	r2, .L700+4
	mov	r3, r1
	mov	r0, r1
	str	lr, [sp, #4]
	str	ip, [sp]
.L691:
	ldr	ip, [r2, #68]
	ldr	r1, .L700+8
	ldr	r2, .L700+12
	blx	ip
	mvn	r0, #1
	b	.L670
.L679:
	add	r7, r6, #200704
	ldr	ip, [r5, #80]
	ldr	r0, [r7, #3964]
	add	r1, r2, r0
	cmp	r1, ip
	strhi	ip, [sp, #4]
	ldrhi	r2, .L700+4
	movhi	r0, r3
	bhi	.L690
	ldr	r8, .L700+4
	ldr	r1, [r5, #4]
	ldr	r3, [r8, #56]
	add	r0, r1, r0
	blx	r3
	add	r1, r6, #203776
	ldr	r3, [r8, #52]
	add	r1, r1, #896
	ldr	r2, [r7, #3964]
	ldr	r0, [r5, #4]
	blx	r3
	ldr	r2, [r7, #3964]
	ldr	r3, [r5, #8]
	mov	r0, r4
	add	r3, r3, r2
	str	r3, [r5, #8]
	b	.L670
.L699:
	cmp	r2, #128
	ble	.L684
	ldr	ip, .L700+4
	mov	r0, #128
	str	r2, [sp]
	mov	r3, r1
	str	r0, [sp, #4]
	mov	r0, r1
	ldr	ip, [ip, #68]
	ldr	r2, .L700+12
	ldr	r1, .L700+16
	blx	ip
	mvn	r0, #1
	b	.L670
.L695:
	ldr	r2, .L700+4
	str	r0, [sp, #4]
	mov	r0, #1
	str	r1, [sp]
	ldr	r1, .L700+20
	ldr	ip, [r2, #68]
	ldr	r2, .L700+12
	blx	ip
	mvn	r0, #1
	b	.L670
.L697:
	ldr	lr, .L700+4
	mov	r2, #128
	stmia	sp, {r1, ip}
	mov	r0, r3
	ldr	r1, .L700+24
	ldr	ip, [lr, #68]
	str	r2, [sp, #8]
	ldr	r2, .L700+12
	blx	ip
	mvn	r0, #1
	b	.L670
.L698:
	ldr	r2, .L700+4
	mov	r0, #1
	str	ip, [sp, #4]
.L690:
	str	r1, [sp]
	b	.L691
.L686:
	mvn	r0, #0
	b	.L670
.L692:
	ldr	ip, .L700+4
	mov	r3, r2
	mov	r0, #1
	ldr	r2, .L700+12
	ldr	r1, .L700+28
	ldr	ip, [ip, #68]
	blx	ip
	mvn	r0, #0
	b	.L670
.L694:
	ldr	ip, .L700+4
	mov	r1, #128
	str	r2, [sp]
	mov	r0, #1
	ldr	r2, .L700+12
	ldr	ip, [ip, #68]
	str	r1, [sp, #4]
	ldr	r1, .L700+16
	blx	ip
	mvn	r0, #1
	b	.L670
.L701:
	.align	2
.L700:
	.word	.LANCHOR0
	.word	vfmw_Osal_Func_Ptr_S
	.word	.LC47
	.word	.LANCHOR3+316
	.word	.LC46
	.word	.LC49
	.word	.LC48
	.word	.LC45
	UNWIND(.fnend)
	.size	FillExtraData, .-FillExtraData
	.align	2
	.global	ReleaseRawStreamData
	.type	ReleaseRawStreamData, %function
ReleaseRawStreamData:
	UNWIND(.fnstart)
	@ args = 0, pretend = 0, frame = 16
	@ frame_needed = 1, uses_anonymous_args = 0
	UNWIND(.movsp ip)
	mov	ip, sp
	stmfd	sp!, {r4, r5, r6, r7, r8, r9, r10, fp, ip, lr, pc}
	UNWIND(.pad #4)
	UNWIND(.save {r4, r5, r6, r7, r8, r9, r10, fp, ip, lr})
	UNWIND(.setfp fp, ip, #-4)
	sub	fp, ip, #4
	UNWIND(.pad #20)
	sub	sp, sp, #20
	mov	r9, r1
	mov	r8, r0
	bl	VCTRL_GetStreamInterface
	ldr	r7, .L715
	mov	r2, #12
	mov	r1, #0
	ldr	r3, [r7, #48]
	mov	r4, r0
	sub	r0, fp, #56
	blx	r3
	cmp	r4, #0
	beq	.L712
	ldr	r3, [r7, #52]
	sub	r0, fp, #56
	mov	r2, #12
	mov	r1, r4
	blx	r3
	ldr	r3, [r4, #8]
	cmp	r3, #0
	beq	.L708
	mov	r10, r8, asl #4
	mov	r6, r8, asl #6
	ldr	r5, .L715+4
	rsb	r3, r10, r6
	add	r3, r5, r3
	ldr	r3, [r3, #48]
	ldr	r3, [r3, #88]
	cmp	r3, #1
	beq	.L713
	ldr	r3, [r7, #16]
	mov	r0, #0
	blx	r3
	ldr	r3, [fp, #-48]
	mov	r1, r9
	ldr	r0, [fp, #-56]
	blx	r3
	ldr	r3, [r7, #12]
	mov	r4, r0
	mov	r0, #0
	blx	r3
.L707:
	cmp	r4, #0
	mvnne	r4, #6
.L705:
	rsb	r6, r10, r6
	add	r5, r5, r6
	ldr	r0, [r5, #48]
	cmp	r0, #0
	movne	r0, r4
	beq	.L714
.L704:
	sub	sp, fp, #40
	ldmfd	sp, {r4, r5, r6, r7, r8, r9, r10, fp, sp, pc}
.L713:
	mov	r1, r9
	ldr	r3, [fp, #-48]
	ldr	r0, [fp, #-56]
	blx	r3
	mov	r4, r0
	b	.L707
.L708:
	ldr	r5, .L715+4
	mov	r10, r8, asl #4
	mov	r6, r8, asl #6
	mvn	r4, #6
	b	.L705
.L712:
	ldr	r3, [r7, #68]
	mov	r2, r8
	mov	r0, r4
	ldr	r1, .L715+8
	blx	r3
	mvn	r0, #6
	b	.L704
.L714:
	ldr	ip, [r7, #68]
	mov	r3, r8
	movw	r2, #5475
	ldr	r1, .L715+12
	blx	ip
	mvn	r0, #6
	b	.L704
.L716:
	.align	2
.L715:
	.word	vfmw_Osal_Func_Ptr_S
	.word	.LANCHOR0
	.word	.LC50
	.word	.LC51
	UNWIND(.fnend)
	.size	ReleaseRawStreamData, .-ReleaseRawStreamData
	.align	2
	.global	DeleteRawPacketInBuffer
	.type	DeleteRawPacketInBuffer, %function
DeleteRawPacketInBuffer:
	UNWIND(.fnstart)
	@ args = 0, pretend = 0, frame = 16
	@ frame_needed = 1, uses_anonymous_args = 0
	UNWIND(.movsp ip)
	mov	ip, sp
	stmfd	sp!, {r4, r5, r6, r7, r8, r9, r10, fp, ip, lr, pc}
	UNWIND(.pad #4)
	UNWIND(.save {r4, r5, r6, r7, r8, r9, r10, fp, ip, lr})
	UNWIND(.setfp fp, ip, #-4)
	sub	fp, ip, #4
	UNWIND(.pad #20)
	sub	sp, sp, #20
	cmp	r0, #15
	mov	r8, r0
	bhi	.L733
	mov	r3, r0, asl #4
	mov	r10, r0, asl #6
	ldr	r2, .L737
	str	r3, [fp, #-52]
	rsb	r3, r3, r10
	add	r3, r2, r3
	ldr	r7, [r3, #48]
	cmp	r7, #0
	beq	.L729
	cmp	r1, #0
	beq	.L734
.L720:
	adds	r3, r7, #104
	str	r3, [fp, #-56]
	beq	.L729
	add	r3, r7, #98304
	str	r3, [fp, #-60]
	mov	r2, r3
	ldr	r3, [r3, #104]
	ldr	r4, [r2, #112]
	cmp	r3, r4
	addlt	r3, r3, #1024
	rsb	r3, r4, r3
	str	r3, [fp, #-48]
	ldr	r3, [fp, #-48]
	cmp	r3, #0
	beq	.L729
	mov	r6, #0
	mov	r3, r10
	ldr	r9, .L737+4
	mov	r10, r6
	mov	r6, r3
	b	.L724
.L736:
	ldr	r3, [fp, #-48]
	cmp	r10, r3
	beq	.L735
.L724:
	mov	r5, r4, asl #7
	ldr	r1, .L737+8
	sub	r5, r5, r4, asl #5
	ldr	ip, [r9, #68]
	add	r2, r7, r5
	mov	r0, #26
	add	r4, r4, #1
	add	r10, r10, #1
	ldr	r3, [r2, #112]
	ubfx	r4, r4, #0, #10
	ldr	r2, [r2, #104]
	blx	ip
	ldr	r3, [fp, #-56]
	mov	r0, r8
	add	r1, r3, r5
	bl	ReleaseRawStreamData
	ldr	r3, [fp, #-52]
	ldr	r2, .L737
	rsb	r3, r3, r6
	add	r3, r2, r3
	ldr	r3, [r3, #48]
	cmp	r3, #0
	bne	.L736
	mvn	r0, #6
.L719:
	sub	sp, fp, #40
	ldmfd	sp, {r4, r5, r6, r7, r8, r9, r10, fp, sp, pc}
.L734:
	add	r3, r7, #188416
	ldr	r3, [r3, #2360]
	cmp	r3, #0
	bne	.L720
.L729:
	mvn	r0, #0
	b	.L719
.L735:
	ldr	r3, [fp, #-60]
	ldr	r4, [r3, #112]
	add	r4, r10, r4
	cmp	r4, #1024
	strlt	r4, [r3, #112]
	subge	r4, r4, #1024
	ldrge	r3, [fp, #-60]
	movlt	r0, #0
	movge	r0, #0
	strge	r4, [r3, #112]
	sub	sp, fp, #40
	ldmfd	sp, {r4, r5, r6, r7, r8, r9, r10, fp, sp, pc}
.L733:
	ldr	r3, .L737+4
	mov	r2, r0
	ldr	r1, .L737+12
	mov	r0, #0
	ldr	r3, [r3, #68]
	blx	r3
	mvn	r0, #0
	b	.L719
.L738:
	.align	2
.L737:
	.word	.LANCHOR0
	.word	vfmw_Osal_Func_Ptr_S
	.word	.LC9
	.word	.LC52
	UNWIND(.fnend)
	.size	DeleteRawPacketInBuffer, .-DeleteRawPacketInBuffer
	.align	2
	.global	ReadRawStreamData
	.type	ReadRawStreamData, %function
ReadRawStreamData:
	UNWIND(.fnstart)
	@ args = 0, pretend = 0, frame = 16
	@ frame_needed = 1, uses_anonymous_args = 0
	UNWIND(.movsp ip)
	mov	ip, sp
	stmfd	sp!, {r4, r5, r6, r7, r8, r9, fp, ip, lr, pc}
	UNWIND(.pad #4)
	UNWIND(.save {r4, r5, r6, r7, r8, r9, fp, ip, lr})
	UNWIND(.setfp fp, ip, #-4)
	sub	fp, ip, #4
	UNWIND(.pad #16)
	sub	sp, sp, #16
	ldr	r5, .L771
	mov	r3, r0, asl #6
	ldr	r7, .L771+4
	sub	r3, r3, r0, asl #4
	mov	r6, r0
	add	r5, r5, r3
	mov	r9, r1
	ldr	r3, [r7, #48]
	sub	r0, fp, #48
	ldr	r4, [r5, #48]
	mov	r2, #12
	mov	r1, #0
	blx	r3
	cmp	r4, #0
	beq	.L743
	mov	r0, r6
	bl	VCTRL_GetStreamInterface
	subs	r8, r0, #0
	beq	.L764
	ldr	r3, [r7, #52]
	sub	r0, fp, #48
	mov	r2, #12
	mov	r1, r8
	blx	r3
	ldr	r3, [r8, #4]
	cmp	r3, #0
	beq	.L743
	ldr	r3, [r4, #88]
	cmp	r3, #1
	beq	.L765
	ldr	r3, [r7, #16]
	mov	r0, #0
	blx	r3
	ldr	r3, [fp, #-44]
	mov	r1, r9
	ldr	r0, [fp, #-48]
	blx	r3
	ldr	r3, [r7, #12]
	mov	r8, r0
	mov	r0, #0
	blx	r3
	ldr	r0, [r5, #48]
	cmp	r0, #0
	beq	.L766
.L745:
	cmp	r8, #0
	bne	.L743
	ldrb	r5, [r9, #53]	@ zero_extendqisi2
	cmp	r5, #1
	beq	.L767
	ldr	r3, [r4, #88]
	cmp	r3, #1
	beq	.L768
.L748:
	add	r4, r4, #98304
	ldr	r2, [r9, #8]
	mov	r0, #0
	ldr	r3, [r4, #124]
	add	r3, r3, r2
	str	r3, [r4, #124]
	sub	sp, fp, #36
	ldmfd	sp, {r4, r5, r6, r7, r8, r9, fp, sp, pc}
.L743:
	mvn	r0, #6
.L761:
	sub	sp, fp, #36
	ldmfd	sp, {r4, r5, r6, r7, r8, r9, fp, sp, pc}
.L765:
	ldr	r3, [fp, #-44]
	mov	r1, r9
	ldr	r0, [fp, #-48]
	blx	r3
	mov	r8, r0
	b	.L745
.L767:
	mov	r1, r9
	mov	r0, r6
	bl	FillEosRawStream
	cmp	r0, #0
	bne	.L769
	mov	r1, r5
	mov	r0, r6
	bl	VCTRL_SetLastFrameState
	b	.L748
.L768:
	mov	r1, r9
	mov	r0, r6
	bl	FillExtraData
	cmp	r0, #0
	bne	.L770
	ldrb	r3, [r9, #52]	@ zero_extendqisi2
	cmp	r3, #0
	bne	.L748
	mov	r0, r6
	mov	r1, r9
	bl	FillEopRawStream
	b	.L748
.L770:
	ldr	r3, [r7, #68]
	mov	r2, r6
	ldr	r1, .L771+8
	mov	r0, r8
	blx	r3
	mov	r1, r9
	ldr	r0, [fp, #-48]
	bl	ReleaseRawStreamData
	ldr	r3, .L771+4
	cmp	r0, #0
	beq	.L743
	ldr	r3, [r3, #68]
	mov	r0, r8
	ldr	r1, .L771+12
	blx	r3
	mvn	r0, #6
	b	.L761
.L764:
	ldr	r3, [r7, #68]
	mov	r2, r6
	ldr	r1, .L771+16
	blx	r3
	mvn	r0, #6
	b	.L761
.L769:
	ldr	r3, [r7, #68]
	mov	r2, r6
	mov	r0, r8
	ldr	r1, .L771+20
	blx	r3
	mvn	r0, #6
	b	.L761
.L766:
	ldr	ip, [r7, #68]
	mov	r3, r6
	movw	r2, #5375
	ldr	r1, .L771+24
	blx	ip
	mvn	r0, #6
	b	.L761
.L772:
	.align	2
.L771:
	.word	.LANCHOR0
	.word	vfmw_Osal_Func_Ptr_S
	.word	.LC56
	.word	.LC57
	.word	.LC53
	.word	.LC55
	.word	.LC54
	UNWIND(.fnend)
	.size	ReadRawStreamData, .-ReadRawStreamData
	.align	2
	.global	SM_MoveRawData
	.type	SM_MoveRawData, %function
SM_MoveRawData:
	UNWIND(.fnstart)
	@ args = 0, pretend = 0, frame = 0
	@ frame_needed = 1, uses_anonymous_args = 0
	UNWIND(.movsp ip)
	mov	ip, sp
	stmfd	sp!, {r4, r5, r6, r7, r8, r9, fp, ip, lr, pc}
	UNWIND(.pad #4)
	UNWIND(.save {r4, r5, r6, r7, r8, r9, fp, ip, lr})
	UNWIND(.setfp fp, ip, #-4)
	sub	fp, ip, #4
	UNWIND(.pad #8)
	sub	sp, sp, #8
	add	r7, r0, #98304
	ldr	ip, [r0, #96]
	mov	r5, r0
	ldr	r3, [r7, #108]
	subs	r6, r3, #1
	addmi	r6, r3, #1020
	addmi	r6, r6, #3
	subs	r8, r3, #2
	addmi	r8, r3, #1020
	addmi	r8, r8, #2
	mov	r1, r6, asl #7
	sub	r1, r1, r6, asl #5
	mov	r3, r8, asl #7
	add	r9, r0, r1
	sub	r8, r3, r8, asl #5
	add	r1, r1, #104
	add	r8, r0, r8
	ldr	r2, [r9, #112]
	add	r4, r0, r1
	ldr	r0, [r8, #112]
	add	r3, r0, r2
	cmp	r3, ip
	bgt	.L776
	ldr	r3, .L778
	add	r5, r5, #188416
	ldr	ip, [r8, #108]
	ldr	r1, [r9, #108]
	ldr	r3, [r3, #52]
	add	r0, ip, r0
	blx	r3
	ldr	r2, [r9, #112]
	ldr	r3, [r8, #112]
	mov	r1, r4
	add	r3, r3, r2
	str	r3, [r8, #112]
	ldr	r0, [r5, #2344]
	bl	ReleaseRawStreamData
	mov	r0, #0
	str	r6, [r7, #108]
.L777:
	sub	sp, fp, #36
	ldmfd	sp, {r4, r5, r6, r7, r8, r9, fp, sp, pc}
.L776:
	ldr	lr, .L778
	mov	r3, r2
	str	ip, [sp]
	mov	r2, r0
	ldr	r1, .L778+4
	mov	r0, #1
	ldr	ip, [lr, #68]
	blx	ip
	mvn	r0, #6
	b	.L777
.L779:
	.align	2
.L778:
	.word	vfmw_Osal_Func_Ptr_S
	.word	.LC58
	UNWIND(.fnend)
	.size	SM_MoveRawData, .-SM_MoveRawData
	.align	2
	.global	SM_AddMatchMode
	.type	SM_AddMatchMode, %function
SM_AddMatchMode:
	UNWIND(.fnstart)
	@ args = 0, pretend = 0, frame = 0
	@ frame_needed = 1, uses_anonymous_args = 0
	UNWIND(.movsp ip)
	mov	ip, sp
	stmfd	sp!, {r4, r5, r6, r7, r8, r9, fp, ip, lr, pc}
	UNWIND(.pad #4)
	UNWIND(.save {r4, r5, r6, r7, r8, r9, fp, ip, lr})
	UNWIND(.setfp fp, ip, #-4)
	sub	fp, ip, #4
	ldr	r4, .L796
	mov	r8, #0
	ldr	r7, .L796+4
	ldr	r9, .L796+8
	add	r6, r4, #768
	b	.L785
.L784:
	ldr	ip, [r9, #68]
	blx	ip
.L793:
	add	r5, r5, #188416
	str	r8, [r5, #2356]
.L781:
	add	r4, r4, #48
	cmp	r4, r6
	beq	.L795
.L785:
	ldr	r5, [r4, #40]
	cmp	r5, #0
	beq	.L781
	ldr	r3, [r5, #80]
	mov	r0, #0
	ldr	r1, .L796+12
	cmp	r3, r0
	beq	.L781
	ldr	ip, [r7]
	ldr	r3, [r7, #4]
	cmp	ip, #1
	mov	r2, ip
	bne	.L784
	cmp	r3, #1
	beq	.L793
	cmp	r3, #2
	addeq	r5, r5, #188416
	streq	ip, [r5, #2356]
	bne	.L784
	add	r4, r4, #48
	cmp	r4, r6
	bne	.L785
.L795:
	ldmfd	sp, {r4, r5, r6, r7, r8, r9, fp, sp, pc}
.L797:
	.align	2
.L796:
	.word	.LANCHOR0+8
	.word	g_DspDrvState
	.word	vfmw_Osal_Func_Ptr_S
	.word	.LC59
	UNWIND(.fnend)
	.size	SM_AddMatchMode, .-SM_AddMatchMode
	.align	2
	.global	SCDDRV_CheckDevice
	.type	SCDDRV_CheckDevice, %function
SCDDRV_CheckDevice:
	UNWIND(.fnstart)
	@ args = 0, pretend = 0, frame = 0
	@ frame_needed = 1, uses_anonymous_args = 0
	UNWIND(.movsp ip)
	mov	ip, sp
	stmfd	sp!, {r4, r5, r6, r7, fp, ip, lr, pc}
	UNWIND(.pad #4)
	UNWIND(.save {r4, r5, r6, r7, fp, ip, lr})
	UNWIND(.setfp fp, ip, #-4)
	sub	fp, ip, #4
	UNWIND(.pad #8)
	sub	sp, sp, #8
	subs	r7, r0, #0
	bne	.L804
	ldr	r4, .L809
	movw	r3, #6422
	str	r7, [sp]
	mov	r0, #26
	ldr	r6, .L809+4
	ldr	r1, [r4, #860]
	ldr	r2, .L809+8
	ldr	ip, [r6, #68]
	str	r1, [sp, #4]
	ldr	r1, .L809+12
	blx	ip
	ldr	r5, [r4, #860]
	cmp	r5, #0
	beq	.L808
	movw	r3, #6432
	ldr	ip, [r6, #68]
	ldr	r2, .L809+8
	mov	r0, #26
	ldr	r1, .L809+12
	str	r5, [sp, #4]
	str	r7, [sp]
	blx	ip
	ldr	r3, [r6]
	blx	r3
	ldr	r3, [r4, #864]
	cmp	r0, r3
	strcc	r0, [r4, #864]
	bcc	.L802
	rsb	r3, r3, r0
	cmp	r3, #2000
	bls	.L802
	ldr	ip, [r6, #68]
	mov	r2, r7
	ldr	r1, .L809+16
	mov	r0, #1
	blx	ip
	mov	r0, r7
	bl	ResetSCD
	ldr	r0, [r4, #856]
	str	r7, [r4, #860]
	mov	r5, #0
	mov	r3, r0, asl #6
	sub	r3, r3, r0, asl #4
	add	r4, r4, r3
	ldr	r3, [r4, #48]
	cmp	r3, #0
	addne	r3, r3, #188416
	strne	r7, [r3, #2352]
	bl	DeleteLastSendRaw
	mov	r0, r5
	sub	sp, fp, #28
	ldmfd	sp, {r4, r5, r6, r7, fp, sp, pc}
.L802:
	mov	r2, #0
	ldr	ip, [r6, #68]
	str	r2, [sp]
	movw	r3, #6475
	ldr	r2, .L809+8
	mov	r0, #26
	ldr	r1, .L809+20
	mov	r5, #1
	blx	ip
.L799:
	mov	r0, r5
	sub	sp, fp, #28
	ldmfd	sp, {r4, r5, r6, r7, fp, sp, pc}
.L808:
	str	r5, [sp]
	movw	r3, #6426
	ldr	ip, [r6, #68]
	mov	r0, #26
	ldr	r2, .L809+8
	ldr	r1, .L809+24
	blx	ip
	mov	r0, r5
	sub	sp, fp, #28
	ldmfd	sp, {r4, r5, r6, r7, fp, sp, pc}
.L804:
	mvn	r5, #0
	b	.L799
.L810:
	.align	2
.L809:
	.word	.LANCHOR0
	.word	vfmw_Osal_Func_Ptr_S
	.word	.LANCHOR3+332
	.word	.LC60
	.word	.LC62
	.word	.LC63
	.word	.LC61
	UNWIND(.fnend)
	.size	SCDDRV_CheckDevice, .-SCDDRV_CheckDevice
	.align	2
	.global	SCDDRV_MarkReloadDsp
	.type	SCDDRV_MarkReloadDsp, %function
SCDDRV_MarkReloadDsp:
	UNWIND(.fnstart)
	@ args = 0, pretend = 0, frame = 0
	@ frame_needed = 1, uses_anonymous_args = 0
	UNWIND(.movsp ip)
	mov	ip, sp
	stmfd	sp!, {fp, ip, lr, pc}
	UNWIND(.pad #4)
	UNWIND(.save {fp, ip, lr})
	UNWIND(.setfp fp, ip, #-4)
	sub	fp, ip, #4
	cmp	r0, #0
	ldmnefd	sp, {fp, sp, pc}
	add	r3, r1, #1
	cmp	r3, #16
	ldmhifd	sp, {fp, sp, pc}
	ldr	r3, .L818
	cmn	r1, #1
	mov	r2, #1
	str	r2, [r3, #868]
	ldmeqfd	sp, {fp, sp, pc}
	mov	r2, r1, asl #6
	mvn	r0, #0
	sub	r1, r2, r1, asl #4
	add	r3, r3, r1
	ldr	r3, [r3, #48]
	add	r3, r3, #188416
	str	r0, [r3, #2356]
	ldmfd	sp, {fp, sp, pc}
.L819:
	.align	2
.L818:
	.word	.LANCHOR0
	UNWIND(.fnend)
	.size	SCDDRV_MarkReloadDsp, .-SCDDRV_MarkReloadDsp
	.align	2
	.global	SM_UpdateMatchMode
	.type	SM_UpdateMatchMode, %function
SM_UpdateMatchMode:
	UNWIND(.fnstart)
	@ args = 0, pretend = 0, frame = 0
	@ frame_needed = 1, uses_anonymous_args = 0
	UNWIND(.movsp ip)
	mov	ip, sp
	stmfd	sp!, {fp, ip, lr, pc}
	UNWIND(.pad #4)
	UNWIND(.save {fp, ip, lr})
	UNWIND(.setfp fp, ip, #-4)
	sub	fp, ip, #4
	cmp	r0, #0
	ldmnefd	sp, {fp, sp, pc}
	cmp	r1, #15
	ldmhifd	sp, {fp, sp, pc}
	mov	r2, r1, asl #6
	ldr	r3, .L822
	sub	r1, r2, r1, asl #4
	mov	r2, #1
	add	r1, r3, r1
	ldr	r3, [r1, #48]
	add	r3, r3, #188416
	str	r2, [r3, #2356]
	ldmfd	sp, {fp, sp, pc}
.L823:
	.align	2
.L822:
	.word	.LANCHOR0
	UNWIND(.fnend)
	.size	SM_UpdateMatchMode, .-SM_UpdateMatchMode
	.align	2
	.global	WaitSCDFinish
	.type	WaitSCDFinish, %function
WaitSCDFinish:
	UNWIND(.fnstart)
	@ args = 0, pretend = 0, frame = 0
	@ frame_needed = 1, uses_anonymous_args = 0
	UNWIND(.movsp ip)
	mov	ip, sp
	stmfd	sp!, {r4, r5, r6, fp, ip, lr, pc}
	UNWIND(.pad #4)
	UNWIND(.save {r4, r5, r6, fp, ip, lr})
	UNWIND(.setfp fp, ip, #-4)
	sub	fp, ip, #4
	UNWIND(.pad #12)
	sub	sp, sp, #12
	ldr	r2, .L834
	mov	r3, r0, asl #7
	sub	r0, r3, r0, asl #5
	add	r0, r0, r2
	ldr	r3, [r0, #4]
	cmp	r3, #1
	beq	.L825
.L827:
	mov	r0, #0
.L826:
	sub	sp, fp, #24
	ldmfd	sp, {r4, r5, r6, fp, sp, pc}
.L825:
	ldr	r6, .L834+4
	movw	r5, #41248
	movt	r5, 7
	ldr	r3, [r6]
	blx	r3
	mov	r4, r0
	b	.L831
.L830:
	subs	r5, r5, #1
	beq	.L833
.L831:
	movw	r0, #51264
	movt	r0, 63683
	bl	MEM_ReadPhyWord
	tst	r0, #1
	bne	.L827
	ldr	r3, [r6]
	blx	r3
	cmp	r4, r0
	rsb	r2, r0, r4
	rsb	r3, r4, r0
	mvnhi	r3, r2
	cmp	r3, #1000
	bls	.L830
	str	r3, [sp]
	mov	r2, r4
	mov	r3, r0
	ldr	ip, [r6, #68]
	ldr	r1, .L834+8
	mov	r0, #0
	blx	ip
	mvn	r0, #6
	b	.L826
.L833:
	mvn	r0, #6
	b	.L826
.L835:
	.align	2
.L834:
	.word	.LANCHOR0+856
	.word	vfmw_Osal_Func_Ptr_S
	.word	.LC64
	UNWIND(.fnend)
	.size	WaitSCDFinish, .-WaitSCDFinish
	.align	2
	.global	PrintScdVtrlReg
	.type	PrintScdVtrlReg, %function
PrintScdVtrlReg:
	UNWIND(.fnstart)
	@ args = 0, pretend = 0, frame = 16
	@ frame_needed = 1, uses_anonymous_args = 0
	UNWIND(.movsp ip)
	mov	ip, sp
	stmfd	sp!, {r4, r5, r6, r7, r8, r9, r10, fp, ip, lr, pc}
	UNWIND(.pad #4)
	UNWIND(.save {r4, r5, r6, r7, r8, r9, r10, fp, ip, lr})
	UNWIND(.setfp fp, ip, #-4)
	sub	fp, ip, #4
	UNWIND(.pad #20)
	sub	sp, sp, #20
	str	r0, [fp, #-56]
	movw	r0, #51204
	ldr	r4, .L837
	movt	r0, 63683
	bl	MEM_ReadPhyWord
	str	r0, [fp, #-52]
	movw	r0, #51208
	movt	r0, 63683
	bl	MEM_ReadPhyWord
	mov	r10, r0
	movw	r0, #51212
	movt	r0, 63683
	bl	MEM_ReadPhyWord
	mov	r9, r0
	movw	r0, #51216
	movt	r0, 63683
	bl	MEM_ReadPhyWord
	mov	r8, r0
	movw	r0, #51220
	movt	r0, 63683
	bl	MEM_ReadPhyWord
	mov	r7, r0
	movw	r0, #51224
	movt	r0, 63683
	bl	MEM_ReadPhyWord
	mov	r6, r0
	movw	r0, #51232
	movt	r0, 63683
	bl	MEM_ReadPhyWord
	mov	r5, r0
	mov	r0, #51200
	movt	r0, 63683
	bl	MEM_ReadPhyWord
	ldr	ip, [r4, #68]
	ldr	r2, [fp, #-56]
	ldr	r1, .L837+4
	str	r0, [fp, #-48]
	mov	r0, #24
	blx	ip
	ldr	r3, [fp, #-52]
	ldr	r1, .L837+8
	mov	r0, #24
	mov	r2, r3
	ldr	r3, [r4, #68]
	blx	r3
	mov	r2, r10
	ldr	r3, [r4, #68]
	mov	r0, #24
	ldr	r1, .L837+12
	blx	r3
	mov	r2, r9
	ldr	r3, [r4, #68]
	mov	r0, #24
	ldr	r1, .L837+16
	blx	r3
	mov	r2, r8
	ldr	r3, [r4, #68]
	mov	r0, #24
	ldr	r1, .L837+20
	blx	r3
	mov	r2, r7
	ldr	r3, [r4, #68]
	mov	r0, #24
	ldr	r1, .L837+24
	blx	r3
	mov	r2, r6
	ldr	r3, [r4, #68]
	mov	r0, #24
	ldr	r1, .L837+28
	blx	r3
	mov	r2, r5
	ldr	r3, [r4, #68]
	mov	r0, #24
	ldr	r1, .L837+32
	blx	r3
	ldr	r3, [r4, #68]
	ldrsb	r2, [fp, #-48]
	mov	r0, #24
	ldr	r1, .L837+36
	sub	sp, fp, #40
	ldmfd	sp, {r4, r5, r6, r7, r8, r9, r10, fp, sp, lr}
	bx	r3
.L838:
	.align	2
.L837:
	.word	vfmw_Osal_Func_Ptr_S
	.word	.LC65
	.word	.LC66
	.word	.LC67
	.word	.LC68
	.word	.LC69
	.word	.LC70
	.word	.LC71
	.word	.LC72
	.word	.LC73
	UNWIND(.fnend)
	.size	PrintScdVtrlReg, .-PrintScdVtrlReg
	.align	2
	.global	WriteScdVtrlReg
	.type	WriteScdVtrlReg, %function
WriteScdVtrlReg:
	UNWIND(.fnstart)
	@ args = 0, pretend = 0, frame = 0
	@ frame_needed = 1, uses_anonymous_args = 0
	UNWIND(.movsp ip)
	mov	ip, sp
	stmfd	sp!, {r4, r5, r6, r7, fp, ip, lr, pc}
	UNWIND(.pad #4)
	UNWIND(.save {r4, r5, r6, r7, fp, ip, lr})
	UNWIND(.setfp fp, ip, #-4)
	sub	fp, ip, #4
	ldr	r4, .L844
	mov	r5, r0
	mov	r6, r1
	ldr	r1, [r0, #4]
	ldr	r0, [r4, #4]
	add	r0, r0, #2048
	add	r0, r0, #4
	bl	MEM_WritePhyWord
	ldr	r0, [r4, #4]
	ldr	r1, [r5, #12]
	add	r0, r0, #2048
	add	r0, r0, #8
	bl	MEM_WritePhyWord
	ldr	r0, [r4, #4]
	ldr	r1, [r5, #20]
	add	r0, r0, #2048
	add	r0, r0, #12
	bl	MEM_WritePhyWord
	ldr	r0, [r4, #4]
	ldr	r1, [r5, #24]
	add	r0, r0, #2064
	bl	MEM_WritePhyWord
	ldr	r0, [r4, #4]
	ldr	r1, [r5, #28]
	add	r0, r0, #2064
	add	r0, r0, #4
	bl	MEM_WritePhyWord
	ldr	r0, [r4, #4]
	ldr	r1, [r5, #32]
	add	r0, r0, #2064
	add	r0, r0, #8
	bl	MEM_WritePhyWord
	ldrsb	r3, [r5, #1]
	ldr	r1, [r5, #36]
	ldr	r2, [r5, #104]
	ldr	r0, [r4, #4]
	mov	r3, r3, asl #4
	and	r1, r1, #15
	and	r3, r3, #16
	orr	r1, r1, r2, asl #8
	add	r0, r0, #2080
	orr	r1, r1, r3
	bl	MEM_WritePhyWord
	ldr	r3, [r5, #104]
	cmp	r3, #0
	beq	.L840
	ldr	r1, [r5, #108]
	ldr	r0, [r4, #4]
	bl	MEM_WritePhyWord
.L840:
	ldr	r0, [r4, #4]
	ldr	r1, [r5, #44]
	add	r0, r0, #2080
	add	r0, r0, #8
	bl	MEM_WritePhyWord
	ldr	r0, [r4, #4]
	ldr	r1, [r5, #56]
	add	r0, r0, #2080
	add	r0, r0, #12
	bl	MEM_WritePhyWord
	ldr	r0, [r4, #4]
	ldr	r1, [r5, #68]
	add	r0, r0, #2096
	bl	MEM_WritePhyWord
	ldr	r0, [r4, #4]
	ldr	r1, [r5, #80]
	add	r0, r0, #2096
	add	r0, r0, #4
	bl	MEM_WritePhyWord
	mov	r3, r6, asl #7
	ldr	r0, [r4, #4]
	sub	r3, r3, r6, asl #5
	add	r3, r4, r3
	add	r0, r0, #2096
	ldr	r1, [r3, #832]
	add	r0, r0, #8
	bl	MEM_WritePhyWord
	mov	r0, r6
	bl	PrintScdVtrlReg
	ldr	r0, [r4, #4]
	mov	r1, #0
	add	r0, r0, #2048
	bl	MEM_WritePhyWord
	ldrb	r1, [r5, #2]	@ zero_extendqisi2
	ldr	r0, [r4, #4]
	and	r1, r1, #1
	add	r0, r0, #2048
	sub	sp, fp, #28
	ldmfd	sp, {r4, r5, r6, r7, fp, sp, lr}
	b	MEM_WritePhyWord
.L845:
	.align	2
.L844:
	.word	.LANCHOR0
	UNWIND(.fnend)
	.size	WriteScdVtrlReg, .-WriteScdVtrlReg
	.align	2
	.global	PrintDownMsg
	.type	PrintDownMsg, %function
PrintDownMsg:
	UNWIND(.fnstart)
	@ args = 0, pretend = 0, frame = 0
	@ frame_needed = 1, uses_anonymous_args = 0
	UNWIND(.movsp ip)
	mov	ip, sp
	stmfd	sp!, {r4, r5, r6, r7, r8, r9, fp, ip, lr, pc}
	UNWIND(.pad #4)
	UNWIND(.save {r4, r5, r6, r7, r8, r9, fp, ip, lr})
	UNWIND(.setfp fp, ip, #-4)
	sub	fp, ip, #4
	ldr	r5, .L851
	mov	r4, r0
	mov	r8, r1
	mov	r7, r2
	ldr	r1, .L851+4
	mov	r2, r3
	mov	r0, #24
	ldr	r3, [r5, #68]
	blx	r3
	ldr	r3, [r5, #68]
	mov	r2, r8
	ldr	r1, .L851+8
	mov	r0, #24
	blx	r3
	mov	r2, r4
	ldr	r3, [r5, #68]
	mov	r0, #24
	ldr	r1, .L851+12
	blx	r3
	cmp	r7, #0
	ldmlefd	sp, {r4, r5, r6, r7, r8, r9, fp, sp, pc}
	add	r7, r7, r7, lsl #1
	mov	r6, r8
	mov	r4, #0
.L848:
	mov	r2, r4
	ldr	r3, [r8, r4, asl #2]
	ldr	ip, [r5, #68]
	mov	r0, #24
	ldr	r1, .L851+16
	add	r6, r6, #12
	blx	ip
	ldr	r3, [r6, #-8]
	add	r2, r4, #1
	ldr	ip, [r5, #68]
	ldr	r1, .L851+16
	mov	r0, #24
	blx	ip
	ldr	r3, [r6, #-4]
	add	r2, r4, #2
	ldr	ip, [r5, #68]
	ldr	r1, .L851+16
	mov	r0, #24
	blx	ip
	add	r4, r4, #3
	ldr	r3, [r5, #68]
	mov	r0, #24
	ldr	r1, .L851+20
	blx	r3
	cmp	r4, r7
	bne	.L848
	ldmfd	sp, {r4, r5, r6, r7, r8, r9, fp, sp, pc}
.L852:
	.align	2
.L851:
	.word	vfmw_Osal_Func_Ptr_S
	.word	.LC74
	.word	.LC75
	.word	.LC76
	.word	.LC77
	.word	.LC16
	UNWIND(.fnend)
	.size	PrintDownMsg, .-PrintDownMsg
	.align	2
	.global	WriteScdMsg
	.type	WriteScdMsg, %function
WriteScdMsg:
	UNWIND(.fnstart)
	@ args = 12, pretend = 0, frame = 104
	@ frame_needed = 1, uses_anonymous_args = 0
	UNWIND(.movsp ip)
	mov	ip, sp
	stmfd	sp!, {r4, r5, r6, r7, r8, r9, r10, fp, ip, lr, pc}
	UNWIND(.pad #4)
	UNWIND(.save {r4, r5, r6, r7, r8, r9, r10, fp, ip, lr})
	UNWIND(.setfp fp, ip, #-4)
	sub	fp, ip, #4
	UNWIND(.pad #108)
	sub	sp, sp, #108
	str	r1, [fp, #-148]
	mov	r7, r2
	mov	r8, r0
	mov	r2, #96
	sub	r0, fp, #140
	mov	r1, #0
	mov	r6, r3
	bl	memset
	cmp	r7, #0
	beq	.L864
	add	r3, r7, #98304
	ldmia	r3, {r1, r2}
	cmp	r1, r2
	beq	.L865
	ldr	r5, [r3, #12]
	mov	r4, r5
.L854:
	sub	r1, fp, #140
	mov	r0, r7
	bl	ShowFirstRawPacket
	ldr	r3, [fp, #-132]
	ldr	r1, [fp, #-148]
	mov	r9, #0
	rsb	r5, r5, r3
	ldr	r2, [fp, #-140]
	ldr	r3, [fp, #-136]
	cmp	r5, r1
	add	r2, r2, r4
	str	r9, [r6]
	add	r3, r3, r4
	str	r9, [r6, #4]
	str	r9, [r6, #8]
	str	r5, [fp, #-132]
	str	r2, [fp, #-140]
	str	r3, [fp, #-136]
	str	r9, [r8, #4]
	bgt	.L855
	mov	r10, r9
	mov	lr, r5
	str	r1, [fp, #-144]
	b	.L858
.L875:
	ldr	lr, [fp, #-132]
	movw	r2, #1023
	ldr	r3, [fp, #-144]
	add	r5, r5, lr
	cmp	r3, r5
	movlt	r3, #0
	movge	r3, #1
	cmp	r10, r2
	movgt	r3, #0
	cmp	r3, #0
	beq	.L857
.L858:
	cmp	lr, #0
	mov	r3, r9, asl #2
	add	ip, r6, r3
	sub	r1, fp, #140
	mov	r0, r7
	add	r3, r3, #12
	ble	.L856
	ldr	r2, [fp, #4]
	ldr	r4, [fp, #-140]
	add	r3, r3, r2
	mov	r2, #0
	str	r2, [fp, #-132]
	ldr	r2, [fp, #-140]
	str	r4, [r6, r9, asl #2]
	add	r9, r9, #3
	sub	r2, r2, #1
	str	r3, [ip, #8]
	add	lr, r2, lr
	str	lr, [ip, #4]
.L856:
	str	r5, [r8, #4]
	add	r10, r10, #1
	bl	ShowNextRawPacket
	cmp	r0, #0
	beq	.L875
.L857:
	ldr	r3, [fp, #8]
	cmp	r3, #0
	bne	.L859
	ldr	r3, [fp, #-132]
	cmp	r3, #0
	bne	.L863
.L859:
	cmp	r10, #0
	beq	.L862
	sub	r9, r9, #-1073741823
	ldr	r0, [fp, #4]
	mov	r4, #0
	mov	ip, #1
	str	r4, [r6, r9, asl #2]
	mov	r2, r10
	mov	r1, r6
	str	r10, [r8]
	ldr	r3, [fp, #12]
	str	ip, [r8, #8]
	bl	PrintDownMsg
	mov	r0, r4
	sub	sp, fp, #40
	ldmfd	sp, {r4, r5, r6, r7, r8, r9, r10, fp, sp, pc}
.L855:
	ldr	r3, [fp, #8]
	cmp	r3, #0
	bne	.L862
	cmp	r5, #0
	beq	.L862
	ldr	r9, [fp, #8]
	mov	r3, r5
	mov	r10, r9
.L863:
	ldr	r1, [fp, #-148]
	ldr	r2, [r8, #4]
	sub	r1, r1, #16
	cmp	r2, r1
	bge	.L859
	ldr	r1, [fp, #-148]
	cmp	r1, r5
	cmplt	r10, #1024
	bge	.L859
	rsb	r2, r2, r1
	cmp	r3, r2
	blt	.L859
	mov	r3, r9, asl #2
	ldr	ip, [fp, #-140]
	add	r0, r6, r3
	ldr	lr, [fp, #4]
	add	r3, r3, #12
	sub	r1, ip, #1
	str	ip, [r6, r9, asl #2]
	add	r1, r1, r2
	add	r3, r3, lr
	stmib	r0, {r1, r3}
	ldr	r3, [r8, #4]
	mov	r1, #0
	add	r10, r10, #1
	add	r9, r9, #3
	add	r2, r3, r2
	str	r1, [fp, #-132]
	str	r2, [r8, #4]
	b	.L859
.L865:
	mov	r4, #0
	mov	r5, r4
	b	.L854
.L864:
	mov	r4, r7
	mov	r5, r7
	b	.L854
.L862:
	mvn	r0, #5
	sub	sp, fp, #40
	ldmfd	sp, {r4, r5, r6, r7, r8, r9, r10, fp, sp, pc}
	UNWIND(.fnend)
	.size	WriteScdMsg, .-WriteScdMsg
	.align	2
	.global	ScdDriver
	.type	ScdDriver, %function
ScdDriver:
	UNWIND(.fnstart)
	@ args = 12, pretend = 0, frame = 0
	@ frame_needed = 1, uses_anonymous_args = 0
	UNWIND(.movsp ip)
	mov	ip, sp
	stmfd	sp!, {r4, r5, r6, r7, r8, r9, fp, ip, lr, pc}
	UNWIND(.pad #4)
	UNWIND(.save {r4, r5, r6, r7, r8, r9, fp, ip, lr})
	UNWIND(.setfp fp, ip, #-4)
	sub	fp, ip, #4
	UNWIND(.pad #16)
	sub	sp, sp, #16
	ldr	r4, [fp, #12]
	mov	r5, r0
	mov	r6, r1
	mov	r7, r2
	mov	r9, r3
	mov	r0, r4
	ldr	r8, [fp, #8]
	bl	ResetSCD
	ldr	ip, [r5, #104]
	mov	r0, r6
	str	r4, [sp, #8]
	mov	r2, r9
	str	r8, [sp]
	mov	r1, r7
	str	ip, [sp, #4]
	ldr	r3, [fp, #4]
	bl	WriteScdMsg
	subs	r6, r0, #0
	bne	.L877
	ldr	r3, .L878
	ldr	r3, [r3]
	blx	r3
	ldr	r3, .L878+4
	mov	r2, #84
	mov	r1, r4
	mla	r4, r2, r4, r3
	str	r0, [r4, #68]
	mov	r0, r5
	bl	WriteScdVtrlReg
.L877:
	mov	r0, r6
	sub	sp, fp, #36
	ldmfd	sp, {r4, r5, r6, r7, r8, r9, fp, sp, pc}
.L879:
	.align	2
.L878:
	.word	vfmw_Osal_Func_Ptr_S
	.word	g_VfmwGlobalStat
	UNWIND(.fnend)
	.size	ScdDriver, .-ScdDriver
	.align	2
	.global	CutStreamWithSCD
	.type	CutStreamWithSCD, %function
CutStreamWithSCD:
	UNWIND(.fnstart)
	@ args = 0, pretend = 0, frame = 152
	@ frame_needed = 1, uses_anonymous_args = 0
	UNWIND(.movsp ip)
	mov	ip, sp
	stmfd	sp!, {r4, r5, r6, r7, r8, r9, r10, fp, ip, lr, pc}
	UNWIND(.pad #4)
	UNWIND(.save {r4, r5, r6, r7, r8, r9, r10, fp, ip, lr})
	UNWIND(.setfp fp, ip, #-4)
	sub	fp, ip, #4
	UNWIND(.pad #172)
	sub	sp, sp, #172
	add	r6, r0, #98304
	cmn	r6, #128
	ldr	r2, [r0, #56]
	mov	r4, r0
	str	r1, [fp, #-168]
	movne	r8, #0
	moveq	r8, #1
	cmn	r0, #104
	str	r2, [fp, #-172]
	ldr	r2, [r0, #80]
	add	r10, r6, #128
	movne	r5, #0
	moveq	r5, #1
	orrs	r3, r5, r8
	str	r2, [fp, #-180]
	add	r2, r0, #104
	str	r2, [fp, #-176]
	mov	r2, #0
	str	r2, [fp, #-160]
	bne	.L883
	add	r7, r0, #190464
	ldr	r9, .L906
	add	r7, r7, #184
	str	r3, [fp, #-164]
	mov	r1, r3
	mov	r2, #12
	mov	r0, r7
	ldr	r3, [r9, #48]
	blx	r3
	cmp	r5, #0
	bne	.L883
	ldr	r3, [r6, #104]
	mov	r0, #26
	ldr	r5, [r6, #108]
	ldr	r1, .L906+4
	subs	r5, r5, r3
	ldr	r3, [r9, #68]
	addmi	r5, r5, #1024
	mov	r2, r5
	blx	r3
	ldr	r2, [r6, #124]
	ldr	r3, [r6, #116]
	ldr	r1, .L906
	rsb	r6, r3, r2
	movs	ip, r6, asr #31
	beq	.L903
.L900:
	mov	r0, ip
	sub	sp, fp, #40
	ldmfd	sp, {r4, r5, r6, r7, r8, r9, r10, fp, sp, pc}
.L883:
	mvn	ip, #0
	mov	r0, ip
	sub	sp, fp, #40
	ldmfd	sp, {r4, r5, r6, r7, r8, r9, r10, fp, sp, pc}
.L903:
	ldr	r3, [r1, #68]
	mov	r2, r6
	ldr	r1, .L906+8
	mov	r0, #26
	str	ip, [fp, #-184]
	blx	r3
	cmp	r6, #3
	cmpgt	r5, #0
	ble	.L897
	cmp	r8, #0
	bne	.L883
	add	r5, r4, #188416
	ldr	ip, [fp, #-184]
	ldr	r1, .L906+12
	mov	r0, #26
	ldr	r3, [r5, #2188]
	ldr	r8, [r5, #2184]
	str	ip, [fp, #-184]
	subs	r8, r3, r8
	ldr	r3, [r9, #68]
	addmi	r8, r8, #1152
	rsb	r8, r8, #1152
	mov	r2, r8
	blx	r3
	cmp	r8, #288
	ldr	ip, [fp, #-184]
	ble	.L894
	mov	r0, r10
	sub	r2, fp, #164
	sub	r1, fp, #160
	str	ip, [fp, #-184]
	bl	GetFreeSegBuf
	ldr	r1, [fp, #-160]
	ldr	r3, .L906
	mov	r0, #26
	ldr	r2, [fp, #-164]
	add	r1, r1, #3
	bic	r1, r1, #3
	str	r1, [fp, #-160]
	sub	r2, r2, #79
	ldr	r3, [r3, #68]
	str	r2, [fp, #-164]
	ldr	r1, .L906+16
	blx	r3
	ldr	r10, [r5, #2204]
	ldr	r3, [fp, #-164]
	ldr	ip, [fp, #-184]
	cmp	r3, r10, asr #3
	ble	.L894
	ldr	r3, [r5, #2200]
	ldr	r1, [fp, #-168]
	ldr	r0, [r5, #2344]
	str	ip, [fp, #-188]
	str	r3, [fp, #-184]
	bl	SM_CfgBuf
	ldr	ip, [fp, #-188]
	subs	r3, r0, #0
	str	r3, [fp, #-192]
	ldr	r3, [fp, #-184]
	bne	.L904
	ldr	lr, [fp, #-172]
	add	r2, r4, #200704
	add	r10, r10, r3
	str	r3, [fp, #-132]
	mov	r1, r2
	sub	r3, lr, #16
	str	r8, [r5, #2272]
	str	r2, [fp, #-184]
	mov	r2, #1
	str	r2, [r5, #2352]
	cmp	lr, r2
	cmpne	r3, r2
	ldr	r1, [r1, #3948]
	ldr	r3, [fp, #-180]
	ldr	r0, [r5, #2248]
	mul	r8, r1, r8
	str	r3, [fp, #-52]
	ldr	r3, [r5, #2260]
	sub	r1, lr, #6
	str	r10, [fp, #-128]
	clz	r1, r1
	ldr	r10, [r5, #2252]
	str	r3, [fp, #-144]
	mov	r1, r1, lsr #5
	ldr	r3, [r5, #2276]
	str	r8, [fp, #-136]
	mov	r8, r8, asl #2
	ldr	lr, [fp, #-160]
	str	r8, [r5, #2268]
	str	r3, [fp, #-112]
	ldr	r8, [r5, #2288]
	ldr	r3, [r5, #2300]
	ldr	r5, [r5, #2312]
	strb	r2, [fp, #-154]
	strb	r2, [fp, #-156]
	str	r0, [fp, #-152]
	str	r10, [fp, #-148]
	str	lr, [fp, #-124]
	str	r8, [fp, #-100]
	str	r3, [fp, #-88]
	str	r5, [fp, #-76]
	str	r1, [fp, #-48]
	bls	.L898
	cmp	r1, #0
	strneb	r2, [fp, #-155]
	ldrne	lr, [fp, #-172]
	beq	.L905
.L891:
	ldr	r1, [fp, #-168]
	str	r0, [sp, #4]
	sub	r0, fp, #156
	ldr	r2, [fp, #-164]
	str	r1, [sp, #8]
	mov	r1, r7
	ldr	r3, [fp, #-176]
	str	r10, [sp]
	str	ip, [fp, #-172]
	str	lr, [fp, #-120]
	mov	lr, #1
	str	lr, [fp, #-116]
	bl	ScdDriver
	subs	r5, r0, #0
	movne	ip, r5
	bne	.L900
	ldr	r3, [fp, #-164]
	ldr	r7, [fp, #-184]
	cmp	r3, r6
	str	r6, [r7, #3920]
	movlt	r6, #0
	str	r3, [r7, #3924]
	movge	r6, #1
	strb	r5, [r4, #4]
	strb	r6, [r4, #2]
	ldr	r3, [r9]
	blx	r3
	ldr	ip, [fp, #-172]
	str	r0, [r7, #3944]
	strb	r5, [r4, #3]
	b	.L900
.L894:
	mvn	ip, #5
	b	.L900
.L898:
	ldr	lr, [fp, #-192]
.L888:
	mov	r3, #0
	strb	r3, [fp, #-155]
	b	.L891
.L904:
	ldr	r3, .L906
	mov	r2, r0
	ldr	r1, .L906+20
	mov	r0, #26
	str	r2, [fp, #-168]
	ldr	r3, [r3, #68]
	blx	r3
	ldr	ip, [fp, #-168]
	b	.L900
.L897:
	mvn	ip, #4
	b	.L900
.L905:
	ldr	lr, [fp, #-172]
	sub	r3, lr, #2
	cmp	r3, r2
	bhi	.L888
	strb	r2, [fp, #-155]
	b	.L891
.L907:
	.align	2
.L906:
	.word	vfmw_Osal_Func_Ptr_S
	.word	.LC82
	.word	.LC78
	.word	.LC81
	.word	.LC79
	.word	.LC80
	UNWIND(.fnend)
	.size	CutStreamWithSCD, .-CutStreamWithSCD
	.align	2
	.global	PrintScdStateReg
	.type	PrintScdStateReg, %function
PrintScdStateReg:
	UNWIND(.fnstart)
	@ args = 0, pretend = 0, frame = 0
	@ frame_needed = 1, uses_anonymous_args = 0
	UNWIND(.movsp ip)
	mov	ip, sp
	stmfd	sp!, {r4, r5, fp, ip, lr, pc}
	UNWIND(.pad #4)
	UNWIND(.save {r4, r5, fp, ip, lr})
	UNWIND(.setfp fp, ip, #-4)
	sub	fp, ip, #4
	ldr	r4, .L909
	mov	r5, r0
	mov	r2, r1
	mov	r0, #24
	ldr	r1, .L909+4
	ldr	r3, [r4, #68]
	blx	r3
	ldr	r3, [r4, #68]
	ldr	r2, [r5]
	mov	r0, #24
	ldr	r1, .L909+8
	blx	r3
	ldr	r3, [r4, #68]
	ldr	r2, [r5, #4]
	mov	r0, #24
	ldr	r1, .L909+12
	blx	r3
	ldr	r3, [r4, #68]
	ldr	r2, [r5, #8]
	mov	r0, #24
	ldr	r1, .L909+16
	blx	r3
	ldr	r3, [r4, #68]
	ldr	r2, [r5, #12]
	mov	r0, #24
	ldr	r1, .L909+20
	blx	r3
	ldr	r3, [r4, #68]
	ldr	r2, [r5, #16]
	mov	r0, #24
	ldr	r1, .L909+24
	blx	r3
	ldr	r3, [r4, #68]
	ldr	r2, [r5, #20]
	mov	r0, #24
	ldr	r1, .L909+28
	sub	sp, fp, #20
	ldmfd	sp, {r4, r5, fp, sp, lr}
	bx	r3
.L910:
	.align	2
.L909:
	.word	vfmw_Osal_Func_Ptr_S
	.word	.LC83
	.word	.LC84
	.word	.LC85
	.word	.LC86
	.word	.LC87
	.word	.LC88
	.word	.LC89
	UNWIND(.fnend)
	.size	PrintScdStateReg, .-PrintScdStateReg
	.align	2
	.global	ReadScdStateReg
	.type	ReadScdStateReg, %function
ReadScdStateReg:
	UNWIND(.fnstart)
	@ args = 0, pretend = 0, frame = 0
	@ frame_needed = 1, uses_anonymous_args = 0
	UNWIND(.movsp ip)
	mov	ip, sp
	stmfd	sp!, {r4, r5, r6, r7, fp, ip, lr, pc}
	UNWIND(.pad #4)
	UNWIND(.save {r4, r5, r6, r7, fp, ip, lr})
	UNWIND(.setfp fp, ip, #-4)
	sub	fp, ip, #4
	mov	r4, r0
	movw	r0, #51264
	movt	r0, 63683
	mov	r6, r1
	bl	MEM_ReadPhyWord
	movw	r5, #51276
	movt	r5, 63683
	and	r3, r0, #1
	movw	r0, #51268
	str	r3, [r4]
	movt	r0, 63683
	bl	MEM_ReadPhyWord
	and	r3, r0, #1
	mov	r0, r5
	str	r3, [r4, #4]
	bl	MEM_ReadPhyWord
	mov	r3, r0, lsr #22
	mov	r0, r5
	str	r3, [r4, #8]
	bl	MEM_ReadPhyWord
	ubfx	r3, r0, #0, #22
	movw	r0, #51280
	str	r3, [r4, #12]
	movt	r0, 63683
	bl	MEM_ReadPhyWord
	str	r0, [r4, #16]
	movw	r0, #51284
	movt	r0, 63683
	bl	MEM_ReadPhyWord
	mov	r1, r6
	str	r0, [r4, #20]
	mov	r0, r4
	sub	sp, fp, #28
	ldmfd	sp, {r4, r5, r6, r7, fp, sp, lr}
	b	PrintScdStateReg
	UNWIND(.fnend)
	.size	ReadScdStateReg, .-ReadScdStateReg
	.align	2
	.global	GetNextVop
	.type	GetNextVop, %function
GetNextVop:
	UNWIND(.fnstart)
	@ args = 4, pretend = 0, frame = 32
	@ frame_needed = 1, uses_anonymous_args = 0
	UNWIND(.movsp ip)
	mov	ip, sp
	stmfd	sp!, {r4, r5, r6, r7, r8, r9, r10, fp, ip, lr, pc}
	UNWIND(.pad #4)
	UNWIND(.save {r4, r5, r6, r7, r8, r9, r10, fp, ip, lr})
	UNWIND(.setfp fp, ip, #-4)
	sub	fp, ip, #4
	UNWIND(.pad #36)
	sub	sp, sp, #36
	mov	r8, r0
	movw	r0, #51232
	mov	r9, r2
	movt	r0, 63683
	mov	r6, r3
	mov	r4, r1
	bl	MEM_ReadPhyWord
	ldr	r1, [fp, #4]
	sub	r0, fp, #68
	bl	ReadScdStateReg
	ldr	r3, [fp, #-52]
	cmp	r3, #0
	mvneq	r5, #6
	movne	r5, #0
	cmp	r9, #0
	beq	.L914
	add	r2, r9, #90112
	ldr	r3, [r2, #2060]
	ldr	r2, [r2, #2056]
	subs	r3, r3, r2
	addmi	r3, r3, #1152
	rsb	r3, r3, #1152
	str	r3, [fp, #-72]
.L925:
	cmp	r5, #0
	bne	.L929
	subs	r1, r6, #1
	bmi	.L927
	add	r2, r8, #200704
	add	r3, r9, #90112
	mov	r6, #0
	ldr	r0, [r8, #20]
	ldr	r7, [r2, #3948]
	mov	r10, r6
	ldr	r8, [r3, #2072]
	movt	r6, 65025
	movt	r10, 46593
	ldr	r9, [r9]
	mov	r7, r7, asl #2
	mla	r4, r7, r1, r4
	b	.L924
.L932:
	cmp	r0, #2
	beq	.L931
	cmp	r2, r6
	beq	.L921
.L923:
	sub	r3, r1, #1
	rsb	r4, r7, r4
	cmn	r3, #1
	beq	.L930
	mov	r1, r3
.L924:
	ldr	r3, [r4]
	cmp	r0, #1
	rsb	r3, r8, r3
	add	r2, r9, r3
	ldrb	r3, [r9, r3]	@ zero_extendqisi2
	ldrb	lr, [r2, #1]	@ zero_extendqisi2
	ldrb	ip, [r2, #2]	@ zero_extendqisi2
	ldrb	r2, [r2, #3]	@ zero_extendqisi2
	add	r3, r3, lr, lsl #8
	add	ip, r3, ip, lsl #16
	add	r2, ip, r2, lsl #24
	rsbeq	r3, r10, r2
	clzeq	r3, r3
	moveq	r3, r3, lsr #5
	bne	.L932
.L919:
	cmp	r2, r6
	beq	.L921
	cmp	r3, #1
	bne	.L923
.L921:
	add	r5, r5, #1
	cmp	r5, #0
	ble	.L923
	ldr	r3, [fp, #-72]
	cmp	r1, r3
	bhi	.L923
.L930:
	mov	r5, r1
.L929:
	mov	r0, r5
	sub	sp, fp, #40
	ldmfd	sp, {r4, r5, r6, r7, r8, r9, r10, fp, sp, pc}
.L931:
	ubfx	r3, r2, #16, #8
	sub	r3, r3, #128
	cmp	r3, #3
	movhi	r3, #0
	movls	r3, #1
	b	.L919
.L914:
	ldr	ip, .L933
	movw	r3, #3958
	ldr	r2, .L933+4
	mov	r0, #22
	ldr	r1, .L933+8
	ldr	ip, [ip, #68]
	blx	ip
	mov	r3, #1152
	str	r3, [fp, #-72]
	b	.L925
.L927:
	mov	r5, r6
	b	.L929
.L934:
	.align	2
.L933:
	.word	vfmw_Osal_Func_Ptr_S
	.word	.LANCHOR3+352
	.word	.LC90
	UNWIND(.fnend)
	.size	GetNextVop, .-GetNextVop
	.global	__aeabi_uidiv
	.align	2
	.global	ProcessScdReturn
	.type	ProcessScdReturn, %function
ProcessScdReturn:
	UNWIND(.fnstart)
	@ args = 0, pretend = 0, frame = 264
	@ frame_needed = 1, uses_anonymous_args = 0
	UNWIND(.movsp ip)
	mov	ip, sp
	stmfd	sp!, {r4, r5, r6, r7, r8, r9, r10, fp, ip, lr, pc}
	UNWIND(.pad #4)
	UNWIND(.save {r4, r5, r6, r7, r8, r9, r10, fp, ip, lr})
	UNWIND(.setfp fp, ip, #-4)
	sub	fp, ip, #4
	UNWIND(.pad #276)
	sub	sp, sp, #276
	add	r3, r0, #188416
	str	r3, [fp, #-264]
	mov	r6, #0
	ldr	r3, [r3, #2240]
	mov	r10, r0
	mov	r5, r1
	str	r6, [fp, #-240]
	cmp	r3, #3
	str	r6, [fp, #-236]
	beq	.L1036
	movw	r0, #51232
	ldr	r9, .L1049
	movt	r0, 63683
	add	r4, r10, #200704
	bl	MEM_ReadPhyWord
	ldr	ip, [fp, #-264]
	ldr	r3, [r9, #48]
	mov	r1, #2
	mov	r2, #80
	sub	r0, fp, #204
	str	r1, [ip, #2240]
	mov	r1, r6
	blx	r3
	ldr	r3, [r9, #48]
	mov	r2, #80
	mov	r1, r6
	sub	r0, fp, #124
	blx	r3
	mov	r1, r6
	ldr	r3, [r9, #48]
	mov	r2, #24
	sub	r0, fp, #228
	blx	r3
	ldr	r3, [r4, #3948]
	sub	r0, fp, #228
	mov	r1, r5
	str	r3, [fp, #-276]
	bl	ReadScdStateReg
	ldr	r3, [fp, #-212]
	cmp	r3, #0
	beq	.L1032
	ldr	r2, [fp, #-216]
	movw	r3, #34464
	movt	r3, 1
	add	r1, r10, #104
	cmp	r2, r3
	str	r1, [fp, #-284]
	str	r2, [fp, #-300]
	str	r2, [fp, #-244]
	bls	.L939
	ldr	r0, [r10, #56]
	cmp	r0, #0
	beq	.L1037
.L939:
	add	r3, r10, #98304
	str	r3, [fp, #-272]
	adds	r3, r3, #128
	str	r3, [fp, #-268]
	movw	r0, #51232
	ldrne	r3, [fp, #-264]
	movt	r0, 63683
	ldreq	r3, [fp, #-268]
	ldrne	r2, [r3, #2200]
	ldrne	r6, [r3, #2204]
	moveq	r6, r3
	streq	r3, [fp, #-256]
	strne	r2, [fp, #-256]
	bl	MEM_ReadPhyWord
	ldr	r3, [fp, #-244]
	cmp	r3, #1152
	movlt	r7, r3
	movge	r7, #1152
	and	r3, r0, #15
	movw	r0, #51212
	str	r3, [r10, #16]
	movt	r0, 63683
	bl	MEM_ReadPhyWord
	ldr	r1, [fp, #-276]
	bl	__aeabi_uidiv
	cmp	r7, r0
	bhi	.L1038
	ldr	r3, [fp, #-244]
	cmp	r3, #1152
	movlt	r0, r3
	movge	r0, #1152
.L942:
	cmp	r0, r3
	str	r0, [r10, #40]
	bge	.L943
	ldrsb	r3, [r10, #2]
	cmp	r3, #1
	moveq	r3, #0
	streqb	r3, [r10, #2]
.L943:
	ldr	ip, [fp, #-264]
	add	r2, r10, #190464
	ldr	lr, [fp, #-256]
	mov	r1, r2
	add	r2, r1, #316
	add	r1, r10, #8
	ldr	r3, [ip, #2264]
	str	r2, [fp, #-260]
	mov	r7, r1
	str	r1, [fp, #-292]
	mov	r1, r2
	ldr	r2, [fp, #-272]
	str	lr, [r10, #28]
	str	r3, [r10, #12]
	ldr	r0, [fp, #-212]
	ldr	r3, [ip, #2200]
	ldr	r2, [r2, #128]
	rsb	r3, r3, lr
	str	r0, [r10, #36]
	str	r6, [r10, #32]
	add	r3, r2, r3
	ldr	r2, [fp, #-276]
	mov	r0, r7
	str	r3, [r10, #8]
	sub	r3, fp, #244
	ldr	ip, [ip, #2344]
	str	r2, [sp]
	sub	r2, fp, #232
	str	ip, [r10, #44]
	bl	ScdReturnSegFilter
	subs	r7, r0, #0
	bne	.L1032
	ldr	r6, [fp, #-244]
	cmp	r6, #1
	ble	.L1039
	movw	r0, #51212
	strb	r7, [r10]
	movt	r0, 63683
	bl	MEM_ReadPhyWord
	ldr	r4, [fp, #-276]
	mov	r1, r4
	bl	__aeabi_uidiv
	cmp	r6, r0
	bcs	.L950
	ldr	r3, [fp, #-244]
	ldr	r2, [fp, #-260]
	sub	r3, r3, #1
	str	r3, [fp, #-296]
	str	r3, [fp, #-244]
	mul	r3, r4, r3
	add	r3, r3, #1
	ldr	r3, [r2, r3, asl #2]
	bic	r3, r3, #-2147483648
	str	r3, [fp, #-280]
.L951:
	ldr	r3, [r10, #56]
	cmp	r3, #2
	beq	.L1040
.L954:
	ldr	r3, [fp, #-264]
	mov	r8, #0
	str	r10, [fp, #-252]
	mov	r7, r8
	str	r8, [fp, #-288]
	ldr	r3, [r3, #2188]
	ldr	r5, [fp, #-260]
	ldr	r1, [fp, #-296]
	str	r3, [fp, #-304]
	ldr	r3, [fp, #-276]
	mov	r3, r3, asl #2
	mov	r10, r3
	b	.L955
.L1044:
	ldr	r3, [fp, #-116]
	cmp	r3, #0
	bne	.L1041
	ldr	r3, [fp, #-252]
	ldr	r3, [r3, #56]
	cmp	r3, #2
	beq	.L1042
.L964:
	ldr	r3, [fp, #-264]
	sub	r2, fp, #240
	str	r6, [fp, #-196]
	sub	r1, fp, #236
	ldr	r0, [fp, #-268]
	ldr	r3, [r3, #2200]
	str	r4, [fp, #-192]
	rsb	r6, r3, r6
	ldr	r3, [fp, #-272]
	ldr	r3, [r3, #128]
	add	r6, r3, r6
	mov	r3, #1
	str	r6, [fp, #-204]
	strb	r3, [fp, #-199]
	bl	GetFreeSegBuf
	ldr	r3, [fp, #-196]
	ldr	r2, [fp, #-240]
	cmp	r3, #0
	beq	.L965
	ldr	r3, [fp, #-204]
	cmp	r3, #0
	beq	.L965
	ldr	r3, [fp, #-192]
	cmp	r2, r3
	blt	.L965
	ldr	r3, [fp, #-252]
	ldr	r1, [r5, #4]
	add	r2, r3, #203776
	ldr	r0, [fp, #-284]
	add	r2, r2, #840
	sub	r3, fp, #204
	bic	r1, r1, #-2147483648
	bl	GetSegPts
	ldr	r3, [fp, #-264]
	sub	r1, fp, #204
	ldr	r0, [fp, #-268]
	ldr	r2, [r3, #2344]
	bl	InsertStreamSeg
	cmp	r0, #0
	bne	.L1031
	ldrd	r6, [fp, #-180]
	mov	r0, #26
	ldr	r2, [r5, #4]
	ldr	r3, [r9, #68]
	bic	r2, r2, #-2147483648
	ldr	r1, .L1049+4
	strd	r6, [sp]
	blx	r3
	ldrb	lr, [fp, #-199]	@ zero_extendqisi2
	ldr	r1, .L1049+8
	mov	r0, #26
	ldr	r3, [fp, #-192]
	ldr	r2, [fp, #-196]
	ldr	ip, [r9, #68]
	str	lr, [sp]
	blx	ip
	ldr	r1, [fp, #-244]
.L963:
	ldr	r7, [fp, #-248]
	add	r5, r5, r10
	add	r8, r8, r10
.L955:
	cmp	r7, r1
	bge	.L1043
	ldr	r3, [fp, #-260]
	add	r0, r7, #1
	ldr	r6, [r5]
	add	r2, r3, r10
	ldr	r3, [r5, #4]
	str	r0, [fp, #-248]
	ldr	ip, [r2, r8]
	mov	r3, r3, lsr #31
	strb	r3, [fp, #-197]
	ldr	r3, [fp, #-256]
	cmp	ip, r3
	rsbne	r4, r6, ip
	ldreq	r4, [fp, #-212]
	rsbeq	r4, r6, r4
	cmp	r4, #3
	bgt	.L1044
	sub	r3, r4, #1
	cmp	r3, #2
	bhi	.L967
	ldr	r3, [fp, #-252]
	ldr	r3, [r3, #56]
	cmp	r3, #2
	bne	.L963
	mov	r0, ip
	bl	MEM_Phy2Vir
	cmp	r0, #0
	beq	.L1032
	ldrb	r2, [r0, #1]	@ zero_extendqisi2
	ldrb	r3, [r0]	@ zero_extendqisi2
	ldrb	r1, [r0, #2]	@ zero_extendqisi2
	mov	r2, r2, asl #16
	orr	r3, r2, r3, asl #24
	orr	r3, r3, r1, asl #8
	cmp	r3, #256
	beq	.L1029
	mov	r2, r7
	ldr	r3, [fp, #-276]
	sub	r1, fp, #124
	ldr	r0, [fp, #-292]
	bl	ScdParseUpMsgInfo
	ldr	r3, [fp, #-264]
	ldr	r2, [fp, #-272]
	sub	r1, fp, #236
	ldr	r0, [fp, #-268]
	ldr	r3, [r3, #2200]
	ldr	ip, [r2, #128]
	sub	r2, fp, #240
	rsb	r3, r3, r6
	str	r6, [fp, #-116]
	add	r3, ip, r3
	str	r4, [fp, #-112]
	mov	ip, #1
	str	r3, [fp, #-124]
	strb	ip, [fp, #-119]
	bl	GetFreeSegBuf
	ldr	r3, [fp, #-252]
	ldr	r1, [r5, #4]
	add	r2, r3, #203776
	ldr	r0, [fp, #-284]
	bic	r1, r1, #-2147483648
	add	r2, r2, #840
	sub	r3, fp, #124
	bl	GetSegPts
	ldr	r1, [fp, #-244]
	b	.L963
.L1037:
	ldr	r1, .L1049+12
	movw	r2, #4112
	ldr	ip, [r9, #68]
	ldr	r3, [fp, #-300]
	blx	ip
	ldr	r0, [fp, #-284]
	mov	r1, #1
	bl	DeleteRawPacket
.L1032:
	mvn	r0, #6
.L1022:
	sub	sp, fp, #40
	ldmfd	sp, {r4, r5, r6, r7, r8, r9, r10, fp, sp, pc}
.L1041:
	ldr	r3, [fp, #-112]
	sub	r2, fp, #240
	sub	r1, fp, #236
	ldr	r0, [fp, #-268]
	add	r4, r3, r4
	str	r4, [fp, #-112]
	bl	GetFreeSegBuf
	ldr	r3, [fp, #-116]
	ldr	r2, [fp, #-240]
	cmp	r3, #0
	beq	.L960
	ldr	r3, [fp, #-124]
	cmp	r3, #0
	beq	.L960
	ldr	r3, [fp, #-112]
	cmp	r2, r3
	blt	.L960
	ldr	r3, [fp, #-264]
	sub	r1, fp, #124
	ldr	r0, [fp, #-268]
	ldr	r6, .L1049
	ldr	r2, [r3, #2344]
	bl	InsertStreamSeg
	ldr	r3, [r9, #48]
	mov	r2, #80
	mov	r1, #0
	mov	r4, r0
	sub	r0, fp, #124
	blx	r3
	cmp	r4, #0
	bne	.L1045
	ldrd	r6, [fp, #-100]
	mov	r0, #26
	ldr	r3, .L1049
	ldr	r2, [r5, #4]
	ldr	r1, .L1049+16
	ldr	r3, [r3, #68]
	bic	r2, r2, #-2147483648
	strd	r6, [sp]
	blx	r3
	ldr	r3, [fp, #-112]
	ldr	r2, [fp, #-116]
	mov	r0, #26
	ldrb	lr, [fp, #-119]	@ zero_extendqisi2
.L1028:
	ldr	r1, .L1049
	ldr	ip, [r1, #68]
	ldr	r1, .L1049+8
	str	lr, [sp]
	blx	ip
.L1029:
	ldr	r1, [fp, #-244]
	b	.L963
.L965:
	ldr	r3, [r9, #68]
	mov	r0, #0
	ldr	r1, .L1049+20
	mov	r4, #1
	ldr	r10, [fp, #-252]
	blx	r3
	ldr	r3, [fp, #-280]
	mov	r0, #0
	ldr	ip, [r9, #68]
	ldr	r2, [fp, #-240]
	ldr	r1, .L1049+24
	blx	ip
	ldrb	r1, [fp, #-199]	@ zero_extendqisi2
	ldr	r3, [fp, #-192]
	mov	r0, #0
	ldr	r2, [fp, #-196]
	str	r1, [sp]
	ldr	ip, [r9, #68]
	ldr	r1, .L1049+8
	blx	ip
.L962:
	ldr	r3, [fp, #-264]
	ldr	r2, [fp, #-304]
	ldr	r3, [r3, #2188]
	cmp	r3, r2
	movne	r3, #1
	moveq	r3, #0
	cmp	r7, #0
	strb	r3, [r10, #3]
	ble	.L981
	ldr	r3, [fp, #-276]
	ldr	r0, [fp, #-284]
	mul	r7, r3, r7
	ldr	r3, [fp, #-260]
	add	r7, r7, #1
	ldr	r1, [r3, r7, asl #2]
	bic	r1, r1, #-2147483648
	bl	DeleteRawLen
	cmp	r0, #0
	bne	.L1032
.L982:
	cmp	r4, #1
	beq	.L1032
.L984:
	mov	r0, #0
	sub	sp, fp, #40
	ldmfd	sp, {r4, r5, r6, r7, r8, r9, r10, fp, sp, pc}
.L967:
	cmp	r4, #0
	bge	.L963
	ldr	r3, [fp, #-252]
	ldr	r3, [r3, #56]
	cmp	r3, #2
	beq	.L1046
.L969:
	ldr	r3, [fp, #-256]
	sub	r2, fp, #240
	ldr	r1, [fp, #-272]
	rsb	r4, r3, ip
	ldr	r3, [fp, #-264]
	ldr	r0, [fp, #-212]
	ldr	r1, [r1, #128]
	ldr	r3, [r3, #2200]
	add	r0, r4, r0
	str	r6, [fp, #-196]
	rsb	r3, r3, r6
	rsb	r6, r6, r0
	add	r3, r1, r3
	ldr	r0, [fp, #-268]
	sub	r1, fp, #236
	str	r3, [fp, #-204]
	str	r6, [fp, #-192]
	mov	r3, #0
	strb	r3, [fp, #-199]
	bl	GetFreeSegBuf
	ldr	r3, [fp, #-192]
	cmp	r3, #3
	ble	.L1029
	ldr	r3, [fp, #-268]
	cmp	r3, #0
	beq	.L971
	ldr	r3, [fp, #-264]
	ldr	r2, [r3, #2188]
	ldr	r3, [r3, #2184]
	subs	r3, r2, r3
	str	r3, [fp, #-288]
	addmi	r3, r3, #1152
	strmi	r3, [fp, #-288]
.L990:
	ldr	r0, [fp, #-196]
	ldr	r3, [fp, #-288]
	cmp	r0, #0
	rsb	r3, r3, #1152
	str	r3, [fp, #-288]
	ldr	r3, [fp, #-240]
	beq	.L973
	ldr	r2, [fp, #-204]
	cmp	r2, #0
	beq	.L973
	ldr	r2, [fp, #-192]
	cmp	r3, r2
	blt	.L973
	ldr	r3, [fp, #-288]
	cmp	r3, #1
	ble	.L1027
	ldr	r3, [fp, #-252]
	ldr	r1, [r5, #4]
	ldr	ip, [fp, #-212]
	add	r2, r3, #203776
	add	r2, r2, #840
	bic	r1, r1, #-2147483648
	rsb	ip, r0, ip
	sub	r3, fp, #204
	ldr	r0, [fp, #-284]
	str	ip, [fp, #-192]
	bl	GetSegPts
	ldr	r3, [fp, #-264]
	sub	r1, fp, #204
	ldr	r0, [fp, #-268]
	ldr	r2, [r3, #2344]
	bl	InsertStreamSeg
	subs	r6, r0, #0
	bne	.L1031
	ldrd	r2, [fp, #-180]
	mov	r0, #26
	ldr	r1, [r5, #4]
	ldr	ip, [r9, #68]
	strd	r2, [sp]
	bic	r2, r1, #-2147483648
	ldr	r1, .L1049+4
	blx	ip
	ldrb	lr, [fp, #-199]	@ zero_extendqisi2
	ldr	r3, [fp, #-192]
	mov	r0, #26
	ldr	r2, [fp, #-196]
	ldr	ip, [r9, #68]
	ldr	r1, .L1049+8
	str	lr, [sp]
	blx	ip
	ldr	r2, [fp, #-264]
	ldr	r1, [fp, #-272]
	ldr	lr, [fp, #-256]
	ldr	r3, [r2, #2200]
	ldr	ip, [r1, #128]
	sub	r1, fp, #204
	rsb	r3, r3, lr
	ldr	r2, [r2, #2344]
	ldr	r0, [fp, #-268]
	add	r3, ip, r3
	str	lr, [fp, #-196]
	mov	ip, #1
	str	r4, [fp, #-192]
	str	r3, [fp, #-204]
	strb	ip, [fp, #-199]
	bl	InsertStreamSeg
	ldr	r1, .L1049
	cmp	r0, #0
	bne	.L1047
	ldr	r3, [fp, #-192]
	mov	r0, #26
	ldr	r2, [fp, #-196]
	ldrb	lr, [fp, #-199]	@ zero_extendqisi2
	b	.L1028
.L960:
	ldr	r3, [r9, #68]
	movw	r2, #4298
	ldr	r1, .L1049+28
	mov	r0, #1
	ldr	r10, [fp, #-252]
	blx	r3
	ldr	r2, [fp, #-280]
	mov	r0, #1
	ldr	r3, [fp, #-240]
	ldr	ip, [r9, #68]
	str	r2, [sp]
	movw	r2, #4299
	ldr	r1, .L1049+32
	blx	ip
	ldr	r3, [fp, #-116]
	ldrb	lr, [fp, #-119]	@ zero_extendqisi2
	movw	r2, #4300
.L1030:
	ldr	r1, [fp, #-112]
	mov	r0, #1
	ldr	ip, [r9, #68]
	mov	r4, r0
	str	lr, [sp, #4]
	str	r1, [sp]
	ldr	r1, .L1049+36
	blx	ip
	b	.L962
.L1042:
	ldr	r3, [fp, #-276]
	mov	r2, r7
	sub	r1, fp, #204
	ldr	r0, [fp, #-292]
	bl	ScdParseUpMsgInfo
	b	.L964
.L1039:
	ldr	r3, [r4, #3924]
	ldr	r2, [r4, #3920]
	cmp	r2, r3
	strleb	r7, [r10]
	movgt	r3, #1
	strgtb	r3, [r10]
	cmp	r6, #0
	bne	.L948
	ldr	r3, [fp, #-264]
	ldr	r1, [r3, #2236]
	cmp	r1, #3
	subgt	r1, r1, #3
	movle	r1, r6
	b	.L949
.L981:
	ldr	r3, [fp, #-296]
	ldr	r2, [fp, #-300]
	clz	r3, r3
	cmp	r2, #1152
	mov	r3, r3, lsr #5
	movls	r3, #0
	cmp	r3, #0
	beq	.L982
	ldr	r3, [r10, #56]
	cmp	r3, #2
	bne	.L982
	ldr	r3, [r9, #68]
	mov	r0, #0
	ldr	r1, .L1049+40
	blx	r3
	ldr	r0, [fp, #-284]
	mov	r1, #1
	bl	DeleteRawPacket
	b	.L982
.L948:
	cmp	r6, #1
	movne	r1, #0
	beq	.L1048
.L949:
	ldr	r0, [fp, #-284]
	bl	DeleteRawLen
	cmp	r0, #0
	beq	.L984
	b	.L1032
.L973:
	ldr	r3, [fp, #-288]
	ldr	r10, [fp, #-252]
	cmp	r3, #1
	ble	.L991
	ldr	r3, [r9, #68]
	movw	r2, #4454
	ldr	r1, .L1049+28
	mov	r0, #1
	blx	r3
	ldr	r2, [fp, #-280]
	ldr	r3, [fp, #-240]
	mov	r0, #1
	ldr	ip, [r9, #68]
	str	r2, [sp]
	movw	r2, #4455
	ldr	r1, .L1049+32
	blx	ip
	ldr	r3, [fp, #-116]
	ldrb	lr, [fp, #-119]	@ zero_extendqisi2
	movw	r2, #4456
	b	.L1030
.L1038:
	movw	r0, #51212
	movt	r0, 63683
	bl	MEM_ReadPhyWord
	ldr	r1, [fp, #-276]
	bl	__aeabi_uidiv
	ldr	r3, [fp, #-244]
	b	.L942
.L1043:
	ldr	r10, [fp, #-252]
	mov	r4, #0
	b	.L962
.L950:
	movw	r0, #51212
	movt	r0, 63683
	bl	MEM_ReadPhyWord
	ldr	r4, [fp, #-276]
	mov	r1, r4
	rsb	r0, r4, r0
	bl	__aeabi_uidiv
	subs	r3, r0, #1
	str	r3, [fp, #-296]
	strmi	r7, [fp, #-244]
	mov	r2, r3
	movpl	r3, r4
	mulpl	r3, r3, r2
	strpl	r2, [fp, #-244]
	ldr	r2, [r10, #12]
	movmi	r3, #4
	strmi	r7, [fp, #-296]
	addpl	r3, r3, #1
	movpl	r3, r3, asl #2
	ldr	r3, [r2, r3]
	bic	r3, r3, #-2147483648
	str	r3, [fp, #-280]
	b	.L951
.L1046:
	ldr	r3, [fp, #-276]
	mov	r2, r7
	sub	r1, fp, #204
	ldr	r0, [fp, #-292]
	str	ip, [fp, #-308]
	bl	ScdParseUpMsgInfo
	ldr	ip, [fp, #-308]
	b	.L969
.L971:
	ldr	ip, [r9, #68]
	movw	r3, #4405
	ldr	r2, .L1049+44
	mov	r0, #22
	ldr	r1, .L1049+48
	blx	ip
	b	.L990
.L1040:
	str	r5, [sp]
	mov	r0, r10
	ldr	r3, [fp, #-296]
	ldr	r2, [fp, #-268]
	ldr	r1, [fp, #-260]
	bl	GetNextVop
	str	r0, [fp, #-296]
	str	r0, [fp, #-244]
	b	.L954
.L1036:
	ldr	r2, [fp, #-264]
	mov	r3, #2
	mvn	r0, #6
	str	r3, [r2, #2240]
	b	.L1022
.L1048:
	ldr	r2, [fp, #-264]
	ldr	r3, [r2, #2204]
	ldr	r1, [r2, #2368]
	ldr	r2, [r2, #2236]
	add	r3, r3, r3, lsl #1
	cmp	r3, #0
	add	r0, r3, #3
	rsb	r2, r1, r2
	movlt	r3, r0
	cmp	r2, r3, asr #2
	ble	.L949
	ldr	r3, [r9, #68]
	mov	r0, #0
	ldr	r1, .L1049+52
	blx	r3
	ldr	r3, [fp, #-264]
	ldr	r1, [r3, #2236]
	b	.L949
.L1031:
	ldrb	r1, [fp, #-199]	@ zero_extendqisi2
	mov	r0, #26
	ldr	r3, [fp, #-192]
	mov	r4, #0
	ldr	r2, [fp, #-196]
	str	r1, [sp]
	ldr	ip, [r9, #68]
	ldr	r1, .L1049+56
	ldr	r10, [fp, #-252]
	blx	ip
	b	.L962
.L1045:
	ldrb	r1, [fp, #-119]	@ zero_extendqisi2
	mov	r0, #26
	ldr	ip, [r6, #68]
	mov	r4, #0
	ldr	r3, [fp, #-112]
	str	r1, [sp]
	ldr	r2, [fp, #-116]
	ldr	r1, .L1049+56
	ldr	r10, [fp, #-252]
	blx	ip
	b	.L962
.L1047:
	ldrb	lr, [fp, #-199]	@ zero_extendqisi2
	mov	r0, #26
	ldr	ip, [r1, #68]
	mov	r4, r6
	ldr	r3, [fp, #-192]
	ldr	r2, [fp, #-196]
	ldr	r1, .L1049+56
	str	lr, [sp]
	ldr	r10, [fp, #-252]
	blx	ip
	b	.L962
.L1027:
	ldr	r10, [fp, #-252]
.L991:
	ldrb	r1, [fp, #-199]	@ zero_extendqisi2
	mov	r2, r0
	ldr	r3, [fp, #-192]
	mov	r0, #26
	ldr	ip, [r9, #68]
	mov	r4, #0
	str	r1, [sp]
	ldr	r1, .L1049+60
	blx	ip
	b	.L962
.L1050:
	.align	2
.L1049:
	.word	vfmw_Osal_Func_Ptr_S
	.word	.LC96
	.word	.LC95
	.word	.LC91
	.word	.LC94
	.word	.LC102
	.word	.LC103
	.word	.LC98
	.word	.LC99
	.word	.LC100
	.word	.LC101
	.word	.LANCHOR3+364
	.word	.LC104
	.word	.LC92
	.word	.LC93
	.word	.LC97
	UNWIND(.fnend)
	.size	ProcessScdReturn, .-ProcessScdReturn
	.align	2
	.global	PrintScdInputRawAfterStart
	.type	PrintScdInputRawAfterStart, %function
PrintScdInputRawAfterStart:
	UNWIND(.fnstart)
	@ args = 4, pretend = 0, frame = 0
	@ frame_needed = 1, uses_anonymous_args = 0
	UNWIND(.movsp ip)
	mov	ip, sp
	stmfd	sp!, {fp, ip, lr, pc}
	UNWIND(.pad #4)
	UNWIND(.save {fp, ip, lr})
	UNWIND(.setfp fp, ip, #-4)
	sub	fp, ip, #4
	ldmfd	sp, {fp, sp, pc}
	UNWIND(.fnend)
	.size	PrintScdInputRawAfterStart, .-PrintScdInputRawAfterStart
	.align	2
	.global	PrintScdRawState
	.type	PrintScdRawState, %function
PrintScdRawState:
	UNWIND(.fnstart)
	@ args = 0, pretend = 0, frame = 0
	@ frame_needed = 1, uses_anonymous_args = 0
	UNWIND(.movsp ip)
	mov	ip, sp
	stmfd	sp!, {r4, r5, r6, r7, r8, r9, fp, ip, lr, pc}
	UNWIND(.pad #4)
	UNWIND(.save {r4, r5, r6, r7, r8, r9, fp, ip, lr})
	UNWIND(.setfp fp, ip, #-4)
	sub	fp, ip, #4
	mov	r7, r0
	mov	r0, #26
	mov	r6, r1
	bl	IsDprintTypeEnable
	cmp	r0, #0
	ldmeqfd	sp, {r4, r5, r6, r7, r8, r9, fp, sp, pc}
	ldr	r2, .L1061
	mov	r3, r7, asl #6
	sub	r3, r3, r7, asl #4
	ldr	r5, .L1061+4
	add	r3, r2, r3
	ldr	r1, .L1061+8
	mov	r2, r7
	mov	r0, #26
	ldr	r9, [r3, #48]
	ldr	r3, [r5, #68]
	add	r8, r9, #98304
	blx	r3
	ldr	r3, [r5, #68]
	mov	r0, #26
	ldr	r2, [r8, #104]
	ldr	r1, .L1061+12
	blx	r3
	ldr	r2, [r8, #108]
	ldr	r3, [r5, #68]
	mov	r0, #26
	ldr	r1, .L1061+16
	blx	r3
	ldr	r2, [r8, #112]
	ldr	r3, [r5, #68]
	mov	r0, #26
	ldr	r1, .L1061+20
	blx	r3
	ldr	r2, [r8, #116]
	ldr	r3, [r5, #68]
	mov	r0, #26
	ldr	r1, .L1061+24
	blx	r3
	ldr	r2, [r8, #120]
	ldr	r3, [r5, #68]
	mov	r0, #26
	ldr	r1, .L1061+28
	blx	r3
	cmp	r6, #1
	beq	.L1054
.L1058:
	ldr	r3, [r5, #68]
	mov	r2, r7
	ldr	r1, .L1061+32
	mov	r0, #26
	sub	sp, fp, #36
	ldmfd	sp, {r4, r5, r6, r7, r8, r9, fp, sp, lr}
	bx	r3
.L1054:
	cmn	r9, #104
	beq	.L1055
	ldr	r6, [r8, #104]
	ldr	r8, [r8, #108]
	subs	r8, r8, r6
	addmi	r8, r8, #1024
	cmp	r8, #0
	ble	.L1058
	mov	r4, r6, asl #7
	add	r8, r6, r8
	sub	r4, r4, r6, asl #5
	add	r4, r9, r4
.L1057:
	ldr	r2, [r4, #104]
	mov	r0, #26
	ldr	r3, [r5, #68]
	add	r6, r6, #1
	ldr	r1, .L1061+36
	add	r4, r4, #96
	blx	r3
	ldr	r2, [r4, #12]
	ldr	r3, [r5, #68]
	mov	r0, #26
	ldr	r1, .L1061+40
	blx	r3
	ldr	r2, [r4, #16]
	ldr	r3, [r5, #68]
	mov	r0, #26
	ldr	r1, .L1061+44
	blx	r3
	ldrd	r2, [r4, #24]
	ldr	ip, [r5, #68]
	mov	r0, #26
	ldr	r1, .L1061+48
	blx	ip
	cmp	r6, r8
	bne	.L1057
	b	.L1058
.L1055:
	ldr	ip, [r5, #68]
	movw	r3, #6870
	ldr	r2, .L1061+52
	mov	r0, #22
	ldr	r1, .L1061+56
	blx	ip
	b	.L1058
.L1062:
	.align	2
.L1061:
	.word	.LANCHOR0
	.word	vfmw_Osal_Func_Ptr_S
	.word	.LC105
	.word	.LC106
	.word	.LC107
	.word	.LC108
	.word	.LC109
	.word	.LC110
	.word	.LC111
	.word	.LC112
	.word	.LC113
	.word	.LC114
	.word	.LC115
	.word	.LANCHOR3+384
	.word	.LC10
	UNWIND(.fnend)
	.size	PrintScdRawState, .-PrintScdRawState
	.align	2
	.global	FillRawData
	.type	FillRawData, %function
FillRawData:
	UNWIND(.fnstart)
	@ args = 0, pretend = 0, frame = 112
	@ frame_needed = 1, uses_anonymous_args = 0
	UNWIND(.movsp ip)
	mov	ip, sp
	stmfd	sp!, {r4, r5, r6, r7, r8, r9, r10, fp, ip, lr, pc}
	UNWIND(.pad #4)
	UNWIND(.save {r4, r5, r6, r7, r8, r9, r10, fp, ip, lr})
	UNWIND(.setfp fp, ip, #-4)
	sub	fp, ip, #4
	UNWIND(.pad #116)
	sub	sp, sp, #116
	ldr	r9, .L1106
	mov	r2, r0, asl #6
	mov	r3, r0, asl #4
	str	r3, [fp, #-152]
	rsb	r3, r3, r2
	add	r3, r9, r3
	ldr	r6, .L1106+4
	str	r2, [fp, #-156]
	mov	r5, r0
	ldr	r4, [r3, #48]
	mov	r2, #96
	mov	r1, #0
	sub	r0, fp, #140
	ldr	r3, [r6, #48]
	blx	r3
	cmp	r4, #0
	beq	.L1063
	ldr	r3, [r4, #56]
	cmp	r3, #19
	beq	.L1063
	mov	r3, r5, asl #24
	str	r3, [fp, #-148]
.L1080:
	ldr	r3, [fp, #-156]
	ldr	r2, [fp, #-152]
	rsb	r7, r2, r3
	add	r7, r9, r7
	b	.L1076
.L1105:
	ldr	r3, [r7, #48]
	cmp	r3, #0
	beq	.L1066
	add	r2, r3, #98304
	ldr	r3, [r2, #108]
	ldr	r1, [r2, #112]
	add	r3, r3, #1
	mov	r2, r3, asr #31
	mov	r2, r2, lsr #22
	add	r3, r3, r2
	ubfx	r3, r3, #0, #10
	rsb	r3, r2, r3
	cmp	r3, r1
	beq	.L1066
	sub	r1, fp, #140
	mov	r0, r5
	bl	ReadRawStreamData
	subs	r8, r0, #0
	bne	.L1063
	add	r10, r4, #200704
	ldr	r2, [fp, #-132]
	ldr	r1, [r6]
	ldr	r0, [r10, #3928]
	ldr	ip, [r10, #3952]
	add	r0, r0, r2
	str	r0, [r10, #3928]
	ldr	r0, [r10, #3956]
	add	r2, r2, ip
	str	r2, [r10, #3952]
	add	r2, r0, #1
	str	r2, [r10, #3956]
	blx	r1
	ldr	r1, [r10, #3932]
	cmp	r1, #0
	streq	r0, [r10, #3932]
	beq	.L1069
	rsb	r1, r1, r0
	cmp	r1, #2000
	bls	.L1069
	str	r0, [fp, #-144]
	ldr	r0, [r10, #3928]
	mov	r0, r0, asl #3
	bl	__aeabi_uidiv
	mov	r1, #1000
	ldr	r2, [fp, #-144]
	str	r8, [r10, #3928]
	str	r2, [r10, #3932]
	mul	r0, r1, r0
	mov	r0, r0, lsr #10
	str	r0, [r10, #3936]
.L1069:
	ldrd	r2, [fp, #-124]
	mov	r0, #29
	ldr	ip, [r6, #68]
	ldr	r1, .L1106+8
	blx	ip
	ldr	r3, [fp, #-132]
	ldr	r2, [fp, #-140]
	mov	r0, #26
	ldr	r1, .L1106+12
	ldr	ip, [r6, #68]
	blx	ip
	ldrd	r2, [fp, #-124]
	mov	r1, #0
	mvn	r0, #0
	cmp	r3, r1
	cmpeq	r2, r0
	beq	.L1100
.L1070:
	sub	r1, fp, #140
	mov	r0, r5
	bl	SM_PushRaw
	subs	r8, r0, #0
	bne	.L1101
	mov	r3, #1
	mov	r2, r8
	strb	r3, [r4, #4]
	mov	r1, r8
	mov	r0, r5
	bl	DBG_CountTimeInfo
	mov	r0, r8
	bl	CHECK_REC_POS_ENABLE
	cmp	r0, #0
	bne	.L1102
.L1074:
	ldr	r8, .L1106+16
	ldr	r3, [r8, r5, asl #2]
	cmp	r3, #0
	bne	.L1103
.L1076:
	ldr	r3, [r4, #88]
	cmp	r3, #1
	beq	.L1104
.L1065:
	cmp	r5, #15
	bls	.L1105
.L1066:
	add	r4, r4, #188416
	ldr	r1, .L1106+20
	ldr	r3, [r6, #68]
	mov	r2, r5
	mov	r0, #23
	blx	r3
	mov	r1, #0
	ldr	r0, [r4, #2344]
	bl	PrintScdRawState
.L1063:
	sub	sp, fp, #40
	ldmfd	sp, {r4, r5, r6, r7, r8, r9, r10, fp, sp, pc}
.L1104:
	add	r3, r4, #188416
	ldr	r3, [r3, #2224]
	cmp	r3, #8
	ble	.L1065
	b	.L1063
.L1102:
	ldr	r3, [r6]
	blx	r3
	add	ip, r9, r5, lsl #2
	ldr	r2, .L1106+24
	ldr	r3, [ip, #888]
	ldr	r2, [r2]
	rsb	r3, r3, r0
	cmp	r3, r2
	bls	.L1074
	ldr	r8, .L1106+16
	movw	r1, #4848
	str	r0, [ip, #888]
	ldr	r2, [fp, #-148]
	ldr	r0, .L1106+28
	bl	DBG_AddTrace
	ldr	r3, [r8, r5, asl #2]
	cmp	r3, #0
	beq	.L1076
.L1103:
	ldr	r3, [r6, #16]
	mov	r0, #0
	ldr	r7, [r4, #56]
	blx	r3
	ldrb	r3, [fp, #-86]	@ zero_extendqisi2
	cmp	r3, #0
	bne	.L1077
	sub	r3, r7, #4
	cmp	r3, #1
	bls	.L1078
	cmp	r7, #18
	cmpne	r7, #15
	beq	.L1078
	sub	r3, r7, #8
	cmp	r3, #5
	bls	.L1078
	cmp	r7, #1
	bne	.L1079
	ldr	r3, [r4, #72]
	cmp	r3, #1
	beq	.L1079
.L1078:
	ldr	r3, [r6, #44]
	mov	r1, #4
	ldr	r2, [r8, r5, asl #2]
	sub	r0, fp, #132
	blx	r3
.L1079:
	ldr	r2, [r8, r5, asl #2]
	ldr	r3, [r6, #44]
	ldr	r1, [fp, #-132]
	ldr	r0, [fp, #-136]
	blx	r3
.L1077:
	ldr	r3, [r6, #12]
	mov	r0, #0
	blx	r3
	b	.L1080
.L1100:
	mvn	r2, #0
	mvn	r3, #0
	strd	r2, [fp, #-124]
	b	.L1070
.L1101:
	ldr	r3, [r6, #68]
	mov	r0, #0
	ldr	r1, .L1106+32
	blx	r3
	sub	sp, fp, #40
	ldmfd	sp, {r4, r5, r6, r7, r8, r9, r10, fp, sp, pc}
.L1107:
	.align	2
.L1106:
	.word	.LANCHOR0
	.word	vfmw_Osal_Func_Ptr_S
	.word	.LC116
	.word	.LC117
	.word	vfmw_save_str_file
	.word	.LC119
	.word	g_TraceBsPeriod
	.word	.LANCHOR3+404
	.word	.LC118
	UNWIND(.fnend)
	.size	FillRawData, .-FillRawData
	.align	2
	.global	SM_SeekPts
	.type	SM_SeekPts, %function
SM_SeekPts:
	UNWIND(.fnstart)
	@ args = 0, pretend = 0, frame = 56
	@ frame_needed = 1, uses_anonymous_args = 0
	UNWIND(.movsp ip)
	mov	ip, sp
	stmfd	sp!, {r4, r5, r6, r7, r8, r9, r10, fp, ip, lr, pc}
	UNWIND(.pad #4)
	UNWIND(.save {r4, r5, r6, r7, r8, r9, r10, fp, ip, lr})
	UNWIND(.setfp fp, ip, #-4)
	sub	fp, ip, #4
	UNWIND(.pad #68)
	sub	sp, sp, #68
	ldr	r3, .L1216
	mov	r2, r0, asl #6
	str	r0, [fp, #-64]
	sub	r2, r2, r0, asl #4
	str	r1, [fp, #-68]
	add	r3, r3, r2
	ldr	r10, [r3, #48]
	cmp	r10, #0
	beq	.L1111
	add	r9, r10, #98304
	adds	r6, r9, #128
	beq	.L1111
	ldr	r3, [fp, #-68]
	add	r5, r10, #188416
	str	r10, [fp, #-52]
	ldr	r2, [r5, #2240]
	ldrd	r0, [r3]
	cmp	r2, #1
	ldr	r4, [r5, #2184]
	ldr	ip, [r5, #2188]
	strd	r0, [fp, #-60]
	ldrd	r0, [r3, #8]
	str	r2, [fp, #-80]
	strd	r0, [fp, #-100]
	ldrd	r0, [r3, #16]
	moveq	r3, #3
	streq	r3, [r5, #2240]
	movw	r3, #36409
	movt	r3, 14563
	str	r4, [r5, #2192]
	strd	r0, [fp, #-76]
	str	r3, [fp, #-48]
.L1113:
	mov	r7, r4, asl #4
	mov	r8, r4, asl #6
	cmp	r4, ip
	add	r3, r7, r8
	mov	r1, r4
	mov	r0, r6
	add	r3, r9, r3
	beq	.L1200
	ldrsb	r2, [r3, #140]
	cmp	r2, #1
	bne	.L1117
	ldrd	r2, [r3, #168]
	mvn	r1, #0
	mvn	r0, #0
	cmp	r3, r1
	cmpeq	r2, r0
	addeq	r1, r4, #1
	beq	.L1191
	ldrd	r0, [fp, #-60]
	add	lr, r4, #1
	cmp	r1, r3
	ldr	r1, [fp, #-48]
	cmpeq	r0, r2
	mov	r10, lr, asr #31
	smull	r0, r1, lr, r1
	bls	.L1120
	str	r4, [r5, #2192]
	rsb	r4, r10, r1, asr #8
	mov	r3, r4, asl #10
	add	r4, r3, r4, lsl #7
	rsb	r4, r4, lr
	b	.L1113
.L1117:
	bl	ReleaseStreamSeg
	ldr	ip, [r5, #2188]
	add	r1, r4, #1
.L1191:
	ldr	r3, [fp, #-48]
	mov	r4, r1, asr #31
	smull	r2, r3, r1, r3
	rsb	r4, r4, r3, asr #8
	mov	r3, r4, asl #10
	add	r4, r3, r4, lsl #7
	rsb	r4, r4, r1
	b	.L1113
.L1120:
	beq	.L1201
	bcs	.L1113
	ldr	lr, [r5, #2192]
	mvn	r1, #0
	mvn	r0, #0
	mov	r3, lr, asl #6
	add	r3, r3, lr, lsl #4
	add	r3, r9, r3
	ldrd	r2, [r3, #168]
	cmp	r3, r1
	cmpeq	r2, r0
	streq	r4, [r5, #2192]
	moveq	lr, r4
	beq	.L1125
	ldrd	r0, [fp, #-60]
	cmp	r1, r3
	cmpeq	r0, r2
	bhi	.L1202
.L1125:
	ldr	r8, [r5, #2184]
	cmp	r8, lr
	beq	.L1126
	movw	r4, #36409
	mov	r7, #2
	movt	r4, 14563
.L1127:
	mov	r3, r8, asl #6
	mov	r1, r8
	add	r3, r3, r8, lsl #4
	mov	r0, r6
	add	r3, r9, r3
	strb	r7, [r3, #140]
	ldr	ip, [r3, #148]
	ldr	r2, [r5, #2220]
	ldr	r3, [r5, #2224]
	rsb	r2, ip, r2
	sub	r3, r3, #1
	bic	r2, r2, r2, asr #31
	str	r2, [r5, #2220]
	bic	r3, r3, r3, asr #31
	str	r3, [r5, #2224]
	bl	ReleaseStreamSeg
	add	r1, r8, #1
	ldr	lr, [r5, #2192]
	smull	r2, r3, r1, r4
	mov	r8, r1, asr #31
	rsb	r8, r8, r3, asr #8
	mov	r3, r8, asl #10
	add	r8, r3, r8, lsl #7
	rsb	r8, r8, r1
	cmp	lr, r8
	bne	.L1127
.L1126:
	mov	r3, lr, asl #6
	ldr	r1, [fp, #-68]
	add	r3, r3, lr, lsl #4
	mov	r0, #0
	add	r3, r9, r3
	ldrd	r2, [r3, #168]
	strd	r2, [r1]
	sub	sp, fp, #40
	ldmfd	sp, {r4, r5, r6, r7, r8, r9, r10, fp, sp, pc}
.L1200:
	ldr	r8, [r5, #2184]
	ldr	r10, [fp, #-52]
	cmp	r4, r8
	beq	.L1115
	movw	r4, #36409
	mov	r7, #2
	movt	r4, 14563
.L1116:
	mov	r3, r8, asl #6
	mov	r1, r8
	add	r3, r3, r8, lsl #4
	mov	r0, r6
	add	r3, r9, r3
	strb	r7, [r3, #140]
	ldr	ip, [r3, #148]
	ldr	r2, [r5, #2220]
	ldr	r3, [r5, #2224]
	rsb	r2, ip, r2
	sub	r3, r3, #1
	bic	r2, r2, r2, asr #31
	str	r2, [r5, #2220]
	bic	r3, r3, r3, asr #31
	str	r3, [r5, #2224]
	bl	ReleaseStreamSeg
	add	r1, r8, #1
	ldr	r0, [r5, #2188]
	smull	r2, r3, r1, r4
	mov	r8, r1, asr #31
	rsb	r8, r8, r3, asr #8
	mov	r3, r8, asl #10
	add	r8, r3, r8, lsl #7
	rsb	r8, r8, r1
	cmp	r0, r8
	bne	.L1116
.L1115:
	mov	r1, #0
	ldr	r0, [fp, #-64]
	bl	DeleteRawPacketInBuffer
	adds	r3, r10, #104
	str	r3, [fp, #-84]
	beq	.L1111
	ldr	r3, [r9, #104]
	ldr	r8, [r9, #108]
	cmp	r3, r8
	str	r3, [fp, #-52]
	addgt	r3, r8, #1024
	rsble	r3, r3, r8
	ldrgt	r2, [fp, #-52]
	rsbgt	r3, r2, r3
	str	r3, [fp, #-88]
	ldr	r3, [fp, #-52]
	cmp	r3, r8
	str	r3, [r9, #112]
	beq	.L1133
	str	r5, [fp, #-92]
	mvn	r6, #0
	mvn	r7, #0
	ldr	ip, [fp, #-52]
	str	r9, [fp, #-48]
	ldrd	r4, [fp, #-60]
	b	.L1132
.L1205:
	ldr	r3, [fp, #-48]
	str	ip, [r3, #112]
	mov	ip, r9, lsr #22
	add	r3, lr, ip
	ubfx	r3, r3, #0, #10
	rsb	ip, ip, r3
.L1137:
	cmp	r8, ip
	beq	.L1203
.L1132:
	mov	r3, ip, asl #7
	mvn	r0, #0
	sub	r3, r3, ip, asl #5
	mvn	r1, #0
	add	r3, r10, r3
	ldrd	r2, [r3, #120]
	cmp	r3, r7
	cmpeq	r2, r6
	beq	.L1204
	cmp	r5, r3
	add	lr, ip, #1
	cmpeq	r4, r2
	mov	r9, lr, asr #31
	bhi	.L1205
	beq	.L1206
	bcs	.L1137
	ldr	r9, [fp, #-48]
	strd	r2, [fp, #-76]
	ldr	r5, [fp, #-92]
	ldr	lr, [r9, #112]
	mov	r4, lr, asl #7
	sub	r4, r4, lr, asl #5
	add	r4, r10, r4
	ldrd	r6, [r4, #120]
	cmp	r7, r1
	cmpeq	r6, r0
	beq	.L1207
	ldrd	r0, [fp, #-60]
	cmp	r1, r7
	cmpeq	r0, r6
	bls	.L1145
	subs	r0, r0, r6
	ldrd	r2, [fp, #-100]
	sbc	r1, r1, r7
	cmp	r3, r1
	cmpeq	r2, r0
	bcc	.L1208
.L1145:
	ldr	r3, [fp, #-52]
	cmp	r3, lr
	addgt	lr, lr, #1024
	ldrgt	r3, [fp, #-52]
	rsb	r1, r3, lr
	cmp	r1, #0
	beq	.L1148
	ldr	r4, [r5, #2232]
	ldr	r3, [fp, #-80]
	cmp	r1, r4
	cmple	r3, #1
	moveq	r4, #1
	movne	r4, #0
	beq	.L1148
	ldr	r3, [fp, #-68]
	strd	r6, [r3]
.L1199:
	ldr	r3, [r9, #104]
	ldr	r0, [fp, #-84]
	str	r3, [r9, #112]
	bl	DeleteRawPacket
	mov	r1, r4
	ldr	r0, [fp, #-64]
	bl	DeleteRawPacketInBuffer
	mov	r0, r4
	sub	sp, fp, #40
	ldmfd	sp, {r4, r5, r6, r7, r8, r9, r10, fp, sp, pc}
.L1204:
	add	r3, ip, #1
	mov	ip, r3, asr #31
	mov	ip, ip, lsr #22
	add	r3, r3, ip
	ubfx	r3, r3, #0, #10
	rsb	ip, ip, r3
	cmp	r8, ip
	bne	.L1132
.L1203:
	ldr	r3, [fp, #-52]
	ldr	r9, [fp, #-48]
	cmp	r3, r8
	ble	.L1133
	add	r8, r8, #1024
	rsb	r1, r3, r8
	ldr	r3, [fp, #-52]
	cmp	r1, #0
	str	r3, [r9, #112]
	bne	.L1209
.L1135:
	ldr	r0, [fp, #-88]
	ldrd	r2, [fp, #-76]
	mov	r1, r0, asr #31
	cmp	r3, r1
	cmpeq	r2, r0
	bls	.L1210
	ldrd	r2, [fp, #-76]
	subs	r2, r2, r0
	movw	r0, #1023
	sbc	r3, r3, r1
	and	r0, r0, r2
	mov	r1, #0
	and	r1, r1, r3
	orrs	r1, r0, r1
	mov	r2, r2, lsr #10
	orrne	r2, r2, r3, asl #22
	orreq	r3, r2, r3, asl #22
	addne	r3, r2, #1
	str	r3, [fp, #-80]
	ldr	r3, [fp, #-80]
	cmp	r3, #0
	blt	.L1173
	ldr	r4, [fp, #-64]
	mov	r1, #0
	mvn	r5, #0
	mov	r0, r4
	bl	DeleteRawPacketInBuffer
	mov	r0, r4
	bl	FillRawData
	ldrd	r6, [fp, #-60]
	mvn	r4, #0
	mov	r3, #0
	str	r9, [fp, #-48]
	str	r3, [fp, #-76]
.L1174:
	ldr	r3, [fp, #-48]
	ldr	r2, [r3, #104]
	ldr	r9, [r3, #108]
	mov	ip, r2
	str	r2, [fp, #-52]
	str	r2, [r3, #112]
.L1154:
	mov	r3, ip, asl #7
	cmp	ip, r9
	sub	r3, r3, ip, asl #5
	mvn	r0, #0
	mvn	r1, #0
	add	r3, r10, r3
	beq	.L1211
	ldrd	r2, [r3, #120]
	cmp	r3, r5
	cmpeq	r2, r4
	beq	.L1212
	cmp	r7, r3
	add	lr, ip, #1
	cmpeq	r6, r2
	mov	r8, lr, asr #31
	bls	.L1162
	ldr	r3, [fp, #-48]
	str	ip, [r3, #112]
	mov	ip, r8, lsr #22
	add	lr, lr, ip
	ubfx	lr, lr, #0, #10
	rsb	ip, ip, lr
	b	.L1154
.L1162:
	beq	.L1213
	bcs	.L1154
	ldr	r9, [fp, #-48]
	ldr	r8, [fp, #-52]
	ldr	lr, [r9, #112]
	mov	r4, lr, asl #7
	sub	r4, r4, lr, asl #5
	add	r4, r10, r4
	ldrd	r4, [r4, #120]
	cmp	r5, r1
	cmpeq	r4, r0
	beq	.L1214
	ldrd	r0, [fp, #-60]
	cmp	r1, r5
	cmpeq	r0, r4
	bls	.L1168
	subs	r0, r0, r4
	ldrd	r6, [fp, #-100]
	sbc	r1, r1, r5
	cmp	r7, r1
	cmpeq	r6, r0
	strcc	ip, [r9, #112]
	movcc	r4, r2
	movcc	r5, r3
	movcc	lr, ip
.L1168:
	cmp	r8, lr
	ldr	r3, [fp, #-68]
	addgt	lr, lr, #1024
	rsb	r1, r8, lr
	cmp	r1, #0
	strd	r4, [r3]
	bne	.L1171
.L1198:
	ldr	r3, [r9, #104]
	mov	r0, r1
	str	r3, [r9, #112]
.L1190:
	sub	sp, fp, #40
	ldmfd	sp, {r4, r5, r6, r7, r8, r9, r10, fp, sp, pc}
.L1212:
	add	r3, ip, #1
	mov	ip, r3, asr #31
	mov	ip, ip, lsr #22
	add	r3, r3, ip
	ubfx	r3, r3, #0, #10
	rsb	ip, ip, r3
	b	.L1154
.L1211:
	ldr	r3, [fp, #-52]
	ldr	r2, [fp, #-52]
	cmp	r3, ip
	addgt	ip, ip, #1024
	ldrgt	r3, [fp, #-52]
	rsb	r1, r3, ip
	ldr	r3, [fp, #-48]
	cmp	r1, #0
	str	r2, [r3, #112]
	bne	.L1215
.L1159:
	ldr	r3, [fp, #-76]
	ldr	r2, [fp, #-80]
	add	r3, r3, #1
	str	r3, [fp, #-76]
	cmp	r2, r3
	blt	.L1173
	ldr	r8, [fp, #-64]
	mov	r1, #0
	mov	r0, r8
	bl	DeleteRawPacketInBuffer
	mov	r0, r8
	bl	FillRawData
	b	.L1174
.L1133:
	ldr	r3, [fp, #-52]
	rsb	r1, r3, r8
	ldr	r3, [fp, #-52]
	cmp	r1, #0
	str	r3, [r9, #112]
	beq	.L1135
.L1209:
	ldr	r0, [fp, #-84]
	bl	DeleteRawPacket
	mov	r1, #0
	ldr	r0, [fp, #-64]
	bl	DeleteRawPacketInBuffer
	b	.L1135
.L1213:
	ldr	r8, [fp, #-52]
	ldr	r0, [fp, #-68]
	cmp	r8, ip
	ldrd	r2, [fp, #-60]
	addgt	ip, ip, #1024
	ldr	r9, [fp, #-48]
	rsb	r1, r8, ip
	cmp	r1, #0
	strd	r2, [r0]
	beq	.L1198
.L1171:
	ldr	r3, [r9, #104]
	ldr	r0, [fp, #-84]
	str	r3, [r9, #112]
	bl	DeleteRawPacket
	ldr	r0, [fp, #-64]
	mov	r1, #0
	bl	DeleteRawPacketInBuffer
	mov	r0, #0
	sub	sp, fp, #40
	ldmfd	sp, {r4, r5, r6, r7, r8, r9, r10, fp, sp, pc}
.L1215:
	ldr	r0, [fp, #-84]
	bl	DeleteRawPacket
	mov	r1, #0
	ldr	r0, [fp, #-64]
	bl	DeleteRawPacketInBuffer
	b	.L1159
.L1206:
	ldr	r3, [fp, #-52]
	ldr	r9, [fp, #-48]
	cmp	r3, ip
	ldr	r5, [fp, #-92]
	addgt	ip, ip, #1024
	ldrgt	r3, [fp, #-52]
	rsb	r1, r3, ip
	cmp	r1, #0
	beq	.L1142
	ldr	r4, [r5, #2232]
	ldr	r3, [fp, #-80]
	cmp	r1, r4
	cmple	r3, #1
	moveq	r4, #1
	movne	r4, #0
	beq	.L1142
	ldr	r0, [fp, #-68]
	ldrd	r2, [fp, #-60]
	strd	r2, [r0]
	b	.L1199
.L1201:
	ldr	r10, [r5, #2184]
	cmp	r4, r10
	beq	.L1122
	movw	r3, #36409
	str	r7, [fp, #-48]
	movt	r3, 14563
	mov	r7, r5
	mov	r5, r3
.L1123:
	mov	r3, r10, asl #6
	mov	r2, #2
	add	r3, r3, r10, lsl #4
	mov	r1, r10
	add	r3, r9, r3
	mov	r0, r6
	strb	r2, [r3, #140]
	ldr	lr, [r3, #148]
	ldr	ip, [r7, #2220]
	ldr	r3, [r7, #2224]
	rsb	ip, lr, ip
	sub	r3, r3, #1
	bic	ip, ip, ip, asr #31
	str	ip, [r7, #2220]
	bic	r3, r3, r3, asr #31
	str	r3, [r7, #2224]
	bl	ReleaseStreamSeg
	add	ip, r10, #1
	smull	r0, r1, ip, r5
	mov	r10, ip, asr #31
	rsb	r10, r10, r1, asr #8
	mov	r3, r10, asl #10
	add	r10, r3, r10, lsl #7
	rsb	r10, r10, ip
	cmp	r4, r10
	bne	.L1123
	ldr	r7, [fp, #-48]
	add	r3, r7, r8
	add	r3, r9, r3
	ldrd	r2, [r3, #168]
.L1122:
	ldr	r1, [fp, #-68]
	mov	r0, #0
	strd	r2, [r1]
	sub	sp, fp, #40
	ldmfd	sp, {r4, r5, r6, r7, r8, r9, r10, fp, sp, pc}
.L1142:
	ldr	r1, [fp, #-68]
	ldrd	r2, [fp, #-60]
	strd	r2, [r1]
.L1197:
	ldr	r3, [r9, #104]
	mov	r0, #0
	str	r3, [r9, #112]
	ldr	r3, [fp, #-80]
	str	r3, [r5, #2240]
	sub	sp, fp, #40
	ldmfd	sp, {r4, r5, r6, r7, r8, r9, r10, fp, sp, pc}
.L1148:
	ldr	r3, [fp, #-68]
	strd	r6, [r3]
	b	.L1197
.L1214:
	str	ip, [r9, #112]
	mov	r4, r2
	mov	r5, r3
	mov	lr, ip
	b	.L1168
.L1202:
	subs	r0, r0, r2
	sbc	r1, r1, r3
	mov	r2, r0
	mov	r3, r1
	ldrd	r0, [fp, #-100]
	cmp	r1, r3
	cmpeq	r0, r2
	strcc	r4, [r5, #2192]
	movcc	lr, r4
	b	.L1125
.L1208:
	ldrd	r6, [fp, #-76]
	mov	lr, ip
	str	ip, [r9, #112]
	b	.L1145
.L1207:
	str	ip, [r9, #112]
	mov	r6, r2
	mov	r7, r3
	mov	lr, ip
	b	.L1145
.L1173:
	mvn	r0, #1
	b	.L1190
.L1111:
	mvn	r0, #0
	b	.L1190
.L1210:
	ldr	ip, .L1216+4
	strd	r0, [sp]
	mov	r0, #1
	ldr	r1, .L1216+8
	ldr	ip, [ip, #68]
	blx	ip
	mvn	r0, #1
	b	.L1190
.L1217:
	.align	2
.L1216:
	.word	.LANCHOR0
	.word	vfmw_Osal_Func_Ptr_S
	.word	.LC120
	UNWIND(.fnend)
	.size	SM_SeekPts, .-SM_SeekPts
	.align	2
	.global	PrintSmInfo
	.type	PrintSmInfo, %function
PrintSmInfo:
	UNWIND(.fnstart)
	@ args = 0, pretend = 0, frame = 40
	@ frame_needed = 1, uses_anonymous_args = 0
	UNWIND(.movsp ip)
	mov	ip, sp
	stmfd	sp!, {r4, r5, r6, r7, r8, r9, r10, fp, ip, lr, pc}
	UNWIND(.pad #4)
	UNWIND(.save {r4, r5, r6, r7, r8, r9, r10, fp, ip, lr})
	UNWIND(.setfp fp, ip, #-4)
	sub	fp, ip, #4
	UNWIND(.pad #52)
	sub	sp, sp, #52
	ldr	r10, .L1233
	mov	r3, r0, asl #6
	sub	r1, fp, #68
	sub	r3, r3, r0, asl #4
	mov	r4, #0
	add	r3, r10, r3
	mov	r7, r0
	str	r4, [fp, #-68]
	ldr	r6, [r3, #48]
	str	r4, [fp, #-64]
	str	r4, [fp, #-60]
	str	r4, [fp, #-56]
	str	r4, [fp, #-52]
	str	r4, [fp, #-48]
	bl	SM_GetInfo
	cmp	r6, r4
	beq	.L1218
	ldr	r5, .L1233+4
	add	r9, r6, #188416
	mov	r2, r7
	ldr	r1, .L1233+8
	mov	r0, #32
	add	r7, r6, #98304
	ldr	r3, [r5, #68]
	blx	r3
	movw	r1, #26215
	ldr	r3, [r9, #2360]
	mov	r8, r1
	ldr	ip, [r5, #68]
	mov	r0, #32
	ldr	r2, .L1233+12
	ldr	r1, .L1233+16
	blx	ip
	mov	r1, r8
	ldr	ip, [r5, #68]
	movt	r1, 26214
	ldrb	r3, [r6, #52]	@ zero_extendqisi2
	mov	r0, #32
	ldr	r2, .L1233+20
	str	r1, [fp, #-76]
	ldr	r1, .L1233+16
	blx	ip
	ldr	ip, [r5, #68]
	ldr	r3, [r6, #56]
	mov	r0, #32
	ldr	r2, .L1233+24
	ldr	r1, .L1233+16
	blx	ip
	ldr	ip, [r5, #68]
	ldr	r3, [r6, #60]
	mov	r0, #32
	ldr	r2, .L1233+28
	ldr	r1, .L1233+32
	blx	ip
	ldr	ip, [r5, #68]
	ldr	r3, [r6, #48]
	mov	r0, #32
	ldr	r2, .L1233+36
	ldr	r1, .L1233+32
	blx	ip
	ldr	ip, [r5, #68]
	ldr	r3, [r6, #64]
	mov	r0, #32
	ldr	r2, .L1233+40
	ldr	r1, .L1233+16
	blx	ip
	ldr	ip, [r5, #68]
	ldr	r3, [r6, #68]
	mov	r0, #32
	ldr	r2, .L1233+44
	ldr	r1, .L1233+32
	blx	ip
	ldr	r3, [r9, #2232]
	ldr	ip, [r5, #68]
	mov	r0, #32
	ldr	r2, .L1233+48
	ldr	r1, .L1233+16
	blx	ip
	ldr	r3, [r9, #2236]
	ldr	ip, [r5, #68]
	mov	r0, #32
	ldr	r2, .L1233+52
	ldr	r1, .L1233+16
	blx	ip
	ldr	r3, [r9, #2248]
	ldr	ip, [r5, #68]
	mov	r0, #32
	ldr	r2, .L1233+56
	ldr	r1, .L1233+32
	blx	ip
	ldr	r3, [r9, #2256]
	ldr	ip, [r5, #68]
	mov	r0, #32
	ldr	r2, .L1233+60
	ldr	r1, .L1233+16
	blx	ip
	ldr	r3, [r9, #2260]
	ldr	ip, [r5, #68]
	mov	r0, #32
	ldr	r2, .L1233+64
	ldr	r1, .L1233+32
	blx	ip
	ldr	r3, [r9, #2272]
	ldr	ip, [r5, #68]
	mov	r0, #32
	ldr	r2, .L1233+68
	ldr	r1, .L1233+16
	blx	ip
	ldr	r3, [r9, #2268]
	ldr	ip, [r5, #68]
	mov	r0, #32
	ldr	r2, .L1233+72
	ldr	r1, .L1233+16
	blx	ip
	ldr	r3, [r9, #2336]
	ldr	ip, [r5, #68]
	mov	r0, #32
	ldr	r2, .L1233+76
	ldr	r1, .L1233+32
	blx	ip
	ldr	r3, [r9, #2340]
	ldr	ip, [r5, #68]
	mov	r0, #32
	ldr	r2, .L1233+80
	ldr	r1, .L1233+16
	str	r9, [fp, #-72]
	blx	ip
	ldr	ip, [r5, #68]
	mov	r0, #32
	ldr	r3, [fp, #-52]
	ldr	r2, .L1233+84
	ldr	r1, .L1233+16
	blx	ip
	ldr	ip, [r5, #68]
	ldr	r3, [fp, #-60]
	mov	r0, #32
	ldr	r2, .L1233+88
	ldr	r1, .L1233+16
	blx	ip
	ldr	ip, [r5, #68]
	ldr	r3, [fp, #-56]
	mov	r0, #32
	ldr	r2, .L1233+92
	ldr	r1, .L1233+16
	blx	ip
	ldr	ip, [r5, #68]
	ldr	r3, [fp, #-64]
	mov	r0, #32
	ldr	r2, .L1233+96
	ldr	r1, .L1233+16
	blx	ip
	ldr	ip, [r5, #68]
	ldr	r3, [r6, #16]
	mov	r0, #32
	ldr	r2, .L1233+100
	ldr	r1, .L1233+16
	blx	ip
	ldr	ip, [r5, #68]
	ldr	r3, [r6, #20]
	mov	r0, #32
	ldr	r2, .L1233+104
	ldr	r1, .L1233+16
	blx	ip
	ldr	ip, [r5, #68]
	ldr	r3, [r6, #24]
	mov	r0, #32
	ldr	r2, .L1233+108
	ldr	r1, .L1233+16
	blx	ip
	ldr	ip, [r5, #68]
	ldr	r3, [r6, #28]
	mov	r0, #32
	ldr	r2, .L1233+112
	ldr	r1, .L1233+32
	blx	ip
	ldr	ip, [r5, #68]
	ldr	r3, [r6, #32]
	mov	r0, #32
	ldr	r2, .L1233+116
	ldr	r1, .L1233+16
	blx	ip
	ldr	ip, [r5, #68]
	ldr	r3, [r6, #36]
	mov	r0, #32
	ldr	r2, .L1233+120
	ldr	r1, .L1233+32
	blx	ip
	ldr	ip, [r5, #68]
	ldr	r3, [r6, #12]
	mov	r0, #32
	ldr	r2, .L1233+124
	ldr	r1, .L1233+32
	blx	ip
	ldr	ip, [r5, #68]
	ldr	r3, [r6, #40]
	mov	r0, #32
	ldr	r2, .L1233+128
	ldr	r1, .L1233+16
	blx	ip
	add	ip, r6, #200704
	ldr	r2, .L1233+132
	mov	r0, #32
	ldr	r3, [ip, #3900]
	str	ip, [fp, #-80]
	ldr	r1, .L1233+16
	ldr	ip, [r5, #68]
	blx	ip
	ldr	ip, [fp, #-80]
	ldr	r2, .L1233+136
	mov	r0, #32
	ldr	r1, .L1233+16
	ldr	r3, [ip, #3904]
	ldr	ip, [r5, #68]
	blx	ip
	add	r1, r6, #203776
	add	r1, r1, #848
	ldr	r3, [r5, #68]
	ldr	r2, .L1233+140
	mov	r0, #32
	ldrd	r8, [r1, #-8]
	ldr	r1, .L1233+144
	strd	r8, [sp]
	blx	r3
	ldr	r3, [fp, #-72]
	ldr	ip, [r5, #68]
	mov	r0, #32
	ldr	r2, .L1233+148
	ldr	r3, [r3, #2344]
	ldr	r1, .L1233+16
	blx	ip
	ldr	r3, [r10, #860]
	ldr	ip, [r5, #68]
	mov	r0, #32
	ldr	r2, .L1233+152
	ldr	r1, .L1233+16
	blx	ip
	ldr	r1, [r7, #112]
	ldr	r3, [r7, #104]
	mov	r0, #32
	ldr	ip, [r5, #68]
	ldr	r2, .L1233+152
	str	r1, [sp]
	ldr	r1, .L1233+156
	blx	ip
	ldr	r3, [r5, #68]
	ldr	r2, [r7, #116]
	mov	r0, #32
	ldr	r1, .L1233+160
	blx	r3
	ldr	r9, [r7, #112]
	ldr	r8, [fp, #-76]
.L1220:
	ldr	r2, [r7, #108]
	mov	r3, r9, asl #7
	sub	r3, r3, r9, asl #5
	add	r4, r4, #1
	cmp	r2, r9
	add	r3, r6, r3
	add	r10, r9, #1
	ldr	r1, .L1233+164
	mov	r0, #32
	beq	.L1226
	ldr	r2, [r3, #112]
	ldr	r3, [r5, #68]
	blx	r3
	smull	r2, r3, r4, r8
	cmp	r10, #1024
	subge	r10, r9, #1020
	mov	r1, r4, asr #31
	subge	r10, r10, #3
	cmp	r4, #1024
	mov	r9, r10
	rsb	r3, r1, r3, asr #2
	beq	.L1226
	cmp	r4, #0
	mov	r2, r3, asl #3
	add	r3, r2, r3, lsl #1
	beq	.L1220
	cmp	r4, r3
	bne	.L1220
	ldr	r3, [r5, #68]
	mov	r0, #32
	ldr	r1, .L1233+168
	blx	r3
	b	.L1220
.L1226:
	ldr	r3, [r5, #68]
	mov	r0, #32
	ldr	r1, .L1233+168
	blx	r3
.L1218:
	sub	sp, fp, #40
	ldmfd	sp, {r4, r5, r6, r7, r8, r9, r10, fp, sp, pc}
.L1234:
	.align	2
.L1233:
	.word	.LANCHOR0
	.word	vfmw_Osal_Func_Ptr_S
	.word	.LC121
	.word	.LC122
	.word	.LC123
	.word	.LC124
	.word	.LC125
	.word	.LC126
	.word	.LC127
	.word	.LC128
	.word	.LC129
	.word	.LC130
	.word	.LC131
	.word	.LC132
	.word	.LC133
	.word	.LC134
	.word	.LC135
	.word	.LC136
	.word	.LC137
	.word	.LC138
	.word	.LC139
	.word	.LC140
	.word	.LC141
	.word	.LC142
	.word	.LC143
	.word	.LC144
	.word	.LC145
	.word	.LC146
	.word	.LC147
	.word	.LC148
	.word	.LC149
	.word	.LC150
	.word	.LC151
	.word	.LC152
	.word	.LC153
	.word	.LC154
	.word	.LC155
	.word	.LC156
	.word	.LC157
	.word	.LC158
	.word	.LC159
	.word	.LC160
	.word	.LC16
	UNWIND(.fnend)
	.size	PrintSmInfo, .-PrintSmInfo
	.align	2
	.global	PrintScdSegState
	.type	PrintScdSegState, %function
PrintScdSegState:
	UNWIND(.fnstart)
	@ args = 0, pretend = 0, frame = 0
	@ frame_needed = 1, uses_anonymous_args = 0
	UNWIND(.movsp ip)
	mov	ip, sp
	stmfd	sp!, {r4, r5, r6, r7, r8, r9, fp, ip, lr, pc}
	UNWIND(.pad #4)
	UNWIND(.save {r4, r5, r6, r7, r8, r9, fp, ip, lr})
	UNWIND(.setfp fp, ip, #-4)
	sub	fp, ip, #4
	mov	r8, r0
	mov	r0, #26
	mov	r6, r1
	bl	IsDprintTypeEnable
	cmp	r0, #0
	ldmeqfd	sp, {r4, r5, r6, r7, r8, r9, fp, sp, pc}
	ldr	r2, .L1244
	mov	r3, r8, asl #6
	sub	r3, r3, r8, asl #4
	ldr	r4, .L1244+4
	add	r3, r2, r3
	ldr	r1, .L1244+8
	mov	r2, r8
	mov	r0, #26
	ldr	r9, [r3, #48]
	ldr	r3, [r4, #68]
	add	r7, r9, #188416
	blx	r3
	ldr	r3, [r4, #68]
	mov	r0, #26
	ldr	r2, [r7, #2184]
	add	r5, r9, #98304
	ldr	r1, .L1244+12
	blx	r3
	ldr	r2, [r7, #2188]
	ldr	r3, [r4, #68]
	mov	r0, #26
	ldr	r1, .L1244+16
	blx	r3
	ldr	r2, [r7, #2196]
	ldr	r3, [r4, #68]
	mov	r0, #26
	ldr	r1, .L1244+20
	blx	r3
	ldr	r2, [r7, #2200]
	ldr	r3, [r4, #68]
	mov	r0, #26
	ldr	r1, .L1244+24
	blx	r3
	ldr	r2, [r5, #128]
	ldr	r3, [r4, #68]
	mov	r0, #26
	ldr	r1, .L1244+28
	blx	r3
	ldr	r2, [r7, #2204]
	ldr	r3, [r4, #68]
	mov	r0, #26
	ldr	r1, .L1244+32
	blx	r3
	ldr	r2, [r7, #2208]
	ldr	r3, [r4, #68]
	mov	r0, #26
	ldr	r1, .L1244+36
	blx	r3
	ldr	r2, [r7, #2212]
	ldr	r3, [r4, #68]
	mov	r0, #26
	ldr	r1, .L1244+40
	blx	r3
	cmp	r6, #1
	beq	.L1237
.L1241:
	ldr	r3, [r4, #68]
	mov	r2, r8
	ldr	r1, .L1244+44
	mov	r0, #26
	sub	sp, fp, #36
	ldmfd	sp, {r4, r5, r6, r7, r8, r9, fp, sp, lr}
	bx	r3
.L1237:
	cmn	r5, #128
	beq	.L1238
	ldr	r6, [r7, #2184]
	ldr	r7, [r7, #2188]
	subs	r7, r7, r6
	addmi	r7, r7, #1152
	cmp	r7, #0
	ble	.L1241
	mov	r5, r6, asl #6
	add	r7, r6, r7
	add	r5, r5, r6, lsl #4
	add	r5, r5, #98304
	add	r5, r5, #144
	add	r5, r9, r5
.L1240:
	ldr	r2, [r5]
	mov	r0, #26
	ldr	r3, [r4, #68]
	add	r6, r6, #1
	ldr	r1, .L1244+48
	add	r5, r5, #80
	blx	r3
	ldr	r2, [r5, #-88]
	ldr	r3, [r4, #68]
	mov	r0, #26
	ldr	r1, .L1244+52
	blx	r3
	ldr	r2, [r5, #-76]
	ldr	r3, [r4, #68]
	mov	r0, #26
	ldr	r1, .L1244+56
	blx	r3
	ldr	r2, [r5, #-72]
	ldr	r3, [r4, #68]
	mov	r0, #26
	ldr	r1, .L1244+60
	blx	r3
	ldrsb	r2, [r5, #-84]
	ldr	r3, [r4, #68]
	mov	r0, #26
	ldr	r1, .L1244+64
	blx	r3
	ldrb	r2, [r5, #-83]	@ zero_extendqisi2
	ldr	r3, [r4, #68]
	mov	r0, #26
	ldr	r1, .L1244+68
	blx	r3
	ldrd	r2, [r5, #-64]
	ldr	ip, [r4, #68]
	mov	r0, #26
	ldr	r1, .L1244+72
	blx	ip
	cmp	r6, r7
	bne	.L1240
	b	.L1241
.L1238:
	ldr	ip, [r4, #68]
	movw	r3, #7015
	ldr	r2, .L1244+76
	mov	r0, #22
	ldr	r1, .L1244+80
	blx	ip
	b	.L1241
.L1245:
	.align	2
.L1244:
	.word	.LANCHOR0
	.word	vfmw_Osal_Func_Ptr_S
	.word	.LC161
	.word	.LC162
	.word	.LC163
	.word	.LC164
	.word	.LC165
	.word	.LC166
	.word	.LC167
	.word	.LC168
	.word	.LC169
	.word	.LC170
	.word	.LC171
	.word	.LC172
	.word	.LC173
	.word	.LC174
	.word	.LC175
	.word	.LC176
	.word	.LC177
	.word	.LANCHOR3+416
	.word	.LC178
	UNWIND(.fnend)
	.size	PrintScdSegState, .-PrintScdSegState
	.align	2
	.global	SM_DoNextInstance
	.type	SM_DoNextInstance, %function
SM_DoNextInstance:
	UNWIND(.fnstart)
	@ args = 0, pretend = 0, frame = 48
	@ frame_needed = 1, uses_anonymous_args = 0
	UNWIND(.movsp ip)
	mov	ip, sp
	stmfd	sp!, {r4, r5, r6, r7, r8, r9, r10, fp, ip, lr, pc}
	UNWIND(.pad #4)
	UNWIND(.save {r4, r5, r6, r7, r8, r9, r10, fp, ip, lr})
	UNWIND(.setfp fp, ip, #-4)
	sub	fp, ip, #4
	UNWIND(.pad #52)
	sub	sp, sp, #52
	cmp	r0, #0
	str	r1, [fp, #-72]
	bne	.L1293
	ldr	r8, .L1301
	ldr	r9, [r8, #872]
	cmp	r9, #0
	bne	.L1294
	ldr	r4, [r8, #856]
	mov	r10, #16
	str	r9, [fp, #-80]
	str	r9, [fp, #-76]
.L1264:
	add	r3, r4, #1
	sub	r1, fp, #68
	mov	r4, r3, asr #31
	mov	r4, r4, lsr #28
	add	r3, r3, r4
	and	r3, r3, #15
	rsb	r4, r4, r3
	mov	r6, r4, asl #4
	mov	r5, r4, asl #6
	rsb	r3, r6, r5
	mov	r0, r4
	add	r3, r8, r3
	ldr	r7, [r3, #48]
	bl	SM_GetInfo
	ldrsb	r3, [fp, #-68]
	cmp	r3, #0
	beq	.L1251
	add	r2, r7, #188416
	ldr	r3, [r2, #2352]
	cmp	r3, #1
	beq	.L1251
	ldr	r3, [r7, #56]
	sub	r1, r3, #8
	cmp	r3, #5
	cmpne	r1, #1
	bls	.L1251
	cmp	r3, #1
	beq	.L1295
	sub	r1, r3, #10
	sub	r0, r3, #15
	cmp	r3, #4
	cmpne	r1, #3
	movls	r1, #1
	movhi	r1, #0
	bics	r0, r0, #4
	orreq	r1, r1, #1
	cmp	r1, #0
	bne	.L1251
	cmp	r3, #18
	beq	.L1296
.L1253:
	mov	r1, #0
	mov	r0, r4
	str	r2, [fp, #-84]
	bl	PrintScdRawState
	mov	r1, #0
	mov	r0, r4
	bl	PrintScdSegState
	ldr	r3, .L1301+4
	ldr	r3, [r3]
	blx	r3
	add	r1, r7, #200704
	ldr	r2, [fp, #-84]
	ldr	r3, [r1, #3944]
	subs	r3, r0, r3
	strmi	r0, [r1, #3944]
	ldrsb	ip, [r7, #2]
	movmi	r3, #200
	cmp	ip, #1
	beq	.L1297
.L1255:
	str	r0, [r1, #3944]
	ldrsb	r3, [r7]
	cmp	r3, #1
	movne	r3, #0
	strneb	r3, [r7, #1]
	beq	.L1298
.L1259:
	mov	r1, #0
	mov	r0, r7
	bl	CutStreamWithSCD
	cmn	r0, #6
	moveq	r3, #1
	streqb	r3, [r7]
	beq	.L1251
	cmp	r0, #0
	mov	r3, #0
	strb	r3, [r7]
	beq	.L1299
.L1251:
	subs	r10, r10, #1
	bne	.L1264
	b	.L1265
.L1294:
	cmp	r9, #1
	beq	.L1250
.L1265:
	mvn	r0, #2
.L1248:
	sub	sp, fp, #40
	ldmfd	sp, {r4, r5, r6, r7, r8, r9, r10, fp, sp, pc}
.L1295:
	ldr	r3, [r7, #72]
	cmp	r3, #0
	bne	.L1253
	subs	r10, r10, #1
	bne	.L1264
	b	.L1265
.L1250:
	mov	r3, #2
	mvn	r0, #2
	str	r3, [r8, #872]
	sub	sp, fp, #40
	ldmfd	sp, {r4, r5, r6, r7, r8, r9, r10, fp, sp, pc}
.L1296:
	mov	r0, r4
	bl	SM_CopyYuvToDnr
	cmp	r0, #0
	beq	.L1251
	ldr	r3, .L1301+4
	mov	r0, #26
	ldr	r1, .L1301+8
	ldr	r3, [r3, #68]
	blx	r3
	b	.L1251
.L1299:
	ldr	r2, [fp, #-72]
	rsb	r3, r6, r5
	add	r3, r8, r3
	mov	r1, #1
	mov	r0, r4
	str	r4, [r2]
	ldr	r3, [r3, #48]
	cmp	r3, #0
	addne	r3, r3, #188416
	movne	r2, #1
	strne	r2, [r3, #2360]
	ldr	r2, [r7, #80]
	bl	DBG_CountTimeInfo
	mov	r0, #1
	bl	CHECK_REC_POS_ENABLE
	cmp	r0, #0
	bne	.L1300
.L1291:
	mov	r0, #0
	b	.L1248
.L1297:
	cmp	r3, #500
	ldrsb	ip, [r7, #4]
	movge	r3, #0
	movlt	r3, #1
	cmp	ip, #0
	movne	r3, #0
	cmp	r3, #0
	bne	.L1251
	b	.L1255
.L1293:
	ldr	r3, .L1301+4
	mov	r2, r0
	ldr	r1, .L1301+12
	mov	r0, #26
	ldr	r3, [r3, #68]
	blx	r3
	mvn	r0, #0
	b	.L1248
.L1298:
	mov	r1, #0
	mov	r0, r4
	str	r2, [fp, #-92]
	str	r3, [fp, #-88]
	add	r3, r7, #98304
	str	r3, [fp, #-84]
	bl	PrintScdRawState
	ldr	r3, [fp, #-88]
	mov	r0, r4
	mov	r1, r3
	ldr	r3, [fp, #-84]
	add	r3, r3, #128
	str	r3, [fp, #-84]
	bl	PrintScdSegState
	ldr	r3, [fp, #-84]
	cmp	r3, #0
	beq	.L1257
	ldr	r2, [fp, #-92]
	ldr	r3, [r2, #2224]
	ldr	r9, [r2, #2220]
	str	r3, [fp, #-76]
	ldr	r3, [r2, #2204]
	str	r3, [fp, #-80]
.L1257:
	ldrsb	r3, [r7, #1]
	cmp	r3, #0
	bne	.L1258
	ldr	r3, [fp, #-80]
	ldr	r2, [fp, #-76]
	add	r3, r3, r3, lsr #31
	cmp	r9, r3, asr #1
	movlt	r3, #1
	movge	r3, #0
	cmp	r2, #127
	movgt	r3, #0
	andle	r3, r3, #1
	cmp	r3, #0
	beq	.L1259
	mov	r3, #1
	mov	r0, r4
	strb	r3, [r7, #1]
	mov	r1, r3
	bl	CalcInstBlockTime
	b	.L1259
.L1258:
	mov	r1, #0
	mov	r0, r4
	bl	CalcInstBlockTime
	cmp	r0, #1000
	mov	r2, r0
	ble	.L1259
	ldr	r1, [fp, #-80]
	cmp	r1, #0
	add	r3, r1, #3
	movge	r3, r1
	ldr	r1, [fp, #-76]
	cmp	r9, r3, asr #2
	movlt	r3, #1
	movge	r3, #0
	cmp	r1, #63
	movgt	r3, #0
	andle	r3, r3, #1
	cmp	r3, #0
	beq	.L1259
	ldr	r3, .L1301+4
	mov	r0, #0
	ldr	r1, .L1301+16
	ldr	r3, [r3, #68]
	blx	r3
	ldr	r0, [fp, #-84]
	mvn	r1, #0
	bl	ReleaseStreamSeg
	mov	r3, #0
	strb	r3, [r7, #1]
	strb	r3, [r7]
	b	.L1259
.L1300:
	ldr	r3, .L1301+4
	add	r8, r8, r4, lsl #2
	ldr	r3, [r3]
	blx	r3
	ldr	r2, .L1301+20
	ldr	r3, [r8, #952]
	ldr	r2, [r2]
	rsb	r3, r3, r0
	mov	ip, r0
	cmp	r3, r2
	bls	.L1291
	mov	r2, r4, asl #24
	movw	r1, #6097
	add	r2, r2, #65536
	ldr	r0, .L1301+24
	str	ip, [r8, #952]
	bl	DBG_AddTrace
	b	.L1291
.L1302:
	.align	2
.L1301:
	.word	.LANCHOR0
	.word	vfmw_Osal_Func_Ptr_S
	.word	.LC180
	.word	.LC179
	.word	.LC181
	.word	g_TraceBsPeriod
	.word	.LANCHOR3+436
	UNWIND(.fnend)
	.size	SM_DoNextInstance, .-SM_DoNextInstance
	.align	2
	.type	SCDDRV_ActivateSCD.part.7, %function
SCDDRV_ActivateSCD.part.7:
	UNWIND(.fnstart)
	@ args = 0, pretend = 0, frame = 8
	@ frame_needed = 1, uses_anonymous_args = 0
	UNWIND(.movsp ip)
	mov	ip, sp
	stmfd	sp!, {r4, r5, fp, ip, lr, pc}
	UNWIND(.pad #4)
	UNWIND(.save {r4, r5, fp, ip, lr})
	UNWIND(.setfp fp, ip, #-4)
	sub	fp, ip, #4
	UNWIND(.pad #8)
	sub	sp, sp, #8
	sub	r1, fp, #24
	mov	r4, r0
	bl	SM_DoNextInstance
	cmp	r0, #0
	bne	.L1303
	mov	r2, r4, asl #7
	ldr	r3, .L1305
	sub	r4, r2, r4, asl #5
	ldr	r5, .L1305+4
	ldr	r2, [fp, #-24]
	add	r4, r3, r4
	mov	r3, #1
	str	r3, [r4, #860]
	str	r2, [r4, #856]
	ldr	r3, [r5]
	blx	r3
	ldr	ip, [r5, #68]
	movw	r3, #6497
	ldr	r2, .L1305+8
	ldr	r1, .L1305+12
	str	r0, [r4, #864]
	mov	r0, #26
	blx	ip
.L1303:
	sub	sp, fp, #20
	ldmfd	sp, {r4, r5, fp, sp, pc}
.L1306:
	.align	2
.L1305:
	.word	.LANCHOR0
	.word	vfmw_Osal_Func_Ptr_S
	.word	.LANCHOR3+456
	.word	.LC182
	UNWIND(.fnend)
	.size	SCDDRV_ActivateSCD.part.7, .-SCDDRV_ActivateSCD.part.7
	.align	2
	.global	SCDDRV_ActivateSCD
	.type	SCDDRV_ActivateSCD, %function
SCDDRV_ActivateSCD:
	UNWIND(.fnstart)
	@ args = 0, pretend = 0, frame = 0
	@ frame_needed = 1, uses_anonymous_args = 0
	UNWIND(.movsp ip)
	mov	ip, sp
	stmfd	sp!, {fp, ip, lr, pc}
	UNWIND(.pad #4)
	UNWIND(.save {fp, ip, lr})
	UNWIND(.setfp fp, ip, #-4)
	sub	fp, ip, #4
	cmp	r0, #0
	ldmnefd	sp, {fp, sp, pc}
	sub	sp, fp, #12
	ldmia	sp, {fp, sp, lr}
	b	SCDDRV_ActivateSCD.part.7
	UNWIND(.fnend)
	.size	SCDDRV_ActivateSCD, .-SCDDRV_ActivateSCD
	.align	2
	.global	SM_Wakeup
	.type	SM_Wakeup, %function
SM_Wakeup:
	UNWIND(.fnstart)
	@ args = 0, pretend = 0, frame = 0
	@ frame_needed = 1, uses_anonymous_args = 0
	UNWIND(.movsp ip)
	mov	ip, sp
	stmfd	sp!, {r4, r5, r6, fp, ip, lr, pc}
	UNWIND(.pad #4)
	UNWIND(.save {r4, r5, r6, fp, ip, lr})
	UNWIND(.setfp fp, ip, #-4)
	sub	fp, ip, #4
	UNWIND(.pad #12)
	sub	sp, sp, #12
	ldr	r5, .L1320
	mov	r4, #0
	b	.L1311
.L1310:
	add	r4, r4, #1
	cmp	r4, #16
	beq	.L1319
.L1311:
	ldr	r3, [r5, #40]
	add	r5, r5, #48
	cmp	r3, #0
	add	r2, r3, #188416
	beq	.L1310
	ldr	r3, [r2, #2360]
	cmp	r3, #1
	bne	.L1310
	mov	r0, r4
	add	r4, r4, #1
	bl	FillRawData
	cmp	r4, #16
	bne	.L1311
.L1319:
	ldr	r5, .L1320+4
	mov	r3, #1
	mov	r4, #0
	str	r3, [sp, #4]
	str	r4, [sp]
	movw	r3, #6557
	ldr	ip, [r5, #68]
	mov	r0, #26
	ldr	r2, .L1320+8
	ldr	r1, .L1320+12
	blx	ip
	mov	r0, r4
	bl	SCDDRV_CheckDevice
	subs	r6, r0, #0
	beq	.L1312
	str	r4, [sp]
	movw	r3, #6566
	ldr	ip, [r5, #68]
	mov	r0, #26
	ldr	r2, .L1320+8
	ldr	r1, .L1320+16
	blx	ip
	sub	sp, fp, #24
	ldmfd	sp, {r4, r5, r6, fp, sp, pc}
.L1312:
	str	r6, [sp]
	movw	r3, #6561
	ldr	ip, [r5, #68]
	mov	r0, #26
	ldr	r2, .L1320+8
	ldr	r1, .L1320+20
	blx	ip
	mov	r0, r6
	sub	sp, fp, #24
	ldmfd	sp, {r4, r5, r6, fp, sp, lr}
	b	SCDDRV_ActivateSCD.part.7
.L1321:
	.align	2
.L1320:
	.word	.LANCHOR0+8
	.word	vfmw_Osal_Func_Ptr_S
	.word	.LANCHOR3+476
	.word	.LC183
	.word	.LC184
	.word	.LC185
	UNWIND(.fnend)
	.size	SM_Wakeup, .-SM_Wakeup
	.align	2
	.global	SetMaxSegSize
	.type	SetMaxSegSize, %function
SetMaxSegSize:
	UNWIND(.fnstart)
	@ args = 0, pretend = 0, frame = 0
	@ frame_needed = 1, uses_anonymous_args = 0
	UNWIND(.movsp ip)
	mov	ip, sp
	stmfd	sp!, {r4, r5, fp, ip, lr, pc}
	UNWIND(.pad #4)
	UNWIND(.save {r4, r5, fp, ip, lr})
	UNWIND(.setfp fp, ip, #-4)
	sub	fp, ip, #4
	mov	r4, r1
	mov	r5, r0
	bl	VCTRL_GetChanCapLevel
	cmp	r0, #32
	bhi	.L1331
	cmp	r0, #25
	beq	.L1332
	ldr	r3, [r4, #8]
	cmp	r3, #17
	cmpne	r3, #0
	bne	.L1327
	sub	r0, r0, #13
	cmp	r0, #19
	bhi	.L1327
	mov	r2, #1
	mov	r3, #2016
	mov	r0, r2, asl r0
	movt	r3, 8
	and	r3, r3, r0
	cmp	r3, #0
	bne	.L1329
	tst	r0, #31
	movne	r0, #4194304
	moveq	r0, #3145728
	ldmfd	sp, {r4, r5, fp, sp, pc}
.L1332:
	mov	r0, r5
	bl	VCTRL_GetChanWidth
	mov	r4, r0
	mov	r0, r5
	bl	VCTRL_GetChanHeight
	cmn	r0, #1
	cmnne	r4, #1
	beq	.L1333
	mul	r3, r0, r4
	mov	r2, #57344
	movt	r2, 31
	cmp	r3, r2
	bgt	.L1329
.L1327:
	mov	r0, #3145728
	ldmfd	sp, {r4, r5, fp, sp, pc}
.L1329:
	mov	r0, #20971520
	ldmfd	sp, {r4, r5, fp, sp, pc}
.L1331:
	ldr	r3, .L1334
	mov	r0, #0
	ldr	r1, .L1334+4
	ldr	r3, [r3, #68]
	blx	r3
	mvn	r0, #0
	ldmfd	sp, {r4, r5, fp, sp, pc}
.L1333:
	ldr	r3, .L1334
	mov	r0, #0
	ldr	r1, .L1334+8
	ldr	r3, [r3, #68]
	blx	r3
	mvn	r0, #0
	ldmfd	sp, {r4, r5, fp, sp, pc}
.L1335:
	.align	2
.L1334:
	.word	vfmw_Osal_Func_Ptr_S
	.word	.LC186
	.word	.LC187
	UNWIND(.fnend)
	.size	SetMaxSegSize, .-SetMaxSegSize
	.align	2
	.global	SM_Config
	.type	SM_Config, %function
SM_Config:
	UNWIND(.fnstart)
	@ args = 0, pretend = 0, frame = 0
	@ frame_needed = 1, uses_anonymous_args = 0
	UNWIND(.movsp ip)
	mov	ip, sp
	stmfd	sp!, {r4, r5, r6, r7, r8, r9, r10, fp, ip, lr, pc}
	UNWIND(.pad #4)
	UNWIND(.save {r4, r5, r6, r7, r8, r9, r10, fp, ip, lr})
	UNWIND(.setfp fp, ip, #-4)
	sub	fp, ip, #4
	UNWIND(.pad #12)
	sub	sp, sp, #12
	clz	r3, r1
	mov	r7, r0
	mov	r5, r1
	mov	r3, r3, lsr #5
	cmp	r0, #15
	orrhi	r3, r3, #1
	cmp	r3, #0
	bne	.L1355
	ldr	ip, .L1358
	mov	r2, r0, asl #6
	sub	r2, r2, r0, asl #4
	add	r2, ip, r2
	ldr	r6, [r2, #48]
	cmn	ip, #776
	cmpne	r6, #0
	beq	.L1342
	ldr	r3, [r1, #36]
	add	r8, r6, #200704
	str	r3, [r8, #3960]
	ldr	r3, [r1, #12]
	ldr	r1, [r6, #60]
	cmp	r1, r3
	beq	.L1356
	cmp	r3, #0
	beq	.L1342
	ldr	r3, [r5]
	cmp	r3, #0
	beq	.L1342
	add	r0, ip, #796
	add	r4, r6, #188416
	ldr	r10, [ip, #784]
	ldmia	r0, {r0, r1, r3}
	ldr	r9, [ip, #788]
	ldr	lr, [ip, #792]
	str	r10, [r4, #2248]
	str	r3, [r4, #2268]
	ldr	r3, [ip, #808]
	str	r1, [r4, #2264]
	ldr	r1, [r2, #24]
	str	r3, [r4, #2300]
	mov	r3, #1152
	str	r3, [r4, #2272]
	ldr	r3, [r2, #32]
	ldr	r10, [ip, #812]
	str	r9, [r4, #2252]
	str	lr, [r4, #2256]
	ldr	r9, [ip, #816]
	ldr	lr, [ip, #820]
	str	r0, [r4, #2260]
	str	r1, [r4, #2276]
	ldr	r0, [ip, #824]
	ldr	r1, [r2, #28]
	ldr	ip, [ip, #828]
	str	r3, [r4, #2284]
	ldr	r3, [r2, #36]
	str	lr, [r4, #2312]
	str	r10, [r4, #2304]
	str	r9, [r4, #2308]
	str	r0, [r4, #2316]
	mov	r0, r7
	str	ip, [r4, #2320]
	str	r3, [r4, #2288]
	str	r1, [r4, #2280]
	ldr	r1, [r2, #40]
	ldr	r3, [r2, #44]
	str	r1, [r4, #2292]
	mov	r1, r5
	str	r3, [r4, #2296]
	ldr	r2, [r5, #12]
	ldr	r3, [r5, #8]
	add	ip, r2, #3
	cmp	r3, #6
	bic	ip, ip, #3
	ldr	r3, [r5]
	rsb	r10, r2, ip
	movne	lr, #131072
	moveq	lr, #1048576
	mov	r9, lr
	add	ip, lr, ip
	add	lr, lr, r10
	str	ip, [r4, #2336]
	add	lr, r3, lr
	str	lr, [r4, #2244]
	bl	SetMaxSegSize
	ldr	r3, [r5, #16]
	rsb	r2, r10, r3
	cmn	r0, #1
	moveq	r0, #2097152
	cmp	r0, r2
	blt	.L1357
	rsb	r3, r9, r2
	sub	r3, r3, #1024
	str	r3, [r4, #2340]
	cmp	r3, #262144
	blt	.L1342
.L1346:
	ldr	r10, .L1358+4
	add	r0, r6, #98304
	add	r9, r6, #48
	ldr	r2, [r4, #2244]
	ldr	r1, [r4, #2336]
	add	r0, r0, #128
	bl	ConfigStreamSegArray
	ldr	r3, [r10, #52]
	mov	r0, r9
	mov	r2, #52
	mov	r1, r5
	blx	r3
	mov	r3, #0
	str	r3, [r4, #2348]
.L1341:
	ldr	r3, [r10, #52]
	mov	r0, r9
	mov	r2, #52
	mov	r1, r5
	blx	r3
	mov	r3, #2
	str	r3, [r8, #3948]
	mov	r0, #0
	ldr	r3, [r5, #8]
	cmp	r3, #2
	moveq	r3, #3
	streq	r3, [r8, #3948]
	str	r7, [r4, #2344]
.L1338:
	sub	sp, fp, #40
	ldmfd	sp, {r4, r5, r6, r7, r8, r9, r10, fp, sp, pc}
.L1357:
	rsb	r3, r9, r0
	sub	r3, r3, #1024
	str	r3, [r4, #2340]
	b	.L1346
.L1356:
	add	r9, r6, #48
	add	r4, r6, #188416
	ldr	r10, .L1358+4
	b	.L1341
.L1342:
	mvn	r0, #0
	b	.L1338
.L1355:
	ldr	ip, .L1358+4
	mov	r3, r0
	str	r1, [sp]
	movw	r2, #2230
	ldr	r1, .L1358+8
	mov	r0, #0
	ldr	ip, [ip, #68]
	blx	ip
	mvn	r0, #0
	b	.L1338
.L1359:
	.align	2
.L1358:
	.word	.LANCHOR0
	.word	vfmw_Osal_Func_Ptr_S
	.word	.LC188
	UNWIND(.fnend)
	.size	SM_Config, .-SM_Config
	.align	2
	.global	SM_Reset
	.type	SM_Reset, %function
SM_Reset:
	UNWIND(.fnstart)
	@ args = 0, pretend = 0, frame = 200
	@ frame_needed = 1, uses_anonymous_args = 0
	UNWIND(.movsp ip)
	mov	ip, sp
	stmfd	sp!, {r4, r5, r6, r7, r8, r9, r10, fp, ip, lr, pc}
	UNWIND(.pad #4)
	UNWIND(.save {r4, r5, r6, r7, r8, r9, r10, fp, ip, lr})
	UNWIND(.setfp fp, ip, #-4)
	sub	fp, ip, #4
	UNWIND(.pad #204)
	sub	sp, sp, #204
	cmp	r0, #15
	mov	r5, r0
	bhi	.L1369
	mov	r3, r0, asl #6
	ldr	r10, .L1380
	sub	r3, r3, r0, asl #4
	add	r10, r10, r3
	ldr	r4, [r10, #48]
	cmp	r4, #0
	beq	.L1377
	ldr	r6, .L1380+4
	mov	r2, #52
	add	r1, r4, #48
	sub	r0, fp, #224
	add	ip, r4, #188416
	str	ip, [fp, #-232]
	ldr	r3, [r6, #52]
	add	r8, r4, #200704
	blx	r3
	ldr	ip, [fp, #-232]
	add	r7, r4, #203776
	ldr	r3, [r6, #52]
	add	r9, r7, #896
	sub	r0, fp, #172
	ldr	ip, [ip, #2360]
	mov	r2, #128
	mov	r1, r9
	str	ip, [fp, #-236]
	ldr	ip, [r8, #3964]
	str	ip, [fp, #-240]
	blx	r3
	ldr	r3, [r10, #48]
	cmp	r3, #0
	beq	.L1363
	add	r3, r3, #188416
	ldr	r2, [r3, #2360]
	cmp	r2, #0
	bne	.L1378
.L1363:
	adds	r10, r4, #104
	beq	.L1364
.L1379:
	add	r2, r4, #98304
	ldr	r3, [r2, #108]
	ldr	r1, [r2, #104]
	subs	r1, r3, r1
	addmi	r1, r1, #1024
.L1368:
	mov	r0, r10
	add	r7, r7, #848
	bl	DeleteRawPacket
	mov	r1, #1
	mov	r0, r5
	bl	DeleteRawPacketInBuffer
	ldr	r3, [r6, #48]
	mov	r2, #204800
	mov	r1, #0
	mov	r0, r4
	blx	r3
	mvn	r2, #0
	mvn	r3, #0
	mov	ip, #2
	strd	r2, [r7, #-8]
	sub	r1, fp, #224
	str	ip, [r8, #3948]
	mov	r0, r5
	bl	SM_Config
	ldr	r3, [fp, #-236]
	ldr	r2, [fp, #-232]
	sub	r1, fp, #172
	sub	r3, r3, #1
	mov	r0, r9
	cmp	r3, #1
	movls	r3, #1
	movhi	r3, #0
	str	r3, [r2, #2360]
	mov	r2, #128
	ldr	r3, [fp, #-240]
	str	r3, [r8, #3964]
	ldr	r3, [r6, #52]
	blx	r3
	mov	r0, #0
.L1376:
	sub	sp, fp, #40
	ldmfd	sp, {r4, r5, r6, r7, r8, r9, r10, fp, sp, pc}
.L1378:
	ldr	r2, [r3, #2348]
	cmp	r2, #0
	movle	r2, #0
	strle	r2, [r3, #2360]
	adds	r10, r4, #104
	bne	.L1379
.L1364:
	ldr	r1, .L1380+8
	movw	r3, #1711
	ldr	ip, [r6, #68]
	mov	r0, #22
	ldr	r2, .L1380+12
	blx	ip
	mov	r1, r10
	b	.L1368
.L1369:
	mvn	r0, #0
	b	.L1376
.L1377:
	ldr	r3, .L1380+4
	mov	r0, r4
	movw	r2, #1678
	ldr	r1, .L1380+16
	ldr	r3, [r3, #68]
	blx	r3
	mvn	r0, #0
	b	.L1376
.L1381:
	.align	2
.L1380:
	.word	.LANCHOR0
	.word	vfmw_Osal_Func_Ptr_S
	.word	.LC190
	.word	.LANCHOR3+488
	.word	.LC189
	UNWIND(.fnend)
	.size	SM_Reset, .-SM_Reset
	.align	2
	.global	SM_SCDIntServeProc
	.type	SM_SCDIntServeProc, %function
SM_SCDIntServeProc:
	UNWIND(.fnstart)
	@ args = 0, pretend = 0, frame = 32
	@ frame_needed = 1, uses_anonymous_args = 0
	UNWIND(.movsp ip)
	mov	ip, sp
	stmfd	sp!, {r4, r5, r6, r7, r8, r9, r10, fp, ip, lr, pc}
	UNWIND(.pad #4)
	UNWIND(.save {r4, r5, r6, r7, r8, r9, r10, fp, ip, lr})
	UNWIND(.setfp fp, ip, #-4)
	sub	fp, ip, #4
	UNWIND(.pad #44)
	sub	sp, sp, #44
	subs	r4, r0, #0
	ble	.L1383
	ldr	r1, .L1415
	mov	r0, #0
	mov	r3, r4
	str	r0, [sp]
	ldr	r2, .L1415+4
	ldr	ip, [r1, #68]
	ldr	r1, .L1415+8
	blx	ip
.L1382:
	sub	sp, fp, #40
	ldmfd	sp, {r4, r5, r6, r7, r8, r9, r10, fp, sp, pc}
.L1383:
	ldr	r6, .L1415
	mov	r0, #0
	ldr	r3, [r6, #12]
	blx	r3
	movw	r0, #51264
	movt	r0, 63683
	bl	MEM_ReadPhyWord
	ands	r0, r0, #1
	beq	.L1409
	ldr	r5, .L1415+12
	mov	r1, #1
	mov	r10, r4, asl #2
	ldr	r0, [r5, #4]
	add	r0, r0, #2080
	add	r0, r0, #4
	bl	MEM_WritePhyWord
	add	r3, r5, r10
	mov	r0, #2
	mov	r2, #1
	str	r2, [r3, #1016]
	bl	CHECK_REC_POS_ENABLE
	cmp	r0, #0
	bne	.L1386
	mov	r8, r4, asl #5
	mov	r9, r4, asl #7
	rsb	r3, r8, r9
	add	r3, r5, r3
	ldr	r1, [r3, #856]
.L1387:
	mov	r3, r1, asl #6
	rsb	r2, r8, r9
	sub	r3, r3, r1, asl #4
	add	r2, r5, r2
	add	r3, r5, r3
	ldr	r1, .L1415+12
	ldr	ip, [r2, #852]
	ldr	r7, [r3, #48]
	cmp	r7, #0
	cmpne	ip, #0
	moveq	ip, #1
	movne	ip, #0
	beq	.L1410
	ldr	r3, .L1415+16
	mov	r2, #84
	mla	r2, r2, r4, r3
	add	r1, r2, #64
	ldr	r0, [r2, #68]
	cmp	r0, #0
	bne	.L1411
.L1390:
	rsb	r3, r8, r9
	add	r3, r5, r3
	ldr	r2, [r3, #860]
	cmp	r2, #1
	beq	.L1412
.L1394:
	add	r7, r7, #200704
	mov	r0, #0
	add	r5, r5, r10
	ldr	r3, [r7, #3960]
	str	r0, [r5, #1016]
	cmp	r3, r0
	moveq	r0, r3
	ldr	r3, [r6, #128]
	blx	r3
	ldr	r3, [r6, #16]
	mov	r0, #0
	blx	r3
	sub	sp, fp, #40
	ldmfd	sp, {r4, r5, r6, r7, r8, r9, r10, fp, sp, pc}
.L1386:
	ldr	r3, [r6]
	mov	r8, r4, asl #5
	blx	r3
	mov	r9, r4, asl #7
	rsb	r7, r8, r9
	ldr	r3, .L1415+20
	add	r7, r5, r7
	ldr	r1, [r7, #856]
	ldr	r2, [r3]
	add	ip, r5, r1, lsl #2
	ldr	r3, [ip, #1020]
	rsb	r3, r3, r0
	mov	lr, r0
	cmp	r3, r2
	bls	.L1387
	mov	r2, r1, asl #24
	ldr	r0, .L1415+24
	movw	r1, #6215
	add	r2, r2, #131072
	str	lr, [ip, #1020]
	bl	DBG_AddTrace
	ldr	r1, [r7, #856]
	b	.L1387
.L1409:
	ldr	r3, [r6, #16]
	blx	r3
	sub	sp, fp, #40
	ldmfd	sp, {r4, r5, r6, r7, r8, r9, r10, fp, sp, pc}
.L1410:
	add	r10, r1, r10
	mov	r3, #0
	ldr	r1, [r6, #16]
	mov	r0, r3
	str	r3, [r10, #1016]
	str	r3, [r2, #860]
	blx	r1
	b	.L1382
.L1411:
	ldr	r0, [r6]
	str	r3, [fp, #-72]
	str	r1, [fp, #-68]
	str	r2, [fp, #-64]
	str	ip, [fp, #-60]
	blx	r0
	ldr	r2, [fp, #-64]
	ldr	r1, [fp, #-68]
	ldr	r3, [fp, #-72]
	ldr	ip, [fp, #-60]
	ldr	lr, [r1, #4]
	str	r0, [fp, #-56]
	ldr	r0, [r2, #64]
	add	r1, r0, #49920
	add	r1, r1, #80
	cmp	r1, lr
	strcc	lr, [r2, #64]
	ldr	r1, [fp, #-56]
	ldrcs	ip, [r2, #72]
	mov	r2, #84
	mla	r3, r2, r4, r3
	movcc	r0, lr
	ldr	r2, [fp, #-56]
	rsb	r1, r0, r1
	cmp	r1, #1000
	rsb	r0, lr, r2
	mov	r2, #0
	add	r0, r0, ip
	add	ip, r3, #72
	str	r0, [r3, #72]
	str	r2, [r3, #68]
	bcc	.L1390
	mov	lr, #1000
	str	r2, [fp, #-64]
	mul	r0, lr, r0
	str	ip, [fp, #-60]
	str	r3, [fp, #-56]
	bl	__aeabi_uidiv
	ldr	r3, [fp, #-56]
	ldr	r2, [fp, #-64]
	ldr	ip, [fp, #-60]
	str	r2, [r3, #64]
	str	r0, [ip, #4]
	b	.L1390
.L1412:
	add	ip, r7, #188416
	ldr	r2, [ip, #2360]
	cmp	r2, #1
	beq	.L1413
.L1395:
	mov	r0, r4
	sub	r1, fp, #48
	mov	r4, #0
	str	r4, [ip, #2352]
	bl	SM_DoNextInstance
	cmp	r0, r4
	rsbne	r3, r8, r9
	addne	r3, r5, r3
	strne	r4, [r3, #860]
	bne	.L1394
	ldr	r1, [fp, #-48]
	rsb	r4, r8, r9
	add	r4, r5, r4
	mov	r2, #1
	ldr	r3, [r6]
	str	r1, [r4, #856]
	str	r2, [r4, #860]
	blx	r3
	str	r0, [r4, #864]
	b	.L1394
.L1413:
	ldr	r0, [r3, #856]
	mov	r1, #0
	str	ip, [fp, #-60]
	str	r3, [fp, #-56]
	bl	PrintScdRawState
	ldr	r3, [fp, #-56]
	mov	r1, #0
	ldr	r0, [r3, #856]
	bl	PrintScdSegState
	ldr	r3, [fp, #-56]
	mov	r2, #0
	mov	r1, #2
	ldr	r0, [r3, #856]
	bl	DBG_CountTimeInfo
	mov	r1, r4
	mov	r0, r7
	bl	ProcessScdReturn
	ldr	r0, [r7, #88]
	ldr	ip, [fp, #-60]
	cmp	r0, #1
	beq	.L1414
.L1397:
	rsb	r3, r8, r9
	mov	r1, #0
	add	r3, r5, r3
	str	ip, [fp, #-60]
	str	r3, [fp, #-56]
	ldr	r0, [r3, #856]
	bl	PrintScdRawState
	ldr	r3, [fp, #-56]
	mov	r1, #0
	ldr	r0, [r3, #856]
	bl	PrintScdSegState
	ldr	ip, [fp, #-60]
	b	.L1395
.L1414:
	adds	r3, r7, #104
	beq	.L1398
	add	r2, r7, #98304
	ldr	r3, [r2, #108]
	ldr	r2, [r2, #104]
	subs	r3, r3, r2
	addmi	r3, r3, #1024
.L1404:
	ldrsb	r2, [r7, #2]
	cmp	r2, #1
	bne	.L1397
	ldr	r1, [r7, #92]
	cmp	r1, r3
	bne	.L1397
	mov	r0, r7
	str	ip, [fp, #-60]
	str	r2, [fp, #-56]
	bl	SM_MoveRawData
	ldr	r2, [fp, #-56]
	ldr	ip, [fp, #-60]
	cmp	r0, #0
	beq	.L1397
	mov	r0, r2
	ldr	r3, [r6, #68]
	ldr	r1, .L1415+28
	str	ip, [fp, #-56]
	blx	r3
	ldr	ip, [fp, #-56]
	ldr	r0, [ip, #2344]
	bl	SM_Reset
	ldr	ip, [fp, #-56]
	b	.L1397
.L1398:
	ldr	r2, [r6, #68]
	ldr	r1, .L1415+32
	str	ip, [fp, #-60]
	str	r3, [fp, #-56]
	blx	r2
	ldr	r3, [fp, #-56]
	ldr	ip, [fp, #-60]
	b	.L1404
.L1416:
	.align	2
.L1415:
	.word	vfmw_Osal_Func_Ptr_S
	.word	.LANCHOR3+500
	.word	.LC191
	.word	.LANCHOR0
	.word	g_VfmwGlobalStat
	.word	g_TraceBsPeriod
	.word	.LANCHOR3+520
	.word	.LC192
	.word	.LC193
	UNWIND(.fnend)
	.size	SM_SCDIntServeProc, .-SM_SCDIntServeProc
	.global	g_pSmIISBase
	.global	g_pScdDrvParamBase
	.global	s_RegPhyBaseAddr_1
	.global	s_RegPhyBaseAddr
	.global	g_ScdDrvParam
	.global	s_SmIIS
	.global	ForceRelease
	.global	g_hex_flag
	.global	g_hex_len
	.global	g_hex_base_addr
	.global	g_hex_base_vir_addr
	.section	.rodata
	.align	2
.LANCHOR3 = . + 0
	.type	__FUNCTION__.25722, %object
	.size	__FUNCTION__.25722, 17
__FUNCTION__.25722:
	.ascii	"GetRawNumOffsert\000"
	.space	3
	.type	__FUNCTION__.25814, %object
	.size	__FUNCTION__.25814, 17
__FUNCTION__.25814:
	.ascii	"ReleaseStreamSeg\000"
	.space	3
	.type	__func__.25865, %object
	.size	__func__.25865, 18
__func__.25865:
	.ascii	"SM_AllocDSPCtxMem\000"
	.space	2
	.type	__func__.25888, %object
	.size	__func__.25888, 14
__func__.25888:
	.ascii	"SM_OpenSCDDrv\000"
	.space	2
.LC0:
	.byte	0
	.byte	0
	.byte	1
	.byte	30
	.byte	72
	.byte	83
	.byte	80
	.byte	73
	.byte	67
	.byte	69
	.byte	78
	.byte	68
	.byte	0
	.byte	0
	.byte	1
	.byte	30
	.byte	0
	.byte	0
	.byte	0
	.byte	0
	.byte	0
	.byte	0
	.byte	1
	.byte	-2
	.byte	72
	.byte	83
	.byte	80
	.byte	73
	.byte	67
	.byte	69
	.byte	78
	.byte	68
	.byte	0
	.byte	0
	.byte	1
	.byte	0
	.byte	0
	.byte	0
	.byte	0
	.byte	0
	.byte	0
	.byte	0
	.byte	1
	.byte	-2
	.byte	72
	.byte	83
	.byte	80
	.byte	73
	.byte	67
	.byte	69
	.byte	78
	.byte	68
	.byte	0
	.byte	0
	.byte	1
	.byte	-2
	.byte	0
	.byte	0
	.byte	1
	.byte	0
	.byte	0
	.byte	0
	.byte	1
	.byte	-70
	.byte	72
	.byte	83
	.byte	80
	.byte	73
	.byte	67
	.byte	69
	.byte	78
	.byte	68
	.byte	0
	.byte	0
	.byte	1
	.byte	-70
	.byte	0
	.byte	0
	.byte	0
	.byte	0
	.byte	0
	.byte	0
	.byte	1
	.byte	96
	.byte	0
	.byte	72
	.byte	83
	.byte	80
	.byte	73
	.byte	67
	.byte	69
	.byte	78
	.byte	68
	.byte	0
	.byte	0
	.byte	1
	.byte	-1
	.byte	0
	.byte	0
	.byte	0
	.type	__func__.26192, %object
	.size	__func__.26192, 17
__func__.26192:
	.ascii	"FillEopRawStream\000"
	.space	3
.LC1:
	.byte	0
	.byte	0
	.byte	1
	.byte	11
	.byte	72
	.byte	83
	.byte	80
	.byte	73
	.byte	67
	.byte	69
	.byte	78
	.byte	68
	.byte	0
	.byte	0
	.byte	1
	.byte	0
	.byte	0
	.byte	0
	.byte	0
	.byte	0
	.byte	0
	.byte	0
	.byte	1
	.byte	-2
	.byte	72
	.byte	83
	.byte	80
	.byte	73
	.byte	67
	.byte	69
	.byte	78
	.byte	68
	.byte	0
	.byte	0
	.byte	1
	.byte	0
	.byte	0
	.byte	0
	.byte	0
	.byte	0
	.byte	0
	.byte	0
	.byte	1
	.byte	-2
	.byte	72
	.byte	83
	.byte	80
	.byte	73
	.byte	67
	.byte	69
	.byte	78
	.byte	68
	.byte	0
	.byte	0
	.byte	1
	.byte	-2
	.byte	0
	.byte	0
	.byte	1
	.byte	0
	.byte	0
	.byte	0
	.byte	1
	.byte	-73
	.byte	72
	.byte	83
	.byte	80
	.byte	73
	.byte	67
	.byte	69
	.byte	78
	.byte	68
	.byte	0
	.byte	0
	.byte	1
	.byte	-73
	.byte	0
	.byte	0
	.byte	0
	.byte	0
	.byte	0
	.byte	0
	.byte	1
	.byte	98
	.byte	0
	.byte	72
	.byte	83
	.byte	80
	.byte	73
	.byte	67
	.byte	69
	.byte	78
	.byte	68
	.byte	0
	.byte	0
	.byte	1
	.byte	0
	.byte	0
	.byte	0
	.byte	0
	.type	__func__.26219, %object
	.size	__func__.26219, 17
__func__.26219:
	.ascii	"FillEosRawStream\000"
	.space	3
	.type	__func__.26244, %object
	.size	__func__.26244, 14
__func__.26244:
	.ascii	"FillExtraData\000"
	.space	2
	.type	__func__.26360, %object
	.size	__func__.26360, 19
__func__.26360:
	.ascii	"SCDDRV_CheckDevice\000"
	.space	1
	.type	__FUNCTION__.26124, %object
	.size	__FUNCTION__.26124, 11
__FUNCTION__.26124:
	.ascii	"GetNextVop\000"
	.space	1
	.type	__FUNCTION__.26163, %object
	.size	__FUNCTION__.26163, 17
__FUNCTION__.26163:
	.ascii	"ProcessScdReturn\000"
	.space	3
	.type	__FUNCTION__.26434, %object
	.size	__FUNCTION__.26434, 17
__FUNCTION__.26434:
	.ascii	"PrintScdRawState\000"
	.space	3
	.type	__FUNCTION__.26181, %object
	.size	__FUNCTION__.26181, 12
__FUNCTION__.26181:
	.ascii	"FillRawData\000"
	.type	__FUNCTION__.26457, %object
	.size	__FUNCTION__.26457, 17
__FUNCTION__.26457:
	.ascii	"PrintScdSegState\000"
	.space	3
	.type	__FUNCTION__.26325, %object
	.size	__FUNCTION__.26325, 18
__FUNCTION__.26325:
	.ascii	"SM_DoNextInstance\000"
	.space	2
	.type	__func__.26366, %object
	.size	__func__.26366, 19
__func__.26366:
	.ascii	"SCDDRV_ActivateSCD\000"
	.space	1
	.type	__func__.26386, %object
	.size	__func__.26386, 10
__func__.26386:
	.ascii	"SM_Wakeup\000"
	.space	2
	.type	__FUNCTION__.25852, %object
	.size	__FUNCTION__.25852, 9
__FUNCTION__.25852:
	.ascii	"SM_Reset\000"
	.space	3
	.type	__func__.26350, %object
	.size	__func__.26350, 19
__func__.26350:
	.ascii	"SM_SCDIntServeProc\000"
	.space	1
	.type	__FUNCTION__.26351, %object
	.size	__FUNCTION__.26351, 19
__FUNCTION__.26351:
	.ascii	"SM_SCDIntServeProc\000"
	.data
	.align	2
.LANCHOR1 = . + 0
.LANCHOR2 = . + 16368
	.type	g_avsp_firmware, %object
	.size	g_avsp_firmware, 17920
g_avsp_firmware:
	.word	0
	.word	16283648
	.word	16349954
	.word	9468936
	.word	-252085482
	.word	9468688
	.word	9468692
	.word	16284426
	.word	9468680
	.word	18807566
	.word	-258442240
	.word	10517258
	.word	18807566
	.word	-258442239
	.word	10517258
	.word	18807566
	.word	-258442238
	.word	10517258
	.word	18807566
	.word	-258442237
	.word	10517258
	.word	18807566
	.word	-258442236
	.word	10517258
	.word	18807566
	.word	-258442235
	.word	10517258
	.word	18807566
	.word	-258442234
	.word	10517258
	.word	18807566
	.word	-258442233
	.word	10517258
	.word	-251200754
	.word	10517258
	.word	17758990
	.word	33128448
	.word	24738824
	.word	-1879048192
	.word	16349954
	.word	0
	.word	18512896
	.word	33390592
	.word	24738817
	.word	-250447311
	.word	9468672
	.word	17988136
	.word	-795837688
	.word	12090128
	.word	18807566
	.word	24967950
	.word	-249398743
	.word	33259520
	.word	554859056
	.word	-258966784
	.word	19561007
	.word	-235307008
	.word	-1063027960
	.word	16349968
	.word	0
	.word	11041536
	.word	0
	.word	1073741824
	.word	33259520
	.word	554859057
	.word	9468672
	.word	0
	.word	-1342177280
	.word	0
	.word	33128448
	.word	-1592624595
	.word	-258966776
	.word	12090128
	.word	0
	.word	17988137
	.word	9468680
	.word	16349968
	.word	17988143
	.word	-258966784
	.word	0
	.word	33521664
	.word	-1879048192
	.word	0
	.word	-1610612736
	.word	-248874449
	.word	9468688
	.word	9468692
	.word	11041536
	.word	0
	.word	0
	.word	0
	.word	286948352
	.word	9467906
	.word	33128448
	.word	-1320519377
	.word	1630697896
	.word	33128448
	.word	-786269183
	.word	17988140
	.word	9468680
	.word	12090128
	.word	21953294
	.word	19400197
	.word	33128448
	.word	-1059883006
	.word	33062912
	.word	-1073741824
	.word	1358526466
	.word	-1342177280
	.word	-1879048192
	.word	17988009
	.word	1620081416
	.word	1354267408
	.word	21953294
	.word	19400216
	.word	33128448
	.word	-2133624830
	.word	33062912
	.word	-2147483648
	.word	-2131134462
	.word	19400222
	.word	33128448
	.word	0
	.word	19036462
	.word	33390592
	.word	33398784
	.word	1092253959
	.word	33128448
	.word	1362626056
	.word	17988013
	.word	9468680
	.word	12090128
	.word	21429006
	.word	1092253999
	.word	33128448
	.word	-250447444
	.word	9468680
	.word	12090128
	.word	24673282
	.word	-250447445
	.word	814775048
	.word	12090128
	.word	0
	.word	-785744896
	.word	556956675
	.word	33128448
	.word	-235298816
	.word	-235290624
	.word	25000964
	.word	-2147483648
	.word	33128448
	.word	-1050147328
	.word	18351619
	.word	18875907
	.word	554858927
	.word	33128448
	.word	-235290624
	.word	-1073741824
	.word	10517258
	.word	9468680
	.word	0
	.word	-1845493760
	.word	23594500
	.word	18875906
	.word	554858927
	.word	33128448
	.word	-1073741824
	.word	10517258
	.word	9468680
	.word	0
	.word	872415232
	.word	-2147483648
	.word	18351646
	.word	24926480
	.word	-2124785392
	.word	-2147483648
	.word	0
	.word	19028272
	.word	20601264
	.word	554858927
	.word	10517258
	.word	546339592
	.word	0
	.word	-268435456
	.word	-1592100601
	.word	12090128
	.word	33128448
	.word	1634207232
	.word	18351619
	.word	18875907
	.word	554859050
	.word	33128448
	.word	-235290624
	.word	-1073741824
	.word	10517258
	.word	9468680
	.word	0
	.word	17988139
	.word	9468680
	.word	0
	.word	-771751936
	.word	23594500
	.word	18875906
	.word	554859050
	.word	33128448
	.word	-1073741824
	.word	10517258
	.word	9468680
	.word	0
	.word	17988139
	.word	9468680
	.word	0
	.word	-1543503872
	.word	1073741824
	.word	18351646
	.word	24926480
	.word	1096440080
	.word	-2147483648
	.word	17988138
	.word	19028272
	.word	20601264
	.word	536870912
	.word	10517258
	.word	9468680
	.word	17988139
	.word	9468680
	.word	0
	.word	-1879048192
	.word	1366850566
	.word	33398784
	.word	17987886
	.word	33398784
	.word	33398784
	.word	-518882770
	.word	9468680
	.word	16349968
	.word	0
	.word	-536870912
	.word	1903720450
	.word	1092093440
	.word	17988010
	.word	9468680
	.word	12090128
	.word	18807566
	.word	33259520
	.word	293436421
	.word	25000967
	.word	-1055753810
	.word	9468680
	.word	12090128
	.word	0
	.word	33460224
	.word	33460224
	.word	33198080
	.word	0
	.word	0
	.word	0
	.word	0
	.word	0
	.word	0
	.word	0
	.word	0
	.word	0
	.word	0
	.word	0
	.word	0
	.word	0
	.word	0
	.word	0
	.word	0
	.word	0
	.word	0
	.word	0
	.word	0
	.word	0
	.word	0
	.word	0
	.word	0
	.word	0
	.word	0
	.word	0
	.word	0
	.word	0
	.word	0
	.word	0
	.word	0
	.word	0
	.word	0
	.word	0
	.word	0
	.word	0
	.word	0
	.word	0
	.word	0
	.word	0
	.word	0
	.word	0
	.word	0
	.word	0
	.word	0
	.word	0
	.word	0
	.word	0
	.word	0
	.word	0
	.word	0
	.word	0
	.word	0
	.word	0
	.word	0
	.word	0
	.word	0
	.word	0
	.word	0
	.word	0
	.word	0
	.word	0
	.word	0
	.word	0
	.word	0
	.word	0
	.word	0
	.word	0
	.word	0
	.word	0
	.word	0
	.word	0
	.word	0
	.word	0
	.word	0
	.word	0
	.word	0
	.word	0
	.word	0
	.word	0
	.word	0
	.word	0
	.word	0
	.word	0
	.word	0
	.word	0
	.word	0
	.word	0
	.word	0
	.word	0
	.word	0
	.word	0
	.word	0
	.word	0
	.word	0
	.word	0
	.word	0
	.word	0
	.word	0
	.word	0
	.word	0
	.word	0
	.word	0
	.word	0
	.word	0
	.word	0
	.word	0
	.word	0
	.word	0
	.word	0
	.word	0
	.word	0
	.word	0
	.word	0
	.word	0
	.word	0
	.word	0
	.word	0
	.word	0
	.word	0
	.word	0
	.word	0
	.word	0
	.word	0
	.word	0
	.word	0
	.word	0
	.word	0
	.word	0
	.word	0
	.word	0
	.word	0
	.word	0
	.word	0
	.word	0
	.word	0
	.word	0
	.word	0
	.word	0
	.word	0
	.word	0
	.word	0
	.word	0
	.word	0
	.word	0
	.word	0
	.word	0
	.word	0
	.word	0
	.word	0
	.word	0
	.word	0
	.word	0
	.word	0
	.word	0
	.word	0
	.word	0
	.word	0
	.word	0
	.word	0
	.word	0
	.word	0
	.word	0
	.word	0
	.word	0
	.word	0
	.word	0
	.word	0
	.word	0
	.word	0
	.word	0
	.word	0
	.word	0
	.word	0
	.word	0
	.word	0
	.word	0
	.word	0
	.word	0
	.word	0
	.word	0
	.word	0
	.word	0
	.word	0
	.word	0
	.word	0
	.word	0
	.word	0
	.word	0
	.word	0
	.word	0
	.word	0
	.word	0
	.word	0
	.word	0
	.word	0
	.word	0
	.word	0
	.word	0
	.word	0
	.word	0
	.word	0
	.word	0
	.word	0
	.word	0
	.word	0
	.word	0
	.word	0
	.word	0
	.word	0
	.word	0
	.word	0
	.word	0
	.word	0
	.word	0
	.word	0
	.word	0
	.word	0
	.word	0
	.word	0
	.word	0
	.word	0
	.word	0
	.word	0
	.word	0
	.word	0
	.word	0
	.word	0
	.word	0
	.word	0
	.word	0
	.word	0
	.word	0
	.word	0
	.word	0
	.word	0
	.word	0
	.word	0
	.word	0
	.word	0
	.word	0
	.word	0
	.word	0
	.word	0
	.word	0
	.word	0
	.word	0
	.word	0
	.word	0
	.word	0
	.word	0
	.word	0
	.word	0
	.word	0
	.word	0
	.word	0
	.word	0
	.word	0
	.word	0
	.word	0
	.word	0
	.word	0
	.word	0
	.word	0
	.word	0
	.word	0
	.word	0
	.word	0
	.word	0
	.word	0
	.word	0
	.word	0
	.word	0
	.word	0
	.word	0
	.word	0
	.word	0
	.word	0
	.word	0
	.word	0
	.word	0
	.word	0
	.word	0
	.word	0
	.word	0
	.word	0
	.word	0
	.word	0
	.word	0
	.word	0
	.word	0
	.word	0
	.word	0
	.word	0
	.word	0
	.word	0
	.word	0
	.word	0
	.word	0
	.word	0
	.word	0
	.word	0
	.word	0
	.word	0
	.word	0
	.word	0
	.word	0
	.word	0
	.word	0
	.word	0
	.word	0
	.word	0
	.word	0
	.word	0
	.word	0
	.word	0
	.word	0
	.word	0
	.word	0
	.word	0
	.word	0
	.word	0
	.word	0
	.word	0
	.word	0
	.word	0
	.word	0
	.word	0
	.word	0
	.word	0
	.word	0
	.word	0
	.word	0
	.word	0
	.word	0
	.word	0
	.word	0
	.word	0
	.word	0
	.word	0
	.word	0
	.word	0
	.word	0
	.word	0
	.word	0
	.word	0
	.word	0
	.word	0
	.word	0
	.word	0
	.word	0
	.word	0
	.word	0
	.word	0
	.word	0
	.word	0
	.word	0
	.word	0
	.word	0
	.word	0
	.word	0
	.word	0
	.word	0
	.word	0
	.word	0
	.word	0
	.word	0
	.word	0
	.word	0
	.word	0
	.word	0
	.word	0
	.word	0
	.word	0
	.word	0
	.word	0
	.word	0
	.word	0
	.word	0
	.word	0
	.word	0
	.word	0
	.word	0
	.word	0
	.word	0
	.word	0
	.word	0
	.word	0
	.word	0
	.word	0
	.word	0
	.word	0
	.word	0
	.word	0
	.word	0
	.word	0
	.word	0
	.word	0
	.word	0
	.word	0
	.word	0
	.word	0
	.word	0
	.word	0
	.word	0
	.word	0
	.word	0
	.word	0
	.word	0
	.word	0
	.word	0
	.word	0
	.word	0
	.word	0
	.word	0
	.word	0
	.word	0
	.word	0
	.word	0
	.word	0
	.word	0
	.word	0
	.word	0
	.word	0
	.word	0
	.word	0
	.word	0
	.word	0
	.word	0
	.word	0
	.word	0
	.word	0
	.word	0
	.word	0
	.word	0
	.word	0
	.word	0
	.word	0
	.word	0
	.word	0
	.word	0
	.word	0
	.word	0
	.word	0
	.word	0
	.word	0
	.word	0
	.word	0
	.word	0
	.word	0
	.word	0
	.word	0
	.word	0
	.word	0
	.word	0
	.word	0
	.word	0
	.word	0
	.word	0
	.word	0
	.word	0
	.word	0
	.word	0
	.word	0
	.word	0
	.word	0
	.word	0
	.word	0
	.word	0
	.word	0
	.word	0
	.word	0
	.word	0
	.word	0
	.word	0
	.word	0
	.word	0
	.word	0
	.word	0
	.word	0
	.word	0
	.word	0
	.word	0
	.word	0
	.word	0
	.word	0
	.word	0
	.word	0
	.word	0
	.word	0
	.word	0
	.word	0
	.word	0
	.word	0
	.word	0
	.word	0
	.word	0
	.word	0
	.word	0
	.word	0
	.word	0
	.word	0
	.word	0
	.word	0
	.word	0
	.word	0
	.word	0
	.word	0
	.word	0
	.word	0
	.word	0
	.word	0
	.word	0
	.word	0
	.word	0
	.word	0
	.word	0
	.word	0
	.word	0
	.word	0
	.word	0
	.word	0
	.word	0
	.word	0
	.word	0
	.word	0
	.word	0
	.word	0
	.word	0
	.word	0
	.word	0
	.word	0
	.word	0
	.word	0
	.word	0
	.word	0
	.word	0
	.word	0
	.word	0
	.word	0
	.word	0
	.word	0
	.word	0
	.word	0
	.word	0
	.word	0
	.word	0
	.word	0
	.word	0
	.word	0
	.word	0
	.word	0
	.word	0
	.word	0
	.word	0
	.word	0
	.word	0
	.word	0
	.word	0
	.word	0
	.word	0
	.word	0
	.word	0
	.word	0
	.word	0
	.word	0
	.word	0
	.word	0
	.word	0
	.word	0
	.word	0
	.word	0
	.word	0
	.word	0
	.word	0
	.word	0
	.word	0
	.word	0
	.word	0
	.word	0
	.word	0
	.word	0
	.word	0
	.word	0
	.word	0
	.word	0
	.word	0
	.word	0
	.word	0
	.word	0
	.word	0
	.word	0
	.word	0
	.word	0
	.word	0
	.word	0
	.word	0
	.word	0
	.word	0
	.word	0
	.word	0
	.word	0
	.word	0
	.word	0
	.word	0
	.word	0
	.word	0
	.word	0
	.word	0
	.word	0
	.word	0
	.word	0
	.word	0
	.word	0
	.word	0
	.word	0
	.word	0
	.word	0
	.word	0
	.word	0
	.word	0
	.word	0
	.word	0
	.word	0
	.word	0
	.word	0
	.word	0
	.word	0
	.word	0
	.word	0
	.word	0
	.word	0
	.word	0
	.word	0
	.word	0
	.word	0
	.word	0
	.word	0
	.word	0
	.word	0
	.word	0
	.word	0
	.word	0
	.word	0
	.word	0
	.word	0
	.word	0
	.word	0
	.word	0
	.word	0
	.word	0
	.word	0
	.word	0
	.word	0
	.word	0
	.word	0
	.word	0
	.word	0
	.word	0
	.word	0
	.word	0
	.word	0
	.word	0
	.word	0
	.word	0
	.word	0
	.word	0
	.word	0
	.word	0
	.word	0
	.word	0
	.word	0
	.word	0
	.word	0
	.word	0
	.word	0
	.word	0
	.word	0
	.word	0
	.word	0
	.word	0
	.word	0
	.word	0
	.word	0
	.word	0
	.word	0
	.word	0
	.word	0
	.word	0
	.word	0
	.word	0
	.word	0
	.word	0
	.word	0
	.word	0
	.word	0
	.word	0
	.word	0
	.word	0
	.word	0
	.word	0
	.word	0
	.word	0
	.word	0
	.word	0
	.word	0
	.word	0
	.word	0
	.word	0
	.word	0
	.word	0
	.word	0
	.word	0
	.word	0
	.word	0
	.word	0
	.word	0
	.word	0
	.word	0
	.word	0
	.word	0
	.word	0
	.word	0
	.word	0
	.word	0
	.word	0
	.word	0
	.word	0
	.word	0
	.word	0
	.word	0
	.word	0
	.word	0
	.word	0
	.word	0
	.word	0
	.word	0
	.word	0
	.word	0
	.word	0
	.word	0
	.word	0
	.word	0
	.word	0
	.word	0
	.word	0
	.word	0
	.word	0
	.word	0
	.word	0
	.word	0
	.word	0
	.word	0
	.word	0
	.word	0
	.word	0
	.word	0
	.word	0
	.word	0
	.word	0
	.word	0
	.word	0
	.word	0
	.word	0
	.word	0
	.word	0
	.word	0
	.word	0
	.word	0
	.word	0
	.word	0
	.word	0
	.word	0
	.word	0
	.word	0
	.word	0
	.word	0
	.word	0
	.word	0
	.word	0
	.word	0
	.word	0
	.word	0
	.word	0
	.word	0
	.word	0
	.word	0
	.word	0
	.word	0
	.word	0
	.word	0
	.word	0
	.word	0
	.word	0
	.word	0
	.word	0
	.word	0
	.word	0
	.word	0
	.word	0
	.word	0
	.word	0
	.word	0
	.word	0
	.word	0
	.word	0
	.word	0
	.word	0
	.word	0
	.word	0
	.word	0
	.word	0
	.word	0
	.word	0
	.word	0
	.word	0
	.word	0
	.word	0
	.word	0
	.word	0
	.word	0
	.word	0
	.word	0
	.word	0
	.word	0
	.word	0
	.word	0
	.word	0
	.word	0
	.word	0
	.word	0
	.word	0
	.word	0
	.word	0
	.word	0
	.word	0
	.word	0
	.word	0
	.word	0
	.word	0
	.word	0
	.word	0
	.word	0
	.word	0
	.word	0
	.word	0
	.word	0
	.word	0
	.word	0
	.word	0
	.word	0
	.word	0
	.word	0
	.word	0
	.word	0
	.word	0
	.word	0
	.word	0
	.word	0
	.word	0
	.word	0
	.word	0
	.word	0
	.word	0
	.word	0
	.word	0
	.word	0
	.word	0
	.word	0
	.word	0
	.word	0
	.word	0
	.word	0
	.word	0
	.word	0
	.word	0
	.word	0
	.word	0
	.word	0
	.word	0
	.word	0
	.word	0
	.word	0
	.word	0
	.word	0
	.word	0
	.word	0
	.word	0
	.word	0
	.word	0
	.word	0
	.word	0
	.word	0
	.word	0
	.word	0
	.word	0
	.word	0
	.word	0
	.word	0
	.word	0
	.word	0
	.word	0
	.word	0
	.word	0
	.word	0
	.word	0
	.word	0
	.word	0
	.word	0
	.word	0
	.word	0
	.word	0
	.word	0
	.word	0
	.word	0
	.word	0
	.word	0
	.word	0
	.word	0
	.word	0
	.word	0
	.word	0
	.word	0
	.word	0
	.word	0
	.word	0
	.word	0
	.word	0
	.word	0
	.word	0
	.word	0
	.word	0
	.word	0
	.word	0
	.word	0
	.word	0
	.word	0
	.word	0
	.word	0
	.word	0
	.word	0
	.word	0
	.word	0
	.word	0
	.word	0
	.word	0
	.word	0
	.word	0
	.word	0
	.word	0
	.word	0
	.word	0
	.word	0
	.word	0
	.word	0
	.word	0
	.word	0
	.word	0
	.word	0
	.word	0
	.word	0
	.word	0
	.word	0
	.word	0
	.word	0
	.word	0
	.word	0
	.word	0
	.word	0
	.word	0
	.word	0
	.word	0
	.word	0
	.word	0
	.word	0
	.word	0
	.word	0
	.word	0
	.word	0
	.word	0
	.word	0
	.word	0
	.word	0
	.word	0
	.word	0
	.word	0
	.word	0
	.word	0
	.word	0
	.word	0
	.word	0
	.word	0
	.word	0
	.word	0
	.word	0
	.word	0
	.word	0
	.word	0
	.word	0
	.word	0
	.word	0
	.word	0
	.word	0
	.word	0
	.word	0
	.word	0
	.word	0
	.word	0
	.word	0
	.word	0
	.word	0
	.word	0
	.word	0
	.word	0
	.word	0
	.word	0
	.word	0
	.word	0
	.word	0
	.word	0
	.word	0
	.word	0
	.word	0
	.word	0
	.word	0
	.word	0
	.word	0
	.word	0
	.word	0
	.word	0
	.word	0
	.word	0
	.word	0
	.word	0
	.word	0
	.word	0
	.word	0
	.word	0
	.word	0
	.word	0
	.word	0
	.word	0
	.word	0
	.word	0
	.word	0
	.word	0
	.word	0
	.word	0
	.word	0
	.word	0
	.word	0
	.word	0
	.word	0
	.word	0
	.word	0
	.word	0
	.word	0
	.word	0
	.word	0
	.word	0
	.word	0
	.word	0
	.word	0
	.word	0
	.word	0
	.word	0
	.word	0
	.word	0
	.word	0
	.word	0
	.word	0
	.word	0
	.word	0
	.word	0
	.word	0
	.word	0
	.word	0
	.word	0
	.word	0
	.word	0
	.word	0
	.word	0
	.word	0
	.word	0
	.word	0
	.word	0
	.word	0
	.word	0
	.word	0
	.word	0
	.word	0
	.word	0
	.word	0
	.word	0
	.word	0
	.word	0
	.word	0
	.word	0
	.word	0
	.word	0
	.word	0
	.word	0
	.word	0
	.word	0
	.word	0
	.word	0
	.word	0
	.word	0
	.word	0
	.word	0
	.word	0
	.word	0
	.word	0
	.word	0
	.word	0
	.word	0
	.word	0
	.word	0
	.word	0
	.word	0
	.word	0
	.word	0
	.word	0
	.word	0
	.word	0
	.word	0
	.word	0
	.word	0
	.word	0
	.word	0
	.word	0
	.word	0
	.word	0
	.word	0
	.word	0
	.word	0
	.word	0
	.word	0
	.word	0
	.word	0
	.word	0
	.word	0
	.word	0
	.word	0
	.word	0
	.word	0
	.word	0
	.word	0
	.word	0
	.word	0
	.word	0
	.word	0
	.word	0
	.word	0
	.word	0
	.word	0
	.word	0
	.word	0
	.word	0
	.word	0
	.word	0
	.word	0
	.word	0
	.word	0
	.word	0
	.word	0
	.word	0
	.word	0
	.word	0
	.word	0
	.word	0
	.word	0
	.word	0
	.word	0
	.word	0
	.word	0
	.word	0
	.word	0
	.word	0
	.word	0
	.word	0
	.word	0
	.word	0
	.word	0
	.word	0
	.word	0
	.word	0
	.word	0
	.word	0
	.word	0
	.word	0
	.word	0
	.word	0
	.word	0
	.word	0
	.word	0
	.word	0
	.word	0
	.word	0
	.word	0
	.word	0
	.word	0
	.word	0
	.word	0
	.word	0
	.word	0
	.word	0
	.word	0
	.word	0
	.word	0
	.word	0
	.word	0
	.word	0
	.word	0
	.word	0
	.word	0
	.word	0
	.word	0
	.word	0
	.word	0
	.word	0
	.word	0
	.word	0
	.word	0
	.word	0
	.word	0
	.word	0
	.word	0
	.word	0
	.word	0
	.word	0
	.word	0
	.word	0
	.word	0
	.word	0
	.word	0
	.word	0
	.word	0
	.word	0
	.word	0
	.word	0
	.word	0
	.word	0
	.word	0
	.word	0
	.word	0
	.word	0
	.word	0
	.word	0
	.word	0
	.word	0
	.word	0
	.word	0
	.word	0
	.word	0
	.word	0
	.word	0
	.word	0
	.word	0
	.word	0
	.word	0
	.word	0
	.word	0
	.word	0
	.word	0
	.word	0
	.word	0
	.word	0
	.word	0
	.word	0
	.word	0
	.word	0
	.word	0
	.word	0
	.word	0
	.word	0
	.word	0
	.word	0
	.word	0
	.word	0
	.word	0
	.word	0
	.word	0
	.word	0
	.word	0
	.word	0
	.word	0
	.word	0
	.word	0
	.word	0
	.word	0
	.word	0
	.word	0
	.word	0
	.word	0
	.word	0
	.word	0
	.word	0
	.word	0
	.word	0
	.word	0
	.word	0
	.word	0
	.word	0
	.word	0
	.word	0
	.word	0
	.word	0
	.word	0
	.word	0
	.word	0
	.word	0
	.word	0
	.word	0
	.word	0
	.word	0
	.word	0
	.word	0
	.word	0
	.word	0
	.word	0
	.word	0
	.word	0
	.word	0
	.word	0
	.word	0
	.word	0
	.word	0
	.word	0
	.word	0
	.word	0
	.word	0
	.word	0
	.word	0
	.word	0
	.word	0
	.word	0
	.word	0
	.word	0
	.word	0
	.word	0
	.word	0
	.word	0
	.word	0
	.word	0
	.word	0
	.word	0
	.word	0
	.word	0
	.word	0
	.word	0
	.word	0
	.word	0
	.word	0
	.word	0
	.word	0
	.word	0
	.word	0
	.word	0
	.word	0
	.word	0
	.word	0
	.word	0
	.word	0
	.word	0
	.word	0
	.word	0
	.word	0
	.word	0
	.word	0
	.word	0
	.word	0
	.word	0
	.word	0
	.word	0
	.word	0
	.word	0
	.word	0
	.word	0
	.word	0
	.word	0
	.word	0
	.word	0
	.word	0
	.word	0
	.word	0
	.word	0
	.word	0
	.word	0
	.word	0
	.word	0
	.word	0
	.word	0
	.word	0
	.word	0
	.word	0
	.word	0
	.word	0
	.word	0
	.word	0
	.word	0
	.word	0
	.word	0
	.word	0
	.word	0
	.word	0
	.word	0
	.word	0
	.word	0
	.word	0
	.word	0
	.word	0
	.word	0
	.word	0
	.word	0
	.word	0
	.word	0
	.word	0
	.word	0
	.word	0
	.word	0
	.word	0
	.word	0
	.word	0
	.word	0
	.word	0
	.word	0
	.word	0
	.word	0
	.word	0
	.word	0
	.word	0
	.word	0
	.word	0
	.word	0
	.word	0
	.word	0
	.word	0
	.word	0
	.word	0
	.word	0
	.word	0
	.word	0
	.word	0
	.word	0
	.word	0
	.word	0
	.word	0
	.word	0
	.word	0
	.word	0
	.word	0
	.word	0
	.word	0
	.word	0
	.word	0
	.word	0
	.word	0
	.word	0
	.word	0
	.word	0
	.word	0
	.word	0
	.word	0
	.word	0
	.word	0
	.word	0
	.word	0
	.word	0
	.word	0
	.word	0
	.word	0
	.word	0
	.word	0
	.word	0
	.word	0
	.word	0
	.word	0
	.word	0
	.word	0
	.word	0
	.word	0
	.word	0
	.word	0
	.word	0
	.word	0
	.word	0
	.word	0
	.word	0
	.word	0
	.word	0
	.word	0
	.word	0
	.word	0
	.word	0
	.word	0
	.word	0
	.word	0
	.word	0
	.word	0
	.word	0
	.word	0
	.word	0
	.word	0
	.word	0
	.word	0
	.word	0
	.word	0
	.word	0
	.word	0
	.word	0
	.word	0
	.word	0
	.word	0
	.word	0
	.word	0
	.word	0
	.word	0
	.word	0
	.word	0
	.word	0
	.word	0
	.word	0
	.word	0
	.word	0
	.word	0
	.word	0
	.word	0
	.word	0
	.word	0
	.word	0
	.word	0
	.word	0
	.word	0
	.word	0
	.word	0
	.word	0
	.word	0
	.word	0
	.word	0
	.word	0
	.word	0
	.word	0
	.word	0
	.word	0
	.word	0
	.word	0
	.word	0
	.word	0
	.word	0
	.word	0
	.word	0
	.word	0
	.word	0
	.word	0
	.word	0
	.word	0
	.word	0
	.word	0
	.word	0
	.word	0
	.word	0
	.word	0
	.word	0
	.word	0
	.word	0
	.word	0
	.word	0
	.word	0
	.word	0
	.word	0
	.word	0
	.word	0
	.word	0
	.word	0
	.word	0
	.word	0
	.word	0
	.word	0
	.word	0
	.word	0
	.word	0
	.word	0
	.word	0
	.word	0
	.word	0
	.word	0
	.word	0
	.word	0
	.word	0
	.word	0
	.word	0
	.word	0
	.word	0
	.word	0
	.word	0
	.word	0
	.word	0
	.word	0
	.word	0
	.word	0
	.word	0
	.word	0
	.word	0
	.word	0
	.word	0
	.word	0
	.word	0
	.word	0
	.word	0
	.word	0
	.word	0
	.word	0
	.word	0
	.word	0
	.word	0
	.word	0
	.word	0
	.word	0
	.word	0
	.word	0
	.word	0
	.word	0
	.word	0
	.word	0
	.word	0
	.word	0
	.word	0
	.word	0
	.word	0
	.word	0
	.word	0
	.word	0
	.word	0
	.word	0
	.word	0
	.word	0
	.word	0
	.word	0
	.word	0
	.word	0
	.word	0
	.word	0
	.word	0
	.word	0
	.word	0
	.word	0
	.word	0
	.word	0
	.word	0
	.word	0
	.word	0
	.word	0
	.word	0
	.word	0
	.word	0
	.word	0
	.word	0
	.word	0
	.word	0
	.word	0
	.word	0
	.word	0
	.word	0
	.word	0
	.word	0
	.word	0
	.word	0
	.word	0
	.word	0
	.word	0
	.word	0
	.word	0
	.word	0
	.word	0
	.word	0
	.word	0
	.word	0
	.word	0
	.word	0
	.word	0
	.word	0
	.word	0
	.word	0
	.word	0
	.word	0
	.word	0
	.word	0
	.word	0
	.word	0
	.word	0
	.word	0
	.word	0
	.word	0
	.word	0
	.word	0
	.word	0
	.word	0
	.word	0
	.word	0
	.word	0
	.word	0
	.word	0
	.word	0
	.word	0
	.word	0
	.word	0
	.word	0
	.word	0
	.word	0
	.word	0
	.word	0
	.word	0
	.word	0
	.word	0
	.word	0
	.word	0
	.word	0
	.word	0
	.word	0
	.word	0
	.word	0
	.word	0
	.word	0
	.word	0
	.word	0
	.word	0
	.word	0
	.word	0
	.word	0
	.word	0
	.word	0
	.word	0
	.word	0
	.word	0
	.word	0
	.word	0
	.word	0
	.word	0
	.word	0
	.word	0
	.word	0
	.word	0
	.word	0
	.word	0
	.word	0
	.word	0
	.word	0
	.word	0
	.word	0
	.word	0
	.word	0
	.word	0
	.word	0
	.word	0
	.word	0
	.word	0
	.word	0
	.word	0
	.word	0
	.word	0
	.word	0
	.word	0
	.word	0
	.word	0
	.word	0
	.word	0
	.word	0
	.word	0
	.word	0
	.word	0
	.word	0
	.word	0
	.word	0
	.word	0
	.word	0
	.word	0
	.word	0
	.word	0
	.word	0
	.word	0
	.word	0
	.word	0
	.word	0
	.word	0
	.word	0
	.word	0
	.word	0
	.word	0
	.word	0
	.word	0
	.word	0
	.word	0
	.word	1011712
	.word	0
	.word	0
	.word	1013760
	.word	18687
	.word	0
	.word	0
	.word	18688
	.word	0
	.word	0
	.word	103084
	.word	0
	.word	0
	.word	102700
	.word	0
	.word	0
	.word	102700
	.word	0
	.word	0
	.word	102700
	.word	0
	.word	0
	.word	102700
	.word	0
	.word	0
	.word	102700
	.word	0
	.word	0
	.word	102700
	.word	0
	.word	0
	.word	102700
	.word	0
	.word	102700
	.word	0
	.word	18432
	.word	916608
	.word	0
	.word	1027074
	.word	0
	.word	1013760
	.word	18432
	.word	916620
	.word	908352
	.word	1027075
	.word	0
	.word	1013760
	.word	105964
	.word	0
	.word	1013760
	.word	0
	.word	1031171
	.word	916484
	.word	1031173
	.word	98348
	.word	1013760
	.word	904428
	.word	1027075
	.word	0
	.word	1013760
	.word	0
	.word	1013760
	.word	1027075
	.word	916484
	.word	1031173
	.word	0
	.word	1013760
	.word	1035269
	.word	1031168
	.word	916712
	.word	1031172
	.word	23807
	.word	0
	.word	1013760
	.word	0
	.word	0
	.word	0
	.word	1013760
	.word	98348
	.word	1013760
	.word	916484
	.word	1031170
	.word	1007616
	.word	1018885
	.word	18687
	.word	0
	.word	0
	.word	0
	.word	1013760
	.word	1018880
	.word	1007616
	.word	18432
	.word	20480
	.word	916688
	.word	1031175
	.word	23552
	.word	916696
	.word	1027078
	.word	908752
	.word	0
	.word	0
	.word	1013760
	.word	108112
	.word	917096
	.word	1031174
	.word	917076
	.word	1027078
	.word	25600
	.word	1018887
	.word	23553
	.word	908752
	.word	19456
	.word	22528
	.word	1013760
	.word	108112
	.word	917096
	.word	1031175
	.word	917076
	.word	1027079
	.word	25601
	.word	108108
	.word	917076
	.word	222628
	.word	19456
	.word	917068
	.word	917072
	.word	1027086
	.word	917068
	.word	1027080
	.word	0
	.word	0
	.word	0
	.word	1013760
	.word	23552
	.word	917068
	.word	1027080
	.word	0
	.word	0
	.word	1013760
	.word	1027080
	.word	23552
	.word	0
	.word	1013760
	.word	19457
	.word	20480
	.word	916756
	.word	916908
	.word	916844
	.word	0
	.word	1027083
	.word	917068
	.word	1027082
	.word	105120
	.word	595340
	.word	105112
	.word	916816
	.word	916844
	.word	185196
	.word	0
	.word	0
	.word	1013760
	.word	989193
	.word	105120
	.word	595340
	.word	105112
	.word	916816
	.word	185196
	.word	0
	.word	0
	.word	1013760
	.word	989194
	.word	1018891
	.word	113316
	.word	112296
	.word	1031179
	.word	310092
	.word	113572
	.word	0
	.word	0
	.word	69916
	.word	0
	.word	23552
	.word	1013760
	.word	988170
	.word	23553
	.word	0
	.word	917068
	.word	1027085
	.word	105120
	.word	595340
	.word	105112
	.word	916816
	.word	916844
	.word	185196
	.word	0
	.word	0
	.word	1013760
	.word	0
	.word	0
	.word	1013760
	.word	989195
	.word	105120
	.word	595340
	.word	105112
	.word	916816
	.word	185196
	.word	0
	.word	0
	.word	1013760
	.word	0
	.word	0
	.word	1013760
	.word	989196
	.word	1018894
	.word	113316
	.word	112296
	.word	1031182
	.word	310092
	.word	113572
	.word	0
	.word	0
	.word	69916
	.word	0
	.word	0
	.word	1013760
	.word	0
	.word	1013760
	.word	988173
	.word	19456
	.word	917068
	.word	19456
	.word	917068
	.word	917064
	.word	1027086
	.word	0
	.word	0
	.word	1013760
	.word	1018894
	.word	23552
	.word	1027087
	.word	0
	.word	0
	.word	0
	.word	1013760
	.word	916712
	.word	23556
	.word	0
	.word	1027087
	.word	0
	.word	0
	.word	1013760
	.word	999424
	.word	999424
	.word	999424
	.word	0
	.word	0
	.word	0
	.word	0
	.word	0
	.word	0
	.word	0
	.word	0
	.word	0
	.word	0
	.word	0
	.word	0
	.word	0
	.word	0
	.word	0
	.word	0
	.word	0
	.word	0
	.word	0
	.word	0
	.word	0
	.word	0
	.word	0
	.word	0
	.word	0
	.word	0
	.word	0
	.word	0
	.word	0
	.word	0
	.word	0
	.word	0
	.word	0
	.word	0
	.word	0
	.word	0
	.word	0
	.word	0
	.word	0
	.word	0
	.word	0
	.word	0
	.word	0
	.word	0
	.word	0
	.word	0
	.word	0
	.word	0
	.word	0
	.word	0
	.word	0
	.word	0
	.word	0
	.word	0
	.word	0
	.word	0
	.word	0
	.word	0
	.word	0
	.word	0
	.word	0
	.word	0
	.word	0
	.word	0
	.word	0
	.word	0
	.word	0
	.word	0
	.word	0
	.word	0
	.word	0
	.word	0
	.word	0
	.word	0
	.word	0
	.word	0
	.word	0
	.word	0
	.word	0
	.word	0
	.word	0
	.word	0
	.word	0
	.word	0
	.word	0
	.word	0
	.word	0
	.word	0
	.word	0
	.word	0
	.word	0
	.word	0
	.word	0
	.word	0
	.word	0
	.word	0
	.word	0
	.word	0
	.word	0
	.word	0
	.word	0
	.word	0
	.word	0
	.word	0
	.word	0
	.word	0
	.word	0
	.word	0
	.word	0
	.word	0
	.word	0
	.word	0
	.word	0
	.word	0
	.word	0
	.word	0
	.word	0
	.word	0
	.word	0
	.word	0
	.word	0
	.word	0
	.word	0
	.word	0
	.word	0
	.word	0
	.word	0
	.word	0
	.word	0
	.word	0
	.word	0
	.word	0
	.word	0
	.word	0
	.word	0
	.word	0
	.word	0
	.word	0
	.word	0
	.word	0
	.word	0
	.word	0
	.word	0
	.word	0
	.word	0
	.word	0
	.word	0
	.word	0
	.word	0
	.word	0
	.word	0
	.word	0
	.word	0
	.word	0
	.word	0
	.word	0
	.word	0
	.word	0
	.word	0
	.word	0
	.word	0
	.word	0
	.word	0
	.word	0
	.word	0
	.word	0
	.word	0
	.word	0
	.word	0
	.word	0
	.word	0
	.word	0
	.word	0
	.word	0
	.word	0
	.word	0
	.word	0
	.word	0
	.word	0
	.word	0
	.word	0
	.word	0
	.word	0
	.word	0
	.word	0
	.word	0
	.word	0
	.word	0
	.word	0
	.word	0
	.word	0
	.word	0
	.word	0
	.word	0
	.word	0
	.word	0
	.word	0
	.word	0
	.word	0
	.word	0
	.word	0
	.word	0
	.word	0
	.word	0
	.word	0
	.word	0
	.word	0
	.word	0
	.word	0
	.word	0
	.word	0
	.word	0
	.word	0
	.word	0
	.word	0
	.word	0
	.word	0
	.word	0
	.word	0
	.word	0
	.word	0
	.word	0
	.word	0
	.word	0
	.word	0
	.word	0
	.word	0
	.word	0
	.word	0
	.word	0
	.word	0
	.word	0
	.word	0
	.word	0
	.word	0
	.word	0
	.word	0
	.word	0
	.word	0
	.word	0
	.word	0
	.word	0
	.word	0
	.word	0
	.word	0
	.word	0
	.word	0
	.word	0
	.word	0
	.word	0
	.word	0
	.word	0
	.word	0
	.word	0
	.word	0
	.word	0
	.word	0
	.word	0
	.word	0
	.word	0
	.word	0
	.word	0
	.word	0
	.word	0
	.word	0
	.word	0
	.word	0
	.word	0
	.word	0
	.word	0
	.word	0
	.word	0
	.word	0
	.word	0
	.word	0
	.word	0
	.word	0
	.word	0
	.word	0
	.word	0
	.word	0
	.word	0
	.word	0
	.word	0
	.word	0
	.word	0
	.word	0
	.word	0
	.word	0
	.word	0
	.word	0
	.word	0
	.word	0
	.word	0
	.word	0
	.word	0
	.word	0
	.word	0
	.word	0
	.word	0
	.word	0
	.word	0
	.word	0
	.word	0
	.word	0
	.word	0
	.word	0
	.word	0
	.word	0
	.word	0
	.word	0
	.word	0
	.word	0
	.word	0
	.word	0
	.word	0
	.word	0
	.word	0
	.word	0
	.word	0
	.word	0
	.word	0
	.word	0
	.word	0
	.word	0
	.word	0
	.word	0
	.word	0
	.word	0
	.word	0
	.word	0
	.word	0
	.word	0
	.word	0
	.word	0
	.word	0
	.word	0
	.word	0
	.word	0
	.word	0
	.word	0
	.word	0
	.word	0
	.word	0
	.word	0
	.word	0
	.word	0
	.word	0
	.word	0
	.word	0
	.word	0
	.word	0
	.word	0
	.word	0
	.word	0
	.word	0
	.word	0
	.word	0
	.word	0
	.word	0
	.word	0
	.word	0
	.word	0
	.word	0
	.word	0
	.word	0
	.word	0
	.word	0
	.word	0
	.word	0
	.word	0
	.word	0
	.word	0
	.word	0
	.word	0
	.word	0
	.word	0
	.word	0
	.word	0
	.word	0
	.word	0
	.word	0
	.word	0
	.word	0
	.word	0
	.word	0
	.word	0
	.word	0
	.word	0
	.word	0
	.word	0
	.word	0
	.word	0
	.word	0
	.word	0
	.word	0
	.word	0
	.word	0
	.word	0
	.word	0
	.word	0
	.word	0
	.word	0
	.word	0
	.word	0
	.word	0
	.word	0
	.word	0
	.word	0
	.word	0
	.word	0
	.word	0
	.word	0
	.word	0
	.word	0
	.word	0
	.word	0
	.word	0
	.word	0
	.word	0
	.word	0
	.word	0
	.word	0
	.word	0
	.word	0
	.word	0
	.word	0
	.word	0
	.word	0
	.word	0
	.word	0
	.word	0
	.word	0
	.word	0
	.word	0
	.word	0
	.word	0
	.word	0
	.word	0
	.word	0
	.word	0
	.word	0
	.word	0
	.word	0
	.word	0
	.word	0
	.word	0
	.word	0
	.word	0
	.word	0
	.word	0
	.word	0
	.word	0
	.word	0
	.word	0
	.word	0
	.word	0
	.word	0
	.word	0
	.word	0
	.word	0
	.word	0
	.word	0
	.word	0
	.word	0
	.word	0
	.word	0
	.word	0
	.word	0
	.word	0
	.word	0
	.word	0
	.word	0
	.word	0
	.word	0
	.word	0
	.word	0
	.word	0
	.word	0
	.word	0
	.word	0
	.word	0
	.word	0
	.word	0
	.word	0
	.word	0
	.word	0
	.word	0
	.word	0
	.word	0
	.word	0
	.word	0
	.word	0
	.word	0
	.word	0
	.word	0
	.word	0
	.word	0
	.word	0
	.word	0
	.word	0
	.word	0
	.word	0
	.word	0
	.word	0
	.word	0
	.word	0
	.word	0
	.word	0
	.word	0
	.word	0
	.word	0
	.word	0
	.word	0
	.word	0
	.word	0
	.word	0
	.word	0
	.word	0
	.word	0
	.word	0
	.word	0
	.word	0
	.word	0
	.word	0
	.word	0
	.word	0
	.word	0
	.word	0
	.word	0
	.word	0
	.word	0
	.word	0
	.word	0
	.word	0
	.word	0
	.word	0
	.word	0
	.word	0
	.word	0
	.word	0
	.word	0
	.word	0
	.word	0
	.word	0
	.word	0
	.word	0
	.word	0
	.word	0
	.word	0
	.word	0
	.word	0
	.word	0
	.word	0
	.word	0
	.word	0
	.word	0
	.word	0
	.word	0
	.word	0
	.word	0
	.word	0
	.word	0
	.word	0
	.word	0
	.word	0
	.word	0
	.word	0
	.word	0
	.word	0
	.word	0
	.word	0
	.word	0
	.word	0
	.word	0
	.word	0
	.word	0
	.word	0
	.word	0
	.word	0
	.word	0
	.word	0
	.word	0
	.word	0
	.word	0
	.word	0
	.word	0
	.word	0
	.word	0
	.word	0
	.word	0
	.word	0
	.word	0
	.word	0
	.word	0
	.word	0
	.word	0
	.word	0
	.word	0
	.word	0
	.word	0
	.word	0
	.word	0
	.word	0
	.word	0
	.word	0
	.word	0
	.word	0
	.word	0
	.word	0
	.word	0
	.word	0
	.word	0
	.word	0
	.word	0
	.word	0
	.word	0
	.word	0
	.word	0
	.word	0
	.word	0
	.word	0
	.word	0
	.word	0
	.word	0
	.word	0
	.word	0
	.word	0
	.word	0
	.word	0
	.word	0
	.word	0
	.word	0
	.word	0
	.word	0
	.word	0
	.word	0
	.word	0
	.word	0
	.word	0
	.word	0
	.word	0
	.word	0
	.word	0
	.word	0
	.word	0
	.word	0
	.word	0
	.word	0
	.word	0
	.word	0
	.word	0
	.word	0
	.word	0
	.word	0
	.word	0
	.word	0
	.word	0
	.word	0
	.word	0
	.word	0
	.word	0
	.word	0
	.word	0
	.word	0
	.word	0
	.word	0
	.word	0
	.word	0
	.word	0
	.word	0
	.word	0
	.word	0
	.word	0
	.word	0
	.word	0
	.word	0
	.word	0
	.word	0
	.word	0
	.word	0
	.word	0
	.word	0
	.word	0
	.word	0
	.word	0
	.word	0
	.word	0
	.word	0
	.word	0
	.word	0
	.word	0
	.word	0
	.word	0
	.word	0
	.word	0
	.word	0
	.word	0
	.word	0
	.word	0
	.word	0
	.word	0
	.word	0
	.word	0
	.word	0
	.word	0
	.word	0
	.word	0
	.word	0
	.word	0
	.word	0
	.word	0
	.word	0
	.word	0
	.word	0
	.word	0
	.word	0
	.word	0
	.word	0
	.word	0
	.word	0
	.word	0
	.word	0
	.word	0
	.word	0
	.word	0
	.word	0
	.word	0
	.word	0
	.word	0
	.word	0
	.word	0
	.word	0
	.word	0
	.word	0
	.word	0
	.word	0
	.word	0
	.word	0
	.word	0
	.word	0
	.word	0
	.word	0
	.word	0
	.word	0
	.word	0
	.word	0
	.word	0
	.word	0
	.word	0
	.word	0
	.word	0
	.word	0
	.word	0
	.word	0
	.word	0
	.word	0
	.word	0
	.word	0
	.word	0
	.word	0
	.word	0
	.word	0
	.word	0
	.word	0
	.word	0
	.word	0
	.word	0
	.word	0
	.word	0
	.word	0
	.word	0
	.word	0
	.word	0
	.word	0
	.word	0
	.word	0
	.word	0
	.word	0
	.word	0
	.word	0
	.word	0
	.word	0
	.word	0
	.word	0
	.word	0
	.word	0
	.word	0
	.word	0
	.word	0
	.word	0
	.word	0
	.word	0
	.word	0
	.word	0
	.word	0
	.word	0
	.word	0
	.word	0
	.word	0
	.word	0
	.word	0
	.word	0
	.word	0
	.word	0
	.word	0
	.word	0
	.word	0
	.word	0
	.word	0
	.word	0
	.word	0
	.word	0
	.word	0
	.word	0
	.word	0
	.word	0
	.word	0
	.word	0
	.word	0
	.word	0
	.word	0
	.word	0
	.word	0
	.word	0
	.word	0
	.word	0
	.word	0
	.word	0
	.word	0
	.word	0
	.word	0
	.word	0
	.word	0
	.word	0
	.word	0
	.word	0
	.word	0
	.word	0
	.word	0
	.word	0
	.word	0
	.word	0
	.word	0
	.word	0
	.word	0
	.word	0
	.word	0
	.word	0
	.word	0
	.word	0
	.word	0
	.word	0
	.word	0
	.word	0
	.word	0
	.word	0
	.word	0
	.word	0
	.word	0
	.word	0
	.word	0
	.word	0
	.word	0
	.word	0
	.word	0
	.word	0
	.word	0
	.word	0
	.word	0
	.word	0
	.word	0
	.word	0
	.word	0
	.word	0
	.word	0
	.word	0
	.word	0
	.word	0
	.word	0
	.word	0
	.word	0
	.word	0
	.word	0
	.word	0
	.word	0
	.word	0
	.word	0
	.word	0
	.word	0
	.word	0
	.word	0
	.word	0
	.word	0
	.word	0
	.word	0
	.word	0
	.word	0
	.word	0
	.word	0
	.word	0
	.word	0
	.word	0
	.word	0
	.word	0
	.word	0
	.word	0
	.word	0
	.word	0
	.word	0
	.word	0
	.word	0
	.word	0
	.word	0
	.word	0
	.word	0
	.word	0
	.word	0
	.word	0
	.word	0
	.word	0
	.word	0
	.word	0
	.word	0
	.word	0
	.word	0
	.word	0
	.word	0
	.word	0
	.word	0
	.word	0
	.word	0
	.word	0
	.word	0
	.word	0
	.word	0
	.word	0
	.word	0
	.word	0
	.word	0
	.word	0
	.word	0
	.word	0
	.word	0
	.word	0
	.word	0
	.word	0
	.word	0
	.word	0
	.word	0
	.word	0
	.word	0
	.word	0
	.word	0
	.word	0
	.word	0
	.word	0
	.word	0
	.word	0
	.word	0
	.word	0
	.word	0
	.word	0
	.word	0
	.word	0
	.word	0
	.word	0
	.word	0
	.word	0
	.word	0
	.word	0
	.word	0
	.word	0
	.word	0
	.word	0
	.word	0
	.word	0
	.word	0
	.word	0
	.word	0
	.word	0
	.word	0
	.word	0
	.word	0
	.word	0
	.word	0
	.word	0
	.word	0
	.word	0
	.word	0
	.word	0
	.word	0
	.word	0
	.word	0
	.word	0
	.word	0
	.word	0
	.word	0
	.word	0
	.word	0
	.word	0
	.word	0
	.word	0
	.word	0
	.word	0
	.word	0
	.word	0
	.word	0
	.word	0
	.word	0
	.word	0
	.word	0
	.word	0
	.word	0
	.word	0
	.word	0
	.word	0
	.word	0
	.word	0
	.word	0
	.word	0
	.word	0
	.word	0
	.word	0
	.word	0
	.word	0
	.word	0
	.word	0
	.word	0
	.word	0
	.word	0
	.word	0
	.word	0
	.word	0
	.word	0
	.word	0
	.word	0
	.word	0
	.word	0
	.word	0
	.word	0
	.word	0
	.word	0
	.word	0
	.word	0
	.word	0
	.word	0
	.word	0
	.word	0
	.word	0
	.word	0
	.word	0
	.word	0
	.word	0
	.word	0
	.word	0
	.word	0
	.word	0
	.word	0
	.word	0
	.word	0
	.word	0
	.word	0
	.word	0
	.word	0
	.word	0
	.word	0
	.word	0
	.word	0
	.word	0
	.word	0
	.word	0
	.word	0
	.word	0
	.word	0
	.word	0
	.word	0
	.word	0
	.word	0
	.word	0
	.word	0
	.word	0
	.word	0
	.word	0
	.word	0
	.word	0
	.word	0
	.word	0
	.word	0
	.word	0
	.word	0
	.word	0
	.word	0
	.word	0
	.word	0
	.word	0
	.word	0
	.word	0
	.word	0
	.word	0
	.word	0
	.word	0
	.word	0
	.word	0
	.word	0
	.word	0
	.word	0
	.word	0
	.word	0
	.word	0
	.word	0
	.word	0
	.word	0
	.word	0
	.word	0
	.word	0
	.word	0
	.word	0
	.word	0
	.word	0
	.word	0
	.word	0
	.word	0
	.word	0
	.word	0
	.word	0
	.word	0
	.word	0
	.word	0
	.word	0
	.word	0
	.word	0
	.word	0
	.word	0
	.word	0
	.word	0
	.word	0
	.word	0
	.word	0
	.word	0
	.word	0
	.word	0
	.word	0
	.word	0
	.word	0
	.word	0
	.word	0
	.word	0
	.word	0
	.word	0
	.word	0
	.word	0
	.word	0
	.word	0
	.word	0
	.word	0
	.word	0
	.word	0
	.word	0
	.word	0
	.word	0
	.word	0
	.word	0
	.word	0
	.word	0
	.word	0
	.word	0
	.word	0
	.word	0
	.word	0
	.word	0
	.word	0
	.word	0
	.word	0
	.word	0
	.word	0
	.word	0
	.word	0
	.word	0
	.word	0
	.word	0
	.word	0
	.word	0
	.word	0
	.word	0
	.word	0
	.word	0
	.word	0
	.word	0
	.word	0
	.word	0
	.word	0
	.word	0
	.word	0
	.word	0
	.word	0
	.word	0
	.word	0
	.word	0
	.word	0
	.word	0
	.word	0
	.word	0
	.word	0
	.word	0
	.word	0
	.word	0
	.word	0
	.word	0
	.word	0
	.word	0
	.word	0
	.word	0
	.word	0
	.word	0
	.word	0
	.word	0
	.word	0
	.word	0
	.word	0
	.word	0
	.word	0
	.word	0
	.word	0
	.word	0
	.word	0
	.word	0
	.word	0
	.word	0
	.word	0
	.word	0
	.word	0
	.word	0
	.word	0
	.word	0
	.word	0
	.word	0
	.word	0
	.word	0
	.word	0
	.word	0
	.word	0
	.word	0
	.word	0
	.word	0
	.word	0
	.word	0
	.word	0
	.word	0
	.word	0
	.word	0
	.word	0
	.word	0
	.word	0
	.word	0
	.word	0
	.word	0
	.word	0
	.word	0
	.word	0
	.word	0
	.word	0
	.word	0
	.word	0
	.word	0
	.word	0
	.word	0
	.word	0
	.word	0
	.word	0
	.word	0
	.word	0
	.word	0
	.word	0
	.word	0
	.word	0
	.word	0
	.word	0
	.word	0
	.word	0
	.word	0
	.word	0
	.word	0
	.word	0
	.word	0
	.word	0
	.word	0
	.word	0
	.word	0
	.word	0
	.word	0
	.word	0
	.word	0
	.word	0
	.word	0
	.word	0
	.word	0
	.word	0
	.word	0
	.word	0
	.word	0
	.word	0
	.word	0
	.word	0
	.word	0
	.word	0
	.word	0
	.word	0
	.word	0
	.word	0
	.word	0
	.word	0
	.word	0
	.word	0
	.word	0
	.word	0
	.word	0
	.word	0
	.word	0
	.word	0
	.word	0
	.word	0
	.word	0
	.word	0
	.word	0
	.word	0
	.word	0
	.word	0
	.word	0
	.word	0
	.word	0
	.word	0
	.word	0
	.word	0
	.word	0
	.word	0
	.word	0
	.word	0
	.word	0
	.word	0
	.word	0
	.word	0
	.word	0
	.word	0
	.word	0
	.word	0
	.word	0
	.word	0
	.word	0
	.word	0
	.word	0
	.word	0
	.word	0
	.word	0
	.word	0
	.word	0
	.word	0
	.word	0
	.word	0
	.word	0
	.word	0
	.word	0
	.word	0
	.word	0
	.word	0
	.word	0
	.word	0
	.word	0
	.word	0
	.word	0
	.word	0
	.word	0
	.word	0
	.word	0
	.word	0
	.word	0
	.word	0
	.word	0
	.word	0
	.word	0
	.word	0
	.word	0
	.word	0
	.word	0
	.word	0
	.word	0
	.word	0
	.word	0
	.word	0
	.word	0
	.word	0
	.word	0
	.word	0
	.word	0
	.word	0
	.word	0
	.word	0
	.word	0
	.word	0
	.word	0
	.word	0
	.word	0
	.word	0
	.word	0
	.word	0
	.word	0
	.word	0
	.word	0
	.word	0
	.word	0
	.word	0
	.word	0
	.word	0
	.word	0
	.word	0
	.word	0
	.word	0
	.word	0
	.word	0
	.word	0
	.word	0
	.word	0
	.word	0
	.word	0
	.word	0
	.word	0
	.word	0
	.word	0
	.word	0
	.word	0
	.word	0
	.word	0
	.word	0
	.word	0
	.word	0
	.word	0
	.word	0
	.word	0
	.word	0
	.word	0
	.word	0
	.word	0
	.word	0
	.word	0
	.word	0
	.word	0
	.word	0
	.word	0
	.word	0
	.word	0
	.word	0
	.word	0
	.word	0
	.word	0
	.word	0
	.word	0
	.word	0
	.word	0
	.word	0
	.word	0
	.word	0
	.word	0
	.word	0
	.word	0
	.word	0
	.word	0
	.word	0
	.word	0
	.word	0
	.word	0
	.word	0
	.word	0
	.word	0
	.word	0
	.word	0
	.word	0
	.word	0
	.word	0
	.word	0
	.word	0
	.word	0
	.word	0
	.word	0
	.word	0
	.word	0
	.word	0
	.word	0
	.word	0
	.word	0
	.word	0
	.word	0
	.word	0
	.word	0
	.word	0
	.word	0
	.word	0
	.word	0
	.word	0
	.word	0
	.word	0
	.word	0
	.word	0
	.word	0
	.word	0
	.word	0
	.word	0
	.word	0
	.word	0
	.word	0
	.word	0
	.word	0
	.word	0
	.word	0
	.word	0
	.word	0
	.word	0
	.word	0
	.word	0
	.word	0
	.word	0
	.word	0
	.word	0
	.word	0
	.word	0
	.word	0
	.word	0
	.word	0
	.word	0
	.word	0
	.word	0
	.word	0
	.word	0
	.word	0
	.word	0
	.word	0
	.word	0
	.word	0
	.word	0
	.word	0
	.word	0
	.word	0
	.word	0
	.word	0
	.word	0
	.word	0
	.word	0
	.word	0
	.word	0
	.word	0
	.word	0
	.word	0
	.word	0
	.word	0
	.word	0
	.word	0
	.word	0
	.word	0
	.word	0
	.word	0
	.word	0
	.word	0
	.word	0
	.word	0
	.word	0
	.word	0
	.word	0
	.word	0
	.word	0
	.word	0
	.word	0
	.word	0
	.word	0
	.word	0
	.word	0
	.word	0
	.word	0
	.word	0
	.word	0
	.word	0
	.word	0
	.word	0
	.word	0
	.word	0
	.word	0
	.word	0
	.word	0
	.word	0
	.word	0
	.word	0
	.word	0
	.word	0
	.word	0
	.word	0
	.word	0
	.word	0
	.word	0
	.word	0
	.word	0
	.word	0
	.word	0
	.word	0
	.word	0
	.word	0
	.word	0
	.word	0
	.word	0
	.word	0
	.word	0
	.word	0
	.word	0
	.word	0
	.word	0
	.word	0
	.word	0
	.word	0
	.word	0
	.word	0
	.word	0
	.word	0
	.word	0
	.word	0
	.word	0
	.word	0
	.word	0
	.word	0
	.word	0
	.word	0
	.word	0
	.word	0
	.word	0
	.word	0
	.word	0
	.word	0
	.word	0
	.word	0
	.word	0
	.word	0
	.word	0
	.word	0
	.word	0
	.word	0
	.word	0
	.word	0
	.word	0
	.word	0
	.word	0
	.word	0
	.word	0
	.word	0
	.word	0
	.word	0
	.word	0
	.word	0
	.word	0
	.word	0
	.word	0
	.word	0
	.word	0
	.word	0
	.word	0
	.word	0
	.word	0
	.word	0
	.word	0
	.word	0
	.word	0
	.word	0
	.word	0
	.word	0
	.word	0
	.word	0
	.word	0
	.word	0
	.word	0
	.word	0
	.word	0
	.word	0
	.word	0
	.word	0
	.word	0
	.word	0
	.word	0
	.word	0
	.word	0
	.word	0
	.word	0
	.word	0
	.word	0
	.word	0
	.word	0
	.word	0
	.word	0
	.word	0
	.word	0
	.word	0
	.word	0
	.word	0
	.word	0
	.word	0
	.word	0
	.word	0
	.word	0
	.word	0
	.word	0
	.word	0
	.word	0
	.word	0
	.word	0
	.word	0
	.word	0
	.word	0
	.word	0
	.word	0
	.word	0
	.word	0
	.word	0
	.word	0
	.word	0
	.word	0
	.word	0
	.word	0
	.word	0
	.word	0
	.word	0
	.word	0
	.word	0
	.word	0
	.word	0
	.word	0
	.word	0
	.word	0
	.word	0
	.word	0
	.word	0
	.word	0
	.word	0
	.word	0
	.word	0
	.word	0
	.word	0
	.word	0
	.word	0
	.word	0
	.word	0
	.word	0
	.word	0
	.word	0
	.word	0
	.word	0
	.word	0
	.word	0
	.word	0
	.word	0
	.word	0
	.word	0
	.word	0
	.word	0
	.word	0
	.word	0
	.word	0
	.word	0
	.word	0
	.word	0
	.word	0
	.word	0
	.word	0
	.word	0
	.word	0
	.word	0
	.word	0
	.word	0
	.word	0
	.word	0
	.word	0
	.word	0
	.word	0
	.word	0
	.word	0
	.word	0
	.word	0
	.word	0
	.word	0
	.word	0
	.word	0
	.word	0
	.word	0
	.word	0
	.word	0
	.word	0
	.word	0
	.word	0
	.word	0
	.word	0
	.word	0
	.word	0
	.word	0
	.word	0
	.word	0
	.word	0
	.word	0
	.word	0
	.word	0
	.word	0
	.word	0
	.word	0
	.word	0
	.word	0
	.word	0
	.word	0
	.word	0
	.word	0
	.word	0
	.word	0
	.word	0
	.word	0
	.word	0
	.word	0
	.word	0
	.word	0
	.word	0
	.word	0
	.word	0
	.word	0
	.word	0
	.word	0
	.word	0
	.word	0
	.word	0
	.word	0
	.word	0
	.word	0
	.word	0
	.word	0
	.word	0
	.word	0
	.word	0
	.word	0
	.word	0
	.word	0
	.word	0
	.word	0
	.word	0
	.word	0
	.word	0
	.word	0
	.word	0
	.word	0
	.word	0
	.word	0
	.word	0
	.word	0
	.word	0
	.word	0
	.word	0
	.word	0
	.word	0
	.word	0
	.word	0
	.word	0
	.word	0
	.word	0
	.word	0
	.word	0
	.word	0
	.word	0
	.word	0
	.word	0
	.word	0
	.word	0
	.word	0
	.word	0
	.word	0
	.word	0
	.word	0
	.word	0
	.word	0
	.word	0
	.word	0
	.word	0
	.word	0
	.word	0
	.word	0
	.word	0
	.word	0
	.word	0
	.word	0
	.word	0
	.word	0
	.word	0
	.word	0
	.word	0
	.word	0
	.word	0
	.word	0
	.word	0
	.word	0
	.word	0
	.word	0
	.word	0
	.word	0
	.word	0
	.word	0
	.word	0
	.word	0
	.word	0
	.word	0
	.word	0
	.word	0
	.word	0
	.word	0
	.word	0
	.word	0
	.word	0
	.word	0
	.word	0
	.word	0
	.word	0
	.word	0
	.word	0
	.word	0
	.word	0
	.word	0
	.word	0
	.word	0
	.word	65537
	.word	1900544
	.word	513
	.word	1537
	.word	336598617
	.word	336598617
	.word	65536
	.word	131074
	.word	4
	.word	0
	.word	65537
	.word	131073
	.word	131074
	.word	131074
	.word	131074
	.word	131074
	.word	131074
	.word	131074
	.word	131074
	.word	131074
	.word	2
	.word	327686
	.word	0
	.word	0
	.word	0
	.word	0
	.word	0
	.word	0
	.word	0
	.word	0
	.word	131072
	.word	1
	.word	131072
	.word	1
	.word	0
	.word	0
	.word	0
	.word	0
	.word	65538
	.word	1
	.word	0
	.word	0
	.word	131072
	.word	131073
	.word	131073
	.word	1
	.word	131072
	.word	1
	.word	131072
	.word	131073
	.word	131073
	.word	1
	.word	0
	.word	0
	.word	2
	.word	0
	.word	0
	.word	0
	.word	0
	.word	0
	.word	0
	.word	0
	.word	0
	.word	0
	.word	0
	.word	0
	.word	0
	.word	0
	.word	0
	.word	3
	.word	0
	.word	0
	.word	0
	.word	0
	.word	0
	.word	0
	.word	0
	.word	0
	.word	0
	.word	0
	.word	0
	.word	0
	.word	524289
	.word	4196352
	.word	1048608
	.word	8396800
	.word	0
	.word	0
	.word	0
	.word	0
	.word	65536
	.word	0
	.word	65536
	.word	1
	.word	0
	.word	0
	.word	0
	.word	0
	.word	0
	.word	0
	.word	0
	.word	0
	.word	0
	.word	0
	.word	0
	.word	0
	.word	0
	.word	65536
	.word	65537
	.word	65537
	.word	1
	.word	65536
	.word	1
	.word	65536
	.word	1
	.word	0
	.word	0
	.word	0
	.word	0
	.word	0
	.word	0
	.word	0
	.word	0
	.word	0
	.word	0
	.word	0
	.word	0
	.word	0
	.word	0
	.word	0
	.word	0
	.word	0
	.word	0
	.word	0
	.word	0
	.word	0
	.word	0
	.word	0
	.word	0
	.word	0
	.word	0
	.word	0
	.word	0
	.word	0
	.word	0
	.word	0
	.word	131073
	.word	33554688
	.word	1073741828
	.word	132096
	.word	65540
	.word	0
	.word	0
	.word	0
	.word	0
	.word	0
	.word	0
	.word	0
	.word	0
	.word	0
	.word	0
	.word	0
	.word	0
	.word	0
	.word	0
	.word	0
	.word	0
	.word	0
	.word	0
	.word	0
	.word	0
	.word	0
	.word	0
	.word	0
	.word	0
	.word	0
	.word	0
	.word	0
	.word	0
	.word	0
	.word	0
	.word	0
	.word	0
	.word	0
	.word	0
	.word	0
	.word	0
	.word	0
	.word	0
	.word	0
	.word	0
	.word	0
	.word	0
	.word	0
	.word	0
	.word	0
	.word	0
	.word	0
	.word	0
	.word	0
	.word	0
	.word	0
	.word	0
	.word	0
	.word	0
	.word	0
	.word	0
	.word	0
	.word	0
	.word	0
	.word	0
	.word	0
	.word	0
	.word	0
	.word	0
	.word	0
	.word	0
	.word	0
	.word	0
	.word	0
	.word	0
	.word	0
	.word	0
	.word	0
	.word	0
	.word	0
	.word	0
	.word	0
	.word	0
	.word	0
	.word	0
	.word	0
	.word	0
	.word	0
	.word	0
	.word	0
	.word	0
	.word	0
	.word	0
	.word	0
	.word	0
	.word	0
	.word	0
	.word	0
	.word	0
	.word	0
	.word	0
	.word	0
	.word	0
	.word	0
	.word	0
	.word	0
	.word	0
	.word	0
	.type	g_h264_firmware, %object
	.size	g_h264_firmware, 17920
g_h264_firmware:
	.word	0
	.word	823064910
	.word	8419328
	.word	9239400
	.word	16349184
	.word	285670144
	.word	33128448
	.word	-1879048192
	.word	1342177280
	.word	0
	.word	8420384
	.word	8420386
	.word	8420387
	.word	8420388
	.word	8420389
	.word	8420390
	.word	8420391
	.word	8420393
	.word	8420394
	.word	8420395
	.word	8420392
	.word	8420396
	.word	8715424
	.word	8715428
	.word	8682668
	.word	8682542
	.word	8682671
	.word	268435456
	.word	8420385
	.word	-1342177280
	.word	24673452
	.word	-268435456
	.word	24673326
	.word	1610612736
	.word	17234198
	.word	0
	.word	-2130020076
	.word	33259520
	.word	1610612736
	.word	1091206148
	.word	33259520
	.word	1610612736
	.word	17234274
	.word	822770726
	.word	33259520
	.word	1610612736
	.word	33325056
	.word	1610612736
	.word	-1342177280
	.word	16349184
	.word	286194442
	.word	805306368
	.word	0
	.word	33128448
	.word	-2147483648
	.word	268435456
	.word	16349184
	.word	277150492
	.word	9239324
	.word	805306368
	.word	8419328
	.word	0
	.word	805306368
	.word	8419328
	.word	17234796
	.word	17758530
	.word	0
	.word	-268435456
	.word	1342177280
	.word	-235044864
	.word	1628371250
	.word	0
	.word	17464358
	.word	0
	.word	-235044864
	.word	1610612736
	.word	0
	.word	536870912
	.word	1610612736
	.word	24673326
	.word	-536870912
	.word	17234200
	.word	0
	.word	-2130020076
	.word	33259520
	.word	1610612736
	.word	1091206148
	.word	33259520
	.word	1610612736
	.word	17234274
	.word	822770726
	.word	33259520
	.word	1610612736
	.word	33325056
	.word	1610612736
	.word	-1342177280
	.word	16349184
	.word	286194442
	.word	805306368
	.word	0
	.word	33128448
	.word	1879048192
	.word	0
	.word	16349184
	.word	277150492
	.word	9239324
	.word	805306368
	.word	8419328
	.word	0
	.word	805306368
	.word	8419328
	.word	17234796
	.word	17758530
	.word	0
	.word	-268435456
	.word	1342177280
	.word	-235044864
	.word	1628371250
	.word	0
	.word	17464358
	.word	0
	.word	-235044864
	.word	-536870912
	.word	268435456
	.word	536870912
	.word	1610612736
	.word	24673455
	.word	1610612736
	.word	24935457
	.word	1610612736
	.word	24706208
	.word	1610612736
	.word	0
	.word	536870912
	.word	16349184
	.word	17758488
	.word	8715034
	.word	9239322
	.word	0
	.word	17234228
	.word	17758984
	.word	17758980
	.word	268435456
	.word	0
	.word	-234913792
	.word	1342177280
	.word	21428994
	.word	23525654
	.word	21952790
	.word	20904718
	.word	17758520
	.word	0
	.word	17234288
	.word	18282794
	.word	18807142
	.word	-2147483648
	.word	19331382
	.word	17235072
	.word	18283652
	.word	0
	.word	8715418
	.word	0
	.word	9763996
	.word	33325056
	.word	-1610612736
	.word	18282774
	.word	824113430
	.word	9239710
	.word	17235098
	.word	1610612736
	.word	16349184
	.word	9239710
	.word	17235098
	.word	17758988
	.word	0
	.word	805306368
	.word	17235098
	.word	18283278
	.word	18807964
	.word	0
	.word	805306368
	.word	18283278
	.word	-1073741824
	.word	268435456
	.word	17988648
	.word	286194026
	.word	33128448
	.word	-1879048192
	.word	33128448
	.word	-1861813906
	.word	33128448
	.word	822540652
	.word	33128448
	.word	-536870912
	.word	0
	.word	-1073741824
	.word	24673280
	.word	805306368
	.word	16349184
	.word	17234704
	.word	19037185
	.word	-2129725162
	.word	18282848
	.word	18807144
	.word	-2147483648
	.word	805306368
	.word	805306368
	.word	24673296
	.word	805306368
	.word	16349184
	.word	17234706
	.word	19037201
	.word	-2129725088
	.word	18282848
	.word	18807144
	.word	-2147483648
	.word	805306368
	.word	17235098
	.word	17759388
	.word	18283678
	.word	8715424
	.word	9239714
	.word	9764004
	.word	14711981
	.word	822609409
	.word	17827328
	.word	1879048192
	.word	21952864
	.word	-2147483648
	.word	16349184
	.word	17234228
	.word	17758984
	.word	0
	.word	17758980
	.word	268435456
	.word	33062912
	.word	-2147483648
	.word	-235175936
	.word	0
	.word	-235110400
	.word	-2147483648
	.word	16349184
	.word	17234288
	.word	17758978
	.word	18282782
	.word	18807142
	.word	-2147483648
	.word	16349184
	.word	20904718
	.word	17758520
	.word	0
	.word	19331382
	.word	17235072
	.word	0
	.word	0
	.word	8715420
	.word	16349184
	.word	17235100
	.word	17758982
	.word	0
	.word	17758988
	.word	33259520
	.word	-805306368
	.word	17235100
	.word	17758982
	.word	805306368
	.word	18282774
	.word	18807062
	.word	1879048192
	.word	17235100
	.word	17758988
	.word	0
	.word	0
	.word	805306368
	.word	17235100
	.word	18283278
	.word	18807558
	.word	0
	.word	805306368
	.word	-1073741824
	.word	268435456
	.word	17988648
	.word	286194026
	.word	33128448
	.word	1073741824
	.word	33128448
	.word	1073741824
	.word	822609409
	.word	17827328
	.word	1879048192
	.word	0
	.word	8420524
	.word	24706208
	.word	-2147483648
	.word	17759396
	.word	33521664
	.word	-536870912
	.word	17235104
	.word	17759396
	.word	18282774
	.word	18807062
	.word	-1879048192
	.word	16349184
	.word	17235104
	.word	17758988
	.word	0
	.word	805306368
	.word	17235104
	.word	18283278
	.word	18807970
	.word	0
	.word	805306368
	.word	18283278
	.word	-1073741824
	.word	268435456
	.word	17988648
	.word	286194026
	.word	33390592
	.word	0
	.word	536870912
	.word	33390592
	.word	-2147483648
	.word	268435456
	.word	1879048192
	.word	268435456
	.word	268435456
	.word	8420524
	.word	0
	.word	0
	.word	8420398
	.word	0
	.word	16349184
	.word	17234708
	.word	8715430
	.word	17758498
	.word	0
	.word	8715432
	.word	17758488
	.word	18807562
	.word	1073741824
	.word	0
	.word	805306368
	.word	8419328
	.word	16940070
	.word	17758514
	.word	0
	.word	-250676968
	.word	-268435456
	.word	1342177280
	.word	17758488
	.word	-268435456
	.word	1610612736
	.word	0
	.word	-268435456
	.word	-268435456
	.word	268435456
	.word	0
	.word	8715104
	.word	268435456
	.word	-536870912
	.word	8715106
	.word	16349184
	.word	17234708
	.word	805306368
	.word	10516480
	.word	8715108
	.word	17235088
	.word	8715110
	.word	17234214
	.word	8715120
	.word	17234244
	.word	8715118
	.word	16940060
	.word	-268435456
	.word	-805306368
	.word	17464339
	.word	-268435456
	.word	-1073741824
	.word	17464340
	.word	-268435456
	.word	-1323894504
	.word	17464322
	.word	0
	.word	-268435456
	.word	-1610612736
	.word	17464324
	.word	-268435456
	.word	268435456
	.word	24673285
	.word	-2147483648
	.word	17758486
	.word	805306368
	.word	24673316
	.word	-512197595
	.word	-1055983330
	.word	805306368
	.word	17758488
	.word	805306368
	.word	24673286
	.word	286193958
	.word	805306368
	.word	17758486
	.word	805306368
	.word	-536870912
	.word	17464323
	.word	0
	.word	8715328
	.word	17235110
	.word	18282776
	.word	18807144
	.word	-2147483648
	.word	16349184
	.word	17234710
	.word	8715330
	.word	1090976934
	.word	0
	.word	286718232
	.word	18807144
	.word	-2147483648
	.word	17235112
	.word	8715332
	.word	1090976934
	.word	0
	.word	555153688
	.word	18807144
	.word	-2147483648
	.word	16349184
	.word	17234712
	.word	8715334
	.word	-2130248538
	.word	0
	.word	823589144
	.word	18807144
	.word	-2147483648
	.word	17235090
	.word	8715336
	.word	16940202
	.word	8715338
	.word	17235092
	.word	33259520
	.word	-1610612736
	.word	0
	.word	8715340
	.word	17235094
	.word	8715342
	.word	16940203
	.word	8715344
	.word	17235096
	.word	33259520
	.word	805306368
	.word	0
	.word	8715346
	.word	-1593672675
	.word	17464365
	.word	0
	.word	-268435456
	.word	-1342177280
	.word	822770723
	.word	0
	.word	-268435456
	.word	-1879048192
	.word	17464353
	.word	0
	.word	8715348
	.word	-251495381
	.word	0
	.word	-268435456
	.word	1628077098
	.word	0
	.word	-268435456
	.word	268435456
	.word	17464327
	.word	-536870912
	.word	17464354
	.word	18807064
	.word	33128448
	.word	0
	.word	33128448
	.word	536870912
	.word	1091500310
	.word	268435456
	.word	1073741824
	.word	536870912
	.word	1073741824
	.word	0
	.word	8715350
	.word	17235112
	.word	1092024672
	.word	18807144
	.word	-2147483648
	.word	16940070
	.word	17758514
	.word	0
	.word	-268435456
	.word	8715352
	.word	17235112
	.word	0
	.word	-1055459048
	.word	18807144
	.word	-2147483648
	.word	0
	.word	8715354
	.word	-1056506712
	.word	0
	.word	-787023592
	.word	18807144
	.word	-2147483648
	.word	0
	.word	554173952
	.word	17827336
	.word	1879048192
	.word	-251200684
	.word	0
	.word	8420526
	.word	822609408
	.word	17827352
	.word	1879048192
	.word	-1073741824
	.word	11566081
	.word	-250446847
	.word	33325056
	.word	-805306368
	.word	17988609
	.word	33325056
	.word	-805306368
	.word	20085934
	.word	554203411
	.word	33128448
	.word	0
	.word	33128448
	.word	0
	.word	-2130151150
	.word	33128448
	.word	0
	.word	33128448
	.word	0
	.word	-519538416
	.word	33128448
	.word	0
	.word	33128448
	.word	16808209
	.word	33128448
	.word	0
	.word	-805306368
	.word	1091074311
	.word	33128448
	.word	-1342177280
	.word	33128448
	.word	-1342177280
	.word	-1593280239
	.word	33128448
	.word	-1342177280
	.word	33128448
	.word	-1342177280
	.word	-805306368
	.word	-1073741824
	.word	11566082
	.word	17827329
	.word	0
	.word	0
	.word	33390592
	.word	-805306368
	.word	-1073741824
	.word	0
	.word	33390592
	.word	-805306368
	.word	-1073741824
	.word	0
	.word	33390592
	.word	-805306368
	.word	554173952
	.word	17827329
	.word	1879048192
	.word	20380500
	.word	822609408
	.word	17827329
	.word	1879048192
	.word	0
	.word	33390592
	.word	-805306368
	.word	554173952
	.word	17827329
	.word	1879048192
	.word	20380500
	.word	822609408
	.word	17827329
	.word	1879048192
	.word	268435456
	.word	33390592
	.word	-268435456
	.word	0
	.word	554173952
	.word	17827329
	.word	1879048192
	.word	20380500
	.word	11566254
	.word	822609408
	.word	17827329
	.word	1879048192
	.word	24673454
	.word	-1073741824
	.word	-2128083448
	.word	0
	.word	0
	.word	33128448
	.word	805306368
	.word	-805306368
	.word	18282786
	.word	0
	.word	17758564
	.word	0
	.word	0
	.word	33128448
	.word	1879048192
	.word	0
	.word	286193948
	.word	0
	.word	33062912
	.word	-1073741824
	.word	-1342177280
	.word	-234881024
	.word	0
	.word	554173952
	.word	17827329
	.word	1879048192
	.word	20380500
	.word	11566254
	.word	822609408
	.word	17827329
	.word	1879048192
	.word	24673454
	.word	-1342177280
	.word	-2128083448
	.word	0
	.word	0
	.word	33128448
	.word	536870912
	.word	-805306368
	.word	18282786
	.word	0
	.word	17758564
	.word	0
	.word	0
	.word	33128448
	.word	1610612736
	.word	0
	.word	286193964
	.word	0
	.word	33062912
	.word	-1342177280
	.word	-1610612736
	.word	-536870912
	.word	-268435456
	.word	268435456
	.word	8420354
	.word	-1073741824
	.word	11566088
	.word	-1073741824
	.word	33259520
	.word	1342177280
	.word	-805306368
	.word	-1073741824
	.word	11566089
	.word	0
	.word	33128448
	.word	268435456
	.word	268435456
	.word	33128448
	.word	1879048192
	.word	536870912
	.word	33128448
	.word	-805306368
	.word	-805306368
	.word	-1073741824
	.word	11566091
	.word	-1073741824
	.word	33521664
	.word	-805306368
	.word	-805306368
	.word	554173952
	.word	17827329
	.word	1879048192
	.word	17234772
	.word	8420362
	.word	822609408
	.word	17827329
	.word	1879048192
	.word	1879048192
	.word	1879048192
	.word	-1073741824
	.word	11566254
	.word	-268435456
	.word	33259520
	.word	-805306368
	.word	0
	.word	33521664
	.word	-805306368
	.word	16940206
	.word	0
	.word	1879048192
	.word	-1342177280
	.word	-1073741824
	.word	822609408
	.word	17827329
	.word	1879048192
	.word	-1073741824
	.word	11566083
	.word	286193960
	.word	33325056
	.word	-805306368
	.word	33062912
	.word	-805306368
	.word	-1073741824
	.word	11566084
	.word	554173952
	.word	17827329
	.word	1879048192
	.word	20380500
	.word	11566085
	.word	822609408
	.word	17827329
	.word	1879048192
	.word	0
	.word	33128448
	.word	1610612736
	.word	-2147483648
	.word	554173952
	.word	17827329
	.word	1879048192
	.word	20380500
	.word	11566086
	.word	822609408
	.word	17827329
	.word	1879048192
	.word	286193946
	.word	20085764
	.word	33325056
	.word	-805306368
	.word	33062912
	.word	-805306368
	.word	825392131
	.word	33325056
	.word	-805306368
	.word	0
	.word	0
	.word	8420358
	.word	286193956
	.word	20085764
	.word	33325056
	.word	-805306368
	.word	33062912
	.word	-805306368
	.word	554173952
	.word	17827329
	.word	1879048192
	.word	20380500
	.word	11566087
	.word	24673455
	.word	-805306368
	.word	822609409
	.word	17827329
	.word	1879048192
	.word	268435456
	.word	8420352
	.word	0
	.word	822609409
	.word	17827328
	.word	1879048192
	.word	0
	.word	8420352
	.word	0
	.word	-1073741824
	.word	11566097
	.word	17827583
	.word	33325056
	.word	-1342177280
	.word	33259520
	.word	-1342177280
	.word	-1073741824
	.word	11566098
	.word	17827359
	.word	33325056
	.word	-1342177280
	.word	33259520
	.word	-1342177280
	.word	16349184
	.word	286194442
	.word	805306368
	.word	0
	.word	33128448
	.word	-2147483648
	.word	268435456
	.word	16349184
	.word	17758992
	.word	19037202
	.word	-2130249450
	.word	18282848
	.word	18807142
	.word	-2147483648
	.word	24935424
	.word	-1342177280
	.word	554173952
	.word	17827329
	.word	1879048192
	.word	20380500
	.word	11566099
	.word	822609408
	.word	17827329
	.word	1879048192
	.word	554173952
	.word	17827329
	.word	1879048192
	.word	20380500
	.word	11566101
	.word	822609408
	.word	17827329
	.word	1879048192
	.word	-1073741824
	.word	0
	.word	33390592
	.word	-1342177280
	.word	-1073741824
	.word	11566103
	.word	-268435456
	.word	33259520
	.word	-1342177280
	.word	-1073741824
	.word	11566104
	.word	-268435456
	.word	33259520
	.word	-1342177280
	.word	554173952
	.word	17827329
	.word	1879048192
	.word	20380500
	.word	11566106
	.word	822609408
	.word	17827329
	.word	1879048192
	.word	554173952
	.word	17827330
	.word	1879048192
	.word	20380500
	.word	11566107
	.word	822609408
	.word	17827330
	.word	1879048192
	.word	805306368
	.word	33062912
	.word	-1342177280
	.word	-805306368
	.word	11566109
	.word	-805306368
	.word	-805306368
	.word	554173952
	.word	17827329
	.word	1879048192
	.word	20380500
	.word	11566105
	.word	822609408
	.word	17827329
	.word	1879048192
	.word	554173952
	.word	17827329
	.word	1879048192
	.word	20380500
	.word	11566100
	.word	822609408
	.word	17827329
	.word	1879048192
	.word	554173952
	.word	17827329
	.word	1879048192
	.word	20380500
	.word	11566102
	.word	822609408
	.word	17827329
	.word	1879048192
	.word	17234198
	.word	8420380
	.word	822541470
	.word	17759062
	.word	0
	.word	33521664
	.word	805306368
	.word	554173952
	.word	17827329
	.word	1879048192
	.word	20380500
	.word	11566108
	.word	822609408
	.word	17827329
	.word	1879048192
	.word	24935452
	.word	805306368
	.word	0
	.word	554173952
	.word	17827329
	.word	1879048192
	.word	20380500
	.word	33390592
	.word	268435456
	.word	822609408
	.word	17827329
	.word	1879048192
	.word	17235102
	.word	17759062
	.word	33521664
	.word	-536870912
	.word	-268435456
	.word	0
	.word	8420380
	.word	805306368
	.word	268435456
	.word	8420380
	.word	24673455
	.word	-1342177280
	.word	822609409
	.word	17827328
	.word	1879048192
	.word	268435456
	.word	8420368
	.word	0
	.word	822609409
	.word	17827328
	.word	1879048192
	.word	0
	.word	8420368
	.word	0
	.word	-1073741824
	.word	11566113
	.word	17758528
	.word	33062912
	.word	268435456
	.word	-1073741824
	.word	536870912
	.word	33128448
	.word	1610612736
	.word	1073741824
	.word	33128448
	.word	1610612736
	.word	1879048192
	.word	33128448
	.word	1610612736
	.word	-1879048192
	.word	33128448
	.word	1610612736
	.word	0
	.word	33128448
	.word	-1879048192
	.word	805306368
	.word	33128448
	.word	-1879048192
	.word	1342177280
	.word	33128448
	.word	-1879048192
	.word	-2147483648
	.word	33128448
	.word	-1879048192
	.word	268435456
	.word	33128448
	.word	-1073741824
	.word	1610612736
	.word	33128448
	.word	-1073741824
	.word	268435456
	.word	536870912
	.word	8944674
	.word	-536870912
	.word	0
	.word	8944674
	.word	-536870912
	.word	268435456
	.word	8944674
	.word	-1073741824
	.word	11566112
	.word	-268435456
	.word	33259520
	.word	268435456
	.word	16349184
	.word	286194442
	.word	805306368
	.word	0
	.word	33128448
	.word	-1610612736
	.word	805306368
	.word	16349184
	.word	17758994
	.word	19037216
	.word	-2130249376
	.word	18282848
	.word	18807142
	.word	-2147483648
	.word	24935440
	.word	268435456
	.word	16349184
	.word	17758992
	.word	19037202
	.word	-2130249450
	.word	18282848
	.word	18807142
	.word	-2147483648
	.word	24935424
	.word	268435456
	.word	822609408
	.word	1092254728
	.word	0
	.word	1879048192
	.word	0
	.word	8420388
	.word	8420389
	.word	24673285
	.word	1879048192
	.word	554173952
	.word	17827329
	.word	1879048192
	.word	20380500
	.word	11566116
	.word	822609408
	.word	17827329
	.word	1879048192
	.word	24673316
	.word	1879048192
	.word	554173952
	.word	17827329
	.word	1879048192
	.word	20380500
	.word	11566117
	.word	822609408
	.word	17827329
	.word	1879048192
	.word	16940035
	.word	17464324
	.word	-268435456
	.word	-268435456
	.word	-2147483648
	.word	8420390
	.word	24673285
	.word	-1610612736
	.word	24673316
	.word	-1610612736
	.word	554335270
	.word	-2147483648
	.word	8420390
	.word	554335236
	.word	-268435456
	.word	-2147483648
	.word	268435456
	.word	0
	.word	8420356
	.word	285375524
	.word	17464326
	.word	0
	.word	8420391
	.word	1359641640
	.word	33390592
	.word	1342177280
	.word	-1073741824
	.word	17758528
	.word	33259520
	.word	268435456
	.word	17464329
	.word	33390592
	.word	536870912
	.word	822609408
	.word	1092254731
	.word	0
	.word	1879048192
	.word	16940053
	.word	285899812
	.word	0
	.word	33521664
	.word	536870912
	.word	1879048192
	.word	16940041
	.word	285899786
	.word	0
	.word	33521664
	.word	-536870912
	.word	1879048192
	.word	16940053
	.word	285899812
	.word	0
	.word	33521664
	.word	-536870912
	.word	1879048192
	.word	24935446
	.word	1073741824
	.word	-1073741824
	.word	0
	.word	33259520
	.word	268435456
	.word	285899810
	.word	33390592
	.word	-536870912
	.word	554173952
	.word	17827329
	.word	1879048192
	.word	17234772
	.word	822609408
	.word	17827329
	.word	1879048192
	.word	16940055
	.word	17464344
	.word	8420394
	.word	8944683
	.word	554335266
	.word	33128448
	.word	1610612736
	.word	554173952
	.word	17827329
	.word	1879048192
	.word	20380500
	.word	11566121
	.word	822609408
	.word	17827329
	.word	1879048192
	.word	24935465
	.word	1610612736
	.word	-1073741824
	.word	11566122
	.word	285899810
	.word	33390592
	.word	1610612736
	.word	-1073741824
	.word	11566123
	.word	554335266
	.word	33390592
	.word	-1342177280
	.word	0
	.word	8420394
	.word	285899810
	.word	33128448
	.word	0
	.word	0
	.word	8420395
	.word	554335266
	.word	33390592
	.word	1073741824
	.word	1610612736
	.word	554173952
	.word	17827329
	.word	1879048192
	.word	20380500
	.word	11566254
	.word	822609408
	.word	17827329
	.word	1879048192
	.word	24935598
	.word	1610612736
	.word	0
	.word	554335274
	.word	0
	.word	-1073741824
	.word	805306368
	.word	33259520
	.word	268435456
	.word	805306368
	.word	33128448
	.word	1610612736
	.word	0
	.word	33128448
	.word	536870912
	.word	268435456
	.word	33128448
	.word	536870912
	.word	536870912
	.word	33128448
	.word	1073741824
	.word	1342177280
	.word	1879048192
	.word	1342177280
	.word	1879048192
	.word	268435456
	.word	285899810
	.word	33390592
	.word	-1342177280
	.word	554173952
	.word	17827329
	.word	1879048192
	.word	20380500
	.word	11566254
	.word	822609408
	.word	17827329
	.word	1879048192
	.word	24935598
	.word	-1342177280
	.word	0
	.word	554335275
	.word	0
	.word	-1073741824
	.word	805306368
	.word	33259520
	.word	268435456
	.word	805306368
	.word	33128448
	.word	-1342177280
	.word	0
	.word	33128448
	.word	1879048192
	.word	268435456
	.word	33128448
	.word	1879048192
	.word	536870912
	.word	33128448
	.word	-1879048192
	.word	-1610612736
	.word	1879048192
	.word	-1610612736
	.word	1879048192
	.word	1610612736
	.word	17464354
	.word	286948379
	.word	33390592
	.word	293108762
	.word	-2147483648
	.word	1879048192
	.word	17464354
	.word	33390592
	.word	1879048192
	.word	-235044864
	.word	1879048192
	.word	-2147483648
	.word	536870912
	.word	-1073741824
	.word	24673282
	.word	-1073741824
	.word	-1073741824
	.word	17464362
	.word	268435456
	.word	0
	.word	554173952
	.word	17827329
	.word	1879048192
	.word	20380500
	.word	11566254
	.word	822609408
	.word	17827329
	.word	1879048192
	.word	24673454
	.word	-1342177280
	.word	-805306368
	.word	-805306368
	.word	24673282
	.word	-1342177280
	.word	554173952
	.word	17827329
	.word	1879048192
	.word	20380500
	.word	11566254
	.word	822609408
	.word	17827329
	.word	1879048192
	.word	24673454
	.word	-1342177280
	.word	-805306368
	.word	-805306368
	.word	-805306368
	.word	-805306368
	.word	-268435456
	.word	285899810
	.word	17988635
	.word	33390592
	.word	536870912
	.word	-235044864
	.word	536870912
	.word	17464363
	.word	268435456
	.word	0
	.word	554173952
	.word	17827329
	.word	1879048192
	.word	20380500
	.word	11566254
	.word	822609408
	.word	17827329
	.word	1879048192
	.word	24673454
	.word	268435456
	.word	-805306368
	.word	-805306368
	.word	24673282
	.word	268435456
	.word	554173952
	.word	17827329
	.word	1879048192
	.word	20380500
	.word	11566254
	.word	822609408
	.word	17827329
	.word	1879048192
	.word	24673454
	.word	268435456
	.word	-805306368
	.word	-805306368
	.word	-805306368
	.word	-805306368
	.word	1342177280
	.word	24673324
	.word	-536870912
	.word	1359641640
	.word	33390592
	.word	-1342177280
	.word	822609408
	.word	17827330
	.word	1879048192
	.word	-536870912
	.word	554173952
	.word	17827329
	.word	1879048192
	.word	20380500
	.word	11566254
	.word	822609408
	.word	17827329
	.word	1879048192
	.word	24673454
	.word	-536870912
	.word	-1073741824
	.word	11566254
	.word	268435456
	.word	33128448
	.word	1879048192
	.word	536870912
	.word	33128448
	.word	1879048192
	.word	1073741824
	.word	33128448
	.word	1879048192
	.word	1610612736
	.word	33128448
	.word	1879048192
	.word	805306368
	.word	33128448
	.word	-1879048192
	.word	-1342177280
	.word	-1073741824
	.word	-1342177280
	.word	-1073741824
	.word	-1073741824
	.word	16940206
	.word	33259520
	.word	1342177280
	.word	24673299
	.word	-1073741824
	.word	16940066
	.word	33128448
	.word	1879048192
	.word	268435456
	.word	33128448
	.word	1879048192
	.word	-1073741824
	.word	-1073741824
	.word	11566115
	.word	805306368
	.word	33062912
	.word	268435456
	.word	-805306368
	.word	11566125
	.word	24935449
	.word	-1879048192
	.word	-1073741824
	.word	536870912
	.word	33259520
	.word	268435456
	.word	17827329
	.word	33128448
	.word	-1879048192
	.word	-805306368
	.word	-805306368
	.word	24673455
	.word	268435456
	.word	822609409
	.word	17827328
	.word	1879048192
	.word	268435456
	.word	8420398
	.word	0
	.word	822609409
	.word	17827328
	.word	1879048192
	.word	0
	.word	8420398
	.word	0
	.word	1073741824
	.word	9992192
	.word	-2147483648
	.word	-1610612736
	.word	-268435456
	.word	268435456
	.word	0
	.word	17827329
	.word	0
	.word	8715072
	.word	0
	.word	286194520
	.word	-268435456
	.word	-536870912
	.word	18282776
	.word	33128448
	.word	-1879048192
	.word	-1342177280
	.word	268435456
	.word	8420527
	.word	0
	.word	1073741824
	.word	11565056
	.word	19331386
	.word	20379926
	.word	33390592
	.word	-536870912
	.word	20379926
	.word	11336516
	.word	11860806
	.word	19855676
	.word	0
	.word	805306368
	.word	11336520
	.word	9239370
	.word	9763660
	.word	11860814
	.word	10287952
	.word	-536870912
	.word	20379926
	.word	11336516
	.word	0
	.word	0
	.word	11336518
	.word	19855676
	.word	0
	.word	805306368
	.word	11336520
	.word	9239370
	.word	11860812
	.word	19855676
	.word	0
	.word	805306368
	.word	11336526
	.word	10287952
	.word	268435456
	.word	8715074
	.word	0
	.word	1073741824
	.word	11565056
	.word	823064854
	.word	18282784
	.word	1879048192
	.word	554629398
	.word	18282848
	.word	1879048192
	.word	-251200684
	.word	17758502
	.word	1342177280
	.word	9468968
	.word	9993260
	.word	823064854
	.word	18282848
	.word	1879048192
	.word	0
	.word	0
	.word	33390592
	.word	-1342177280
	.word	16349184
	.word	-2129724670
	.word	18906285
	.word	-2130249360
	.word	18282782
	.word	18807142
	.word	-2147483648
	.word	17235074
	.word	17758488
	.word	-268435456
	.word	-268435456
	.word	268435456
	.word	0
	.word	8715394
	.word	16349184
	.word	-2130248958
	.word	18906285
	.word	-2129725072
	.word	18282782
	.word	18807144
	.word	-2147483648
	.word	1879048192
	.word	16349184
	.word	-2129724670
	.word	19331848
	.word	-268435456
	.word	-2130249360
	.word	18282782
	.word	18807142
	.word	-2147483648
	.word	16349184
	.word	17234694
	.word	17759362
	.word	0
	.word	9239686
	.word	17234694
	.word	17759360
	.word	18283276
	.word	33259520
	.word	-536870912
	.word	805306368
	.word	17235072
	.word	17758988
	.word	18283270
	.word	18283278
	.word	0
	.word	9239684
	.word	17235074
	.word	17758488
	.word	-268435456
	.word	-268435456
	.word	268435456
	.word	0
	.word	8715394
	.word	16349184
	.word	-2130248958
	.word	19331848
	.word	-268435456
	.word	-2129725072
	.word	18282794
	.word	18807144
	.word	-2147483648
