#include "hi_asm_define.h"
	.arch armv7-a
	.fpu softvfp
	.eabi_attribute 20, 1
	.eabi_attribute 21, 1
	.eabi_attribute 23, 3
	.eabi_attribute 24, 1
	.eabi_attribute 25, 1
	.eabi_attribute 26, 2
	.eabi_attribute 30, 2
	.eabi_attribute 34, 0
	.eabi_attribute 18, 4
	.file	"hevc.c"
	.text
	.align	2
	.type	compare_pic_by_poc_asc, %function
compare_pic_by_poc_asc:
	UNWIND(.fnstart)
	@ args = 0, pretend = 0, frame = 0
	@ frame_needed = 1, uses_anonymous_args = 0
	UNWIND(.movsp ip)
	mov	ip, sp
	stmfd	sp!, {fp, ip, lr, pc}
	UNWIND(.pad #4)
	UNWIND(.save {fp, ip, lr})
	UNWIND(.setfp fp, ip, #-4)
	sub	fp, ip, #4
	ldr	r2, [r0]
	ldr	r3, [r1]
	ldr	r2, [r2, #12]
	ldr	r3, [r3, #12]
	cmp	r2, r3
	blt	.L3
	movgt	r0, #1
	movle	r0, #0
	ldmfd	sp, {fp, sp, pc}
.L3:
	mvn	r0, #0
	ldmfd	sp, {fp, sp, pc}
	UNWIND(.fnend)
	.size	compare_pic_by_poc_asc, .-compare_pic_by_poc_asc
	.align	2
	.type	HEVC_SetFrmRepeatCount.part.2, %function
HEVC_SetFrmRepeatCount.part.2:
	UNWIND(.fnstart)
	@ args = 0, pretend = 0, frame = 0
	@ frame_needed = 1, uses_anonymous_args = 0
	UNWIND(.movsp ip)
	mov	ip, sp
	stmfd	sp!, {fp, ip, lr, pc}
	UNWIND(.pad #4)
	UNWIND(.save {fp, ip, lr})
	UNWIND(.setfp fp, ip, #-4)
	sub	fp, ip, #4
	ldr	ip, [r0, #260]
	ldr	r2, [r0, #2488]
	ldr	r3, [r0, #256]
	add	r2, r2, ip
	add	ip, r2, #1
	cmp	r3, ip
	movcc	r3, #0
	strcc	r3, [r1, #84]
	ldmccfd	sp, {fp, sp, pc}
	sub	r3, r3, #1
	rsb	r3, r2, r3
	cmp	r3, #1
	movhi	r3, #2
	movls	r3, #1
	strhi	r3, [r1, #84]
	strls	r3, [r1, #84]
	ldrhi	r3, [r0, #260]
	ldrls	r3, [r0, #260]
	addhi	r3, r3, #2
	addls	r3, r3, #1
	str	r3, [r0, #260]
	ldmfd	sp, {fp, sp, pc}
	UNWIND(.fnend)
	.size	HEVC_SetFrmRepeatCount.part.2, .-HEVC_SetFrmRepeatCount.part.2
	.global	__aeabi_uidiv
	.align	2
	.global	HEVC_InitSigLastScan
	.type	HEVC_InitSigLastScan, %function
HEVC_InitSigLastScan:
	UNWIND(.fnstart)
	@ args = 16, pretend = 0, frame = 24
	@ frame_needed = 1, uses_anonymous_args = 0
	UNWIND(.movsp ip)
	mov	ip, sp
	stmfd	sp!, {r4, r5, r6, r7, r8, r9, r10, fp, ip, lr, pc}
	UNWIND(.pad #4)
	UNWIND(.save {r4, r5, r6, r7, r8, r9, r10, fp, ip, lr})
	UNWIND(.setfp fp, ip, #-4)
	sub	fp, ip, #4
	UNWIND(.pad #28)
	sub	sp, sp, #28
	ldr	r4, [fp, #8]
	str	r0, [fp, #-48]
	cmp	r4, #15
	ldr	r6, [fp, #4]
	bgt	.L10
	cmp	r4, #8
	mul	r9, r4, r4
	beq	.L43
	cmp	r9, #0
	movne	r10, r6
	beq	.L10
.L12:
	mov	r5, #0
	rsb	r7, r4, #1
	mov	r8, r5
.L18:
	cmp	r4, r8
	bgt	.L30
	rsb	lr, r4, r8
	sub	r2, r4, #1
	add	lr, lr, #1
.L19:
	cmp	r2, #0
	cmpge	r4, lr
	ble	.L16
	mla	r0, r2, r4, lr
	add	ip, r10, r5, lsl #2
	mov	r1, r5
.L17:
	add	r1, r1, #1
	sub	r2, r2, #1
	rsb	r3, r5, r1
	str	r0, [ip], #4
	add	r3, r3, lr
	add	r0, r0, r7
	cmp	r2, #0
	cmpge	r4, r3
	bgt	.L17
	mov	r5, r1
.L16:
	cmp	r9, r5
	add	r8, r8, #1
	bhi	.L18
.L10:
	cmp	r4, #4
	ble	.L9
	mov	r3, r4, asr #2
	ldr	r1, [fp, #-48]
	str	r3, [fp, #-64]
	mov	r2, r3
	add	r3, r1, r3
	mul	r2, r2, r2
	mov	r0, r2
	str	r2, [fp, #-60]
	cmp	r0, #0
	ldrsb	r2, [r3, #8]
	add	r2, r2, #1
	beq	.L9
	add	r3, r1, #308
.L14:
	ldr	r1, .L44
	rsb	r7, r4, #1
	str	r3, [fp, #-52]
	mov	r3, #0
	add	r2, r1, r2, lsl #16
	str	r3, [fp, #-48]
	sub	r3, r2, #4
	str	r3, [fp, #-56]
.L28:
	ldr	r3, [fp, #-56]
	cmp	r4, #32
	ldr	r9, [fp, #-64]
	mov	r8, #0
	ldr	r5, [r3, #4]!
	mov	r1, r9
	str	r3, [fp, #-56]
	ldreq	r3, [fp, #-52]
	ldreq	r5, [r3]
	mov	r0, r5
	bl	__aeabi_uidiv
	ldr	ip, [fp, #-48]
	mov	r3, r8
	mov	r2, r8
	mov	lr, r8
	mov	r10, ip, asl #4
	mla	r1, r4, r0, r5
	mls	r1, r9, r0, r1
	mov	r9, r1, asl #2
.L22:
	cmp	lr, #3
	mvn	r1, r2
	mov	r1, r1, lsr #31
	movgt	r1, #0
	cmp	r1, #0
	beq	.L23
	mla	r1, r2, r4, lr
	add	r0, r3, r10
	rsb	lr, r3, lr
	add	r0, r6, r0, lsl #2
	add	r1, r1, r9
.L24:
	add	r3, r3, #1
	sub	r2, r2, #1
	add	r5, lr, r3
	str	r1, [r0], #4
	cmp	r5, #3
	mvn	ip, r2
	mov	ip, ip, lsr #31
	add	r1, r1, r7
	movgt	ip, #0
	cmp	ip, #0
	bne	.L24
.L23:
	cmp	r3, #15
	add	r8, r8, #1
	bhi	.L25
	cmp	r8, #3
	movle	r2, r8
	movle	lr, #0
	subgt	lr, r8, #3
	movgt	r2, #3
	b	.L22
.L25:
	ldr	r2, [fp, #-52]
	ldr	r3, [fp, #-48]
	add	r2, r2, #4
	str	r2, [fp, #-52]
	ldr	r2, [fp, #-60]
	add	r3, r3, #1
	str	r3, [fp, #-48]
	cmp	r3, r2
	bne	.L28
.L9:
	sub	sp, fp, #40
	ldmfd	sp, {r4, r5, r6, r7, r8, r9, r10, fp, sp, pc}
.L30:
	mov	r2, r8
	mov	lr, #0
	b	.L19
.L43:
	add	r3, r0, #308
	cmp	r9, #0
	mov	r10, r3
	bne	.L12
	ldr	r2, [fp, #-48]
	mov	r1, #2
	str	r1, [fp, #-64]
	mov	r1, #4
	str	r1, [fp, #-60]
	ldrsb	r2, [r2, #10]
	add	r2, r2, #1
	b	.L14
.L45:
	.align	2
.L44:
	.word	.LANCHOR0
	UNWIND(.fnend)
	.size	HEVC_InitSigLastScan, .-HEVC_InitSigLastScan
	.align	2
	.global	HEVC_InitScalingOrderTable
	.type	HEVC_InitScalingOrderTable, %function
HEVC_InitScalingOrderTable:
	UNWIND(.fnstart)
	@ args = 0, pretend = 0, frame = 0
	@ frame_needed = 1, uses_anonymous_args = 0
	UNWIND(.movsp ip)
	mov	ip, sp
	stmfd	sp!, {r4, r5, r6, r7, fp, ip, lr, pc}
	UNWIND(.pad #4)
	UNWIND(.save {r4, r5, r6, r7, fp, ip, lr})
	UNWIND(.setfp fp, ip, #-4)
	sub	fp, ip, #4
	UNWIND(.pad #16)
	sub	sp, sp, #16
	add	r3, r0, #7
	add	r1, r0, #136
	mov	r7, r0
	mvn	r2, #0
.L47:
	strb	r2, [r3, #1]!
	cmp	r3, r1
	bne	.L47
	ldr	r6, .L51
	mov	r2, #0
	mov	r3, #2
	mov	r5, r2
	mov	r4, r3
	strb	r2, [r7, #12]
	strb	r3, [r7, #24]
	mov	r2, #1
	mov	r3, #3
	strb	r2, [r7, #16]
	strb	r3, [r7, #40]
	mov	r3, #4
	strb	r3, [r7, #72]
.L48:
	mov	r3, #0
	str	r5, [sp, #12]
	str	r4, [sp, #8]
	add	r5, r5, #1
	str	r4, [sp, #4]
	mov	r2, r3
	str	r6, [sp]
	mov	r1, r3
	mov	r0, r7
	mov	r4, r4, asl #1
	bl	HEVC_InitSigLastScan
	cmp	r5, #7
	add	r6, r6, #65536
	bne	.L48
	sub	sp, fp, #28
	ldmfd	sp, {r4, r5, r6, r7, fp, sp, pc}
.L52:
	.align	2
.L51:
	.word	.LANCHOR0
	UNWIND(.fnend)
	.size	HEVC_InitScalingOrderTable, .-HEVC_InitScalingOrderTable
	.global	__aeabi_idiv
	.align	2
	.global	HEVCGetDar
	.type	HEVCGetDar, %function
HEVCGetDar:
	UNWIND(.fnstart)
	@ args = 4, pretend = 0, frame = 8
	@ frame_needed = 1, uses_anonymous_args = 0
	UNWIND(.movsp ip)
	mov	ip, sp
	stmfd	sp!, {r4, fp, ip, lr, pc}
	UNWIND(.pad #4)
	UNWIND(.save {r4, fp, ip, lr})
	UNWIND(.setfp fp, ip, #-4)
	sub	fp, ip, #4
	UNWIND(.pad #12)
	sub	sp, sp, #12
	cmp	r0, #0
	mov	ip, r1
	moveq	r4, r0
	beq	.L54
	subs	lr, r0, #255
	movne	lr, #1
	cmp	r0, #16
	movle	r4, #0
	andgt	r4, lr, #1
	cmp	r4, #0
	movne	r4, #0
	bne	.L54
	cmp	r2, #0
	cmpne	r1, #0
	moveq	r1, #1
	movne	r1, #0
	cmp	r0, #255
	movne	r1, #0
	andeq	r1, r1, #1
	cmp	r1, #0
	bne	.L54
	cmp	r0, #1
	moveq	r4, #5
	beq	.L54
	cmp	lr, #0
	str	r3, [fp, #-24]
	ldrne	r2, .L76
	addne	r1, r2, r0, lsl #3
	ldrne	ip, [r2, r0, asl #3]
	ldrne	r2, [r1, #4]
	mov	r0, ip, asl #10
	mov	r1, r2
	bl	__aeabi_idiv
	ldr	r3, [fp, #-24]
	ldr	r1, [fp, #4]
	mov	r4, r0
	mov	r0, r3, asl #10
	bl	__aeabi_idiv
	movw	r3, #2405
	movw	r2, #2262
	mul	r0, r0, r4
	add	r4, r0, #1020
	cmp	r0, #0
	add	r4, r4, #3
	movlt	r0, r4
	mov	r0, r0, asr #10
	cmp	r0, r3
	rsble	r3, r0, #2400
	subgt	r3, r0, #2400
	addle	r3, r3, #6
	subgt	r3, r3, #6
	cmp	r0, r2
	bgt	.L58
	rsb	r2, r0, #2256
	add	r2, r2, #7
	cmp	r3, r2
	bge	.L59
.L69:
	mov	r4, #4
.L54:
	ldr	r3, .L76+4
	mov	r2, r4
	ldr	r1, .L76+8
	mov	r0, #22
	ldr	r3, [r3, #68]
	blx	r3
	mov	r0, r4
	sub	sp, fp, #16
	ldmfd	sp, {r4, fp, sp, pc}
.L58:
	sub	r2, r0, #2256
	sub	r2, r2, #7
	cmp	r3, r2
	blt	.L69
.L59:
	movw	r3, #1819
	cmp	r0, r3
	bgt	.L60
	rsb	r3, r0, #1808
	add	r3, r3, #12
	cmp	r2, r3
	blt	.L71
.L61:
	movw	r2, #1364
	cmp	r0, r2
	rsble	r0, r0, #1360
	subgt	r0, r0, #1360
	addle	r0, r0, #5
	subgt	r0, r0, #5
	cmp	r3, r0
	movlt	r4, #2
	movge	r4, #1
	b	.L54
.L60:
	sub	r3, r0, #1808
	sub	r3, r3, #12
	cmp	r2, r3
	bge	.L61
.L71:
	mov	r4, #3
	b	.L54
.L77:
	.align	2
.L76:
	.word	.LANCHOR1
	.word	vfmw_Osal_Func_Ptr_S
	.word	.LC2
	UNWIND(.fnend)
	.size	HEVCGetDar, .-HEVCGetDar
	.align	2
	.global	HEVC_PrintNaluArraySlot
	.type	HEVC_PrintNaluArraySlot, %function
HEVC_PrintNaluArraySlot:
	UNWIND(.fnstart)
	@ args = 0, pretend = 0, frame = 0
	@ frame_needed = 1, uses_anonymous_args = 0
	UNWIND(.movsp ip)
	mov	ip, sp
	stmfd	sp!, {r4, r5, r6, r7, r8, r9, r10, fp, ip, lr, pc}
	UNWIND(.pad #4)
	UNWIND(.save {r4, r5, r6, r7, r8, r9, r10, fp, ip, lr})
	UNWIND(.setfp fp, ip, #-4)
	sub	fp, ip, #4
	UNWIND(.pad #12)
	sub	sp, sp, #12
	ldr	r6, .L84
	mov	r7, r0
	ldr	r1, .L84+4
	mov	r0, #1
	ldr	r3, [r6, #68]
	blx	r3
	ldr	r3, [r7, #160]
	cmn	r3, #1
	beq	.L82
	mov	r5, #0
	movw	r8, #52429
	add	r9, r7, #53248
	mov	r4, r5
	movt	r8, 52428
	mov	r10, r6
	b	.L81
.L80:
	ldr	r3, [r7, #160]
	add	r3, r3, #1
	cmp	r3, r4
	bls	.L82
.L81:
	ldr	r3, [r9, #3252]
	mov	r2, r4
	ldr	ip, [r6, #68]
	mov	r0, #1
	add	r3, r3, r5
	ldr	r1, .L84+8
	add	r5, r5, #100
	ldr	lr, [r3, #36]
	str	lr, [sp]
	blx	ip
	umull	r2, r3, r4, r8
	mov	r2, r3, lsr #3
	mov	r3, r2, asl #3
	add	r3, r3, r2, lsl #1
	cmp	r4, r3
	add	r4, r4, #1
	bne	.L80
	ldr	r3, [r10, #68]
	mov	r0, #1
	ldr	r1, .L84+12
	blx	r3
	ldr	r3, [r7, #160]
	add	r3, r3, #1
	cmp	r3, r4
	bhi	.L81
.L82:
	ldr	r3, [r6, #68]
	mov	r0, #1
	ldr	r1, .L84+12
	blx	r3
	ldr	r3, [r6, #68]
	ldr	r1, .L84+16
	mov	r0, #1
	sub	sp, fp, #40
	ldmfd	sp, {r4, r5, r6, r7, r8, r9, r10, fp, sp, lr}
	bx	r3
.L85:
	.align	2
.L84:
	.word	vfmw_Osal_Func_Ptr_S
	.word	.LC3
	.word	.LC6
	.word	.LC4
	.word	.LC5
	UNWIND(.fnend)
	.size	HEVC_PrintNaluArraySlot, .-HEVC_PrintNaluArraySlot
	.align	2
	.global	HEVC_PrintCurrSlicelistX
	.type	HEVC_PrintCurrSlicelistX, %function
HEVC_PrintCurrSlicelistX:
	UNWIND(.fnstart)
	@ args = 0, pretend = 0, frame = 0
	@ frame_needed = 1, uses_anonymous_args = 0
	UNWIND(.movsp ip)
	mov	ip, sp
	stmfd	sp!, {r4, r5, r6, r7, r8, r9, r10, fp, ip, lr, pc}
	UNWIND(.pad #4)
	UNWIND(.save {r4, r5, r6, r7, r8, r9, r10, fp, ip, lr})
	UNWIND(.setfp fp, ip, #-4)
	sub	fp, ip, #4
	UNWIND(.pad #4)
	sub	sp, sp, #4
	ldr	r4, .L107
	add	r7, r0, #40960
	mov	r8, r0
	ldr	r1, .L107+4
	mov	r0, #1
	ldr	r3, [r4, #68]
	blx	r3
	ldr	r3, [r4, #68]
	ldr	r2, [r7, #2736]
	mov	r0, #1
	ldr	r1, .L107+8
	blx	r3
	ldr	r3, [r7, #2736]
	cmp	r3, #0
	addne	r6, r8, #2304
	movne	r5, #0
	addne	r6, r6, #12
	movne	r9, r4
	beq	.L94
.L93:
	ldr	r3, [r6, #4]!
	mov	r2, r5
	mov	r0, #1
	ldr	r1, .L107+12
	ldr	ip, [r4, #68]
	add	r5, r5, r0
	blx	ip
	ldr	r3, [r6]
	ldr	r1, .L107+16
	mov	r0, #1
	cmp	r3, #0
	beq	.L91
	ldr	r2, [r3, #32]
	ldr	r3, [r9, #68]
	blx	r3
	ldr	r3, [r6]
	ldr	r3, [r3, #32]
	cmp	r3, #0
	beq	.L91
	ldr	r1, [r3, #32]
	ldr	r0, [r8, #244]
	ldr	r10, [r9, #68]
	bl	FSP_GetLogicFs
	ldr	r1, .L107+20
	mov	r2, r0
	mov	r0, #1
	blx	r10
.L91:
	ldr	r3, [r4, #68]
	mov	r0, #1
	ldr	r1, .L107+24
	blx	r3
	ldr	r3, [r7, #2736]
	cmp	r3, r5
	bhi	.L93
.L94:
	ldr	r3, [r4, #68]
	mov	r0, #1
	ldr	r2, [r7, #2740]
	ldr	r1, .L107+28
	blx	r3
	ldr	r3, [r7, #2740]
	cmp	r3, #0
	addne	r6, r8, #2384
	ldrne	r9, .L107
	movne	r5, #0
	beq	.L89
.L98:
	ldr	r3, [r6, #4]!
	mov	r2, r5
	mov	r0, #1
	ldr	r1, .L107+32
	ldr	ip, [r4, #68]
	add	r5, r5, r0
	blx	ip
	ldr	r3, [r6]
	ldr	r1, .L107+16
	mov	r0, #1
	cmp	r3, #0
	beq	.L96
	ldr	r2, [r3, #32]
	ldr	r3, [r9, #68]
	blx	r3
	ldr	r3, [r6]
	ldr	r3, [r3, #32]
	cmp	r3, #0
	beq	.L96
	ldr	r1, [r3, #32]
	ldr	r0, [r8, #244]
	ldr	r10, [r9, #68]
	bl	FSP_GetLogicFs
	ldr	r1, .L107+20
	mov	r2, r0
	mov	r0, #1
	blx	r10
.L96:
	ldr	r3, [r4, #68]
	mov	r0, #1
	ldr	r1, .L107+24
	blx	r3
	ldr	r3, [r7, #2740]
	cmp	r3, r5
	bhi	.L98
.L89:
	ldr	r3, [r4, #68]
	mov	r0, #1
	ldr	r1, .L107+36
	sub	sp, fp, #40
	ldmfd	sp, {r4, r5, r6, r7, r8, r9, r10, fp, sp, lr}
	bx	r3
.L108:
	.align	2
.L107:
	.word	vfmw_Osal_Func_Ptr_S
	.word	.LC7
	.word	.LC8
	.word	.LC10
	.word	.LC11
	.word	.LC12
	.word	.LC4
	.word	.LC9
	.word	.LC14
	.word	.LC13
	UNWIND(.fnend)
	.size	HEVC_PrintCurrSlicelistX, .-HEVC_PrintCurrSlicelistX
	.align	2
	.global	HEVC_PrintFrameStoreState
	.type	HEVC_PrintFrameStoreState, %function
HEVC_PrintFrameStoreState:
	UNWIND(.fnstart)
	@ args = 0, pretend = 0, frame = 0
	@ frame_needed = 1, uses_anonymous_args = 0
	UNWIND(.movsp ip)
	mov	ip, sp
	stmfd	sp!, {r4, r5, r6, r7, r8, r9, r10, fp, ip, lr, pc}
	UNWIND(.pad #4)
	UNWIND(.save {r4, r5, r6, r7, r8, r9, r10, fp, ip, lr})
	UNWIND(.setfp fp, ip, #-4)
	sub	fp, ip, #4
	UNWIND(.pad #20)
	sub	sp, sp, #20
	ldr	r7, .L116
	mov	r9, r0
	ldr	r1, .L116+4
	mov	r0, #1
	ldr	r3, [r7, #68]
	blx	r3
	ldr	r3, [r9, #176]
	cmp	r3, #0
	addne	r6, r9, #57088
	movne	r8, #0
	addne	r6, r6, #224
	movne	r10, r7
	beq	.L113
.L112:
	ldrb	lr, [r6, #2]	@ zero_extendqisi2
	mov	r3, r6
	ldr	ip, [r7, #68]
	mov	r2, r8
	ldr	r1, .L116+8
	mov	r0, #1
	str	lr, [sp, #8]
	add	r5, r6, #280
	ldrb	lr, [r6, #1]	@ zero_extendqisi2
	mov	r4, #0
	str	lr, [sp, #4]
	ldr	lr, [r6, #4]
	str	lr, [sp]
	blx	ip
.L111:
	mov	r2, r4
	ldr	ip, [r7, #68]
	ldr	r3, [r5, #4]!
	add	r4, r4, #1
	ldr	r1, .L116+12
	mov	r0, #1
	blx	ip
	cmp	r4, #4
	bne	.L111
	ldr	r3, [r10, #68]
	mov	r0, #1
	ldr	r1, .L116+16
	add	r8, r8, r0
	blx	r3
	ldr	r3, [r9, #176]
	add	r6, r6, #584
	cmp	r3, r8
	bhi	.L112
.L113:
	ldr	r3, [r7, #68]
	mov	r0, #1
	ldr	r1, .L116+20
	sub	sp, fp, #40
	ldmfd	sp, {r4, r5, r6, r7, r8, r9, r10, fp, sp, lr}
	bx	r3
.L117:
	.align	2
.L116:
	.word	vfmw_Osal_Func_Ptr_S
	.word	.LC15
	.word	.LC17
	.word	.LC18
	.word	.LC4
	.word	.LC16
	UNWIND(.fnend)
	.size	HEVC_PrintFrameStoreState, .-HEVC_PrintFrameStoreState
	.align	2
	.global	HEVC_PrintAPCState
	.type	HEVC_PrintAPCState, %function
HEVC_PrintAPCState:
	UNWIND(.fnstart)
	@ args = 0, pretend = 0, frame = 0
	@ frame_needed = 1, uses_anonymous_args = 0
	UNWIND(.movsp ip)
	mov	ip, sp
	stmfd	sp!, {r4, r5, r6, r7, r8, fp, ip, lr, pc}
	UNWIND(.pad #4)
	UNWIND(.save {r4, r5, r6, r7, r8, fp, ip, lr})
	UNWIND(.setfp fp, ip, #-4)
	sub	fp, ip, #4
	UNWIND(.pad #12)
	sub	sp, sp, #12
	ldr	r8, .L121
	mov	r4, r0
	ldr	r1, .L121+4
	mov	r5, r4
	mov	r0, #1
	ldr	r3, [r8, #68]
	add	r7, r4, #2848
	blx	r3
	ldr	r3, [r4, #2784]
	ldr	r2, [r5, #2788]!
	mov	r0, #1
	ldr	ip, [r8, #68]
	add	r6, r4, #2912
	ldr	r1, .L121+8
	add	r7, r7, #4
	blx	ip
	add	r6, r6, #4
	mov	r4, #0
.L119:
	ldr	r1, [r7, #4]!
	mov	r2, r4
	ldr	lr, [r6, #4]!
	add	r4, r4, #1
	ldr	r3, [r5, #4]!
	mov	r0, #1
	ldr	ip, [r8, #68]
	stmia	sp, {r1, lr}
	ldr	r1, .L121+12
	blx	ip
	cmp	r4, #16
	ldr	r3, .L121
	bne	.L119
	ldr	r3, [r3, #68]
	mov	r0, #1
	ldr	r1, .L121+16
	sub	sp, fp, #32
	ldmfd	sp, {r4, r5, r6, r7, r8, fp, sp, lr}
	bx	r3
.L122:
	.align	2
.L121:
	.word	vfmw_Osal_Func_Ptr_S
	.word	.LC19
	.word	.LC20
	.word	.LC21
	.word	.LC22
	UNWIND(.fnend)
	.size	HEVC_PrintAPCState, .-HEVC_PrintAPCState
	.align	2
	.global	HEVC_PrintDPBState
	.type	HEVC_PrintDPBState, %function
HEVC_PrintDPBState:
	UNWIND(.fnstart)
	@ args = 0, pretend = 0, frame = 24
	@ frame_needed = 1, uses_anonymous_args = 0
	UNWIND(.movsp ip)
	mov	ip, sp
	stmfd	sp!, {r4, r5, r6, r7, r8, r9, r10, fp, ip, lr, pc}
	UNWIND(.pad #4)
	UNWIND(.save {r4, r5, r6, r7, r8, r9, r10, fp, ip, lr})
	UNWIND(.setfp fp, ip, #-4)
	sub	fp, ip, #4
	UNWIND(.pad #76)
	sub	sp, sp, #76
	ldr	r10, .L139
	mov	r7, r0
	ldr	r1, .L139+4
	mov	r0, #1
	ldr	r3, [r10, #68]
	blx	r3
	ldr	ip, [r7, #2508]
	ldr	r1, [r7, #2504]
	mov	r0, #1
	ldr	lr, [r7, #2500]
	ldr	r3, [r7, #2492]
	ldr	r2, [r7, #2488]
	stmia	sp, {r1, ip, lr}
	ldr	ip, [r10, #68]
	ldr	r1, .L139+8
	blx	ip
	ldr	r3, [r7, #2492]
	cmp	r3, #0
	addne	r4, r7, #2496
	movne	r5, #0
	addne	r4, r4, #12
	beq	.L128
.L127:
	ldr	r3, [r4, #4]!
	ldr	r2, [r10, #68]
	ldr	r0, [r7, #244]
	ldrb	lr, [r3]	@ zero_extendqisi2
	ldr	ip, [r3, #52]
	ldr	r6, [r3, #4]
	ldrb	r8, [r3, #1]	@ zero_extendqisi2
	str	r2, [fp, #-48]
	ldrb	r2, [r3, #2]	@ zero_extendqisi2
	ldr	r1, [r3, #32]
	str	lr, [fp, #-52]
	str	r2, [fp, #-64]
	ldr	r9, [r3, #12]
	str	ip, [fp, #-68]
	str	r6, [fp, #-56]
	str	r8, [fp, #-60]
	bl	FSP_GetLogicFs
	ldr	r3, [r4]
	ldr	r1, [r3, #32]
	mov	r6, r0
	ldr	r0, [r7, #244]
	bl	FSP_GetRef
	ldr	r3, [r4]
	ldr	r1, [r3, #32]
	mov	r8, r0
	ldr	r0, [r7, #244]
	bl	FSP_GetDisplay
	ldr	r1, [r4]
	ldr	ip, [fp, #-68]
	mov	r2, r5
	add	r5, r5, #1
	ldr	lr, [r1, #268]
	mov	r3, r1
	str	lr, [sp, #40]
	ldr	r1, [r1, #32]
	ldr	lr, [fp, #-52]
	str	r9, [sp, #16]
	str	r1, [sp, #36]
	ldr	r1, [fp, #-64]
	ldr	r9, [fp, #-60]
	str	ip, [sp, #20]
	str	r1, [sp, #12]
	ldr	r1, [fp, #-56]
	str	r9, [sp, #8]
	str	lr, [sp]
	str	r1, [sp, #4]
	str	r8, [sp, #28]
	str	r6, [sp, #24]
	ldr	r1, .L139+12
	ldr	ip, [fp, #-48]
	str	r0, [sp, #32]
	mov	r0, #1
	blx	ip
	ldr	r3, [r7, #2492]
	cmp	r3, r5
	bhi	.L127
.L128:
	ldr	r3, [r10, #68]
	mov	r0, #1
	ldr	r1, .L139+16
	blx	r3
	ldr	r3, [r7, #2492]
	cmp	r3, #0
	beq	.L126
	add	r5, r7, #2496
	ldr	r9, .L139
	add	r5, r5, #12
	mov	r6, #0
	b	.L135
.L138:
	blx	r3
	ldr	r3, [r9, #68]
	ldr	r2, [r4, #512]
	mov	r0, #1
	ldr	r1, .L139+20
	blx	r3
	ldr	r3, [r9, #68]
	ldrsb	r2, [r4]
	mov	r0, #1
	ldr	r1, .L139+24
	blx	r3
	ldrsb	r2, [r4, #1]
	ldr	r3, [r9, #68]
	mov	r0, #1
	ldr	r1, .L139+28
	blx	r3
.L130:
	cmp	r8, #0
	ldr	r3, [r10, #68]
	mov	r2, r8
	ldr	r1, .L139+32
	mov	r0, #1
	beq	.L131
	blx	r3
	ldr	r2, [r8, #56]
	ldr	r3, [r10, #68]
	mov	r0, #1
	ldr	r1, .L139+36
	blx	r3
.L132:
	ldr	r4, [fp, #-48]
	mov	r0, #1
	ldr	r1, .L139+40
	cmp	r4, #0
	ldr	r3, [r10, #68]
	mov	r2, r4
	beq	.L133
	blx	r3
	ldr	r2, [r4, #56]
	ldr	r3, [r10, #68]
	mov	r0, #1
	ldr	r1, .L139+44
	blx	r3
.L134:
	ldr	r3, [r10, #68]
	mov	r0, #1
	ldr	r1, .L139+16
	add	r6, r6, r0
	blx	r3
	ldr	r3, [r7, #2492]
	cmp	r3, r6
	bls	.L126
.L135:
	ldr	r3, [r5, #4]!
	ldr	r0, [r7, #244]
	ldr	r1, [r3, #32]
	bl	FSP_GetLogicFs
	ldr	r3, [r5]
	ldr	r1, [r3, #32]
	mov	r4, r0
	ldr	r0, [r7, #244]
	bl	FSP_GetDecPhyFs
	ldr	r3, [r5]
	ldr	r1, [r3, #32]
	mov	r8, r0
	ldr	r0, [r7, #244]
	bl	FSP_GetDispPhyFs
	ldr	r3, [r10, #68]
	mov	r2, r6
	ldr	r1, .L139+48
	str	r0, [fp, #-48]
	mov	r0, #1
	blx	r3
	cmp	r4, #0
	mov	r2, r4
	ldr	r1, .L139+52
	mov	r0, #1
	ldr	r3, [r9, #68]
	bne	.L138
	ldr	r1, .L139+56
	mov	r0, #1
	blx	r3
	b	.L130
.L133:
	ldr	r1, .L139+60
	mov	r0, #1
	blx	r3
	b	.L134
.L131:
	ldr	r1, .L139+64
	mov	r0, #1
	blx	r3
	b	.L132
.L126:
	ldr	r3, [r10, #68]
	mov	r0, #1
	ldr	r1, .L139+68
	sub	sp, fp, #40
	ldmfd	sp, {r4, r5, r6, r7, r8, r9, r10, fp, sp, lr}
	bx	r3
.L140:
	.align	2
.L139:
	.word	vfmw_Osal_Func_Ptr_S
	.word	.LC23
	.word	.LC24
	.word	.LC25
	.word	.LC4
	.word	.LC29
	.word	.LC30
	.word	.LC31
	.word	.LC33
	.word	.LC34
	.word	.LC36
	.word	.LC37
	.word	.LC27
	.word	.LC28
	.word	.LC32
	.word	.LC38
	.word	.LC35
	.word	.LC26
	UNWIND(.fnend)
	.size	HEVC_PrintDPBState, .-HEVC_PrintDPBState
	.align	2
	.global	HEVC_IsSliceUnit
	.type	HEVC_IsSliceUnit, %function
HEVC_IsSliceUnit:
	UNWIND(.fnstart)
	@ args = 0, pretend = 0, frame = 0
	@ frame_needed = 1, uses_anonymous_args = 0
	UNWIND(.movsp ip)
	mov	ip, sp
	stmfd	sp!, {fp, ip, lr, pc}
	UNWIND(.pad #4)
	UNWIND(.save {fp, ip, lr})
	UNWIND(.setfp fp, ip, #-4)
	sub	fp, ip, #4
	cmp	r0, #9
	bls	.L143
	sub	r0, r0, #16
	cmp	r0, #5
	movhi	r0, #0
	movls	r0, #1
	ldmfd	sp, {fp, sp, pc}
.L143:
	mov	r0, #1
	ldmfd	sp, {fp, sp, pc}
	UNWIND(.fnend)
	.size	HEVC_IsSliceUnit, .-HEVC_IsSliceUnit
	.align	2
	.global	HEVC_IsIUnit
	.type	HEVC_IsIUnit, %function
HEVC_IsIUnit:
	UNWIND(.fnstart)
	@ args = 0, pretend = 0, frame = 0
	@ frame_needed = 1, uses_anonymous_args = 0
	UNWIND(.movsp ip)
	mov	ip, sp
	stmfd	sp!, {fp, ip, lr, pc}
	UNWIND(.pad #4)
	UNWIND(.save {fp, ip, lr})
	UNWIND(.setfp fp, ip, #-4)
	sub	fp, ip, #4
	sub	r0, r0, #16
	cmp	r0, #5
	movhi	r0, #0
	movls	r0, #1
	ldmfd	sp, {fp, sp, pc}
	UNWIND(.fnend)
	.size	HEVC_IsIUnit, .-HEVC_IsIUnit
	.align	2
	.global	HEVC_IsNonRefPic
	.type	HEVC_IsNonRefPic, %function
HEVC_IsNonRefPic:
	UNWIND(.fnstart)
	@ args = 0, pretend = 0, frame = 0
	@ frame_needed = 1, uses_anonymous_args = 0
	UNWIND(.movsp ip)
	mov	ip, sp
	stmfd	sp!, {fp, ip, lr, pc}
	UNWIND(.pad #4)
	UNWIND(.save {fp, ip, lr})
	UNWIND(.setfp fp, ip, #-4)
	sub	fp, ip, #4
	bics	r0, r0, #6
	subne	r0, r0, #8
	clzne	r0, r0
	movne	r0, r0, lsr #5
	moveq	r0, #1
	ldmfd	sp, {fp, sp, pc}
	UNWIND(.fnend)
	.size	HEVC_IsNonRefPic, .-HEVC_IsNonRefPic
	.align	2
	.global	HEVC_IsFlushUnit
	.type	HEVC_IsFlushUnit, %function
HEVC_IsFlushUnit:
	UNWIND(.fnstart)
	@ args = 0, pretend = 0, frame = 0
	@ frame_needed = 1, uses_anonymous_args = 0
	UNWIND(.movsp ip)
	mov	ip, sp
	stmfd	sp!, {fp, ip, lr, pc}
	UNWIND(.pad #4)
	UNWIND(.save {fp, ip, lr})
	UNWIND(.setfp fp, ip, #-4)
	sub	fp, ip, #4
	sub	r0, r0, #16
	cmp	r0, #4
	movhi	r0, #0
	movls	r0, #1
	ldmfd	sp, {fp, sp, pc}
	UNWIND(.fnend)
	.size	HEVC_IsFlushUnit, .-HEVC_IsFlushUnit
	.align	2
	.global	HEVC_IsPVRFlushPic
	.type	HEVC_IsPVRFlushPic, %function
HEVC_IsPVRFlushPic:
	UNWIND(.fnstart)
	@ args = 0, pretend = 0, frame = 0
	@ frame_needed = 1, uses_anonymous_args = 0
	UNWIND(.movsp ip)
	mov	ip, sp
	stmfd	sp!, {fp, ip, lr, pc}
	UNWIND(.pad #4)
	UNWIND(.save {fp, ip, lr})
	UNWIND(.setfp fp, ip, #-4)
	sub	fp, ip, #4
	add	r3, r0, #40960
	ldr	r3, [r3, #2028]
	cmp	r3, #0
	bne	.L151
	ldr	r2, [r0, #2308]
	ldr	r1, [r2, #708]
	cmp	r1, #1
	beq	.L155
.L153:
	mov	r0, r3
	ldmfd	sp, {fp, sp, pc}
.L151:
	mov	r0, #0
	ldmfd	sp, {fp, sp, pc}
.L155:
	ldr	r0, [r2, #704]
	cmp	r0, #0
	bne	.L153
	ldr	r3, [r2, #712]
	cmp	r3, #0
	ldmnefd	sp, {fp, sp, pc}
	ldr	r3, [r2, #684]
	add	r3, r3, #1024
	cmp	r3, #2048
	movls	r0, #0
	movhi	r0, #1
	ldmfd	sp, {fp, sp, pc}
	UNWIND(.fnend)
	.size	HEVC_IsPVRFlushPic, .-HEVC_IsPVRFlushPic
	.align	2
	.global	HEVC_CalcTileInfo
	.type	HEVC_CalcTileInfo, %function
HEVC_CalcTileInfo:
	UNWIND(.fnstart)
	@ args = 0, pretend = 0, frame = 16
	@ frame_needed = 1, uses_anonymous_args = 0
	UNWIND(.movsp ip)
	mov	ip, sp
	stmfd	sp!, {r4, r5, r6, r7, r8, r9, r10, fp, ip, lr, pc}
	UNWIND(.pad #4)
	UNWIND(.save {r4, r5, r6, r7, r8, r9, r10, fp, ip, lr})
	UNWIND(.setfp fp, ip, #-4)
	sub	fp, ip, #4
	UNWIND(.pad #28)
	sub	sp, sp, #28
	add	r5, r0, #24576
	str	r3, [fp, #-52]
	mov	r7, r2
	ldr	r3, [r5, #2608]
	mov	r8, r1
	ldr	r2, [r5, #2604]
	ldr	r9, [r3, #68]
	ldr	r3, [r3, #72]
	ldr	r2, [r2, #148]
	str	r3, [fp, #-48]
	sub	r3, r9, #1
	cmp	r3, #9
	str	r2, [fp, #-56]
	bhi	.L184
	ldr	r3, [fp, #-48]
	sub	r3, r3, #1
	cmp	r3, #10
	bhi	.L185
	ldr	r6, .L186
	mov	r2, #512
	mov	r1, #0
	mov	r0, r8
	ldr	r3, [r6, #48]
	blx	r3
	ldr	r3, [r6, #48]
	mov	r2, #80
	mov	r1, #0
	mov	r0, r7
	blx	r3
	ldr	r3, [r6, #48]
	mov	r2, #88
	mov	r1, #0
	ldr	r0, [fp, #-52]
	blx	r3
	cmp	r9, #0
	ble	.L165
	ldr	r3, [fp, #-56]
	mov	r2, #0
	mov	r1, r2
	mov	r0, r7
	sub	r10, r3, #4
.L164:
	str	r2, [r7, r1, asl #3]
	mov	r3, r2, asl r10
	ldr	ip, [r5, #2608]
	add	ip, ip, r1, lsl #1
	ldrsh	ip, [ip, #176]
	add	r2, ip, r2
	sub	ip, r2, #1
	str	ip, [r0, #4]
	mov	lr, r2, asl r10
	cmp	r3, lr
	bge	.L170
	cmp	r3, #255
	bhi	.L166
	uxtb	r4, r1
	add	ip, r8, r3
	b	.L168
.L169:
	cmp	r3, #256
	beq	.L166
.L168:
	add	r3, r3, #1
	strb	r4, [ip], #1
	cmp	r3, lr
	bne	.L169
.L170:
	add	r1, r1, #1
	add	r0, r0, #8
	cmp	r1, r9
	bne	.L164
.L165:
	ldr	r3, [fp, #-48]
	cmp	r3, #0
	ble	.L162
	ldr	r3, [fp, #-56]
	mov	ip, #0
	ldr	r9, [fp, #-52]
	mov	lr, ip
	sub	r4, r3, #4
	mov	r7, r9
.L172:
	str	ip, [r9, lr, asl #3]
	mov	r3, ip, asl r4
	ldr	r2, [r5, #2608]
	add	r2, r2, lr, lsl #1
	ldrsh	r2, [r2, #216]
	add	ip, r2, ip
	sub	r2, ip, #1
	str	r2, [r7, #4]
	mov	r1, ip, asl r4
	cmp	r3, r1
	bge	.L177
	cmp	r3, #255
	bhi	.L173
	add	r2, r3, #255
	uxtb	r0, lr
	add	r2, r8, r2
	b	.L175
.L176:
	cmp	r3, #256
	beq	.L173
.L175:
	add	r3, r3, #1
	strb	r0, [r2, #1]!
	cmp	r3, r1
	bne	.L176
.L177:
	ldr	r3, [fp, #-48]
	add	lr, lr, #1
	add	r7, r7, #8
	cmp	lr, r3
	bne	.L172
.L162:
	mov	r0, #0
	b	.L158
.L166:
	ldr	ip, [r6, #68]
	mov	r0, #1
	ldr	r2, .L186+4
	ldr	r1, .L186+8
	blx	ip
	mvn	r0, #0
.L158:
	sub	sp, fp, #40
	ldmfd	sp, {r4, r5, r6, r7, r8, r9, r10, fp, sp, pc}
.L173:
	ldr	ip, [r6, #68]
	mov	r0, #1
	ldr	r2, .L186+4
	ldr	r1, .L186+12
	blx	ip
	mvn	r0, #0
	b	.L158
.L185:
	ldr	r1, .L186
	mov	r0, #11
	ldr	r3, [fp, #-48]
	str	r0, [sp]
	mov	r0, #1
	ldr	ip, [r1, #68]
	ldr	r2, .L186+4
	ldr	r1, .L186+16
	blx	ip
	mvn	r0, #0
	b	.L158
.L184:
	ldr	r1, .L186
	mov	r0, #10
	mov	r3, r9
	str	r0, [sp]
	ldr	r2, .L186+4
	mov	r0, #1
	ldr	ip, [r1, #68]
	ldr	r1, .L186+20
	blx	ip
	mvn	r0, #0
	b	.L158
.L187:
	.align	2
.L186:
	.word	vfmw_Osal_Func_Ptr_S
	.word	.LANCHOR1+136
	.word	.LC41
	.word	.LC42
	.word	.LC40
	.word	.LC39
	UNWIND(.fnend)
	.size	HEVC_CalcTileInfo, .-HEVC_CalcTileInfo
	.align	2
	.global	HEVC_VPSEqual
	.type	HEVC_VPSEqual, %function
HEVC_VPSEqual:
	UNWIND(.fnstart)
	@ args = 0, pretend = 0, frame = 16
	@ frame_needed = 1, uses_anonymous_args = 0
	UNWIND(.movsp ip)
	mov	ip, sp
	stmfd	sp!, {r4, r5, r6, r7, r8, r9, r10, fp, ip, lr, pc}
	UNWIND(.pad #4)
	UNWIND(.save {r4, r5, r6, r7, r8, r9, r10, fp, ip, lr})
	UNWIND(.setfp fp, ip, #-4)
	sub	fp, ip, #4
	UNWIND(.pad #20)
	sub	sp, sp, #20
	subs	r10, r0, #0
	ldreq	ip, .L215
	movweq	r3, #1371
	beq	.L212
	cmp	r1, #0
	beq	.L213
	ldr	r4, [r10, #12]
	add	lr, r10, #12288
	ldr	r3, [r10, #16]
	add	ip, r1, #12288
	ldr	r6, [r1, #16]
	add	r2, r10, #12416
	ldr	r5, [r1, #12]
	add	r0, r1, #12416
	ldr	r9, [r1, #20]
	mov	r7, r2
	cmp	r3, r6
	cmpeq	r4, r5
	ldr	r8, [r10, #20]
	ldrb	r5, [r10, #1]	@ zero_extendqisi2
	add	r2, r2, #20
	ldrb	r3, [r1, #1]	@ zero_extendqisi2
	moveq	r4, #1
	movne	r4, #0
	cmp	r8, r9
	movne	r4, #0
	andeq	r4, r4, #1
	cmp	r5, r3
	movne	r9, #0
	andeq	r9, r4, #1
	ldr	r6, [r1, #24]
	ldr	r3, [r10, #24]
	add	r0, r0, #20
	ldr	r5, [r10, #8]
	add	r7, r7, #52
	ldr	r4, [r1, #8]
	cmp	r3, r6
	movne	r3, #0
	andeq	r3, r9, #1
	ldr	r9, [ip, #424]
	cmp	r5, r4
	movne	r6, #0
	andeq	r6, r3, #1
	ldr	r5, [lr, #424]
	ldrb	r3, [ip, #148]	@ zero_extendqisi2
	ldrb	r4, [lr, #148]	@ zero_extendqisi2
	cmp	r5, r9
	movne	r5, #0
	andeq	r5, r6, #1
	ldr	r9, [lr, #420]
	ldr	r6, [ip, #420]
	cmp	r4, r3
	movne	r4, #0
	andeq	r4, r5, #1
	cmp	r9, r6
	movne	r3, #0
	andeq	r3, r4, #1
.L192:
	ldrb	r5, [r2, #1]!	@ zero_extendqisi2
	ldrb	r4, [r0, #1]!	@ zero_extendqisi2
	cmp	r5, r4
	movne	r3, #0
	andeq	r3, r3, #1
	cmp	r2, r7
	bne	.L192
	ldrb	r2, [lr, #182]	@ zero_extendqisi2
	add	r7, r10, #80
	ldrb	r6, [ip, #182]	@ zero_extendqisi2
	sub	r0, r8, #1
	ldrb	r5, [lr, #181]	@ zero_extendqisi2
	add	r9, r1, #48
	ldrb	r4, [ip, #181]	@ zero_extendqisi2
	add	r8, r1, #80
	str	r7, [fp, #-56]
	cmp	r2, r6
	cmpeq	r5, r4
	ldrb	r7, [lr, #183]	@ zero_extendqisi2
	ldrb	r4, [ip, #183]	@ zero_extendqisi2
	mov	r5, #0
	ldrb	lr, [lr, #184]	@ zero_extendqisi2
	moveq	r2, #1
	ldrb	ip, [ip, #184]	@ zero_extendqisi2
	movne	r2, #0
	ldrb	r6, [r10, #7]	@ zero_extendqisi2
	cmp	r7, r4
	movne	r2, #0
	andeq	r2, r2, #1
	add	r4, r10, #112
	str	r4, [fp, #-52]
	ldrb	r4, [r1, #7]	@ zero_extendqisi2
	cmp	lr, ip
	movne	ip, #0
	andeq	ip, r2, #1
	add	r7, r1, #112
	str	r1, [fp, #-60]
	cmp	r6, r4
	movne	ip, #0
	andeq	ip, ip, #1
	ldr	r1, [fp, #-56]
	str	r0, [fp, #-48]
	and	r6, r3, ip
	add	r0, r10, #48
	ldr	r2, [fp, #-52]
	str	r10, [fp, #-52]
.L193:
	ldr	r3, [r1, #4]!
	add	r5, r5, #1
	ldr	r10, [r8, #4]!
	ldr	r4, [r0, #4]!
	ldr	lr, [r9, #4]!
	ldr	ip, [r2, #4]!
	cmp	r3, r10
	cmpeq	r4, lr
	ldr	r10, [r7, #4]!
	moveq	r3, #1
	movne	r3, #0
	cmp	ip, r10
	movne	r3, #0
	andeq	r3, r3, #1
	ldr	ip, [fp, #-48]
	and	r6, r6, r3
	cmp	r5, ip
	bls	.L193
	ldr	r10, [fp, #-52]
	ldr	r1, [fp, #-60]
	ldr	r8, [r10, #32]
	ldr	r3, [r1, #32]
	ldr	r4, [r10, #28]
	ldr	r2, [r1, #28]
	cmp	r8, r3
	cmpeq	r4, r2
	moveq	r3, #1
	movne	r3, #0
	cmp	r8, #0
	and	r6, r6, r3
	beq	.L194
	add	r7, r10, #148
	add	r5, r1, #148
	mov	r9, #1
.L195:
	mov	r0, r5
	mov	r2, r7
	mov	r3, #0
.L196:
	ldr	lr, [r2, #4]!
	add	r3, r3, #1
	ldr	ip, [r0, #4]!
	cmp	lr, ip
	movne	r6, #0
	andeq	r6, r6, #1
	cmp	r3, r4
	bls	.L196
	add	r9, r9, #1
	add	r7, r7, #4
	cmp	r9, r8
	add	r5, r5, #4
	bls	.L195
.L194:
	ldrb	r3, [r10, #6]	@ zero_extendqisi2
	ldrb	r2, [r1, #6]	@ zero_extendqisi2
	cmp	r2, r3
	movne	r6, #0
	andeq	r6, r6, #1
	cmp	r3, #0
	beq	.L197
	ldr	r3, [r10, #36]
	ldr	r2, [r10, #40]
	ldr	r4, [r1, #40]
	ldr	lr, [r1, #36]
	ldrb	r0, [r10, #5]	@ zero_extendqisi2
	cmp	r2, r4
	cmpeq	r3, lr
	ldrb	ip, [r1, #5]	@ zero_extendqisi2
	moveq	r3, #1
	movne	r3, #0
	cmp	ip, r0
	movne	r3, #0
	andeq	r3, r3, #1
	cmp	r0, #0
	and	r6, r6, r3
	bne	.L214
.L198:
	ldr	r2, [r10, #48]
	ldr	r3, [r1, #48]
	cmp	r2, r3
	movne	r6, #0
	andeq	r6, r6, #1
.L197:
	eor	r6, r6, #1
	rsb	r0, r6, #0
.L190:
	sub	sp, fp, #40
	ldmfd	sp, {r4, r5, r6, r7, r8, r9, r10, fp, sp, pc}
.L214:
	ldr	r2, [r10, #44]
	ldr	r3, [r1, #44]
	cmp	r2, r3
	movne	r6, #0
	andeq	r6, r6, #1
	b	.L198
.L213:
	ldr	ip, .L215
	mov	r0, r1
	movw	r3, #1372
.L212:
	ldr	r2, .L215+4
	ldr	r1, .L215+8
	ldr	ip, [ip, #68]
	blx	ip
	mvn	r0, #0
	b	.L190
.L216:
	.align	2
.L215:
	.word	vfmw_Osal_Func_Ptr_S
	.word	.LC43
	.word	.LC44
	UNWIND(.fnend)
	.size	HEVC_VPSEqual, .-HEVC_VPSEqual
	.align	2
	.global	HEVC_Sei_More_Data_In_Payload
	.type	HEVC_Sei_More_Data_In_Payload, %function
HEVC_Sei_More_Data_In_Payload:
	UNWIND(.fnstart)
	@ args = 0, pretend = 0, frame = 0
	@ frame_needed = 1, uses_anonymous_args = 0
	UNWIND(.movsp ip)
	mov	ip, sp
	stmfd	sp!, {r4, r5, fp, ip, lr, pc}
	UNWIND(.pad #4)
	UNWIND(.save {r4, r5, fp, ip, lr})
	UNWIND(.setfp fp, ip, #-4)
	sub	fp, ip, #4
	ldr	r2, [r0, #2292]
	mov	r5, r1
	ldr	r3, [r2, #24]
	mov	r0, r2
	ldr	r4, [r2, #28]
	rsb	r4, r4, r3
	bl	BsIsByteAligned
	cmp	r4, r5, asl #3
	movne	r3, #1
	moveq	r3, #0
	cmp	r0, #0
	moveq	r0, #0
	andne	r0, r3, #1
	eor	r0, r0, #1
	ldmfd	sp, {r4, r5, fp, sp, pc}
	UNWIND(.fnend)
	.size	HEVC_Sei_More_Data_In_Payload, .-HEVC_Sei_More_Data_In_Payload
	.align	2
	.global	HEVC_Sei_Payload_Extension_Present
	.type	HEVC_Sei_Payload_Extension_Present, %function
HEVC_Sei_Payload_Extension_Present:
	UNWIND(.fnstart)
	@ args = 0, pretend = 0, frame = 32
	@ frame_needed = 1, uses_anonymous_args = 0
	UNWIND(.movsp ip)
	mov	ip, sp
	stmfd	sp!, {r4, r5, fp, ip, lr, pc}
	UNWIND(.pad #4)
	UNWIND(.save {r4, r5, fp, ip, lr})
	UNWIND(.setfp fp, ip, #-4)
	sub	fp, ip, #4
	UNWIND(.pad #32)
	sub	sp, sp, #32
	ldr	r3, .L225
	mov	r5, r1
	mov	r2, #32
	ldr	r1, [r0, #2292]
	sub	r0, fp, #52
	ldr	r3, [r3, #52]
	mov	r5, r5, asl #3
	blx	r3
	ldr	r3, [fp, #-28]
	ldr	r2, [fp, #-24]
	rsb	r3, r2, r3
	cmp	r3, r5
	movcs	r0, #0
	bcc	.L224
.L219:
	sub	sp, fp, #20
	ldmfd	sp, {r4, r5, fp, sp, pc}
.L224:
	mov	r1, #1
	sub	r0, fp, #52
	bl	BsShow
	cmp	r0, #0
	moveq	r0, #1
	beq	.L219
	mov	r1, #1
	sub	r0, fp, #52
	bl	BsSkip
	ldr	r3, [fp, #-28]
	ldr	r4, [fp, #-24]
	rsb	r4, r4, r3
	b	.L220
.L221:
	bl	BsSkip
	ldr	r3, [fp, #-28]
	ldr	r4, [fp, #-24]
	rsb	r4, r4, r3
.L220:
	mov	r1, #1
	sub	r0, fp, #52
	bl	BsShow
	cmp	r4, r5
	mov	r1, #1
	movcs	r3, #0
	movcc	r3, #1
	cmp	r0, #0
	movne	r2, #0
	andeq	r2, r3, #1
	sub	r0, fp, #52
	cmp	r2, #0
	bne	.L221
	mov	r0, r3
	sub	sp, fp, #20
	ldmfd	sp, {r4, r5, fp, sp, pc}
.L226:
	.align	2
.L225:
	.word	vfmw_Osal_Func_Ptr_S
	UNWIND(.fnend)
	.size	HEVC_Sei_Payload_Extension_Present, .-HEVC_Sei_Payload_Extension_Present
	.align	2
	.global	HEVC_Sei_Decoded_Picture_Hash
	.type	HEVC_Sei_Decoded_Picture_Hash, %function
HEVC_Sei_Decoded_Picture_Hash:
	UNWIND(.fnstart)
	@ args = 0, pretend = 0, frame = 0
	@ frame_needed = 1, uses_anonymous_args = 0
	UNWIND(.movsp ip)
	mov	ip, sp
	stmfd	sp!, {r4, r5, r6, r7, r8, r9, fp, ip, lr, pc}
	UNWIND(.pad #4)
	UNWIND(.save {r4, r5, r6, r7, r8, r9, fp, ip, lr})
	UNWIND(.setfp fp, ip, #-4)
	sub	fp, ip, #4
	cmp	r1, #0
	cmpne	r0, #0
	mov	r6, r0
	mov	r7, r1
	beq	.L235
	mov	r1, #8
	ldr	r0, [r0, #2292]
	bl	BsGet
	sub	r4, r7, #1
	add	r8, r7, #47
	mov	r3, r0
	cmp	r3, #0
	str	r0, [r7, #48]
	str	r0, [r7, #52]
	bne	.L229
.L240:
	add	r5, r4, #16
.L230:
	mov	r1, #8
	ldr	r0, [r6, #2292]
	bl	BsGet
	strb	r0, [r4, #1]!
	cmp	r4, r5
	bne	.L230
.L231:
	cmp	r5, r8
	mov	r4, r5
	beq	.L236
.L242:
	ldr	r3, [r7, #52]
	cmp	r3, #0
	beq	.L240
.L229:
	cmp	r3, #1
	beq	.L241
	cmp	r3, #2
	addne	r5, r4, #16
	bne	.L231
	mov	r1, #32
	ldr	r0, [r6, #2292]
	bl	BsGet
	add	r5, r4, #16
	cmp	r5, r8
	strb	r0, [r4, #4]
	mov	r2, r0, lsr #24
	mov	r3, r0, lsr #16
	strb	r2, [r4, #1]
	mov	r0, r0, lsr #8
	strb	r3, [r4, #2]
	strb	r0, [r4, #3]
	mov	r4, r5
	bne	.L242
.L236:
	mov	r0, #0
	ldmfd	sp, {r4, r5, r6, r7, r8, r9, fp, sp, pc}
.L241:
	mov	r1, #16
	ldr	r0, [r6, #2292]
	bl	BsGet
	add	r5, r4, #16
	mov	r3, r0, lsr #8
	strb	r0, [r4, #2]
	strb	r3, [r4, #1]
	b	.L231
.L235:
	mvn	r0, #0
	ldmfd	sp, {r4, r5, r6, r7, r8, r9, fp, sp, pc}
	UNWIND(.fnend)
	.size	HEVC_Sei_Decoded_Picture_Hash, .-HEVC_Sei_Decoded_Picture_Hash
	.align	2
	.global	HEVC_Sei_Region_Refresh_Info
	.type	HEVC_Sei_Region_Refresh_Info, %function
HEVC_Sei_Region_Refresh_Info:
	UNWIND(.fnstart)
	@ args = 0, pretend = 0, frame = 0
	@ frame_needed = 1, uses_anonymous_args = 0
	UNWIND(.movsp ip)
	mov	ip, sp
	stmfd	sp!, {r4, r5, fp, ip, lr, pc}
	UNWIND(.pad #4)
	UNWIND(.save {r4, r5, fp, ip, lr})
	UNWIND(.setfp fp, ip, #-4)
	sub	fp, ip, #4
	cmp	r1, #0
	cmpne	r0, #0
	mov	r5, r1
	moveq	r4, #1
	movne	r4, #0
	beq	.L245
	ldr	r0, [r0, #2292]
	mov	r1, #1
	bl	BsGet
	mov	r3, r4
	strb	r0, [r5]
.L244:
	mov	r0, r3
	ldmfd	sp, {r4, r5, fp, sp, pc}
.L245:
	mvn	r3, #0
	b	.L244
	UNWIND(.fnend)
	.size	HEVC_Sei_Region_Refresh_Info, .-HEVC_Sei_Region_Refresh_Info
	.align	2
	.global	HEVC_Sei_Temporal_Sub_Layer_Zero_Index
	.type	HEVC_Sei_Temporal_Sub_Layer_Zero_Index, %function
HEVC_Sei_Temporal_Sub_Layer_Zero_Index:
	UNWIND(.fnstart)
	@ args = 0, pretend = 0, frame = 0
	@ frame_needed = 1, uses_anonymous_args = 0
	UNWIND(.movsp ip)
	mov	ip, sp
	stmfd	sp!, {r4, r5, r6, r7, fp, ip, lr, pc}
	UNWIND(.pad #4)
	UNWIND(.save {r4, r5, r6, r7, fp, ip, lr})
	UNWIND(.setfp fp, ip, #-4)
	sub	fp, ip, #4
	cmp	r1, #0
	cmpne	r0, #0
	mov	r5, r0
	mov	r6, r1
	moveq	r4, #1
	movne	r4, #0
	beq	.L248
	mov	r1, #1
	ldr	r0, [r0, #2292]
	bl	BsGet
	mov	r1, #1
	str	r0, [r6]
	ldr	r0, [r5, #2292]
	bl	BsGet
	str	r0, [r6, #4]
	ldr	r0, [r5, #2292]
	bl	BsToNextByte
	mov	r0, r4
	ldmfd	sp, {r4, r5, r6, r7, fp, sp, pc}
.L248:
	mvn	r0, #0
	ldmfd	sp, {r4, r5, r6, r7, fp, sp, pc}
	UNWIND(.fnend)
	.size	HEVC_Sei_Temporal_Sub_Layer_Zero_Index, .-HEVC_Sei_Temporal_Sub_Layer_Zero_Index
	.align	2
	.global	HEVC_Sei_Display_Orientation
	.type	HEVC_Sei_Display_Orientation, %function
HEVC_Sei_Display_Orientation:
	UNWIND(.fnstart)
	@ args = 0, pretend = 0, frame = 0
	@ frame_needed = 1, uses_anonymous_args = 0
	UNWIND(.movsp ip)
	mov	ip, sp
	stmfd	sp!, {r4, r5, fp, ip, lr, pc}
	UNWIND(.pad #4)
	UNWIND(.save {r4, r5, fp, ip, lr})
	UNWIND(.setfp fp, ip, #-4)
	sub	fp, ip, #4
	cmp	r1, #0
	cmpne	r0, #0
	mov	r4, r0
	mov	r5, r1
	beq	.L252
	mov	r1, #1
	ldr	r0, [r0, #2292]
	bl	BsGet
	uxtb	r0, r0
	strb	r0, [r5, #2]
	cmp	r0, #0
	beq	.L253
.L251:
	ldr	r0, [r4, #2292]
	bl	BsToNextByte
	mov	r0, #0
	ldmfd	sp, {r4, r5, fp, sp, pc}
.L253:
	mov	r1, #1
	ldr	r0, [r4, #2292]
	bl	BsGet
	mov	r1, #1
	strb	r0, [r5]
	ldr	r0, [r4, #2292]
	bl	BsGet
	mov	r1, #16
	strb	r0, [r5, #1]
	ldr	r0, [r4, #2292]
	bl	BsGet
	mov	r1, #1
	str	r0, [r5, #4]
	ldr	r0, [r4, #2292]
	bl	BsGet
	strb	r0, [r5, #3]
	b	.L251
.L252:
	mvn	r0, #0
	ldmfd	sp, {r4, r5, fp, sp, pc}
	UNWIND(.fnend)
	.size	HEVC_Sei_Display_Orientation, .-HEVC_Sei_Display_Orientation
	.align	2
	.global	HEVC_Sei_User_Data_Unregistered
	.type	HEVC_Sei_User_Data_Unregistered, %function
HEVC_Sei_User_Data_Unregistered:
	UNWIND(.fnstart)
	@ args = 0, pretend = 0, frame = 0
	@ frame_needed = 1, uses_anonymous_args = 0
	UNWIND(.movsp ip)
	mov	ip, sp
	stmfd	sp!, {r4, r5, r6, r7, r8, r9, fp, ip, lr, pc}
	UNWIND(.pad #4)
	UNWIND(.save {r4, r5, r6, r7, r8, r9, fp, ip, lr})
	UNWIND(.setfp fp, ip, #-4)
	sub	fp, ip, #4
	cmp	r2, #15
	mov	r8, r2
	mov	r5, r0
	mov	r7, r1
	addhi	r4, r1, #3
	addhi	r6, r1, #19
	bls	.L262
.L257:
	mov	r1, #8
	ldr	r0, [r5, #2292]
	bl	BsGet
	strb	r0, [r4, #1]!
	cmp	r4, r6
	bne	.L257
	sub	r0, r8, #16
	str	r0, [r7, #20]
	cmp	r0, #0
	movne	r4, #0
	beq	.L263
.L259:
	mov	r1, #8
	ldr	r0, [r5, #2292]
	bl	BsGet
	ldr	r3, [r7, #20]
	add	r4, r4, #1
	cmp	r3, r4
	bhi	.L259
	mov	r0, #0
	ldmfd	sp, {r4, r5, r6, r7, r8, r9, fp, sp, pc}
.L263:
	str	r0, [r7]
	ldmfd	sp, {r4, r5, r6, r7, r8, r9, fp, sp, pc}
.L262:
	ldr	r3, .L264
	mov	r0, #1
	ldr	r1, .L264+4
	ldr	r3, [r3, #68]
	blx	r3
	mvn	r0, #0
	ldmfd	sp, {r4, r5, r6, r7, r8, r9, fp, sp, pc}
.L265:
	.align	2
.L264:
	.word	vfmw_Osal_Func_Ptr_S
	.word	.LC45
	UNWIND(.fnend)
	.size	HEVC_Sei_User_Data_Unregistered, .-HEVC_Sei_User_Data_Unregistered
	.align	2
	.global	HEVC_IsRefListWrong
	.type	HEVC_IsRefListWrong, %function
HEVC_IsRefListWrong:
	UNWIND(.fnstart)
	@ args = 0, pretend = 0, frame = 0
	@ frame_needed = 1, uses_anonymous_args = 0
	UNWIND(.movsp ip)
	mov	ip, sp
	stmfd	sp!, {r4, r5, r6, r7, fp, ip, lr, pc}
	UNWIND(.pad #4)
	UNWIND(.save {r4, r5, r6, r7, fp, ip, lr})
	UNWIND(.setfp fp, ip, #-4)
	sub	fp, ip, #4
	UNWIND(.pad #8)
	sub	sp, sp, #8
	add	r7, r0, #40960
	mov	r5, r0
	ldr	r3, [r7, #2736]
	cmp	r3, #0
	beq	.L267
	ldr	r4, [r0, #2320]
	cmp	r4, #0
	beq	.L268
	ldr	r2, [r4, #32]
	cmp	r2, #0
	addne	r6, r0, #2320
	movne	r4, #0
	bne	.L273
	b	.L311
.L274:
	ldr	r3, [ip, #520]
	cmp	r3, #0
	beq	.L275
	ldr	r3, [r7, #2736]
	add	r4, r4, #1
	cmp	r4, r3
	bcs	.L312
	ldr	r2, [r6, #4]!
	cmp	r2, #0
	beq	.L268
	ldr	r2, [r2, #32]
	cmp	r2, #0
	beq	.L269
.L273:
	ldr	r1, [r2, #32]
	ldr	r0, [r5, #244]
	bl	FSP_GetLogicFs
	subs	ip, r0, #0
	bne	.L274
.L275:
	add	r3, r4, #580
	ldr	lr, .L316
	mov	r2, r4
	ldr	r1, .L316+4
	ldr	r3, [r5, r3, asl #2]
	mov	r0, #1
	ldr	r4, [lr, #68]
	ldr	r3, [r3, #32]
	str	ip, [sp]
	blx	r4
.L272:
	mvn	r0, #0
	sub	sp, fp, #28
	ldmfd	sp, {r4, r5, r6, r7, fp, sp, pc}
.L312:
	cmp	r3, #0
	beq	.L267
	ldr	r2, [r7, #2740]
	cmp	r2, #0
	beq	.L267
	ldr	r4, [r5, #2388]
	cmp	r4, #0
	beq	.L280
	ldr	r2, [r4, #32]
	cmp	r2, #0
	addne	r6, r5, #2384
	movne	r4, #0
	addne	r6, r6, #4
	bne	.L284
	b	.L313
.L285:
	ldr	r3, [r0, #520]
	cmp	r3, #0
	beq	.L286
	ldr	r3, [r7, #2740]
	add	r4, r4, #1
	cmp	r4, r3
	bcs	.L267
	ldr	r3, [r6, #4]!
	cmp	r3, #0
	beq	.L314
	ldr	r2, [r3, #32]
	cmp	r2, #0
	beq	.L315
.L284:
	ldr	r1, [r2, #32]
	ldr	r0, [r5, #244]
	bl	FSP_GetLogicFs
	cmp	r0, #0
	bne	.L285
.L286:
	ldr	ip, .L316
	mov	r3, r0
	mov	r2, r4
	ldr	r1, .L316+8
	mov	r0, #1
	ldr	ip, [ip, #68]
	blx	ip
	mvn	r0, #0
	b	.L306
.L267:
	mov	r0, #0
.L306:
	sub	sp, fp, #28
	ldmfd	sp, {r4, r5, r6, r7, fp, sp, pc}
.L268:
	ldr	ip, .L316
	mov	r2, r4
	ldr	r1, .L316+12
	mov	r0, #1
	ldr	ip, [ip, #68]
	blx	ip
	b	.L272
.L311:
	mov	r4, r2
.L269:
	ldr	ip, .L316
	mov	r2, r4
	ldr	r1, .L316+16
	mov	r0, #1
	ldr	ip, [ip, #68]
	blx	ip
	b	.L272
.L314:
	ldr	r3, [r7, #2736]
.L280:
	ldr	ip, .L316
	mov	r2, r4
	ldr	r1, .L316+20
	mov	r0, #1
	ldr	ip, [ip, #68]
	blx	ip
	mvn	r0, #0
	b	.L306
.L315:
	ldr	r3, [r7, #2736]
.L281:
	ldr	ip, .L316
	mov	r2, r4
	ldr	r1, .L316+24
	mov	r0, #1
	ldr	ip, [ip, #68]
	blx	ip
	mvn	r0, #0
	b	.L306
.L313:
	mov	r4, r2
	b	.L281
.L317:
	.align	2
.L316:
	.word	vfmw_Osal_Func_Ptr_S
	.word	.LC48
	.word	.LC51
	.word	.LC46
	.word	.LC47
	.word	.LC49
	.word	.LC50
	UNWIND(.fnend)
	.size	HEVC_IsRefListWrong, .-HEVC_IsRefListWrong
	.align	2
	.global	HEVC_GetUnRefPicWithMinPoc
	.type	HEVC_GetUnRefPicWithMinPoc, %function
HEVC_GetUnRefPicWithMinPoc:
	UNWIND(.fnstart)
	@ args = 0, pretend = 0, frame = 0
	@ frame_needed = 1, uses_anonymous_args = 0
	UNWIND(.movsp ip)
	mov	ip, sp
	stmfd	sp!, {r4, fp, ip, lr, pc}
	UNWIND(.pad #4)
	UNWIND(.save {r4, fp, ip, lr})
	UNWIND(.setfp fp, ip, #-4)
	sub	fp, ip, #4
	UNWIND(.pad #12)
	sub	sp, sp, #12
	mvn	r4, #0
	str	r4, [r1]
	ldr	r3, [r0, #2492]
	cmp	r3, #16
	bhi	.L319
	cmp	r3, #0
	addne	ip, r0, #2496
	mvnne	r4, #-2147483648
	addne	ip, ip, #12
	movne	r3, #0
	beq	.L321
.L324:
	ldr	r2, [ip, #4]!
	ldr	lr, [r2, #12]
	cmp	lr, r4
	bge	.L323
	ldr	r2, [r2]
	bic	r2, r2, #-16777216
	bic	r2, r2, #255
	cmp	r2, #0
	streq	r3, [r1]
	moveq	r4, lr
.L323:
	ldr	r2, [r0, #2492]
	add	r3, r3, #1
	cmp	r2, r3
	bhi	.L324
	ldr	r3, [r1]
	cmn	r3, #1
	beq	.L321
	ldr	r1, .L327
	mov	r0, #1
	str	r4, [sp]
	ldr	r2, .L327+4
	ldr	ip, [r1, #68]
	ldr	r1, .L327+8
	blx	ip
	mov	r0, #0
.L322:
	sub	sp, fp, #16
	ldmfd	sp, {r4, fp, sp, pc}
.L319:
	ldr	ip, .L327
	mov	r0, #1
	ldr	r2, .L327+4
	ldr	r1, .L327+12
	ldr	ip, [ip, #68]
	blx	ip
	mov	r0, r4
	b	.L322
.L321:
	ldr	r3, .L327
	mov	r0, #1
	ldr	r2, .L327+4
	ldr	r1, .L327+16
	ldr	r3, [r3, #68]
	blx	r3
	mvn	r0, #0
	b	.L322
.L328:
	.align	2
.L327:
	.word	vfmw_Osal_Func_Ptr_S
	.word	.LANCHOR1+156
	.word	.LC54
	.word	.LC52
	.word	.LC53
	UNWIND(.fnend)
	.size	HEVC_GetUnRefPicWithMinPoc, .-HEVC_GetUnRefPicWithMinPoc
	.align	2
	.global	HEVC_IncreaseDPBSize
	.type	HEVC_IncreaseDPBSize, %function
HEVC_IncreaseDPBSize:
	UNWIND(.fnstart)
	@ args = 0, pretend = 0, frame = 0
	@ frame_needed = 1, uses_anonymous_args = 0
	UNWIND(.movsp ip)
	mov	ip, sp
	stmfd	sp!, {r4, r5, fp, ip, lr, pc}
	UNWIND(.pad #4)
	UNWIND(.save {r4, r5, fp, ip, lr})
	UNWIND(.setfp fp, ip, #-4)
	sub	fp, ip, #4
	UNWIND(.pad #8)
	sub	sp, sp, #8
	ldr	r3, [r0, #2488]
	mov	r4, r0
	cmp	r3, #16
	bhi	.L333
	ldr	r0, [r0, #244]
	bl	FSP_GetTotalValidFsNum
	subs	r3, r0, #0
	ble	.L332
	ldr	r2, [r4, #2488]
	add	r2, r2, #1
	cmp	r3, r2
	bcc	.L332
	ldr	r1, .L334
	mov	r3, r2
	str	r2, [r4, #2488]
	mov	r0, #13
	ldr	r2, .L334+4
	ldr	ip, [r1, #68]
	ldr	r1, .L334+8
	blx	ip
	mov	r0, #0
.L331:
	sub	sp, fp, #20
	ldmfd	sp, {r4, r5, fp, sp, pc}
.L332:
	ldr	ip, .L334
	mov	r0, #1
	ldr	r2, .L334+4
	ldr	r1, .L334+12
	ldr	ip, [ip, #68]
	blx	ip
	mvn	r0, #0
	b	.L331
.L333:
	ldr	r1, .L334
	mov	r5, #17
	ldr	r2, .L334+4
	mov	r0, #1
	str	r5, [sp]
	ldr	ip, [r1, #68]
	ldr	r1, .L334+16
	blx	ip
	str	r5, [r4, #2488]
	mvn	r0, #0
	b	.L331
.L335:
	.align	2
.L334:
	.word	vfmw_Osal_Func_Ptr_S
	.word	.LANCHOR1+184
	.word	.LC56
	.word	.LC57
	.word	.LC55
	UNWIND(.fnend)
	.size	HEVC_IncreaseDPBSize, .-HEVC_IncreaseDPBSize
	.align	2
	.global	HEVC_PicTypeStatistic
	.type	HEVC_PicTypeStatistic, %function
HEVC_PicTypeStatistic:
	UNWIND(.fnstart)
	@ args = 0, pretend = 0, frame = 0
	@ frame_needed = 1, uses_anonymous_args = 0
	UNWIND(.movsp ip)
	mov	ip, sp
	stmfd	sp!, {fp, ip, lr, pc}
	UNWIND(.pad #4)
	UNWIND(.save {fp, ip, lr})
	UNWIND(.setfp fp, ip, #-4)
	sub	fp, ip, #4
	add	r0, r0, #40960
	ldr	r3, [r0, #2648]
	sub	r2, r3, #16
	cmp	r2, #5
	bls	.L337
	ldr	r3, [r0, #2020]
	sub	r3, r3, #16
	cmp	r3, #5
	bls	.L348
	ldr	r3, [r0, #2636]
	cmp	r3, #1
	beq	.L340
	cmp	r3, #2
	beq	.L341
	cmp	r3, #0
	moveq	r3, #2
	streq	r3, [r0, #2028]
	ldmfd	sp, {fp, sp, pc}
.L337:
	str	r3, [r0, #2020]
	mov	r3, #0
	str	r3, [r0, #2028]
	ldmfd	sp, {fp, sp, pc}
.L340:
	ldr	r2, [r0, #2028]
	cmp	r2, #2
	beq	.L349
	str	r3, [r0, #2028]
	ldmfd	sp, {fp, sp, pc}
.L341:
	ldr	r3, [r0, #2028]
	sub	r3, r3, #1
	cmp	r3, #1
	movhi	r3, #0
	strhi	r3, [r0, #2028]
	ldmfd	sp, {fp, sp, pc}
.L349:
	ldmfd	sp, {fp, sp, pc}
.L348:
	ldmfd	sp, {fp, sp, pc}
	UNWIND(.fnend)
	.size	HEVC_PicTypeStatistic, .-HEVC_PicTypeStatistic
	.align	2
	.global	HEVC_IsReferenceNalu
	.type	HEVC_IsReferenceNalu, %function
HEVC_IsReferenceNalu:
	UNWIND(.fnstart)
	@ args = 0, pretend = 0, frame = 0
	@ frame_needed = 1, uses_anonymous_args = 0
	UNWIND(.movsp ip)
	mov	ip, sp
	stmfd	sp!, {fp, ip, lr, pc}
	UNWIND(.pad #4)
	UNWIND(.save {fp, ip, lr})
	UNWIND(.setfp fp, ip, #-4)
	sub	fp, ip, #4
	add	r0, r0, #40960
	ldr	r0, [r0, #2648]
	cmp	r0, #15
	bhi	.L351
	tst	r0, #1
	bne	.L353
.L351:
	sub	r0, r0, #16
	cmp	r0, #7
	movhi	r0, #0
	movls	r0, #1
	ldmfd	sp, {fp, sp, pc}
.L353:
	mov	r0, #1
	ldmfd	sp, {fp, sp, pc}
	UNWIND(.fnend)
	.size	HEVC_IsReferenceNalu, .-HEVC_IsReferenceNalu
	.align	2
	.global	HEVC_WriteQmatrix_4x4
	.type	HEVC_WriteQmatrix_4x4, %function
HEVC_WriteQmatrix_4x4:
	UNWIND(.fnstart)
	@ args = 0, pretend = 0, frame = 0
	@ frame_needed = 1, uses_anonymous_args = 0
	UNWIND(.movsp ip)
	mov	ip, sp
	stmfd	sp!, {fp, ip, lr, pc}
	UNWIND(.pad #4)
	UNWIND(.save {fp, ip, lr})
	UNWIND(.setfp fp, ip, #-4)
	sub	fp, ip, #4
	add	r1, r1, r0, lsl #6
	ldr	r0, [r1, #572]
	ldr	r3, [r1, #576]
	ldrb	ip, [r1, #564]	@ zero_extendqisi2
	ldrb	lr, [r1, #568]	@ zero_extendqisi2
	mov	r0, r0, asl #8
	orr	r3, ip, r3, asl #24
	uxth	r0, r0
	orr	r3, r3, lr, asl #16
	orr	r3, r3, r0
	str	r3, [r2]
	ldr	r0, [r1, #572]
	ldrb	lr, [r1, #565]	@ zero_extendqisi2
	ldrb	r3, [r1, #577]	@ zero_extendqisi2
	and	r0, r0, #65280
	ldrb	ip, [r1, #569]	@ zero_extendqisi2
	orr	r0, lr, r0
	orr	r3, r0, r3, asl #24
	orr	r3, r3, ip, asl #16
	str	r3, [r2, #4]
	ldr	r0, [r1, #568]
	ldrb	lr, [r1, #566]	@ zero_extendqisi2
	ldrb	r3, [r1, #578]	@ zero_extendqisi2
	and	r0, r0, #16711680
	ldrb	ip, [r1, #574]	@ zero_extendqisi2
	orr	r0, lr, r0
	orr	r3, r0, r3, asl #24
	orr	r3, r3, ip, asl #8
	str	r3, [r2, #8]
	ldr	r0, [r1, #576]
	ldrb	r3, [r1, #571]	@ zero_extendqisi2
	ldrb	lr, [r1, #567]	@ zero_extendqisi2
	and	r0, r0, #-16777216
	ldrb	ip, [r1, #575]	@ zero_extendqisi2
	orr	r1, lr, r0
	orr	r3, r1, r3, asl #16
	orr	r3, r3, ip, asl #8
	str	r3, [r2, #12]
	ldmfd	sp, {fp, sp, pc}
	UNWIND(.fnend)
	.size	HEVC_WriteQmatrix_4x4, .-HEVC_WriteQmatrix_4x4
	.align	2
	.global	HEVC_WriteQmatrix_32x32
	.type	HEVC_WriteQmatrix_32x32, %function
HEVC_WriteQmatrix_32x32:
	UNWIND(.fnstart)
	@ args = 0, pretend = 0, frame = 0
	@ frame_needed = 1, uses_anonymous_args = 0
	UNWIND(.movsp ip)
	mov	ip, sp
	stmfd	sp!, {r4, fp, ip, lr, pc}
	UNWIND(.pad #4)
	UNWIND(.save {r4, fp, ip, lr})
	UNWIND(.setfp fp, ip, #-4)
	sub	fp, ip, #4
	add	lr, r0, #18
	add	r0, r1, r0, lsl #6
	add	lr, r1, lr, lsl #6
	ldr	r1, [r0, #1724]
	ldr	r3, [r0, #1740]
	ldrb	ip, [lr, #564]	@ zero_extendqisi2
	ldrb	r4, [r0, #1732]	@ zero_extendqisi2
	mov	r1, r1, asl #8
	orr	r3, ip, r3, asl #24
	uxth	r1, r1
	orr	r3, r3, r4, asl #16
	orr	r3, r3, r1
	str	r3, [r2]
	ldr	r1, [r0, #1756]
	ldr	r3, [r0, #1772]
	ldrb	ip, [r0, #1748]	@ zero_extendqisi2
	ldrb	r4, [r0, #1764]	@ zero_extendqisi2
	mov	r1, r1, asl #8
	orr	r3, ip, r3, asl #24
	uxth	r1, r1
	orr	r3, r3, r4, asl #16
	orr	r3, r3, r1
	str	r3, [r2, #4]
	ldr	r1, [r0, #1724]
	ldrb	r4, [lr, #565]	@ zero_extendqisi2
	ldrb	r3, [r0, #1741]	@ zero_extendqisi2
	and	r1, r1, #65280
	ldrb	ip, [r0, #1733]	@ zero_extendqisi2
	orr	r1, r4, r1
	orr	r3, r1, r3, asl #24
	orr	r3, r3, ip, asl #16
	str	r3, [r2, #8]
	ldr	r1, [r0, #1756]
	ldrb	r4, [r0, #1749]	@ zero_extendqisi2
	ldrb	r3, [r0, #1773]	@ zero_extendqisi2
	and	r1, r1, #65280
	ldrb	ip, [r0, #1765]	@ zero_extendqisi2
	orr	r1, r4, r1
	orr	r3, r1, r3, asl #24
	orr	r3, r3, ip, asl #16
	str	r3, [r2, #12]
	ldr	ip, [r0, #1732]
	ldrb	r4, [lr, #566]	@ zero_extendqisi2
	ldrb	r3, [r0, #1742]	@ zero_extendqisi2
	and	ip, ip, #16711680
	ldrb	r1, [r0, #1726]	@ zero_extendqisi2
	orr	ip, r4, ip
	orr	r3, ip, r3, asl #24
	orr	r3, r3, r1, asl #8
	str	r3, [r2, #16]
	ldr	ip, [r0, #1764]
	ldrb	r4, [r0, #1750]	@ zero_extendqisi2
	ldrb	r3, [r0, #1774]	@ zero_extendqisi2
	and	ip, ip, #16711680
	ldrb	r1, [r0, #1758]	@ zero_extendqisi2
	orr	ip, r4, ip
	orr	r3, ip, r3, asl #24
	orr	r3, r3, r1, asl #8
	str	r3, [r2, #20]
	ldr	r1, [r0, #1740]
	ldrb	lr, [lr, #567]	@ zero_extendqisi2
	ldrb	r3, [r0, #1735]	@ zero_extendqisi2
	and	r1, r1, #-16777216
	ldrb	ip, [r0, #1727]	@ zero_extendqisi2
	orr	r1, lr, r1
	orr	r3, r1, r3, asl #16
	orr	r3, r3, ip, asl #8
	str	r3, [r2, #24]
	ldr	r1, [r0, #1772]
	ldrb	lr, [r0, #1751]	@ zero_extendqisi2
	ldrb	r3, [r0, #1767]	@ zero_extendqisi2
	and	r1, r1, #-16777216
	ldrb	ip, [r0, #1759]	@ zero_extendqisi2
	orr	r1, lr, r1
	orr	r3, r1, r3, asl #16
	orr	r3, r3, ip, asl #8
	str	r3, [r2, #28]
	ldr	r1, [r0, #1728]
	ldr	r3, [r0, #1744]
	ldrb	ip, [r0, #1720]	@ zero_extendqisi2
	ldrb	lr, [r0, #1736]	@ zero_extendqisi2
	mov	r1, r1, asl #8
	orr	r3, ip, r3, asl #24
	uxth	r1, r1
	orr	r3, r3, lr, asl #16
	orr	r3, r3, r1
	str	r3, [r2, #32]
	ldr	r1, [r0, #1760]
	ldr	r3, [r0, #1776]
	ldrb	ip, [r0, #1752]	@ zero_extendqisi2
	ldrb	lr, [r0, #1768]	@ zero_extendqisi2
	mov	r1, r1, asl #8
	orr	r3, ip, r3, asl #24
	uxth	r1, r1
	orr	r3, r3, lr, asl #16
	orr	r3, r3, r1
	str	r3, [r2, #36]
	ldr	r1, [r0, #1728]
	ldrb	lr, [r0, #1721]	@ zero_extendqisi2
	ldrb	r3, [r0, #1745]	@ zero_extendqisi2
	and	r1, r1, #65280
	ldrb	ip, [r0, #1737]	@ zero_extendqisi2
	orr	r1, lr, r1
	orr	r3, r1, r3, asl #24
	orr	r3, r3, ip, asl #16
	str	r3, [r2, #40]
	ldr	r1, [r0, #1760]
	ldrb	lr, [r0, #1753]	@ zero_extendqisi2
	ldrb	r3, [r0, #1777]	@ zero_extendqisi2
	and	r1, r1, #65280
	ldrb	ip, [r0, #1769]	@ zero_extendqisi2
	orr	r1, lr, r1
	orr	r3, r1, r3, asl #24
	orr	r3, r3, ip, asl #16
	str	r3, [r2, #44]
	ldr	r1, [r0, #1736]
	ldrb	lr, [r0, #1722]	@ zero_extendqisi2
	ldrb	r3, [r0, #1746]	@ zero_extendqisi2
	and	r1, r1, #16711680
	ldrb	ip, [r0, #1730]	@ zero_extendqisi2
	orr	r1, lr, r1
	orr	r3, r1, r3, asl #24
	orr	r3, r3, ip, asl #8
	str	r3, [r2, #48]
	ldrb	lr, [r0, #1754]	@ zero_extendqisi2
	ldr	r1, [r0, #1768]
	ldrb	r3, [r0, #1778]	@ zero_extendqisi2
	ldrb	ip, [r0, #1762]	@ zero_extendqisi2
	and	r1, r1, #16711680
	orr	r1, lr, r1
	orr	r3, r1, r3, asl #24
	orr	r3, r3, ip, asl #8
	str	r3, [r2, #52]
	ldr	r1, [r0, #1744]
	ldrb	lr, [r0, #1723]	@ zero_extendqisi2
	ldrb	r3, [r0, #1739]	@ zero_extendqisi2
	and	r1, r1, #-16777216
	ldrb	ip, [r0, #1731]	@ zero_extendqisi2
	orr	r1, lr, r1
	orr	r3, r1, r3, asl #16
	orr	r3, r3, ip, asl #8
	str	r3, [r2, #56]
	ldr	r1, [r0, #1776]
	ldrb	ip, [r0, #1755]	@ zero_extendqisi2
	ldrb	r3, [r0, #1771]	@ zero_extendqisi2
	and	r1, r1, #-16777216
	ldrb	r0, [r0, #1763]	@ zero_extendqisi2
	orr	r1, ip, r1
	orr	r3, r1, r3, asl #16
	orr	r3, r3, r0, asl #8
	str	r3, [r2, #60]
	ldmfd	sp, {r4, fp, sp, pc}
	UNWIND(.fnend)
	.size	HEVC_WriteQmatrix_32x32, .-HEVC_WriteQmatrix_32x32
	.align	2
	.global	HEVC_WriteQmatrix_8x8
	.type	HEVC_WriteQmatrix_8x8, %function
HEVC_WriteQmatrix_8x8:
	UNWIND(.fnstart)
	@ args = 0, pretend = 0, frame = 0
	@ frame_needed = 1, uses_anonymous_args = 0
	UNWIND(.movsp ip)
	mov	ip, sp
	stmfd	sp!, {r4, fp, ip, lr, pc}
	UNWIND(.pad #4)
	UNWIND(.save {r4, fp, ip, lr})
	UNWIND(.setfp fp, ip, #-4)
	sub	fp, ip, #4
	add	lr, r0, #6
	add	r0, r1, r0, lsl #6
	add	lr, r1, lr, lsl #6
	ldr	r1, [r0, #964]
	ldr	r3, [r0, #996]
	ldrb	ip, [lr, #564]	@ zero_extendqisi2
	ldrb	r4, [r0, #980]	@ zero_extendqisi2
	mov	r1, r1, asl #8
	orr	r3, ip, r3, asl #24
	uxth	r1, r1
	orr	r3, r3, r4, asl #16
	orr	r3, r3, r1
	str	r3, [r2]
	ldr	r1, [r0, #972]
	ldr	r3, [r0, #1004]
	ldrb	ip, [r0, #956]	@ zero_extendqisi2
	ldrb	r4, [r0, #988]	@ zero_extendqisi2
	mov	r1, r1, asl #8
	orr	r3, ip, r3, asl #24
	uxth	r1, r1
	orr	r3, r3, r4, asl #16
	orr	r3, r3, r1
	str	r3, [r2, #4]
	ldr	r1, [r0, #964]
	ldrb	r4, [lr, #565]	@ zero_extendqisi2
	ldrb	r3, [r0, #997]	@ zero_extendqisi2
	and	r1, r1, #65280
	ldrb	ip, [r0, #981]	@ zero_extendqisi2
	orr	r1, r4, r1
	orr	r3, r1, r3, asl #24
	orr	r3, r3, ip, asl #16
	str	r3, [r2, #8]
	ldr	r1, [r0, #972]
	ldrb	r4, [r0, #957]	@ zero_extendqisi2
	ldrb	r3, [r0, #1005]	@ zero_extendqisi2
	and	r1, r1, #65280
	ldrb	ip, [r0, #989]	@ zero_extendqisi2
	orr	r1, r4, r1
	orr	r3, r1, r3, asl #24
	orr	r3, r3, ip, asl #16
	str	r3, [r2, #12]
	ldr	ip, [r0, #980]
	ldrb	r4, [lr, #566]	@ zero_extendqisi2
	ldrb	r3, [r0, #998]	@ zero_extendqisi2
	and	ip, ip, #16711680
	ldrb	r1, [r0, #966]	@ zero_extendqisi2
	orr	ip, r4, ip
	orr	r3, ip, r3, asl #24
	orr	r3, r3, r1, asl #8
	str	r3, [r2, #16]
	ldr	ip, [r0, #988]
	ldrb	r4, [r0, #958]	@ zero_extendqisi2
	ldrb	r3, [r0, #1006]	@ zero_extendqisi2
	and	ip, ip, #16711680
	ldrb	r1, [r0, #974]	@ zero_extendqisi2
	orr	ip, r4, ip
	orr	r3, ip, r3, asl #24
	orr	r3, r3, r1, asl #8
	str	r3, [r2, #20]
	ldr	r1, [r0, #996]
	ldrb	lr, [lr, #567]	@ zero_extendqisi2
	ldrb	r3, [r0, #983]	@ zero_extendqisi2
	and	r1, r1, #-16777216
	ldrb	ip, [r0, #967]	@ zero_extendqisi2
	orr	r1, lr, r1
	orr	r3, r1, r3, asl #16
	orr	r3, r3, ip, asl #8
	str	r3, [r2, #24]
	ldr	r1, [r0, #1004]
	ldrb	lr, [r0, #959]	@ zero_extendqisi2
	ldrb	r3, [r0, #991]	@ zero_extendqisi2
	and	r1, r1, #-16777216
	ldrb	ip, [r0, #975]	@ zero_extendqisi2
	orr	r1, lr, r1
	orr	r3, r1, r3, asl #16
	orr	r3, r3, ip, asl #8
	str	r3, [r2, #28]
	ldr	r1, [r0, #968]
	ldr	r3, [r0, #1000]
	ldrb	ip, [r0, #952]	@ zero_extendqisi2
	ldrb	lr, [r0, #984]	@ zero_extendqisi2
	mov	r1, r1, asl #8
	orr	r3, ip, r3, asl #24
	uxth	r1, r1
	orr	r3, r3, lr, asl #16
	orr	r3, r3, r1
	str	r3, [r2, #32]
	ldr	r1, [r0, #976]
	ldr	r3, [r0, #1008]
	ldrb	ip, [r0, #960]	@ zero_extendqisi2
	ldrb	lr, [r0, #992]	@ zero_extendqisi2
	mov	r1, r1, asl #8
	orr	r3, ip, r3, asl #24
	uxth	r1, r1
	orr	r3, r3, lr, asl #16
	orr	r3, r3, r1
	str	r3, [r2, #36]
	ldr	r1, [r0, #968]
	ldrb	lr, [r0, #953]	@ zero_extendqisi2
	ldrb	r3, [r0, #1001]	@ zero_extendqisi2
	and	r1, r1, #65280
	ldrb	ip, [r0, #985]	@ zero_extendqisi2
	orr	r1, lr, r1
	orr	r3, r1, r3, asl #24
	orr	r3, r3, ip, asl #16
	str	r3, [r2, #40]
	ldr	r1, [r0, #976]
	ldrb	lr, [r0, #961]	@ zero_extendqisi2
	ldrb	r3, [r0, #1009]	@ zero_extendqisi2
	and	r1, r1, #65280
	ldrb	ip, [r0, #993]	@ zero_extendqisi2
	orr	r1, lr, r1
	orr	r3, r1, r3, asl #24
	orr	r3, r3, ip, asl #16
	str	r3, [r2, #44]
	ldr	r1, [r0, #984]
	ldrb	lr, [r0, #954]	@ zero_extendqisi2
	ldrb	r3, [r0, #1002]	@ zero_extendqisi2
	and	r1, r1, #16711680
	ldrb	ip, [r0, #970]	@ zero_extendqisi2
	orr	r1, lr, r1
	orr	r3, r1, r3, asl #24
	orr	r3, r3, ip, asl #8
	str	r3, [r2, #48]
	ldrb	lr, [r0, #962]	@ zero_extendqisi2
	ldr	r1, [r0, #992]
	ldrb	r3, [r0, #1010]	@ zero_extendqisi2
	ldrb	ip, [r0, #978]	@ zero_extendqisi2
	and	r1, r1, #16711680
	orr	r1, lr, r1
	orr	r3, r1, r3, asl #24
	orr	r3, r3, ip, asl #8
	str	r3, [r2, #52]
	ldr	r1, [r0, #1000]
	ldrb	lr, [r0, #955]	@ zero_extendqisi2
	ldrb	r3, [r0, #987]	@ zero_extendqisi2
	and	r1, r1, #-16777216
	ldrb	ip, [r0, #971]	@ zero_extendqisi2
	orr	r1, lr, r1
	orr	r3, r1, r3, asl #16
	orr	r3, r3, ip, asl #8
	str	r3, [r2, #56]
	ldr	r1, [r0, #1008]
	ldrb	ip, [r0, #963]	@ zero_extendqisi2
	ldrb	r3, [r0, #995]	@ zero_extendqisi2
	and	r1, r1, #-16777216
	ldrb	r0, [r0, #979]	@ zero_extendqisi2
	orr	r1, ip, r1
	orr	r3, r1, r3, asl #16
	orr	r3, r3, r0, asl #8
	str	r3, [r2, #60]
	ldmfd	sp, {r4, fp, sp, pc}
	UNWIND(.fnend)
	.size	HEVC_WriteQmatrix_8x8, .-HEVC_WriteQmatrix_8x8
	.align	2
	.global	HEVC_WriteQmatrix_16x16
	.type	HEVC_WriteQmatrix_16x16, %function
HEVC_WriteQmatrix_16x16:
	UNWIND(.fnstart)
	@ args = 0, pretend = 0, frame = 0
	@ frame_needed = 1, uses_anonymous_args = 0
	UNWIND(.movsp ip)
	mov	ip, sp
	stmfd	sp!, {r4, fp, ip, lr, pc}
	UNWIND(.pad #4)
	UNWIND(.save {r4, fp, ip, lr})
	UNWIND(.setfp fp, ip, #-4)
	sub	fp, ip, #4
	add	lr, r0, #12
	add	r0, r1, r0, lsl #6
	add	lr, r1, lr, lsl #6
	ldr	r1, [r0, #1340]
	ldr	r3, [r0, #1356]
	ldrb	ip, [lr, #564]	@ zero_extendqisi2
	ldrb	r4, [r0, #1348]	@ zero_extendqisi2
	mov	r1, r1, asl #8
	orr	r3, ip, r3, asl #24
	uxth	r1, r1
	orr	r3, r3, r4, asl #16
	orr	r3, r3, r1
	str	r3, [r2]
	ldr	r1, [r0, #1372]
	ldr	r3, [r0, #1388]
	ldrb	ip, [r0, #1364]	@ zero_extendqisi2
	ldrb	r4, [r0, #1380]	@ zero_extendqisi2
	mov	r1, r1, asl #8
	orr	r3, ip, r3, asl #24
	uxth	r1, r1
	orr	r3, r3, r4, asl #16
	orr	r3, r3, r1
	str	r3, [r2, #4]
	ldr	r1, [r0, #1340]
	ldrb	r4, [lr, #565]	@ zero_extendqisi2
	ldrb	r3, [r0, #1357]	@ zero_extendqisi2
	and	r1, r1, #65280
	ldrb	ip, [r0, #1349]	@ zero_extendqisi2
	orr	r1, r4, r1
	orr	r3, r1, r3, asl #24
	orr	r3, r3, ip, asl #16
	str	r3, [r2, #8]
	ldr	r1, [r0, #1372]
	ldrb	r4, [r0, #1365]	@ zero_extendqisi2
	ldrb	r3, [r0, #1389]	@ zero_extendqisi2
	and	r1, r1, #65280
	ldrb	ip, [r0, #1381]	@ zero_extendqisi2
	orr	r1, r4, r1
	orr	r3, r1, r3, asl #24
	orr	r3, r3, ip, asl #16
	str	r3, [r2, #12]
	ldr	ip, [r0, #1348]
	ldrb	r4, [lr, #566]	@ zero_extendqisi2
	ldrb	r3, [r0, #1358]	@ zero_extendqisi2
	and	ip, ip, #16711680
	ldrb	r1, [r0, #1342]	@ zero_extendqisi2
	orr	ip, r4, ip
	orr	r3, ip, r3, asl #24
	orr	r3, r3, r1, asl #8
	str	r3, [r2, #16]
	ldr	ip, [r0, #1380]
	ldrb	r4, [r0, #1366]	@ zero_extendqisi2
	ldrb	r3, [r0, #1390]	@ zero_extendqisi2
	and	ip, ip, #16711680
	ldrb	r1, [r0, #1374]	@ zero_extendqisi2
	orr	ip, r4, ip
	orr	r3, ip, r3, asl #24
	orr	r3, r3, r1, asl #8
	str	r3, [r2, #20]
	ldr	r1, [r0, #1356]
	ldrb	lr, [lr, #567]	@ zero_extendqisi2
	ldrb	r3, [r0, #1351]	@ zero_extendqisi2
	and	r1, r1, #-16777216
	ldrb	ip, [r0, #1343]	@ zero_extendqisi2
	orr	r1, lr, r1
	orr	r3, r1, r3, asl #16
	orr	r3, r3, ip, asl #8
	str	r3, [r2, #24]
	ldr	r1, [r0, #1388]
	ldrb	lr, [r0, #1367]	@ zero_extendqisi2
	ldrb	r3, [r0, #1383]	@ zero_extendqisi2
	and	r1, r1, #-16777216
	ldrb	ip, [r0, #1375]	@ zero_extendqisi2
	orr	r1, lr, r1
	orr	r3, r1, r3, asl #16
	orr	r3, r3, ip, asl #8
	str	r3, [r2, #28]
	ldr	r1, [r0, #1344]
	ldr	r3, [r0, #1360]
	ldrb	ip, [r0, #1336]	@ zero_extendqisi2
	ldrb	lr, [r0, #1352]	@ zero_extendqisi2
	mov	r1, r1, asl #8
	orr	r3, ip, r3, asl #24
	uxth	r1, r1
	orr	r3, r3, lr, asl #16
	orr	r3, r3, r1
	str	r3, [r2, #32]
	ldr	r1, [r0, #1376]
	ldr	r3, [r0, #1392]
	ldrb	ip, [r0, #1368]	@ zero_extendqisi2
	ldrb	lr, [r0, #1384]	@ zero_extendqisi2
	mov	r1, r1, asl #8
	orr	r3, ip, r3, asl #24
	uxth	r1, r1
	orr	r3, r3, lr, asl #16
	orr	r3, r3, r1
	str	r3, [r2, #36]
	ldr	r1, [r0, #1344]
	ldrb	lr, [r0, #1337]	@ zero_extendqisi2
	ldrb	r3, [r0, #1361]	@ zero_extendqisi2
	and	r1, r1, #65280
	ldrb	ip, [r0, #1353]	@ zero_extendqisi2
	orr	r1, lr, r1
	orr	r3, r1, r3, asl #24
	orr	r3, r3, ip, asl #16
	str	r3, [r2, #40]
	ldr	r1, [r0, #1376]
	ldrb	lr, [r0, #1369]	@ zero_extendqisi2
	ldrb	r3, [r0, #1393]	@ zero_extendqisi2
	and	r1, r1, #65280
	ldrb	ip, [r0, #1385]	@ zero_extendqisi2
	orr	r1, lr, r1
	orr	r3, r1, r3, asl #24
	orr	r3, r3, ip, asl #16
	str	r3, [r2, #44]
	ldr	r1, [r0, #1352]
	ldrb	lr, [r0, #1338]	@ zero_extendqisi2
	ldrb	r3, [r0, #1362]	@ zero_extendqisi2
	and	r1, r1, #16711680
	ldrb	ip, [r0, #1346]	@ zero_extendqisi2
	orr	r1, lr, r1
	orr	r3, r1, r3, asl #24
	orr	r3, r3, ip, asl #8
	str	r3, [r2, #48]
	ldrb	lr, [r0, #1370]	@ zero_extendqisi2
	ldr	r1, [r0, #1384]
	ldrb	r3, [r0, #1394]	@ zero_extendqisi2
	ldrb	ip, [r0, #1378]	@ zero_extendqisi2
	and	r1, r1, #16711680
	orr	r1, lr, r1
	orr	r3, r1, r3, asl #24
	orr	r3, r3, ip, asl #8
	str	r3, [r2, #52]
	ldr	r1, [r0, #1360]
	ldrb	lr, [r0, #1339]	@ zero_extendqisi2
	ldrb	r3, [r0, #1355]	@ zero_extendqisi2
	and	r1, r1, #-16777216
	ldrb	ip, [r0, #1347]	@ zero_extendqisi2
	orr	r1, lr, r1
	orr	r3, r1, r3, asl #16
	orr	r3, r3, ip, asl #8
	str	r3, [r2, #56]
	ldr	r1, [r0, #1392]
	ldrb	ip, [r0, #1371]	@ zero_extendqisi2
	ldrb	r3, [r0, #1387]	@ zero_extendqisi2
	and	r1, r1, #-16777216
	ldrb	r0, [r0, #1379]	@ zero_extendqisi2
	orr	r1, ip, r1
	orr	r3, r1, r3, asl #16
	orr	r3, r3, r0, asl #8
	str	r3, [r2, #60]
	ldmfd	sp, {r4, fp, sp, pc}
	UNWIND(.fnend)
	.size	HEVC_WriteQmatrix_16x16, .-HEVC_WriteQmatrix_16x16
	.global	__aeabi_idivmod
	.align	2
	.global	HEVC_CtbRsAddrToTsAddr
	.type	HEVC_CtbRsAddrToTsAddr, %function
HEVC_CtbRsAddrToTsAddr:
	UNWIND(.fnstart)
	@ args = 0, pretend = 0, frame = 200
	@ frame_needed = 1, uses_anonymous_args = 0
	UNWIND(.movsp ip)
	mov	ip, sp
	stmfd	sp!, {r4, r5, r6, r7, r8, r9, r10, fp, ip, lr, pc}
	UNWIND(.pad #4)
	UNWIND(.save {r4, r5, r6, r7, r8, r9, r10, fp, ip, lr})
	UNWIND(.setfp fp, ip, #-4)
	sub	fp, ip, #4
	UNWIND(.pad #204)
	sub	sp, sp, #204
	add	r0, r0, #24576
	mov	r6, r1
	ldr	ip, [r0, #2608]
	ldrb	r3, [ip, #13]	@ zero_extendqisi2
	cmp	r3, #0
	beq	.L393
	ldr	r3, [ip, #72]
	ldr	r7, [ip, #68]
	ldrb	r4, [ip, #15]	@ zero_extendqisi2
	mov	r2, r3
	str	r3, [fp, #-236]
	ldr	r3, [r0, #2604]
	cmp	r2, #0
	sub	r8, r2, #1
	sub	r2, r7, #1
	str	r2, [fp, #-240]
	ldr	r5, [r3, #72]
	ldr	r1, [r3, #148]
	ble	.L364
	ldr	r3, [fp, #-236]
	add	r2, ip, #214
	sub	r0, fp, #216
	add	lr, r3, #107
	add	lr, ip, lr, lsl #1
.L363:
	ldrsh	r3, [r2, #2]!
	cmp	r2, lr
	sub	r3, r3, #1
	str	r3, [r0, #4]!
	bne	.L363
.L364:
	cmp	r7, #0
	ble	.L362
	add	r3, r7, #87
	add	r2, ip, #174
	sub	r0, fp, #128
	add	ip, ip, r3, lsl #1
.L367:
	ldrsh	r3, [r2, #2]!
	cmp	r2, ip
	sub	r3, r3, #1
	str	r3, [r0, #4]!
	bne	.L367
.L362:
	mov	r10, #1
	mov	r0, r5
	mov	r10, r10, asl r1
	mov	r1, r10
	bl	__aeabi_idiv
	mov	r1, r10
	mov	r9, r0
	mov	r0, r5
	bl	__aeabi_idivmod
	mov	r0, r6
	cmp	r1, #0
	addne	r9, r9, #1
	mov	r1, r9
	bl	__aeabi_idivmod
	mov	r0, r6
	mov	r5, r1
	mov	r1, r9
	bl	__aeabi_idiv
	cmp	r4, #0
	beq	.L405
	cmp	r8, #0
	mov	r3, #0
	blt	.L384
	sub	r10, fp, #212
	mov	r4, r3
	mov	r6, r3
	mov	r8, r3
	str	r3, [fp, #-232]
	str	r3, [fp, #-244]
.L370:
	ldr	r2, [fp, #-240]
	cmp	r2, #0
	blt	.L387
	ldr	r8, [r10]
	mov	r2, #0
	ldr	r3, [fp, #-232]
	mov	r1, r2
	add	r8, r8, #1
	sub	lr, fp, #128
	mov	r6, r4
	add	r9, r3, r8
	b	.L373
.L385:
	mov	r6, r4
.L373:
	ldr	r3, [lr, #4]!
	add	r1, r1, #1
	add	r3, r3, #1
	add	ip, r2, r3
	cmp	r5, ip
	mla	r4, r8, r3, r4
	bge	.L371
	cmp	r0, r9
	blt	.L403
.L371:
	cmp	r1, r7
	mov	r2, ip
	bne	.L385
.L376:
	add	r2, ip, r3
	cmp	r5, r2
	bge	.L386
	cmp	r0, r9
	blt	.L406
.L386:
	ldr	r2, [fp, #-244]
	add	r10, r10, #4
	ldr	r1, [fp, #-236]
	add	r2, r2, #1
	str	r9, [fp, #-232]
	cmp	r2, r1
	str	r2, [fp, #-244]
	bne	.L370
	rsb	r0, r9, r0
	mov	r2, ip
	rsb	r2, r2, r5
	mul	r3, r0, r3
	add	r3, r2, r3
	add	r6, r3, r6
.L393:
	mov	r0, r6
	sub	sp, fp, #40
	ldmfd	sp, {r4, r5, r6, r7, r8, r9, r10, fp, sp, pc}
.L405:
	cmp	r8, #0
	mov	r3, r4
	blt	.L384
	sub	r10, fp, #212
	mov	lr, r4
	mov	r6, r4
	mov	r8, r4
	str	r4, [fp, #-232]
	str	r4, [fp, #-244]
.L369:
	ldr	r2, [fp, #-240]
	cmp	r2, #0
	blt	.L390
	ldr	r8, [r10]
	mov	r2, #0
	ldr	r3, [fp, #-232]
	mov	ip, r2
	add	r8, r8, #1
	sub	r4, fp, #128
	mov	r6, lr
	add	r9, r3, r8
	b	.L379
.L388:
	mov	r6, lr
.L379:
	ldr	r3, [r4, #4]!
	add	ip, ip, #1
	add	r3, r3, #1
	add	r1, r2, r3
	cmp	r5, r1
	mla	lr, r8, r3, lr
	bge	.L377
	cmp	r0, r9
	blt	.L378
.L377:
	cmp	ip, r7
	mov	r2, r1
	bne	.L388
.L382:
	add	r2, r1, r3
	cmp	r5, r2
	bge	.L402
	cmp	r0, r9
	blt	.L407
.L402:
	ldr	r2, [fp, #-244]
	add	r10, r10, #4
	ldr	ip, [fp, #-236]
	add	r2, r2, #1
	str	r9, [fp, #-232]
	cmp	r2, ip
	str	r2, [fp, #-244]
	bne	.L369
	rsb	r0, r9, r0
	mov	r2, r1
	mul	r3, r0, r3
	b	.L368
.L403:
	ldr	r1, [fp, #-232]
	rsb	r0, r1, r0
	mul	r3, r0, r3
.L368:
	rsb	r2, r2, r5
	add	r3, r2, r3
	add	r6, r3, r6
	mov	r0, r6
	sub	sp, fp, #40
	ldmfd	sp, {r4, r5, r6, r7, r8, r9, r10, fp, sp, pc}
.L378:
	cmp	r1, r5
	bgt	.L403
	mov	r1, r2
	b	.L402
.L387:
	ldr	r2, [fp, #-232]
	mov	ip, #0
	add	r9, r2, r8
	b	.L376
.L390:
	ldr	r2, [fp, #-232]
	mov	r1, #0
	add	r9, r2, r8
	b	.L382
.L406:
	ldr	r2, [fp, #-232]
	rsb	r0, r2, r0
	mov	r2, ip
	mul	r3, r0, r3
	b	.L368
.L407:
	ldr	r2, [fp, #-232]
	rsb	r0, r2, r0
	mov	r2, r1
	mul	r3, r0, r3
	b	.L368
.L384:
	mov	r2, r3
	mov	r6, r3
	b	.L368
	UNWIND(.fnend)
	.size	HEVC_CtbRsAddrToTsAddr, .-HEVC_CtbRsAddrToTsAddr
	.align	2
	.global	HEVC_CtbTsAddrToRsAddr
	.type	HEVC_CtbTsAddrToRsAddr, %function
HEVC_CtbTsAddrToRsAddr:
	UNWIND(.fnstart)
	@ args = 0, pretend = 0, frame = 200
	@ frame_needed = 1, uses_anonymous_args = 0
	UNWIND(.movsp ip)
	mov	ip, sp
	stmfd	sp!, {r4, r5, r6, r7, r8, r9, r10, fp, ip, lr, pc}
	UNWIND(.pad #4)
	UNWIND(.save {r4, r5, r6, r7, r8, r9, r10, fp, ip, lr})
	UNWIND(.setfp fp, ip, #-4)
	sub	fp, ip, #4
	UNWIND(.pad #204)
	sub	sp, sp, #204
	add	r0, r0, #24576
	mov	r7, r1
	ldr	lr, [r0, #2608]
	ldrb	r3, [lr, #13]	@ zero_extendqisi2
	cmp	r3, #0
	moveq	r0, r1
	beq	.L432
	ldr	r3, [lr, #72]
	ldr	r8, [lr, #68]
	mov	r2, r3
	str	r3, [fp, #-232]
	ldr	r3, [r0, #2604]
	cmp	r2, #0
	ldr	r4, [r3, #72]
	ldr	ip, [r3, #148]
	ble	.L414
	ldr	r3, [fp, #-232]
	add	r2, lr, #214
	sub	r1, fp, #216
	add	r0, r3, #107
	add	r0, lr, r0, lsl #1
.L413:
	ldrsh	r3, [r2, #2]!
	cmp	r2, r0
	sub	r3, r3, #1
	str	r3, [r1, #4]!
	bne	.L413
.L414:
	cmp	r8, #0
	ble	.L412
	add	r0, r8, #87
	add	r2, lr, #174
	sub	r1, fp, #128
	add	r0, lr, r0, lsl #1
.L417:
	ldrsh	r3, [r2, #2]!
	cmp	r2, r0
	sub	r3, r3, #1
	str	r3, [r1, #4]!
	bne	.L417
.L412:
	mov	r5, #1
	mov	r0, r4
	mov	r5, r5, asl ip
	mov	r1, r5
	bl	__aeabi_idiv
	mov	r1, r5
	mov	r6, r0
	mov	r0, r4
	bl	__aeabi_idivmod
	ldr	r3, [fp, #-232]
	cmp	r1, #0
	addne	r6, r6, #1
	cmp	r3, #0
	str	r6, [fp, #-240]
	ble	.L416
	mov	r9, #0
	ldr	r2, [fp, #-124]
	sub	r0, fp, #212
	mov	r10, r9
	mov	r3, r9
	mov	r1, r9
	mov	r6, r9
	mov	r4, r9
	add	r2, r2, #1
	str	r2, [fp, #-236]
.L418:
	cmp	r8, #0
	ble	.L428
	ldr	r6, [r0]
	ldr	r4, [fp, #-236]
	add	r6, r6, #1
	mla	ip, r6, r4, r3
	cmp	r7, ip
	blt	.L429
	mov	r5, #0
	mov	r1, r3
	mov	r2, r5
	mov	r3, ip
	sub	lr, fp, #124
	b	.L423
.L420:
	ldr	r4, [lr, #4]!
	mov	r1, r3
	add	r4, r4, #1
	mla	ip, r6, r4, r3
	cmp	ip, r7
	bgt	.L421
	mov	r3, ip
.L423:
	add	r2, r2, #1
	add	r5, r5, r4
	cmp	r2, r8
	bne	.L420
.L422:
	cmp	r3, r7
	bgt	.L427
	ldr	r2, [fp, #-232]
	add	r10, r10, #1
	add	r9, r9, r6
	add	r0, r0, #4
	cmp	r10, r2
	bne	.L418
.L427:
	mov	r3, r1
.L421:
	cmp	r4, #0
	beq	.L416
	rsb	r7, r3, r7
	mov	r1, r4
	mov	r0, r7
	bl	__aeabi_idiv
	ldr	r3, [fp, #-240]
	mov	r1, r4
	add	r4, r0, r9
	mov	r0, r7
	mul	r4, r4, r3
	bl	__aeabi_idivmod
	add	r1, r1, r5
	add	r0, r4, r1
.L432:
	sub	sp, fp, #40
	ldmfd	sp, {r4, r5, r6, r7, r8, r9, r10, fp, sp, pc}
.L428:
	mov	r5, #0
	b	.L422
.L429:
	ldr	r4, [fp, #-236]
	mov	r5, #0
	b	.L421
.L416:
	ldr	r3, .L434
	mov	r0, #1
	ldr	r1, .L434+4
	ldr	r3, [r3, #68]
	blx	r3
	mvn	r0, #0
	b	.L432
.L435:
	.align	2
.L434:
	.word	vfmw_Osal_Func_Ptr_S
	.word	.LC58
	UNWIND(.fnend)
	.size	HEVC_CtbTsAddrToRsAddr, .-HEVC_CtbTsAddrToRsAddr
	.align	2
	.global	HEVC_CalcTileMap
	.type	HEVC_CalcTileMap, %function
HEVC_CalcTileMap:
	UNWIND(.fnstart)
	@ args = 0, pretend = 0, frame = 40
	@ frame_needed = 1, uses_anonymous_args = 0
	UNWIND(.movsp ip)
	mov	ip, sp
	stmfd	sp!, {r4, r5, r6, r7, r8, r9, r10, fp, ip, lr, pc}
	UNWIND(.pad #4)
	UNWIND(.save {r4, r5, r6, r7, r8, r9, r10, fp, ip, lr})
	UNWIND(.setfp fp, ip, #-4)
	sub	fp, ip, #4
	UNWIND(.pad #44)
	sub	sp, sp, #44
	ldr	r4, .L459
	mov	r5, r0
	str	r0, [fp, #-60]
	mov	r2, #147456
	mov	r1, #0
	ldr	r3, [r4, #48]
	add	r10, r5, #24576
	ldr	r0, .L459+4
	blx	r3
	ldr	r3, [r4, #48]
	mov	r2, #36864
	mov	r1, #0
	ldr	r0, .L459+8
	blx	r3
	add	r0, r5, #53760
	ldr	r3, [r4, #48]
	mov	r2, #880
	mov	r1, #0
	add	r0, r0, #248
	blx	r3
	add	r2, r5, #53248
	mov	r3, #0
	str	r2, [fp, #-56]
	str	r3, [r2, #756]
	ldr	r9, [r10, #2608]
	ldr	r1, [r10, #2604]
	ldr	r2, [r9, #72]
	ldr	r8, [r1, #240]
	cmp	r2, r3
	strne	r3, [fp, #-72]
	strne	r3, [fp, #-76]
	beq	.L436
.L444:
	ldr	r2, [r9, #68]
	cmp	r2, #0
	ldr	r2, [fp, #-72]
	add	r2, r2, #108
	streq	r2, [fp, #-80]
	beq	.L445
	mov	r1, r2
	str	r2, [fp, #-80]
	mov	r7, r1, asl #1
	ldr	r1, [fp, #-76]
	mov	r2, #0
	str	r2, [fp, #-48]
	str	r2, [fp, #-52]
	mul	r1, r8, r1
	ldr	r2, [fp, #-56]
	ldr	r2, [r2, #756]
	str	r1, [fp, #-68]
.L443:
	add	r1, r2, #6720
	ldr	r0, [fp, #-60]
	add	r1, r1, #30
	add	r1, r0, r1, lsl #3
	str	r3, [r1, #8]
	ldrsh	r1, [r9, r7]
	cmp	r1, #0
	ldreq	r1, [fp, #-48]
	addeq	r1, r1, #88
	streq	r1, [fp, #-64]
	beq	.L439
	ldr	r2, [fp, #-48]
	mov	r5, #0
	ldr	r1, [fp, #-52]
	add	r2, r2, #88
	ldr	r0, [fp, #-68]
	str	r2, [fp, #-64]
	add	r6, r1, r0
	mov	ip, r2, asl #1
.L440:
	ldrsh	r2, [r9, ip]
	cmp	r2, #0
	beq	.L442
	ldr	r2, .L459+4
	rsb	lr, r3, r6
	mov	r4, r3
	add	r2, r2, r3, lsl #2
.L441:
	add	r1, lr, r3
	str	r1, [r2], #4
	ldr	r9, [r10, #2608]
	add	r3, r3, #1
	rsb	r1, r4, r3
	ldrsh	r0, [r9, ip]
	cmp	r0, r1
	bhi	.L441
.L442:
	ldrsh	r2, [r9, r7]
	add	r5, r5, #1
	add	r6, r6, r8
	cmp	r2, r5
	bhi	.L440
	ldr	r2, [fp, #-56]
	ldr	r2, [r2, #756]
.L439:
	ldr	r1, [fp, #-60]
	sub	ip, r3, #1
	ldr	r0, [fp, #-64]
	add	r1, r1, r2, lsl #3
	ldr	lr, [fp, #-48]
	add	r1, r1, #53760
	add	r2, r2, #1
	mov	r0, r0, asl #1
	add	lr, lr, #1
	str	ip, [r1, #252]
	ldr	r1, [fp, #-56]
	str	lr, [fp, #-48]
	str	r2, [r1, #756]
	ldr	r1, [r9, #68]
	ldrsh	r0, [r9, r0]
	cmp	r1, lr
	ldr	r1, [fp, #-52]
	add	r1, r1, r0
	str	r1, [fp, #-52]
	bhi	.L443
.L445:
	ldr	r2, [fp, #-80]
	ldr	r0, [fp, #-72]
	ldr	r1, [r9, #72]
	mov	r2, r2, asl #1
	add	r0, r0, #1
	cmp	r1, r0
	ldr	r1, [fp, #-76]
	ldrsh	r2, [r9, r2]
	str	r0, [fp, #-72]
	add	r2, r1, r2
	str	r2, [fp, #-76]
	bhi	.L444
.L436:
	sub	sp, fp, #40
	ldmfd	sp, {r4, r5, r6, r7, r8, r9, r10, fp, sp, pc}
.L460:
	.align	2
.L459:
	.word	vfmw_Osal_Func_Ptr_S
	.word	.LANCHOR2+448
	.word	.LANCHOR3+592
	UNWIND(.fnend)
	.size	HEVC_CalcTileMap, .-HEVC_CalcTileMap
	.align	2
	.global	HEVC_WritePicMsg
	.type	HEVC_WritePicMsg, %function
HEVC_WritePicMsg:
	UNWIND(.fnstart)
	@ args = 0, pretend = 0, frame = 0
	@ frame_needed = 1, uses_anonymous_args = 0
	UNWIND(.movsp ip)
	mov	ip, sp
	stmfd	sp!, {r3, r4, r5, r6, r7, r8, r9, r10, fp, ip, lr, pc}
	UNWIND(.pad #4)
	UNWIND(.save {r3, r4, r5, r6, r7, r8, r9, r10, fp, ip, lr})
	UNWIND(.setfp fp, ip, #-4)
	sub	fp, ip, #4
	ldr	r9, .L483
	add	r7, r0, #40960
	mov	r5, r0
	ldr	r1, .L483+4
	ldr	r2, [r7, #2268]
	mov	r0, #2
	ldr	ip, [r9, #68]
	add	r4, r5, #49152
	ldr	r3, [r7, #2052]
	add	r8, r5, #53248
	blx	ip
	ldr	r3, [r9, #68]
	ldr	r1, .L483+8
	mov	r0, #4
	blx	r3
	ldr	r3, [r7, #2264]
	mov	ip, #0
	add	r10, r5, #24576
	add	r1, r5, #2912
	add	r0, r5, #51456
	str	r3, [r4, #3492]
	add	r1, r1, #8
	ldr	r3, [r7, #2176]
	mov	r2, #64
	ldr	lr, [r7, #2180]
	add	r0, r0, #20
	rsb	lr, r3, lr
	str	lr, [r4, #3496]
	ldr	lr, [r7, #2268]
	str	lr, [r4, #3484]
	ldr	lr, [r7, #2052]
	str	lr, [r4, #3488]
	ldr	lr, [r7, #2216]
	str	lr, [r4, #3500]
	ldr	lr, [r7, #2204]
	rsb	r3, r3, lr
	str	r3, [r4, #3504]
	ldr	r3, [r7, #2212]
	rsb	r3, lr, r3
	str	r3, [r4, #3508]
	str	ip, [r5, #208]
	ldr	r3, [r8, #3248]
	str	r3, [r8, #528]
	ldr	r3, [r10, #2604]
	ldrb	ip, [r3, #13]	@ zero_extendqisi2
	strb	ip, [r4, #2204]
	ldrb	ip, [r3, #6]	@ zero_extendqisi2
	strb	ip, [r4, #2205]
	ldrb	ip, [r3, #10]	@ zero_extendqisi2
	strb	ip, [r4, #2206]
	ldrb	ip, [r3, #9]	@ zero_extendqisi2
	strb	ip, [r4, #2207]
	ldrb	ip, [r3, #8]	@ zero_extendqisi2
	strb	ip, [r4, #2208]
	ldr	ip, [r3, #64]
	str	ip, [r4, #2212]
	ldr	ip, [r3, #116]
	strb	ip, [r4, #2216]
	ldr	ip, [r3, #244]
	sub	ip, ip, #1
	str	ip, [r4, #2220]
	ldr	ip, [r3, #240]
	sub	ip, ip, #1
	str	ip, [r4, #2224]
	ldr	ip, [r7, #2024]
	str	ip, [r4, #2228]
	ldr	ip, [r10, #2608]
	ldr	lr, [ip, #84]
	sub	lr, lr, #2
	str	lr, [r4, #2232]
	ldrb	lr, [ip, #11]	@ zero_extendqisi2
	strb	lr, [r4, #2236]
	ldrb	ip, [ip, #10]	@ zero_extendqisi2
	strb	ip, [r4, #2237]
	ldr	ip, [r3, #200]
	str	ip, [r4, #2240]
	ldr	ip, [r3, #208]
	str	ip, [r4, #2244]
	ldr	ip, [r3, #188]
	str	ip, [r4, #2248]
	ldr	ip, [r3, #196]
	str	ip, [r4, #2252]
	ldr	ip, [r3, #172]
	str	ip, [r4, #2256]
	ldr	ip, [r3, #180]
	str	ip, [r4, #2260]
	ldr	ip, [r3, #216]
	str	ip, [r4, #2264]
	ldr	ip, [r3, #140]
	str	ip, [r4, #2268]
	ldr	ip, [r3, #148]
	str	ip, [r4, #2272]
	ldr	ip, [r3, #112]
	str	ip, [r4, #2276]
	ldr	lr, [r3, #104]
	ldr	ip, [r9, #52]
	str	lr, [r4, #2280]
	ldr	lr, [r3, #124]
	str	lr, [r4, #2284]
	ldr	lr, [r3, #120]
	str	lr, [r4, #2288]
	ldr	lr, [r3, #108]
	str	lr, [r4, #2292]
	ldr	r3, [r3, #100]
	str	r3, [r4, #2296]
	blx	ip
	ldr	ip, [r10, #2604]
	add	r3, r5, #53504
	add	r1, r5, #52992
	add	r1, r1, #32
	mov	r0, r5
	ldr	lr, [ip, #76]
	mov	r2, r3
	add	r3, r3, #112
	add	r2, r2, #32
	str	lr, [r4, #2388]
	ldr	ip, [ip, #72]
	str	ip, [r4, #2392]
	bl	HEVC_CalcTileInfo
	subs	r6, r0, #0
	bne	.L481
	ldr	r3, [r10, #2608]
	ldrb	r2, [r3, #16]	@ zero_extendqisi2
	strb	r2, [r4, #2416]
	ldrb	r2, [r3, #7]	@ zero_extendqisi2
	strb	r2, [r4, #2417]
	ldrb	r2, [r3, #3]	@ zero_extendqisi2
	strb	r2, [r4, #2418]
	ldrb	r2, [r3, #14]	@ zero_extendqisi2
	strb	r2, [r4, #2419]
	ldrb	r2, [r3, #15]	@ zero_extendqisi2
	strb	r2, [r4, #2420]
	ldrb	r2, [r3, #13]	@ zero_extendqisi2
	strb	r2, [r4, #2421]
	ldr	r2, [r10, #2604]
	ldr	r1, [r3, #56]
	ldr	r2, [r2, #148]
	rsb	r2, r1, r2
	str	r2, [r3, #88]
	ldr	r3, [r10, #2608]
	ldr	r2, [r3, #88]
	str	r2, [r4, #2424]
	ldr	r2, [r3, #52]
	str	r2, [r4, #2428]
	ldrb	r2, [r3, #8]	@ zero_extendqisi2
	strb	r2, [r4, #2432]
	ldrb	r2, [r3, #12]	@ zero_extendqisi2
	strb	r2, [r4, #2433]
	ldrb	r2, [r3, #6]	@ zero_extendqisi2
	strb	r2, [r4, #2434]
	ldr	r2, [r3, #60]
	str	r2, [r4, #2436]
	ldr	r2, [r3, #64]
	str	r2, [r4, #2440]
	ldr	r2, [r3, #72]
	sub	r2, r2, #1
	str	r2, [r4, #2444]
	ldr	r2, [r3, #68]
	sub	r2, r2, #1
	str	r2, [r4, #2448]
	ldrb	r2, [r3, #10]	@ zero_extendqisi2
	strb	r2, [r4, #2237]
	ldrb	r3, [r3, #11]	@ zero_extendqisi2
	strb	r3, [r4, #2236]
	ldr	r3, [r7, #2068]
	ldr	r0, [r5, #244]
	ldr	r1, [r3, #32]
	bl	FSP_GetLogicFs
	subs	r10, r0, #0
	beq	.L482
	ldr	r2, [r10, #520]
	ldr	r3, [r10, #524]
	cmp	r2, #0
	beq	.L466
	cmp	r3, #0
	beq	.L466
	add	r3, r5, #52736
	add	r2, r5, #52480
	add	r2, r2, #196
	ldr	r0, [r5, #244]
	mov	r1, r3
	add	r3, r3, #160
	add	r1, r1, #68
	bl	FSP_GetDecFsAddrTab
	ldr	r3, [r10, #520]
	add	r2, r5, #52736
	ldr	r3, [r3, #4]
	mov	r1, r2
	add	r2, r2, #72
	add	r1, r1, #152
	str	r3, [r4, #3484]
	ldr	r0, [r5, #244]
	bl	FSP_GetPmvAddrTab
	ldr	r3, [r7, #2052]
	str	r3, [r4, #3488]
	ldr	r3, [r10, #536]
	str	r3, [r4, #3740]
	ldr	r3, [r10, #524]
	ldr	r3, [r3, #12]
	str	r3, [r8, #748]
	ldr	r3, [r10, #524]
	ldr	r3, [r3, #44]
	str	r3, [r8, #752]
	ldr	ip, [r5, #2784]
	cmp	ip, #0
	str	ip, [r8, #520]
	beq	.L468
	add	r2, r5, #2848
	add	r3, r5, #53504
	add	r2, r2, #4
	add	r3, r3, #196
	mov	r0, r6
.L469:
	add	r0, r0, #1
	ldr	r1, [r2, #4]!
	cmp	r0, ip
	str	r1, [r3, #4]!
	bne	.L469
.L468:
	add	r8, r5, #51456
	mov	r6, #0
	add	r8, r8, #152
.L470:
	mov	r2, r8
	mov	r0, r6
	mov	r1, r5
	add	r6, r6, #1
	bl	HEVC_WriteQmatrix_8x8
	cmp	r6, #4
	add	r8, r8, #64
	bne	.L470
	add	r2, r5, #51712
	mov	r0, r6
	add	r2, r2, #152
	mov	r1, r5
	bl	HEVC_WriteQmatrix_8x8
	add	r2, r5, #51712
	add	r2, r2, #216
	mov	r1, r5
	mov	r0, #5
	add	r8, r5, #51968
	bl	HEVC_WriteQmatrix_8x8
	add	r2, r8, #24
	mov	r1, r5
	mov	r0, #0
	bl	HEVC_WriteQmatrix_16x16
	add	r2, r5, #51968
	add	r2, r2, #88
	mov	r1, r5
	mov	r0, #1
	add	r8, r8, #152
	mov	r6, #2
	bl	HEVC_WriteQmatrix_16x16
.L471:
	mov	r2, r8
	mov	r0, r6
	mov	r1, r5
	add	r6, r6, #1
	bl	HEVC_WriteQmatrix_16x16
	cmp	r6, #6
	add	r8, r8, #64
	bne	.L471
	add	r2, r5, #52224
	mov	r1, r5
	add	r2, r2, #152
	mov	r0, #0
	bl	HEVC_WriteQmatrix_32x32
	add	r2, r5, #52224
	add	r2, r2, #216
	mov	r1, r5
	mov	r0, #1
	add	r8, r5, #52480
	bl	HEVC_WriteQmatrix_32x32
	add	r8, r8, #24
	mov	r6, #0
.L472:
	mov	r2, r8
	mov	r0, r6
	mov	r1, r5
	add	r6, r6, #1
	bl	HEVC_WriteQmatrix_4x4
	cmp	r6, #6
	add	r8, r8, #16
	bne	.L472
	ldr	r1, [r5, #2252]
	mov	r0, #0
	ldr	r3, [r5, #2256]
	ldr	r2, [r5, #2244]
	ldr	ip, [r5, #2248]
	mov	r1, r1, asl #16
	orr	r3, r1, r3, asl #24
	orr	r3, r3, r2
	orr	r3, r3, ip, asl #8
	str	r3, [r4, #3448]
	ldr	r1, [r5, #2268]
	ldr	r3, [r5, #2272]
	ldr	r2, [r5, #2260]
	ldr	ip, [r5, #2264]
	mov	r1, r1, asl #16
	orr	r3, r1, r3, asl #24
	orr	r3, r3, r2
	orr	r3, r3, ip, asl #8
	str	r3, [r4, #3452]
	ldr	r3, [r7, #2052]
	str	r3, [r4, #3480]
	ldmfd	sp, {r3, r4, r5, r6, r7, r8, r9, r10, fp, sp, pc}
.L481:
	ldr	r3, [r9, #68]
	mov	r0, #1
	ldr	r2, .L483+12
	ldr	r1, .L483+16
	blx	r3
	mvn	r0, #0
	ldmfd	sp, {r3, r4, r5, r6, r7, r8, r9, r10, fp, sp, pc}
.L466:
	ldr	ip, [r9, #68]
	mov	r0, #1
	ldr	r1, .L483+20
	blx	ip
	mvn	r0, #0
	ldmfd	sp, {r3, r4, r5, r6, r7, r8, r9, r10, fp, sp, pc}
.L482:
	ldr	r2, [r7, #2068]
	mov	r0, #1
	ldr	r3, [r9, #68]
	ldr	r1, .L483+24
	ldr	r2, [r2, #32]
	blx	r3
	mvn	r0, #0
	ldmfd	sp, {r3, r4, r5, r6, r7, r8, r9, r10, fp, sp, pc}
.L484:
	.align	2
.L483:
	.word	vfmw_Osal_Func_Ptr_S
	.word	.LC59
	.word	.LC60
	.word	.LANCHOR1+208
	.word	.LC61
	.word	.LC63
	.word	.LC62
	UNWIND(.fnend)
	.size	HEVC_WritePicMsg, .-HEVC_WritePicMsg
	.align	2
	.global	HEVC_CheckListX
	.type	HEVC_CheckListX, %function
HEVC_CheckListX:
	UNWIND(.fnstart)
	@ args = 0, pretend = 0, frame = 0
	@ frame_needed = 1, uses_anonymous_args = 0
	UNWIND(.movsp ip)
	mov	ip, sp
	stmfd	sp!, {fp, ip, lr, pc}
	UNWIND(.pad #4)
	UNWIND(.save {fp, ip, lr})
	UNWIND(.setfp fp, ip, #-4)
	sub	fp, ip, #4
	add	r3, r0, #40960
	ldrb	r3, [r3, #2579]	@ zero_extendqisi2
	cmp	r3, #0
	addeq	r3, r0, #43520
	addne	r3, r0, #47104
	addeq	r3, r3, #16
	addne	r3, r3, #164
	ldr	ip, [r3, #160]
	ldr	lr, [r3, #164]
	cmp	ip, #16
	bhi	.L519
	cmp	lr, #16
	bhi	.L490
	cmp	ip, #0
	beq	.L491
	ldr	r3, [r0, #2320]
	cmp	r3, #0
	beq	.L504
	ldr	r3, [r3, #32]
	cmp	r3, #0
	addne	r1, r0, #2320
	movne	r2, #0
	bne	.L496
	b	.L520
.L497:
	ldr	r3, [r1, #4]!
	cmp	r3, #0
	beq	.L492
	ldr	r3, [r3, #32]
	cmp	r3, #0
	beq	.L493
.L496:
	add	r2, r2, #1
	cmp	r2, ip
	bne	.L497
.L491:
	cmp	lr, #0
	beq	.L516
	ldr	r3, [r0, #2388]
	cmp	r3, #0
	beq	.L507
	ldr	r3, [r3, #32]
	cmp	r3, #0
	addne	r0, r0, #2384
	movne	r2, #0
	addne	r0, r0, #4
	bne	.L502
	b	.L521
.L503:
	ldr	r3, [r0, #4]!
	cmp	r3, #0
	beq	.L498
	ldr	r3, [r3, #32]
	cmp	r3, #0
	beq	.L499
.L502:
	add	r2, r2, #1
	cmp	r2, lr
	bne	.L503
.L516:
	mov	r0, #0
	ldmfd	sp, {fp, sp, pc}
.L504:
	mov	r2, r3
.L492:
	ldr	r3, .L522
	mov	r0, #0
	ldr	r1, .L522+4
	ldr	r3, [r3, #68]
	blx	r3
	mvn	r0, #0
	ldmfd	sp, {fp, sp, pc}
.L520:
	mov	r2, r3
.L493:
	ldr	r3, .L522
	mov	r0, #0
	ldr	r1, .L522+8
	ldr	r3, [r3, #68]
	blx	r3
	mvn	r0, #0
	ldmfd	sp, {fp, sp, pc}
.L507:
	mov	r2, r3
.L498:
	ldr	r3, .L522
	mov	r0, #0
	ldr	r1, .L522+12
	ldr	r3, [r3, #68]
	blx	r3
	mvn	r0, #0
	ldmfd	sp, {fp, sp, pc}
.L521:
	mov	r2, r3
.L499:
	ldr	r3, .L522
	mov	r0, #0
	ldr	r1, .L522+16
	ldr	r3, [r3, #68]
	blx	r3
	mvn	r0, #0
	ldmfd	sp, {fp, sp, pc}
.L519:
	ldr	lr, .L522
	mov	r2, ip
	mov	r3, #17
	ldr	r1, .L522+20
	mov	r0, #0
	ldr	ip, [lr, #68]
	blx	ip
	mvn	r0, #0
	ldmfd	sp, {fp, sp, pc}
.L490:
	ldr	ip, .L522
	mov	r2, lr
	mov	r3, #17
	ldr	r1, .L522+24
	mov	r0, #0
	ldr	ip, [ip, #68]
	blx	ip
	mvn	r0, #0
	ldmfd	sp, {fp, sp, pc}
.L523:
	.align	2
.L522:
	.word	vfmw_Osal_Func_Ptr_S
	.word	.LC66
	.word	.LC67
	.word	.LC68
	.word	.LC69
	.word	.LC64
	.word	.LC65
	UNWIND(.fnend)
	.size	HEVC_CheckListX, .-HEVC_CheckListX
	.global	__aeabi_uidivmod
	.align	2
	.global	HEVC_WriteSliceMsg
	.type	HEVC_WriteSliceMsg, %function
HEVC_WriteSliceMsg:
	UNWIND(.fnstart)
	@ args = 0, pretend = 0, frame = 72
	@ frame_needed = 1, uses_anonymous_args = 0
	UNWIND(.movsp ip)
	mov	ip, sp
	stmfd	sp!, {r4, r5, r6, r7, r8, r9, r10, fp, ip, lr, pc}
	UNWIND(.pad #4)
	UNWIND(.save {r4, r5, r6, r7, r8, r9, r10, fp, ip, lr})
	UNWIND(.setfp fp, ip, #-4)
	sub	fp, ip, #4
	UNWIND(.pad #76)
	sub	sp, sp, #76
	mov	r4, r0
	bl	HEVC_CheckListX
	subs	r3, r0, #0
	str	r3, [fp, #-112]
	ldrne	r1, [r4, #208]
	mvnne	r3, #0
	strne	r3, [fp, #-112]
	bne	.L599
	ldr	r0, [r4, #208]
	ldr	r3, [r4, #144]
	cmp	r0, r3
	bcs	.L601
	add	r9, r4, #53248
	mov	r5, #1360
	ldr	r7, [fp, #-112]
	mov	r2, r5
	ldr	r6, [r9, #3248]
	add	r8, r4, #40960
	ldr	r3, .L604
	mov	r1, r7
	mla	r6, r5, r0, r6
	ldr	r3, [r3, #48]
	mov	r0, r6
	blx	r3
	ldr	r3, .L604
	mov	r2, #64
	mov	r1, r7
	sub	r0, fp, #108
	ldr	r3, [r3, #48]
	blx	r3
	ldr	r3, [r4, #208]
	ldr	r2, [r4, #144]
	add	r3, r3, #1
	str	r3, [r4, #208]
	cmp	r3, r2
	ldrcc	r2, [r9, #3248]
	ldrcs	r3, [fp, #-112]
	mlacc	r3, r5, r3, r2
	str	r3, [r6, #1356]
	ldr	r3, [r4, #216]
	ldr	r0, [r8, #2652]
	add	r1, r3, #14080
	add	r2, r3, #1
	add	r1, r1, #46
	str	r0, [r4, r1, asl #2]
	ldr	r3, [r4, #172]
	str	r2, [r4, #216]
	add	r3, r3, #1
	str	r3, [r4, #172]
	ldr	r2, [r9, #4056]
	mov	r0, r3, asl #5
	ldr	r1, [r8, #2636]
	sub	r3, r0, r3, asl #2
	str	r3, [fp, #-116]
	add	r3, r2, r3
	str	r1, [r3, #8]
	ldr	r2, [r4, #2316]
	ldrb	r1, [r2, #1]	@ zero_extendqisi2
	ldr	r3, [r2, #8]
	cmp	r1, #1
	cmpls	r1, r3
	bcs	.L530
	add	r0, r6, r1, lsl #2
.L531:
	mov	r3, r1, asl #5
	sub	r3, r3, r1, asl #2
	add	r1, r1, #1
	add	r2, r2, r3
	ldr	r2, [r2, #60]
	str	r2, [r0, #8]
	ldr	r2, [r4, #2316]
	add	r2, r2, r3
	ldr	r2, [r2, #56]
	str	r2, [r0], #4
	ldr	r2, [r4, #2316]
	add	r3, r2, r3
	ldr	r3, [r3, #64]
	str	r3, [r0, #12]
	ldr	r2, [r4, #2316]
	ldr	r3, [r2, #8]
	cmp	r3, r1
	movhi	ip, #1
	movls	ip, #0
	cmp	r1, #1
	movhi	ip, #0
	cmp	ip, #0
	bne	.L531
.L530:
	cmp	r3, #1
	addls	r3, r6, r3, lsl #2
	addls	r1, r6, #8
	movls	r2, #0
	bhi	.L536
.L535:
	str	r2, [r3, #8]
	str	r2, [r3], #4
	cmp	r3, r1
	str	r2, [r3, #12]
	bne	.L535
.L536:
	ldrb	r3, [r8, #2579]	@ zero_extendqisi2
	cmp	r3, #0
	beq	.L602
.L534:
	add	r5, r4, #45056
	ldr	r3, [r5, #2372]
	cmp	r3, #0
	beq	.L537
	add	r0, r4, #2320
	add	r10, r6, #112
	add	lr, r6, #368
	mov	r1, #0
.L538:
	ldr	ip, [r0]
	sub	r7, fp, #44
	add	r1, r1, #1
	ldr	r2, [ip, #32]
	ldr	r3, [r2, #24]
	ldr	r2, [r2, #28]
	add	r3, r3, #13184
	add	r3, r3, #16
	add	r2, r7, r2, lsl #2
	add	r3, r4, r3, lsl #2
	ldr	r3, [r3, #8]
	str	r3, [r2, #-64]
	ldr	r3, [ip, #16]
	str	r3, [r10, #4]!
	ldr	r3, [r0], #4
	ldr	r3, [r3, #32]
	ldr	r3, [r3, #28]
	str	r3, [lr, #4]!
	ldr	r3, [r5, #2372]
	cmp	r3, r1
	bhi	.L538
	ldr	r2, [r5, #2376]
	cmp	r2, #0
	beq	.L539
.L562:
	add	r1, r4, #2384
	add	r10, r6, #176
	add	r1, r1, #4
	add	lr, r6, #432
	mov	r0, #0
.L540:
	ldr	ip, [r1]
	sub	r7, fp, #44
	add	r0, r0, #1
	ldr	r2, [ip, #32]
	ldr	r3, [r2, #24]
	ldr	r2, [r2, #28]
	add	r3, r3, #13184
	add	r3, r3, #16
	add	r2, r7, r2, lsl #2
	add	r3, r4, r3, lsl #2
	ldr	r3, [r3, #8]
	str	r3, [r2, #-64]
	ldr	r3, [ip, #16]
	str	r3, [r10, #4]!
	ldr	r3, [r1], #4
	ldr	r3, [r3, #32]
	ldr	r3, [r3, #28]
	str	r3, [lr, #4]!
	ldr	r2, [r5, #2376]
	cmp	r2, r0
	bhi	.L540
	ldr	r3, [r5, #2372]
.L539:
	cmp	r3, #0
	beq	.L541
	ldr	r1, [r6, #372]
	ldr	lr, [r8, #2024]
	add	r1, r1, #728
	add	r1, r1, #2
	ldr	r1, [r4, r1, asl #2]
	cmp	lr, r1
	blt	.L568
	add	ip, r6, #372
	mov	r0, #0
	b	.L543
.L544:
	ldr	r1, [ip, #4]!
	add	r1, r1, #728
	add	r1, r1, #2
	ldr	r1, [r4, r1, asl #2]
	cmp	r1, lr
	bgt	.L568
.L543:
	add	r0, r0, #1
	cmp	r0, r3
	bne	.L544
.L541:
	ldr	r1, [r5, #2272]
	cmp	r1, #0
	bne	.L597
	cmp	r2, #0
	beq	.L597
	ldr	r3, [r6, #436]
	ldr	ip, [r8, #2024]
	add	r3, r3, #728
	add	r3, r3, #2
	ldr	r3, [r4, r3, asl #2]
	cmp	ip, r3
	blt	.L542
	add	r0, r6, #436
	b	.L545
.L546:
	ldr	r3, [r0, #4]!
	add	r3, r3, #728
	add	r3, r3, #2
	ldr	r3, [r4, r3, asl #2]
	cmp	r3, ip
	bgt	.L568
.L545:
	add	r1, r1, #1
	cmp	r1, r2
	bne	.L546
.L597:
	mov	r1, #1
.L542:
	strb	r1, [r6, #24]
	ldrb	r3, [r8, #2579]	@ zero_extendqisi2
	strb	r3, [r6, #25]
	ldr	r3, [r5, #2268]
	str	r3, [r6, #28]
	ldrb	r3, [r5, #2222]	@ zero_extendqisi2
	strb	r3, [r6, #32]
	ldr	r3, [r5, #2292]
	str	r3, [r6, #36]
	ldr	r3, [r5, #2272]
	cmp	r3, #0
	bne	.L547
	ldrb	r3, [r5, #2223]	@ zero_extendqisi2
	cmp	r3, #0
	bne	.L548
	ldr	r3, [r5, #2324]
	add	r3, r6, r3, lsl #2
	ldr	r3, [r3, #436]
	mov	r7, r3
.L549:
	str	r7, [r6, #40]
	add	r10, r4, #24576
	ldr	r3, [r5, #2324]
	str	r3, [r6, #48]
	ldrb	r3, [r5, #2223]	@ zero_extendqisi2
	strb	r3, [r6, #52]
	ldr	r3, [r5, #2328]
	str	r3, [r6, #44]
	ldr	r3, [r5, #2380]
	cmp	r3, #0
	subne	r3, r3, #1
	str	r3, [r6, #60]
	ldr	r3, [r5, #2384]
	cmp	r3, #0
	subne	r3, r3, #1
	str	r3, [r6, #56]
	ldrb	r2, [r5, #2219]	@ zero_extendqisi2
	strb	r2, [r6, #64]
	ldrb	r2, [r5, #2221]	@ zero_extendqisi2
	strb	r2, [r6, #65]
	ldr	r2, [r5, #2372]
	str	r2, [r6, #68]
	ldr	r2, [r5, #2376]
	str	r2, [r6, #72]
	ldr	r2, [r5, #2272]
	str	r2, [r6, #76]
	ldr	r2, [r8, #2656]
	str	r2, [r6, #80]
	ldr	r2, [r10, #2604]
	ldr	r0, [r8, #2656]
	ldr	r1, [r2, #240]
	bl	__aeabi_uidivmod
	str	r1, [r6, #84]
	ldr	r2, [r10, #2604]
	ldr	r0, [r8, #2656]
	ldr	r1, [r2, #240]
	bl	__aeabi_uidiv
	str	r0, [r6, #88]
	mov	r0, r4
	ldr	r1, [r8, #2656]
	bl	HEVC_CtbRsAddrToTsAddr
	str	r0, [r6, #92]
	ldr	r2, [r5, #2336]
	str	r2, [r6, #96]
	ldr	r2, [r5, #2340]
	str	r2, [r6, #100]
	ldr	r2, [r5, #2348]
	str	r2, [r6, #104]
	ldr	r2, [r5, #2344]
	str	r2, [r6, #108]
	ldrb	r2, [r5, #2218]	@ zero_extendqisi2
	strb	r2, [r6, #112]
	ldrb	r2, [r5, #2217]	@ zero_extendqisi2
	strb	r2, [r6, #113]
	ldrb	r2, [r5, #2225]	@ zero_extendqisi2
	strb	r2, [r6, #114]
	ldrb	r2, [r5, #2226]	@ zero_extendqisi2
	strb	r2, [r6, #115]
	ldr	r3, [r10, #2608]
	ldrb	r2, [r3, #10]	@ zero_extendqisi2
	cmp	r2, #0
	beq	.L554
	ldr	r2, [r5, #2272]
	cmp	r2, #1
	beq	.L555
.L554:
	ldrb	r3, [r3, #11]	@ zero_extendqisi2
	cmp	r3, #1
	beq	.L603
.L598:
	add	r8, r4, #49152
.L557:
	ldrb	r3, [r5, #2219]	@ zero_extendqisi2
	ldr	r0, [fp, #-116]
	cmp	r3, #0
	subne	r3, fp, #44
	movne	r2, r7
	addne	r10, r3, r2, lsl #2
	ldrne	r3, [r10, #-64]
	strne	r3, [r6, #564]
	mov	r3, #0
	ldr	r2, [r9, #4056]
	ldr	r1, [r4, #2316]
	add	r2, r2, r0
	str	r1, [r2, #24]
	str	r3, [r4, #2316]
	ldrb	r2, [r8, #2421]	@ zero_extendqisi2
	cmp	r2, r3
	beq	.L577
	ldr	r0, [r4, #216]
	cmp	r0, #1
	ldreq	r2, [r6, #92]
	streq	r2, [r9, #1640]
	beq	.L561
	add	r1, r4, r0, lsl #3
	ldr	ip, [r6, #92]
	add	r1, r1, #54784
	add	r2, r0, #6848
	add	r2, r2, #11
	sub	ip, ip, #1
	str	ip, [r1, #92]
	sub	r3, r0, #1
	ldr	r1, [r6, #92]
	add	r2, r4, r2, lsl #3
	str	r1, [r2, #8]
.L561:
	ldr	r1, [r8, #2224]
	add	r3, r4, r3, lsl #3
	ldr	r2, [r8, #2220]
	add	r3, r3, #54784
	mla	r2, r1, r2, r2
	add	r2, r2, r1
	str	r2, [r3, #108]
	ldr	r1, [r6, #92]
	sub	r1, r1, #1
	cmp	r1, #36864
	bcs	.L577
	mov	r0, r4
	bl	HEVC_CtbTsAddrToRsAddr
	str	r0, [r6, #568]
.L577:
	ldr	r0, [fp, #-112]
	sub	sp, fp, #40
	ldmfd	sp, {r4, r5, r6, r7, r8, r9, r10, fp, sp, pc}
.L568:
	mov	r1, #0
	b	.L542
.L547:
	cmp	r3, #1
	movne	r3, #0
	movne	r7, r3
	bne	.L549
.L548:
	ldr	r3, [r5, #2324]
	add	r3, r6, r3, lsl #2
	ldr	r3, [r3, #372]
	mov	r7, r3
	b	.L549
.L602:
	ldr	r3, .L604
	add	r1, r4, #43520
	add	r0, r4, #47104
	add	r1, r1, #16
	movw	r2, #3732
	add	r0, r0, #164
	ldr	r3, [r3, #52]
	blx	r3
	b	.L534
.L603:
	ldr	r3, [r5, #2272]
	cmp	r3, #0
	bne	.L598
.L555:
	ldr	r0, [r5, #3804]
	add	r8, r4, #49152
	ldr	r3, .L604
	add	r1, r4, #49664
	add	r1, r1, #232
	mov	r2, #64
	str	r0, [r6, #580]
	add	r0, r6, #588
	ldr	ip, [r8, #740]
	ldr	r3, [r3, #52]
	str	ip, [r6, #584]
	blx	r3
	ldr	r3, .L604
	add	r1, r4, #48896
	mov	r2, #64
	add	r1, r1, #164
	add	r0, r6, #716
	ldr	r3, [r3, #52]
	blx	r3
	ldr	r3, .L604
	add	r1, r4, #49920
	mov	r2, #128
	add	r1, r1, #40
	add	r0, r6, #844
	ldr	r3, [r3, #52]
	blx	r3
	ldr	r3, .L604
	add	r1, r4, #49920
	add	r0, r6, #1088
	add	r1, r1, #168
	add	r0, r0, #12
	ldr	r3, [r3, #52]
	mov	r2, #128
	blx	r3
	ldr	r3, [r5, #2272]
	cmp	r3, #0
	bne	.L557
	ldr	r3, .L604
	add	r1, r4, #50176
	add	r1, r1, #40
	mov	r2, #64
	add	r0, r6, #652
	ldr	r3, [r3, #52]
	blx	r3
	ldr	r3, .L604
	add	r1, r4, #49408
	mov	r2, #64
	add	r1, r1, #164
	add	r0, r6, #780
	ldr	r3, [r3, #52]
	blx	r3
	ldr	r3, .L604
	add	r1, r4, #50176
	mov	r2, #128
	add	r1, r1, #104
	add	r0, r6, #972
	ldr	r3, [r3, #52]
	blx	r3
	ldr	r3, .L604
	add	r1, r4, #50176
	add	r0, r6, #1216
	add	r1, r1, #232
	mov	r2, #128
	ldr	r3, [r3, #52]
	add	r0, r0, #12
	blx	r3
	b	.L557
.L537:
	ldr	r3, [r5, #2376]
	cmp	r3, #0
	bne	.L562
	b	.L597
.L601:
	ldr	ip, .L604
	mov	r2, r0
	ldr	r1, .L604+4
	mov	r0, #1
	mvn	lr, #0
	str	lr, [fp, #-112]
	ldr	ip, [ip, #68]
	blx	ip
	ldr	r1, [r4, #208]
.L599:
	ldr	r2, [r4, #172]
	sub	r1, r1, #1
	ldr	r3, [r4, #216]
	sub	r2, r2, #1
	str	r1, [r4, #208]
	sub	r3, r3, #1
	str	r2, [r4, #172]
	str	r3, [r4, #216]
	b	.L577
.L605:
	.align	2
.L604:
	.word	vfmw_Osal_Func_Ptr_S
	.word	.LC70
	UNWIND(.fnend)
	.size	HEVC_WriteSliceMsg, .-HEVC_WriteSliceMsg
	.align	2
	.global	HEVC_GetVirAddr
	.type	HEVC_GetVirAddr, %function
HEVC_GetVirAddr:
	UNWIND(.fnstart)
	@ args = 0, pretend = 0, frame = 0
	@ frame_needed = 1, uses_anonymous_args = 0
	UNWIND(.movsp ip)
	mov	ip, sp
	stmfd	sp!, {fp, ip, lr, pc}
	UNWIND(.pad #4)
	UNWIND(.save {fp, ip, lr})
	UNWIND(.setfp fp, ip, #-4)
	sub	fp, ip, #4
	add	r0, r1, r0, lsl #2
	ldmfd	sp, {fp, sp, pc}
	UNWIND(.fnend)
	.size	HEVC_GetVirAddr, .-HEVC_GetVirAddr
	.align	2
	.global	HEVC_GetPhyAddr
	.type	HEVC_GetPhyAddr, %function
HEVC_GetPhyAddr:
	UNWIND(.fnstart)
	@ args = 0, pretend = 0, frame = 0
	@ frame_needed = 1, uses_anonymous_args = 0
	UNWIND(.movsp ip)
	mov	ip, sp
	stmfd	sp!, {fp, ip, lr, pc}
	UNWIND(.pad #4)
	UNWIND(.save {fp, ip, lr})
	UNWIND(.setfp fp, ip, #-4)
	sub	fp, ip, #4
	add	r0, r1, r0, lsl #2
	ldmfd	sp, {fp, sp, pc}
	UNWIND(.fnend)
	.size	HEVC_GetPhyAddr, .-HEVC_GetPhyAddr
	.align	2
	.global	HEVC_CfgVDMReg
	.type	HEVC_CfgVDMReg, %function
HEVC_CfgVDMReg:
	UNWIND(.fnstart)
	@ args = 0, pretend = 0, frame = 0
	@ frame_needed = 1, uses_anonymous_args = 0
	UNWIND(.movsp ip)
	mov	ip, sp
	stmfd	sp!, {fp, ip, lr, pc}
	UNWIND(.pad #4)
	UNWIND(.save {fp, ip, lr})
	UNWIND(.setfp fp, ip, #-4)
	sub	fp, ip, #4
	add	ip, r0, #40960
	add	r1, r0, #49152
	mov	r2, r0
	add	lr, r0, #53248
	ldr	r3, [ip, #2044]
	mov	r0, #0
	clz	r3, r3
	mov	r3, r3, lsr #5
	str	r3, [r1, #3520]
	ldr	r3, [ip, #2048]
	str	r3, [r1, #3512]
	ldr	r3, [r2, #208]
	str	r3, [lr, #524]
	ldmfd	sp, {fp, sp, pc}
	UNWIND(.fnend)
	.size	HEVC_CfgVDMReg, .-HEVC_CfgVDMReg
	.align	2
	.global	HEVC_IsRefForCurrPic
	.type	HEVC_IsRefForCurrPic, %function
HEVC_IsRefForCurrPic:
	UNWIND(.fnstart)
	@ args = 0, pretend = 0, frame = 16
	@ frame_needed = 1, uses_anonymous_args = 0
	UNWIND(.movsp ip)
	mov	ip, sp
	stmfd	sp!, {r4, r5, r6, r7, r8, r9, r10, fp, ip, lr, pc}
	UNWIND(.pad #4)
	UNWIND(.save {r4, r5, r6, r7, r8, r9, r10, fp, ip, lr})
	UNWIND(.setfp fp, ip, #-4)
	sub	fp, ip, #4
	UNWIND(.pad #20)
	sub	sp, sp, #20
	add	r2, r0, #40960
	ldr	r1, [r0, #2304]
	movw	ip, #2024
	mov	r5, r2
	str	r2, [fp, #-48]
	ldr	r2, [r2, #2652]
	mov	lr, r0
	ldr	r3, [lr, #2300]
	mov	r6, lr
	str	r0, [fp, #-56]
	movw	r0, #15788
	mla	r1, ip, r2, r1
	add	lr, lr, #45056
	str	lr, [fp, #-52]
	mov	r9, #1
	mov	ip, lr
	ldr	lr, [lr, #1768]
	ldr	r2, [ip, #1764]
	ldr	ip, [ip, #1772]
	ldr	r1, [r1, #32]
	add	r10, lr, r2
	cmp	r10, ip
	mla	r3, r0, r1, r3
	ldr	r3, [r3, #128]
	mov	r9, r9, asl r3
	bcs	.L616
	add	r4, r10, #11712
	ldr	r7, [r5, #2024]
	add	r4, r4, #23
	mov	r5, r10
	str	r10, [fp, #-60]
	mov	lr, r6
	add	r4, r6, r4, lsl #2
	mov	r10, ip
	b	.L612
.L626:
	cmp	r10, r5
	bls	.L625
.L612:
	ldr	r6, [r4, #4]!
	mov	r1, r9
	mov	r0, r7
	mov	r8, r7
	ldr	r3, [r4, #-1884]
	cmp	r3, #0
	bne	.L611
	bl	__aeabi_idivmod
	mov	r0, r6
	mov	r8, r1
	mov	r1, r9
	bl	__aeabi_idivmod
	mov	r6, r1
.L611:
	cmp	r8, r6
	add	r5, r5, #1
	bne	.L626
	ldr	r10, [fp, #-60]
	mov	r0, #1
.L610:
	cmp	r10, #0
	beq	.L613
	ldr	r2, [fp, #-48]
	ldr	r3, [fp, #-52]
	ldr	lr, [r2, #2624]
	ldr	r3, [r3, #1820]
	ldr	ip, [r2, #2024]
	add	r3, lr, r3
	cmp	ip, r3
	beq	.L620
	ldr	r3, [fp, #-56]
	mov	r1, #0
	add	r7, r3, #46848
	add	r7, r7, #28
	b	.L614
.L615:
	ldr	r3, [r7, #4]!
	add	r3, lr, r3
	cmp	r3, ip
	beq	.L620
.L614:
	add	r1, r1, #1
	cmp	r10, r1
	bne	.L615
.L613:
	sub	sp, fp, #40
	ldmfd	sp, {r4, r5, r6, r7, r8, r9, r10, fp, sp, pc}
.L620:
	mov	r0, #1
	sub	sp, fp, #40
	ldmfd	sp, {r4, r5, r6, r7, r8, r9, r10, fp, sp, pc}
.L625:
	ldr	r10, [fp, #-60]
	mov	r0, #0
	b	.L610
.L616:
	mov	r0, #0
	b	.L610
	UNWIND(.fnend)
	.size	HEVC_IsRefForCurrPic, .-HEVC_IsRefForCurrPic
	.align	2
	.global	HEVC_RepairList
	.type	HEVC_RepairList, %function
HEVC_RepairList:
	UNWIND(.fnstart)
	@ args = 0, pretend = 0, frame = 16
	@ frame_needed = 1, uses_anonymous_args = 0
	UNWIND(.movsp ip)
	mov	ip, sp
	stmfd	sp!, {r4, r5, r6, r7, r8, r9, r10, fp, ip, lr, pc}
	UNWIND(.pad #4)
	UNWIND(.save {r4, r5, r6, r7, r8, r9, r10, fp, ip, lr})
	UNWIND(.setfp fp, ip, #-4)
	sub	fp, ip, #4
	UNWIND(.pad #28)
	sub	sp, sp, #28
	add	r3, r0, #40960
	str	r3, [fp, #-56]
	mov	ip, r0
	ldr	r3, [r3, #2636]
	cmp	r3, #1
	beq	.L629
	cmp	r3, #2
	beq	.L645
	cmp	r3, #0
	moveq	r3, #2
	beq	.L629
	ldr	ip, .L654
	mov	r0, #1
	ldr	r2, .L654+4
	ldr	r1, .L654+8
	ldr	ip, [ip, #68]
	blx	ip
	mvn	r0, #0
	sub	sp, fp, #40
	ldmfd	sp, {r4, r5, r6, r7, r8, r9, r10, fp, sp, pc}
.L629:
	add	r8, ip, #43520
	add	r9, ip, #2320
	add	r8, r8, #172
	mov	r7, ip
	mov	r10, #0
	mov	ip, r3
.L642:
	ldr	r0, [r8, #4]!
	cmp	r0, #0
	beq	.L632
	ldr	r2, [r9]
	cmp	r2, #0
	bne	.L646
	mov	r1, r9
	mov	r3, r2
	b	.L634
.L636:
	ldr	r5, [r1, #4]!
	cmp	r5, #0
	bne	.L652
.L634:
	add	r3, r3, #1
	cmp	r3, r0
	bne	.L636
	mov	r3, #255
.L635:
	ldr	r1, [r7, #2308]
	ldr	r1, [r1, #12]
	cmp	r1, #2
	bne	.L637
	ldr	r1, [fp, #-56]
	ldr	r5, [r1, #2068]
	add	r5, r5, #36
.L633:
	sxtb	r3, r3
	str	r3, [fp, #-48]
	mov	r3, r7
	mov	r6, r9
	mov	r7, ip
	mov	r4, #0
	mov	ip, r3
	b	.L643
.L639:
	ldr	r2, [r6, #4]!
.L643:
	cmp	r2, #0
	beq	.L653
.L638:
	ldr	r3, [r8]
	add	r4, r4, #1
	cmp	r3, r4
	bhi	.L639
	mov	r3, ip
	mov	ip, r7
	mov	r7, r3
.L640:
	add	r10, r10, #1
	add	r9, r9, #68
	cmp	r10, ip
	bcc	.L642
.L645:
	mov	r0, #0
	sub	sp, fp, #40
	ldmfd	sp, {r4, r5, r6, r7, r8, r9, r10, fp, sp, pc}
.L632:
	ldr	r3, [r7, #2308]
	ldr	r3, [r3, #12]
	cmp	r3, #2
	bne	.L640
	mov	r3, #1
	str	r3, [r8]
	ldr	r3, [fp, #-56]
	ldr	r3, [r3, #2068]
	add	r3, r3, #36
	str	r3, [r9]
	b	.L640
.L653:
	ldr	r3, [fp, #-48]
	mov	r0, #1
	ldr	r2, .L654
	str	r4, [sp]
	str	r3, [sp, #4]
	mov	r3, r10
	ldr	r2, [r2, #68]
	str	ip, [fp, #-52]
	ldr	r1, .L654+12
	mov	ip, r2
	ldr	r2, .L654+4
	blx	ip
	str	r5, [r6]
	ldr	ip, [fp, #-52]
	b	.L638
.L652:
	uxtb	r3, r3
	cmp	r3, #255
	bne	.L633
	b	.L635
.L646:
	mov	r5, r2
	mov	r3, #0
	b	.L633
.L637:
	ldr	ip, .L654
	mov	r3, r10
	ldr	r2, .L654+4
	mov	r0, #1
	ldr	r1, .L654+16
	ldr	ip, [ip, #68]
	blx	ip
	mvn	r0, #0
	sub	sp, fp, #40
	ldmfd	sp, {r4, r5, r6, r7, r8, r9, r10, fp, sp, pc}
.L655:
	.align	2
.L654:
	.word	vfmw_Osal_Func_Ptr_S
	.word	.LANCHOR1+228
	.word	.LC71
	.word	.LC73
	.word	.LC72
	UNWIND(.fnend)
	.size	HEVC_RepairList, .-HEVC_RepairList
	.align	2
	.global	HEVC_InitListX
	.type	HEVC_InitListX, %function
HEVC_InitListX:
	UNWIND(.fnstart)
	@ args = 0, pretend = 0, frame = 152
	@ frame_needed = 1, uses_anonymous_args = 0
	UNWIND(.movsp ip)
	mov	ip, sp
	stmfd	sp!, {r4, r5, r6, r7, r8, r9, r10, fp, ip, lr, pc}
	UNWIND(.pad #4)
	UNWIND(.save {r4, r5, r6, r7, r8, r9, r10, fp, ip, lr})
	UNWIND(.setfp fp, ip, #-4)
	sub	fp, ip, #4
	UNWIND(.pad #156)
	sub	sp, sp, #156
	subs	r7, r0, #0
	beq	.L692
	ldr	r3, .L724
	mov	r2, #136
	mov	r1, #0
	sub	r0, fp, #180
	ldr	r3, [r3, #48]
	blx	r3
	ldr	lr, [r7, #2504]
	cmp	lr, #0
	beq	.L693
	mov	r0, #0
	add	r1, r7, #2576
	mov	r3, r0
	b	.L660
.L659:
	cmp	r3, lr
	beq	.L658
.L660:
	ldr	r2, [r1, #4]!
	add	r3, r3, #1
	ldrb	ip, [r2, #1]	@ zero_extendqisi2
	cmp	ip, #1
	bne	.L659
	ldr	ip, [r2, #52]
	cmp	ip, #0
	bne	.L659
	ldr	ip, [r2, #56]
	cmp	ip, #1
	subeq	ip, fp, #44
	addeq	r2, r2, #36
	addeq	ip, ip, r0, lsl #2
	addeq	r0, r0, #1
	streq	r2, [ip, #-136]
	cmp	r3, lr
	bne	.L660
.L658:
	ldr	r4, [r7, #2508]
	cmp	r4, #0
	beq	.L694
	add	r1, r7, #2640
	mov	ip, r0
	add	r1, r1, #4
	mov	r3, #0
	b	.L663
.L662:
	cmp	r3, r4
	beq	.L720
.L663:
	ldr	r2, [r1, #4]!
	add	r3, r3, #1
	ldrb	lr, [r2, #1]	@ zero_extendqisi2
	cmp	lr, #1
	bne	.L662
	ldr	lr, [r2, #52]
	cmp	lr, #0
	bne	.L662
	ldr	lr, [r2, #56]
	cmp	lr, #1
	subeq	lr, fp, #44
	addeq	r2, r2, #36
	addeq	lr, lr, ip, lsl #2
	addeq	ip, ip, #1
	streq	r2, [lr, #-136]
	cmp	r3, r4
	bne	.L663
.L720:
	rsb	r4, r0, ip
.L661:
	ldr	r5, [r7, #2500]
	cmp	r5, #0
	beq	.L695
	add	lr, r7, #2704
	mov	r9, ip
	add	lr, lr, #8
	mov	r2, #0
	b	.L666
.L665:
	cmp	r2, r5
	beq	.L721
.L666:
	ldr	r3, [lr, #4]!
	add	r2, r2, #1
	ldrb	r1, [r3, #1]	@ zero_extendqisi2
	cmp	r1, #1
	bne	.L665
	ldr	r1, [r3, #52]
	cmp	r1, #1
	bne	.L665
	ldr	r1, [r3, #56]
	sub	r6, fp, #44
	add	r6, r6, r9, lsl #2
	add	r3, r3, #36
	cmp	r1, #0
	addeq	r9, r9, #1
	streq	r3, [r6, #-136]
	cmp	r2, r5
	bne	.L666
.L721:
	rsb	r5, r0, r9
	rsb	r5, r4, r5
.L664:
	cmp	r9, #0
	beq	.L722
	add	r3, r7, #40960
	str	r3, [fp, #-184]
	ldr	r3, [r3, #2636]
	cmp	r3, #0
	str	r3, [fp, #-188]
	beq	.L723
	ldr	r3, [fp, #-184]
	ldr	r4, [r3, #2744]
	ldr	r5, [r3, #2748]
	cmp	r4, #0
	str	r4, [r3, #2736]
	str	r5, [r3, #2740]
	beq	.L685
.L691:
	add	r1, r7, #45056
	add	r2, r7, #2304
	add	r8, r7, #46848
	add	r2, r2, #12
	ldrb	r10, [r1, #1952]	@ zero_extendqisi2
	add	r8, r8, #164
	str	r5, [fp, #-192]
	mov	r6, #0
	mov	r5, r10
	mov	r10, r4
	mov	r4, r2
.L678:
	cmp	r5, #0
	mov	r1, r9
	mov	r0, r6
	ldrne	r1, [r8]
	bne	.L677
	bl	__aeabi_uidivmod
.L677:
	sub	r3, fp, #44
	add	r6, r6, #1
	add	r3, r3, r1, lsl #2
	cmp	r10, r6
	add	r8, r8, #4
	ldr	r3, [r3, #-136]
	str	r3, [r4, #4]!
	bhi	.L678
	ldr	r3, [fp, #-188]
	ldr	r5, [fp, #-192]
	cmp	r3, #0
	bne	.L719
.L679:
	cmp	r5, #0
	beq	.L681
	add	r2, r7, #45056
	add	r6, r7, #47104
	add	r6, r6, #36
	add	r8, r7, #2384
	ldrb	r10, [r2, #1953]	@ zero_extendqisi2
	mov	r4, #0
.L684:
	cmp	r10, #0
	mov	r1, r9
	mov	r0, r4
	ldrne	r1, [r6]
	bne	.L683
	bl	__aeabi_uidivmod
.L683:
	sub	r3, fp, #44
	add	r4, r4, #1
	add	r3, r3, r1, lsl #2
	cmp	r4, r5
	add	r6, r6, #4
	ldr	r3, [r3, #-68]
	str	r3, [r8, #4]!
	bne	.L684
.L719:
	ldr	r3, [fp, #-184]
	ldr	r4, [r3, #2736]
	ldr	r5, [r3, #2740]
.L680:
	cmp	r4, #16
	bhi	.L689
.L685:
	add	r4, r4, #576
	add	r2, r7, #2384
	add	r4, r4, #3
	add	r4, r7, r4, lsl #2
.L688:
	ldr	r3, [r7, #2320]
	str	r3, [r4, #4]!
	cmp	r4, r2
	bne	.L688
.L689:
	cmp	r5, #16
	bhi	.L687
	add	r5, r5, #596
	add	r2, r7, #2448
	add	r2, r2, #4
	add	r5, r7, r5, lsl #2
.L690:
	ldr	r3, [r7, #2388]
	str	r3, [r5, #4]!
	cmp	r5, r2
	bne	.L690
.L687:
	mov	r0, #0
.L718:
	sub	sp, fp, #40
	ldmfd	sp, {r4, r5, r6, r7, r8, r9, r10, fp, sp, pc}
.L723:
	cmp	r4, #0
	beq	.L670
	sub	r3, fp, #180
	ldr	r2, [fp, #-188]
	add	lr, r3, r0, lsl #2
	sub	r1, fp, #116
.L671:
	add	r2, r2, #1
	ldr	r3, [lr], #4
	cmp	r2, r4
	str	r3, [r1, #4]!
	bne	.L671
.L670:
	cmp	r0, #0
	beq	.L672
	add	r1, r4, #16
	sub	lr, fp, #180
	mov	r2, #0
	add	r1, lr, r1, lsl #2
.L673:
	add	r2, r2, #1
	ldr	r3, [lr], #4
	cmp	r2, r0
	str	r3, [r1, #4]!
	bne	.L673
	add	r4, r4, r2
.L672:
	cmp	r5, #0
	beq	.L674
	add	r4, r4, #16
	sub	r3, fp, #180
	add	ip, r3, ip, lsl #2
	mov	r2, #0
	add	r4, r3, r4, lsl #2
.L675:
	add	r2, r2, #1
	ldr	r3, [ip], #4
	cmp	r2, r5
	str	r3, [r4, #4]!
	bne	.L675
.L674:
	ldr	r3, [fp, #-184]
	ldr	r4, [r3, #2744]
	ldr	r5, [r3, #2748]
	cmp	r4, #0
	str	r4, [r3, #2736]
	str	r5, [r3, #2740]
	bne	.L691
	b	.L679
.L722:
	ldr	r3, .L724
	add	r4, r7, #40960
	mov	r2, #136
	mov	r1, r9
	str	r9, [r4, #2736]
	add	r0, r7, #2320
	ldr	ip, [r3, #48]
	str	r9, [r4, #2740]
	blx	ip
	ldr	r2, [r7, #2308]
	ldr	r2, [r2, #12]
	cmp	r2, #2
	bne	.L687
	ldr	r2, [r4, #2068]
	mov	r3, #1
	mov	r0, r9
	str	r3, [r4, #2736]
	add	r3, r2, #36
	str	r3, [r7, #2320]
	b	.L718
.L693:
	mov	r0, lr
	b	.L658
.L694:
	mov	ip, r0
	b	.L661
.L695:
	mov	r9, ip
	b	.L664
.L681:
	ldr	r3, .L724
	add	r0, r7, #2384
	add	r0, r0, #4
	mov	r2, #68
	add	r1, r7, #2320
	ldr	r3, [r3, #52]
	blx	r3
	ldr	r3, [fp, #-184]
	ldr	r4, [r3, #2736]
	str	r4, [r3, #2740]
	mov	r5, r4
	b	.L680
.L692:
	mvn	r0, #0
	b	.L718
.L725:
	.align	2
.L724:
	.word	vfmw_Osal_Func_Ptr_S
	UNWIND(.fnend)
	.size	HEVC_InitListX, .-HEVC_InitListX
	.align	2
	.global	HEVC_DecList
	.type	HEVC_DecList, %function
HEVC_DecList:
	UNWIND(.fnstart)
	@ args = 0, pretend = 0, frame = 0
	@ frame_needed = 1, uses_anonymous_args = 0
	UNWIND(.movsp ip)
	mov	ip, sp
	stmfd	sp!, {r4, r5, fp, ip, lr, pc}
	UNWIND(.pad #4)
	UNWIND(.save {r4, r5, fp, ip, lr})
	UNWIND(.setfp fp, ip, #-4)
	sub	fp, ip, #4
	add	r3, r0, #40960
	mov	r4, r0
	ldr	r2, [r3, #2636]
	cmp	r2, #2
	beq	.L731
	bl	HEVC_InitListX
	cmp	r0, #0
	bne	.L732
	mov	r0, r4
	bl	HEVC_RepairList
	cmp	r0, #0
	ldmeqfd	sp, {r4, r5, fp, sp, pc}
	ldr	r3, .L733
	mov	r0, #1
	ldr	r1, .L733+4
	ldr	r3, [r3, #68]
	blx	r3
	mvn	r0, #0
	ldmfd	sp, {r4, r5, fp, sp, pc}
.L731:
	mov	r0, #0
	str	r0, [r3, #2736]
	str	r0, [r3, #2740]
	ldmfd	sp, {r4, r5, fp, sp, pc}
.L732:
	ldr	r3, .L733
	mov	r0, #1
	ldr	r1, .L733+8
	ldr	r3, [r3, #68]
	blx	r3
	mvn	r0, #0
	ldmfd	sp, {r4, r5, fp, sp, pc}
.L734:
	.align	2
.L733:
	.word	vfmw_Osal_Func_Ptr_S
	.word	.LC75
	.word	.LC74
	UNWIND(.fnend)
	.size	HEVC_DecList, .-HEVC_DecList
	.align	2
	.global	HEVC_RemoveApcStore
	.type	HEVC_RemoveApcStore, %function
HEVC_RemoveApcStore:
	UNWIND(.fnstart)
	@ args = 0, pretend = 0, frame = 0
	@ frame_needed = 1, uses_anonymous_args = 0
	UNWIND(.movsp ip)
	mov	ip, sp
	stmfd	sp!, {r4, r5, fp, ip, lr, pc}
	UNWIND(.pad #4)
	UNWIND(.save {r4, r5, fp, ip, lr})
	UNWIND(.setfp fp, ip, #-4)
	sub	fp, ip, #4
	add	r5, r0, r1, lsl #2
	mov	r4, r0
	ldr	r2, [r5, #2512]
	ldr	r3, [r2, #28]
	cmp	r3, #16
	ldmeqfd	sp, {r4, r5, fp, sp, pc}
	add	r3, r3, #696
	mov	lr, #0
	add	r3, r3, #2
	ldr	ip, .L740
	ldr	r1, .L740+4
	mov	r0, #13
	str	lr, [r4, r3, asl #2]
	ldr	r3, [r2, #28]
	ldr	ip, [ip, #68]
	add	r3, r3, #712
	add	r3, r3, #2
	str	lr, [r4, r3, asl #2]
	ldr	r3, [r2, #28]
	add	r3, r3, #728
	add	r3, r3, #2
	str	lr, [r4, r3, asl #2]
	ldr	r3, [r2, #24]
	add	r3, r3, #524
	add	r3, r4, r3, lsl #2
	str	lr, [r3, #4]
	ldr	r3, [r2, #24]
	ldr	r2, [r2, #28]
	blx	ip
	ldr	r3, [r5, #2512]
	mov	r2, #16
	str	r2, [r3, #28]
	ldr	r3, [r4, #2788]
	sub	r3, r3, #1
	str	r3, [r4, #2788]
	ldmfd	sp, {r4, r5, fp, sp, pc}
.L741:
	.align	2
.L740:
	.word	vfmw_Osal_Func_Ptr_S
	.word	.LC76
	UNWIND(.fnend)
	.size	HEVC_RemoveApcStore, .-HEVC_RemoveApcStore
	.align	2
	.global	HEVC_RemoveUnusedApcStore
	.type	HEVC_RemoveUnusedApcStore, %function
HEVC_RemoveUnusedApcStore:
	UNWIND(.fnstart)
	@ args = 0, pretend = 0, frame = 0
	@ frame_needed = 1, uses_anonymous_args = 0
	UNWIND(.movsp ip)
	mov	ip, sp
	stmfd	sp!, {r4, r5, r6, r7, fp, ip, lr, pc}
	UNWIND(.pad #4)
	UNWIND(.save {r4, r5, r6, r7, fp, ip, lr})
	UNWIND(.setfp fp, ip, #-4)
	sub	fp, ip, #4
	ldr	r3, [r0, #2492]
	mov	r6, r0
	cmp	r3, #0
	ldmeqfd	sp, {r4, r5, r6, r7, fp, sp, pc}
	add	r5, r0, #2496
	mov	r4, #0
	add	r5, r5, #12
	b	.L745
.L744:
	ldr	r3, [r6, #2492]
	add	r4, r4, #1
	cmp	r4, r3
	bcs	.L748
.L745:
	ldr	r3, [r5, #4]!
	ldrb	r3, [r3, #1]	@ zero_extendqisi2
	cmp	r3, #0
	bne	.L744
	mov	r1, r4
	mov	r0, r6
	bl	HEVC_RemoveApcStore
	ldr	r3, [r6, #2492]
	add	r4, r4, #1
	cmp	r4, r3
	bcc	.L745
.L748:
	ldmfd	sp, {r4, r5, r6, r7, fp, sp, pc}
	UNWIND(.fnend)
	.size	HEVC_RemoveUnusedApcStore, .-HEVC_RemoveUnusedApcStore
	.align	2
	.global	HEVC_ApplyReferencePictureSet
	.type	HEVC_ApplyReferencePictureSet, %function
HEVC_ApplyReferencePictureSet:
	UNWIND(.fnstart)
	@ args = 0, pretend = 0, frame = 32
	@ frame_needed = 1, uses_anonymous_args = 0
	UNWIND(.movsp ip)
	mov	ip, sp
	stmfd	sp!, {r4, r5, r6, r7, r8, r9, r10, fp, ip, lr, pc}
	UNWIND(.pad #4)
	UNWIND(.save {r4, r5, r6, r7, r8, r9, r10, fp, ip, lr})
	UNWIND(.setfp fp, ip, #-4)
	sub	fp, ip, #4
	UNWIND(.pad #36)
	sub	sp, sp, #36
	add	r3, r0, #40960
	ldr	r2, [r0, #2304]
	movw	r4, #2024
	ldr	r1, [r3, #2652]
	movw	ip, #15788
	str	r3, [fp, #-68]
	mov	r9, r0
	ldr	r3, [r0, #2300]
	mov	r0, #1
	mla	r2, r4, r1, r2
	ldr	lr, [r9, #2492]
	cmp	lr, #0
	ldr	r2, [r2, #32]
	mla	r3, ip, r2, r3
	ldr	r8, [r3, #128]
	mov	r3, r0, asl r8
	str	r3, [fp, #-48]
	beq	.L749
	add	r8, r9, #2512
	add	r3, r9, #46848
	add	r7, r9, #45056
	str	r9, [fp, #-56]
	mov	r9, r8
	mov	r2, #0
	add	r3, r3, #28
	str	r2, [fp, #-60]
	str	r3, [fp, #-72]
	str	r0, [fp, #-64]
.L766:
	ldr	r0, [r7, #1764]
	ldr	r2, [r7, #1768]
	ldr	r1, [r7, #1772]
	add	r2, r2, r0
	ldr	r5, [r9]
	cmp	r2, r1
	mov	r8, r2
	movcs	r4, #0
	ldrcs	r0, [r5, #12]
	bcs	.L752
	add	r6, r2, #11712
	ldr	r3, [fp, #-56]
	add	r6, r6, #24
	ldr	r10, [r5, #12]
	mov	r4, #0
	add	r6, r3, r6, lsl #2
.L758:
	ldr	r3, [r6, #-1884]
	cmp	r3, #0
	ldr	r3, [r5, #52]
	beq	.L753
	cmp	r3, #0
	beq	.L754
	ldr	r3, [r6]
	cmp	r3, r10
	beq	.L784
.L754:
	cmp	r4, #0
	bne	.L771
	ldr	r1, [r6]
	mov	r4, r10
	b	.L768
.L753:
	cmp	r3, #0
	beq	.L756
	ldr	r1, [fp, #-48]
	mov	r0, r10
	bl	__aeabi_idivmod
	ldr	r0, [r6]
	str	r1, [fp, #-52]
	ldr	r1, [fp, #-48]
	bl	__aeabi_idivmod
	ldr	r3, [fp, #-52]
	cmp	r3, r1
	beq	.L784
.L756:
	cmp	r4, #0
	bne	.L771
	ldr	r3, [r6]
	mov	r0, r10
	ldr	r1, [fp, #-48]
	str	r3, [fp, #-52]
	bl	__aeabi_idivmod
	ldr	r3, [fp, #-52]
	mov	r0, r3
	mov	r4, r1
	ldr	r1, [fp, #-48]
	bl	__aeabi_idivmod
.L768:
	ldrb	r0, [r5, #1]	@ zero_extendqisi2
	rsb	r4, r1, r4
	clz	r4, r4
	cmp	r0, #0
	mov	r4, r4, lsr #5
	moveq	r4, #0
	cmp	r4, #0
	bne	.L785
.L771:
	mov	r0, r10
.L757:
	ldr	r3, [r7, #1772]
	add	r8, r8, #1
	add	r6, r6, #4
	mov	r10, r0
	cmp	r8, r3
	bcc	.L758
	ldr	r2, [r7, #1768]
	ldr	r1, [r7, #1764]
	add	r2, r2, r1
.L752:
	ldr	r3, [fp, #-68]
	cmp	r2, #0
	ldrne	r8, [fp, #-72]
	movne	r6, #0
	ldr	ip, [r3, #2624]
	beq	.L760
.L762:
	ldr	r3, [r5, #52]
	add	r6, r6, #1
	cmp	r3, #0
	bne	.L761
	ldr	r3, [r8]
	add	r3, ip, r3
	cmp	r3, r0
	beq	.L786
.L761:
	ldr	r3, [r7, #1768]
	add	r8, r8, #4
	ldr	r2, [r7, #1764]
	add	r3, r3, r2
	cmp	r6, r3
	bcc	.L762
.L760:
	eor	r4, r4, #1
	cmp	r0, ip
	moveq	r0, #0
	andne	r0, r4, #1
	cmp	r0, #0
	beq	.L764
	mov	r3, #0
	strb	r3, [r5, #1]
	ldr	r2, [r9]
	str	r3, [r2, #52]
	ldr	r2, [r9]
	ldr	r1, [r2, #8]
	cmp	r1, #1
	beq	.L764
	ldr	r1, [r2, #32]
	mov	r2, r3
	ldr	r3, [fp, #-56]
	ldr	r0, [r3, #244]
	bl	FSP_SetRef
.L764:
	ldr	r3, [fp, #-56]
	add	r9, r9, #4
	ldr	r2, [r3, #2492]
	ldr	r3, [fp, #-60]
	add	r3, r3, #1
	str	r3, [fp, #-60]
	cmp	r3, r2
	bcc	.L766
.L749:
	sub	sp, fp, #40
	ldmfd	sp, {r4, r5, r6, r7, r8, r9, r10, fp, sp, pc}
.L785:
	ldr	r1, [fp, #-64]
	mov	r2, #1
	mov	r4, r2
	strb	r1, [r5, #1]
	ldr	r3, [r9]
	str	r1, [r3, #52]
	ldr	r3, [r9]
	str	r1, [r3, #4]
	ldr	r1, [fp, #-56]
	ldr	r3, [r9]
	ldr	r0, [r1, #244]
	ldr	r1, [r3, #32]
	bl	FSP_SetRef
	ldr	r5, [r9]
	ldr	r0, [r5, #12]
	b	.L757
.L784:
	ldr	r1, [fp, #-64]
	mov	r2, #1
	mov	r4, #1
	strb	r1, [r5, #1]
	ldr	r3, [r9]
	str	r1, [r3, #4]
	ldr	r1, [fp, #-56]
	ldr	r3, [r9]
	ldr	r0, [r1, #244]
	ldr	r1, [r3, #32]
	bl	FSP_SetRef
	ldr	r5, [r9]
	ldr	r0, [r5, #12]
	b	.L757
.L786:
	ldr	r1, [fp, #-64]
	mov	r2, #1
	mov	r4, r2
	strb	r1, [r5, #1]
	ldr	r3, [r9]
	str	r1, [r3, #4]
	ldr	r1, [fp, #-56]
	ldr	r3, [r9]
	ldr	r0, [r1, #244]
	ldr	r1, [r3, #32]
	bl	FSP_SetRef
	ldr	r5, [r9]
	ldr	r3, [fp, #-68]
	ldr	r0, [r5, #12]
	ldr	ip, [r3, #2624]
	b	.L761
	UNWIND(.fnend)
	.size	HEVC_ApplyReferencePictureSet, .-HEVC_ApplyReferencePictureSet
	.align	2
	.global	HEVC_CheckThatAllRefPicsAreAvailable
	.type	HEVC_CheckThatAllRefPicsAreAvailable, %function
HEVC_CheckThatAllRefPicsAreAvailable:
	UNWIND(.fnstart)
	@ args = 0, pretend = 0, frame = 40
	@ frame_needed = 1, uses_anonymous_args = 0
	UNWIND(.movsp ip)
	mov	ip, sp
	stmfd	sp!, {r4, r5, r6, r7, r8, r9, r10, fp, ip, lr, pc}
	UNWIND(.pad #4)
	UNWIND(.save {r4, r5, r6, r7, r8, r9, r10, fp, ip, lr})
	UNWIND(.setfp fp, ip, #-4)
	sub	fp, ip, #4
	UNWIND(.pad #44)
	sub	sp, sp, #44
	add	r3, r0, #40960
	ldr	ip, [r0, #2304]
	movw	r6, #2024
	ldr	r2, [r3, #2652]
	add	lr, r0, #45056
	str	r1, [fp, #-84]
	movw	r5, #15788
	ldr	r1, [lr, #1764]
	mov	r7, r0
	mla	ip, r6, r2, ip
	ldr	r6, [lr, #1768]
	ldr	r4, [r0, #2300]
	add	r1, r6, r1
	ldr	r2, [lr, #1772]
	str	r1, [fp, #-80]
	mov	lr, r1
	cmp	r1, r2
	ldr	ip, [ip, #32]
	str	r0, [fp, #-60]
	mov	r0, #1
	mla	r1, r5, ip, r4
	ldr	r10, [r1, #128]
	mov	r10, r0, asl r10
	bcs	.L788
	add	r9, lr, #11712
	ldr	r6, [r7, #2492]
	add	r9, r9, #24
	mov	r0, #0
	add	r2, r2, #46848
	add	r1, lr, #46848
	add	r9, r7, r9, lsl #2
	mov	ip, r0
	add	r2, r2, #9
	add	r1, r1, #9
	str	r0, [fp, #-64]
	mov	r0, r7
	add	r2, r7, r2
	str	ip, [fp, #-72]
	str	r2, [fp, #-68]
	add	r2, r7, r1
	str	r3, [fp, #-76]
	str	r2, [fp, #-56]
.L789:
	cmp	r6, #0
	beq	.L795
	ldr	r3, [fp, #-60]
	mov	r2, #0
	ldr	r8, [r9, #-1884]
	mov	r5, r2
	add	r4, r3, #2512
	str	r2, [fp, #-52]
	b	.L792
.L832:
	ldr	r3, [r4]
	ldr	r1, [r3, #52]
	cmp	r1, #0
	beq	.L791
	ldr	r0, [r3, #12]
	ldr	r1, [r9]
	cmp	r0, r1
	ldreqb	r3, [r3, #1]	@ zero_extendqisi2
	beq	.L830
.L791:
	add	r5, r5, #1
	add	r4, r4, #4
	cmp	r5, r6
	beq	.L831
.L792:
	cmp	r8, #0
	bne	.L832
	ldr	r7, [r4]
	mov	r1, r10
	ldr	r3, [r7, #52]
	cmp	r3, #0
	beq	.L791
	ldr	r0, [r7, #12]
	bl	__aeabi_idivmod
	ldr	r0, [r9]
	str	r1, [fp, #-48]
	mov	r1, r10
	bl	__aeabi_idivmod
	ldr	r3, [fp, #-48]
	cmp	r3, r1
	bne	.L791
	ldrb	r3, [r7, #1]	@ zero_extendqisi2
.L830:
	cmp	r3, #0
	add	r5, r5, #1
	ldr	r3, [fp, #-52]
	add	r4, r4, #4
	movne	r3, #1
	cmp	r5, r6
	str	r3, [fp, #-52]
	bne	.L792
.L831:
	ldr	r2, [fp, #-52]
	cmp	r2, #0
	beq	.L795
.L793:
	ldr	r3, [fp, #-56]
	add	r9, r9, #4
	ldr	r2, [fp, #-68]
	add	r3, r3, #1
	str	r3, [fp, #-56]
	cmp	r3, r2
	bne	.L789
	ldr	r2, [fp, #-80]
	ldr	r3, [fp, #-76]
	cmp	r2, #0
	beq	.L797
.L796:
	ldr	r2, [fp, #-60]
	mov	r7, #0
	ldr	r0, [fp, #-72]
	add	r4, r2, #46848
	ldr	r10, [fp, #-80]
	mov	r9, r2
	mov	r8, r4
	add	r4, r4, #28
	add	r8, r8, #9
.L801:
	cmp	r6, #0
	beq	.L802
	add	lr, r9, #2496
	mov	r5, #0
	add	lr, lr, #12
	mov	r2, r5
	str	r0, [fp, #-48]
	b	.L799
.L798:
	cmp	r2, r6
	beq	.L833
.L799:
	ldr	r1, [lr, #4]!
	add	r2, r2, #1
	ldr	r0, [r1, #52]
	cmp	r0, #0
	bne	.L798
	ldr	ip, [r4]
	ldr	r0, [r3, #2624]
	add	r0, r0, ip
	ldr	ip, [r1, #12]
	cmp	ip, r0
	bne	.L798
	ldrb	r1, [r1, #1]	@ zero_extendqisi2
	cmp	r1, #0
	movne	r5, #1
	cmp	r2, r6
	bne	.L799
.L833:
	cmp	r5, #0
	ldr	r0, [fp, #-48]
	beq	.L802
.L800:
	add	r7, r7, #1
	add	r4, r4, #4
	cmp	r7, r10
	add	r8, r8, #1
	bcc	.L801
	str	r0, [fp, #-72]
.L797:
	ldr	r3, [fp, #-72]
	cmp	r3, #0
	ldrne	r3, [fp, #-84]
	movne	r0, #0
	ldrne	r2, [fp, #-64]
	moveq	r0, #1
	strne	r2, [r3]
.L829:
	sub	sp, fp, #40
	ldmfd	sp, {r4, r5, r6, r7, r8, r9, r10, fp, sp, pc}
.L802:
	ldr	r2, [r3, #2624]
	ldr	ip, [r4]
	ldr	r1, [r9, #200]
	add	r2, r2, ip
	cmp	r2, r1
	blt	.L800
	ldrb	r1, [r8]	@ zero_extendqisi2
	cmp	r1, #0
	ldr	r1, [fp, #-64]
	movne	r0, #1
	movne	r1, r2
	str	r1, [fp, #-64]
	b	.L800
.L795:
	ldr	r3, [fp, #-76]
	ldr	r0, [r9, #-68]
	ldr	r2, [r3, #2624]
	ldr	r3, [fp, #-60]
	add	r2, r2, r0
	ldr	r1, [r3, #200]
	cmp	r2, r1
	blt	.L793
	ldr	r3, [fp, #-56]
	ldrb	r1, [r3]	@ zero_extendqisi2
	ldr	r3, [fp, #-64]
	cmp	r1, #0
	movne	r3, r2
	str	r3, [fp, #-64]
	ldr	r3, [fp, #-72]
	movne	r3, #1
	str	r3, [fp, #-72]
	b	.L793
.L788:
	ldr	r2, [fp, #-80]
	cmp	r2, #0
	beq	.L829
	ldr	r1, [fp, #-60]
	mov	r2, #0
	str	r2, [fp, #-64]
	str	r2, [fp, #-72]
	ldr	r6, [r1, #2492]
	b	.L796
	UNWIND(.fnend)
	.size	HEVC_CheckThatAllRefPicsAreAvailable, .-HEVC_CheckThatAllRefPicsAreAvailable
	.align	2
	.global	HEVC_SetFrmRepeatCount
	.type	HEVC_SetFrmRepeatCount, %function
HEVC_SetFrmRepeatCount:
	UNWIND(.fnstart)
	@ args = 0, pretend = 0, frame = 0
	@ frame_needed = 1, uses_anonymous_args = 0
	UNWIND(.movsp ip)
	mov	ip, sp
	stmfd	sp!, {fp, ip, lr, pc}
	UNWIND(.pad #4)
	UNWIND(.save {fp, ip, lr})
	UNWIND(.setfp fp, ip, #-4)
	sub	fp, ip, #4
	ldr	r3, [r0, #2308]
	ldr	r3, [r3, #684]
	add	r3, r3, #2032
	add	r3, r3, #15
	cmp	r3, #4096
	movcc	r3, #0
	strcc	r3, [r1, #84]
	ldmccfd	sp, {fp, sp, pc}
	sub	sp, fp, #12
	ldmia	sp, {fp, sp, lr}
	b	HEVC_SetFrmRepeatCount.part.2
	UNWIND(.fnend)
	.size	HEVC_SetFrmRepeatCount, .-HEVC_SetFrmRepeatCount
	.align	2
	.global	HEVC_GetFreeFrameStoreNum
	.type	HEVC_GetFreeFrameStoreNum, %function
HEVC_GetFreeFrameStoreNum:
	UNWIND(.fnstart)
	@ args = 0, pretend = 0, frame = 0
	@ frame_needed = 1, uses_anonymous_args = 0
	UNWIND(.movsp ip)
	mov	ip, sp
	stmfd	sp!, {r4, r5, fp, ip, lr, pc}
	UNWIND(.pad #4)
	UNWIND(.save {r4, r5, fp, ip, lr})
	UNWIND(.setfp fp, ip, #-4)
	sub	fp, ip, #4
	add	r2, r0, #57088
	add	r4, r0, #68608
	add	r2, r2, #224
	add	r4, r4, #384
	mov	r5, #0
.L841:
	ldr	r3, [r2, #4]
	cmp	r3, #0
	bne	.L837
	cmp	r2, #0
	beq	.L838
	ldr	lr, [r0, #2492]
	cmp	lr, #0
	beq	.L838
	ldr	r1, [r0, #2512]
	cmp	r1, r2
	beq	.L837
	add	r1, r0, #2512
	b	.L839
.L840:
	ldr	ip, [r1, #4]!
	cmp	ip, r2
	beq	.L837
.L839:
	add	r3, r3, #1
	cmp	r3, lr
	bne	.L840
.L838:
	add	r5, r5, #1
.L837:
	add	r2, r2, #584
	cmp	r2, r4
	bne	.L841
	mov	r0, r5
	ldmfd	sp, {r4, r5, fp, sp, pc}
	UNWIND(.fnend)
	.size	HEVC_GetFreeFrameStoreNum, .-HEVC_GetFreeFrameStoreNum
	.align	2
	.global	HEVC_UpdateReflist
	.type	HEVC_UpdateReflist, %function
HEVC_UpdateReflist:
	UNWIND(.fnstart)
	@ args = 0, pretend = 0, frame = 8
	@ frame_needed = 1, uses_anonymous_args = 0
	UNWIND(.movsp ip)
	mov	ip, sp
	stmfd	sp!, {r4, r5, r6, r7, r8, r9, r10, fp, ip, lr, pc}
	UNWIND(.pad #4)
	UNWIND(.save {r4, r5, r6, r7, r8, r9, r10, fp, ip, lr})
	UNWIND(.setfp fp, ip, #-4)
	sub	fp, ip, #4
	UNWIND(.pad #12)
	sub	sp, sp, #12
	add	r10, r0, #45056
	mov	r5, r0
	ldr	r1, [r10, #1764]
	cmp	r1, #0
	beq	.L875
	add	r9, r0, #46848
	mov	r7, #0
	add	ip, r0, #40960
	mov	r6, r7
	mov	r8, r9
	add	r9, r9, #8
	add	r8, r8, #28
.L859:
	ldrb	r3, [r9, #1]!	@ zero_extendqisi2
	cmp	r3, #0
	beq	.L853
	ldr	r4, [r5, #2492]
	ldr	lr, [ip, #2624]
	ldr	r3, [r8]
	cmp	r4, #0
	add	lr, lr, r3
	beq	.L853
	ldr	r1, [r5, #2512]
	ldr	r3, [r1, #12]
	cmp	r3, lr
	addne	r2, r5, #2512
	movne	r3, #0
	bne	.L856
	b	.L907
.L858:
	ldr	r1, [r2, #4]!
	ldr	r0, [r1, #12]
	cmp	r0, lr
	beq	.L854
.L856:
	add	r3, r3, #1
	cmp	r3, r4
	bne	.L858
.L853:
	ldr	r1, [r10, #1764]
	add	r6, r6, #1
	add	r8, r8, #4
	cmp	r1, r6
	bhi	.L859
.L852:
	ldr	r2, [r5, #2488]
	str	r7, [r5, #2504]
	cmp	r2, r7
	addhi	r3, r7, #644
	movhi	r0, #0
	addhi	r3, r5, r3, lsl #2
	bls	.L864
.L863:
	add	r7, r7, #1
	str	r0, [r3, #4]!
	cmp	r7, r2
	bne	.L863
.L864:
	ldr	r8, [r10, #1768]
	add	r8, r1, r8
	cmp	r8, r6
	movls	r7, #0
	bls	.L862
	add	r9, r6, #11712
	add	r10, r6, #46848
	add	r9, r9, #7
	add	r10, r10, #8
	add	r10, r5, r10
	add	ip, r5, #40960
	add	r9, r5, r9, lsl #2
	mov	r7, #0
.L871:
	ldrb	r3, [r10, #1]!	@ zero_extendqisi2
	cmp	r3, #0
	beq	.L865
	ldr	r4, [r5, #2492]
	ldr	lr, [ip, #2624]
	ldr	r3, [r9]
	cmp	r4, #0
	add	lr, lr, r3
	beq	.L865
	ldr	r1, [r5, #2512]
	ldr	r3, [r1, #12]
	cmp	r3, lr
	addne	r2, r5, #2512
	movne	r3, #0
	bne	.L868
	b	.L908
.L870:
	ldr	r1, [r2, #4]!
	ldr	r0, [r1, #12]
	cmp	r0, lr
	beq	.L866
.L868:
	add	r3, r3, #1
	cmp	r3, r4
	bne	.L870
.L865:
	add	r6, r6, #1
	add	r9, r9, #4
	cmp	r8, r6
	bhi	.L871
.L911:
	ldr	r2, [r5, #2488]
.L862:
	cmp	r2, r7
	str	r7, [r5, #2508]
	bls	.L851
	add	r1, r7, #660
	mov	r3, #0
	add	r1, r1, #1
	add	r5, r5, r1, lsl #2
.L873:
	add	r7, r7, #1
	str	r3, [r5, #4]!
	cmp	r7, r2
	bne	.L873
.L851:
	sub	sp, fp, #40
	ldmfd	sp, {r4, r5, r6, r7, r8, r9, r10, fp, sp, pc}
.L907:
	mov	r3, #0
.L854:
	add	r4, r5, r3, lsl #2
	mov	r2, #1
	strb	r2, [r1, #1]
	ldr	r3, [r4, #2512]
	ldrb	r1, [r3, #1]	@ zero_extendqisi2
	cmp	r1, #0
	bne	.L909
.L857:
	mov	r2, #1
	str	r2, [r3, #56]
	ldr	r2, [r4, #2512]
	mov	r1, #0
	add	r3, r5, r7, lsl #2
	add	r7, r7, #1
	str	r1, [r2, #52]
	ldr	r2, [r4, #2512]
	str	r2, [r3, #2580]
	b	.L853
.L908:
	mov	r3, #0
.L866:
	add	r4, r5, r3, lsl #2
	mov	r2, #1
	strb	r2, [r1, #1]
	ldr	r3, [r4, #2512]
	ldrb	r1, [r3, #1]	@ zero_extendqisi2
	cmp	r1, #0
	bne	.L910
.L869:
	mov	r2, #1
	str	r2, [r3, #56]
	ldr	r2, [r4, #2512]
	add	r3, r7, #660
	mov	r1, #0
	add	r6, r6, #1
	add	r3, r3, #2
	cmp	r8, r6
	str	r1, [r2, #52]
	add	r7, r7, #1
	ldr	r2, [r4, #2512]
	add	r9, r9, #4
	str	r2, [r5, r3, asl #2]
	bhi	.L871
	b	.L911
.L909:
	ldr	r1, [r3, #32]
	ldr	r0, [r5, #244]
	str	ip, [fp, #-48]
	bl	FSP_SetRef
	ldr	r3, [r4, #2512]
	ldr	ip, [fp, #-48]
	b	.L857
.L910:
	ldr	r1, [r3, #32]
	ldr	r0, [r5, #244]
	str	ip, [fp, #-48]
	bl	FSP_SetRef
	ldr	r3, [r4, #2512]
	ldr	ip, [fp, #-48]
	b	.L869
.L875:
	mov	r7, r1
	mov	r6, r1
	b	.L852
	UNWIND(.fnend)
	.size	HEVC_UpdateReflist, .-HEVC_UpdateReflist
	.align	2
	.global	HEVC_UpdateLTReflist
	.type	HEVC_UpdateLTReflist, %function
HEVC_UpdateLTReflist:
	UNWIND(.fnstart)
	@ args = 0, pretend = 0, frame = 8
	@ frame_needed = 1, uses_anonymous_args = 0
	UNWIND(.movsp ip)
	mov	ip, sp
	stmfd	sp!, {r4, r5, r6, r7, r8, r9, r10, fp, ip, lr, pc}
	UNWIND(.pad #4)
	UNWIND(.save {r4, r5, r6, r7, r8, r9, r10, fp, ip, lr})
	UNWIND(.setfp fp, ip, #-4)
	sub	fp, ip, #4
	UNWIND(.pad #12)
	sub	sp, sp, #12
	add	r3, r0, #40960
	ldr	r2, [r0, #2304]
	movw	ip, #2024
	ldr	r3, [r3, #2652]
	add	r10, r0, #45056
	ldr	lr, [r0, #2300]
	movw	r4, #15788
	ldr	r5, [r10, #1768]
	mov	r1, #1
	mla	ip, ip, r3, r2
	ldr	r2, [r10, #1764]
	ldr	r3, [r10, #1772]
	add	r2, r2, r5
	sub	r2, r2, #1
	sub	r9, r3, #1
	cmp	r9, r2
	ldr	ip, [ip, #32]
	mla	r2, r4, ip, lr
	ldr	r8, [r2, #128]
	mov	r8, r1, asl r8
	ble	.L923
	add	r7, r3, #11712
	add	r3, r3, #46848
	add	r7, r7, #23
	add	r3, r3, #9
	add	r3, r0, r3
	sub	r8, r8, #1
	add	r7, r0, r7, lsl #2
	mov	r6, #0
	str	r6, [fp, #-48]
	mov	r6, r3
	str	r1, [fp, #-52]
.L919:
	ldrb	r3, [r6, #-1]!	@ zero_extendqisi2
	cmp	r3, #0
	beq	.L914
	ldrb	r4, [r7, #-1884]	@ zero_extendqisi2
	ldr	lr, [r7]
	ldr	r5, [r0, #2492]
	cmp	r4, #0
	andeq	lr, lr, r8
	cmp	r5, #0
	ble	.L914
	add	r1, r0, #2496
	mov	r3, #0
	add	r1, r1, #12
	b	.L918
.L917:
	add	r3, r3, #1
	cmp	r3, r5
	beq	.L914
.L918:
	ldr	ip, [r1, #4]!
	cmp	r4, #0
	ldr	r2, [ip, #12]
	andeq	r2, r2, r8
	cmp	lr, r2
	bne	.L917
	ldr	r1, [fp, #-48]
	add	r3, r0, r3, lsl #2
	ldr	lr, [fp, #-52]
	add	r2, r0, r1, lsl #2
	add	r1, r1, #1
	strb	lr, [ip, #1]
	mov	ip, #0
	str	r1, [fp, #-48]
	ldr	r1, [r3, #2512]
	str	ip, [r1, #56]
	ldr	r1, [r3, #2512]
	str	lr, [r1, #52]
	ldr	r3, [r3, #2512]
	str	r3, [r2, #2716]
.L914:
	ldr	r3, [r10, #1764]
	sub	r9, r9, #1
	ldr	r2, [r10, #1768]
	sub	r7, r7, #4
	add	r3, r3, r2
	sub	r3, r3, #1
	cmp	r3, r9
	blt	.L919
	ldr	r6, [fp, #-48]
	mov	r2, r6
.L913:
	ldr	r3, [r0, #2488]
	str	r2, [r0, #2500]
	cmp	r3, r6
	ble	.L912
	add	r1, r6, #676
	mov	r2, #0
	add	r1, r1, #2
	add	r0, r0, r1, lsl #2
.L921:
	add	r6, r6, #1
	str	r2, [r0, #4]!
	cmp	r6, r3
	bne	.L921
.L912:
	sub	sp, fp, #40
	ldmfd	sp, {r4, r5, r6, r7, r8, r9, r10, fp, sp, pc}
.L923:
	mov	r2, #0
	mov	r6, r2
	b	.L913
	UNWIND(.fnend)
	.size	HEVC_UpdateLTReflist, .-HEVC_UpdateLTReflist
	.align	2
	.global	HEVC_GetAPC
	.type	HEVC_GetAPC, %function
HEVC_GetAPC:
	UNWIND(.fnstart)
	@ args = 0, pretend = 0, frame = 0
	@ frame_needed = 1, uses_anonymous_args = 0
	UNWIND(.movsp ip)
	mov	ip, sp
	stmfd	sp!, {r4, r5, r6, fp, ip, lr, pc}
	UNWIND(.pad #4)
	UNWIND(.save {r4, r5, r6, fp, ip, lr})
	UNWIND(.setfp fp, ip, #-4)
	sub	fp, ip, #4
	UNWIND(.pad #20)
	sub	sp, sp, #20
	subs	r6, r1, #0
	mov	r5, r0
	beq	.L931
	ldr	ip, [r0, #2784]
	cmp	ip, #0
	beq	.L940
	ldr	r4, [r0, #2792]
	cmp	r4, #0
	addne	r3, r0, #2784
	movne	r4, #0
	addne	r3, r3, #8
	bne	.L935
	b	.L933
.L938:
	ldr	r2, [r3, #4]!
	cmp	r2, #0
	beq	.L933
.L935:
	add	r4, r4, #1
	cmp	r4, ip
	bne	.L938
.L940:
	mvn	r0, #6
.L944:
	sub	sp, fp, #24
	ldmfd	sp, {r4, r5, r6, fp, sp, pc}
.L933:
	ldr	r1, [r6, #32]
	ldr	r0, [r5, #244]
	bl	FSP_GetLogicFs
	subs	r1, r0, #0
	beq	.L936
	ldr	r3, [r1, #520]
	cmp	r3, #0
	beq	.L936
	add	r2, r5, r4, lsl #2
	mov	r0, #1
	ldr	ip, .L945
	mov	r3, r4
	str	r0, [r2, #2792]
	mov	r0, #13
	ldr	lr, [r1, #520]
	ldr	ip, [ip, #68]
	ldr	r1, .L945+4
	ldr	lr, [lr, #4]
	str	lr, [r2, #2856]
	ldr	lr, [r6, #12]
	str	lr, [r2, #2920]
	ldr	r2, [r5, #2788]
	add	r2, r2, #1
	str	r2, [r5, #2788]
	ldr	r2, [r6, #268]
	blx	ip
	mov	r0, #0
	str	r4, [r6, #28]
	sub	sp, fp, #24
	ldmfd	sp, {r4, r5, r6, fp, sp, pc}
.L936:
	ldrb	ip, [r6, #1]	@ zero_extendqisi2
	ldr	r0, .L945
	ldr	r2, [r6, #32]
	ldr	r3, [r6, #12]
	ldr	r4, [r0, #68]
	mov	r0, #0
	str	r1, [sp, #4]
	str	ip, [sp]
	str	r0, [sp, #8]
	ldr	r1, .L945+8
	blx	r4
	mvn	r0, #6
	b	.L944
.L931:
	ldr	ip, .L945
	mov	r0, r6
	movw	r3, #8211
	ldr	r2, .L945+12
	ldr	r1, .L945+16
	ldr	ip, [ip, #68]
	blx	ip
	mvn	r0, #6
	b	.L944
.L946:
	.align	2
.L945:
	.word	vfmw_Osal_Func_Ptr_S
	.word	.LC77
	.word	.LC78
	.word	.LC43
	.word	.LC44
	UNWIND(.fnend)
	.size	HEVC_GetAPC, .-HEVC_GetAPC
	.align	2
	.global	HEVC_CheckFrameStore
	.type	HEVC_CheckFrameStore, %function
HEVC_CheckFrameStore:
	UNWIND(.fnstart)
	@ args = 0, pretend = 0, frame = 0
	@ frame_needed = 1, uses_anonymous_args = 0
	UNWIND(.movsp ip)
	mov	ip, sp
	stmfd	sp!, {r4, r5, fp, ip, lr, pc}
	UNWIND(.pad #4)
	UNWIND(.save {r4, r5, fp, ip, lr})
	UNWIND(.setfp fp, ip, #-4)
	sub	fp, ip, #4
	UNWIND(.pad #8)
	sub	sp, sp, #8
	mov	r4, r1
	ldr	r0, [r0, #244]
	ldr	r1, [r1, #32]
	bl	FSP_GetLogicFs
	cmp	r0, #0
	beq	.L948
	ldrsb	r2, [r0, #1]
	cmp	r2, #3
	cmpne	r2, #0
	moveq	r0, #1
	movne	r0, #0
	beq	.L967
	ldr	r3, [r4, #8]
	cmp	r3, #1
	beq	.L954
	ldr	r2, [r4, #4]
	ldrb	r1, [r4]	@ zero_extendqisi2
	cmp	r2, #0
	beq	.L953
	cmp	r1, #1
	beq	.L953
.L964:
	sub	sp, fp, #20
	ldmfd	sp, {r4, r5, fp, sp, pc}
.L967:
	ldr	r5, .L968
	mov	r0, #13
	ldr	r3, [r4, #32]
	ldr	r1, .L968+4
	str	r2, [sp]
	ldr	ip, [r5, #68]
	ldr	r2, .L968+8
	blx	ip
.L950:
	ldr	r3, [r4, #8]
	cmp	r3, #1
	beq	.L954
	ldr	ip, [r5, #68]
	mov	r0, #1
	ldr	r3, [r4, #12]
	ldr	r2, .L968+8
	ldr	r1, .L968+12
	blx	ip
	mvn	r0, #2
	b	.L964
.L948:
	ldr	r1, [r4, #8]
	mov	r2, r4
	ldr	r5, .L968
	mov	r0, #1
	ldr	lr, [r4, #32]
	ldr	r3, [r4, #12]
	ldr	ip, [r5, #68]
	stmia	sp, {r1, lr}
	ldr	r1, .L968+16
	blx	ip
	b	.L950
.L953:
	ldr	ip, .L968
	mov	r3, r4
	str	r1, [sp, #4]
	mov	r0, #1
	str	r2, [sp]
	ldr	r1, .L968+20
	ldr	ip, [ip, #68]
	ldr	r2, .L968+8
	blx	ip
	mvn	r0, #0
	b	.L964
.L954:
	mov	r2, #1
	mov	r3, #2
	strb	r2, [r4, #2]
	mvn	r0, #2
	str	r3, [r4, #8]
	b	.L964
.L969:
	.align	2
.L968:
	.word	vfmw_Osal_Func_Ptr_S
	.word	.LC79
	.word	.LANCHOR1+244
	.word	.LC81
	.word	.LC80
	.word	.LC82
	UNWIND(.fnend)
	.size	HEVC_CheckFrameStore, .-HEVC_CheckFrameStore
	.align	2
	.global	HEVC_GetImagePara
	.type	HEVC_GetImagePara, %function
HEVC_GetImagePara:
	UNWIND(.fnstart)
	@ args = 0, pretend = 0, frame = 0
	@ frame_needed = 1, uses_anonymous_args = 0
	UNWIND(.movsp ip)
	mov	ip, sp
	stmfd	sp!, {r4, r5, fp, ip, lr, pc}
	UNWIND(.pad #4)
	UNWIND(.save {r4, r5, fp, ip, lr})
	UNWIND(.setfp fp, ip, #-4)
	sub	fp, ip, #4
	ldr	r3, [r1, #232]
	add	lr, r0, #24576
	mov	r2, #25600
	mov	r4, r1
	bic	r3, r3, #16128
	str	r2, [r1, #260]
	bic	r3, r3, #3
	ldr	r2, [r1, #16]
	str	r3, [r1, #232]
	ldr	r1, [lr, #2600]
	add	r1, r1, #12288
	ldr	r1, [r1, #180]
	bic	r1, r1, #-16777216
	bic	r1, r1, #255
	cmp	r1, #256
	moveq	ip, #0
	beq	.L971
	mov	ip, #256
	movt	ip, 1
	cmp	r1, ip
	movne	ip, #1
	bne	.L971
	add	r1, r0, #4096
	ldr	ip, [r1, #408]
	subs	ip, ip, #1
	movne	ip, #1
.L971:
	ldr	r1, [lr, #2604]
	ldrb	r1, [r1, #2633]	@ zero_extendqisi2
	cmp	r1, #0
	moveq	r1, #3072
	beq	.L972
	ldr	r1, [r4, #576]
	cmp	r1, #1
	cmpne	r1, #11
	moveq	r1, #1024
	bne	.L989
.L973:
	ldr	ip, [r4, #580]
	clz	ip, ip
	mov	ip, ip, lsr #5
.L972:
	and	r2, r2, #3
	ldr	lr, [r4, #4]
	orr	r3, r3, r2
	cmp	lr, #0
	orr	r3, r3, #8192
	orr	r3, r3, r1
	ldr	r1, [r4, #32]
	orr	r3, r3, ip, asl #8
	str	r3, [r4, #232]
	ldrne	r3, [r4, #20]
	strne	r3, [r4, #272]
	ldr	r0, [r0, #244]
	bl	FSP_GetFsImagePtr
	subs	r5, r0, #0
	ldmeqfd	sp, {r4, r5, fp, sp, pc}
	ldr	r3, .L990
	mov	r2, #504
	add	r1, r4, #72
	ldr	r3, [r3, #52]
	blx	r3
	mov	r3, #17
	str	r3, [r5, #384]
	mov	r3, #1
	ldr	r2, [r4, #48]
	strb	r3, [r5, #379]
	cmp	r2, #0
	strb	r3, [r5, #377]
	moveq	r3, #0
	movne	r3, #4
	strb	r3, [r5, #372]
	ldmfd	sp, {r4, r5, fp, sp, pc}
.L989:
	bic	r1, r1, #8
	cmp	r1, #2
	moveq	r1, #2048
	movne	r1, #3072
	b	.L973
.L991:
	.align	2
.L990:
	.word	vfmw_Osal_Func_Ptr_S
	UNWIND(.fnend)
	.size	HEVC_GetImagePara, .-HEVC_GetImagePara
	.align	2
	.global	HEVC_OutputCurrPic
	.type	HEVC_OutputCurrPic, %function
HEVC_OutputCurrPic:
	UNWIND(.fnstart)
	@ args = 0, pretend = 0, frame = 0
	@ frame_needed = 1, uses_anonymous_args = 0
	UNWIND(.movsp ip)
	mov	ip, sp
	stmfd	sp!, {r4, r5, r6, r7, r8, fp, ip, lr, pc}
	UNWIND(.pad #4)
	UNWIND(.save {r4, r5, r6, r7, r8, fp, ip, lr})
	UNWIND(.setfp fp, ip, #-4)
	sub	fp, ip, #4
	UNWIND(.pad #12)
	sub	sp, sp, #12
	add	r6, r0, #40960
	add	r1, r0, #43008
	mov	r4, r0
	ldr	r5, [r6, #2068]
	mov	r2, #504
	ldr	r3, [r6, #2056]
	add	r1, r1, #24
	add	r0, r5, #72
	str	r3, [r5, #20]
	bl	memcpy
	mov	r1, r5
	mov	r0, r4
	bl	HEVC_GetImagePara
	ldr	r1, [r5, #32]
	ldr	r0, [r4, #244]
	bl	FSP_GetFsImagePtr
	subs	r7, r0, #0
	beq	.L1014
	ldr	r2, [r5, #20]
	cmp	r2, #0
	str	r2, [r7, #200]
	bne	.L995
.L1000:
	ldrb	r3, [r6, #2016]	@ zero_extendqisi2
	cmp	r3, #0
	bne	.L1015
.L997:
	mov	r2, #1
	ldr	r1, [r5, #32]
	ldr	r0, [r4, #244]
	bl	FSP_SetDisplay
	add	r3, r4, #50944
	ldr	r0, [r4, #244]
	add	r3, r3, #56
	str	r7, [sp]
	mov	r2, r4
	mov	r1, #17
	bl	InsertImgToVoQueue
	cmp	r0, #1
	bne	.L1016
	ldr	r3, [r4, #2308]
	ldr	r3, [r3, #684]
	add	r3, r3, #2032
	add	r3, r3, #15
	cmp	r3, #4096
	movcc	r3, #0
	strcc	r3, [r7, #84]
	bcs	.L1017
.L1004:
	ldr	r2, [r4, #268]
	mov	r0, #0
	ldr	r3, [r4, #260]
	add	r2, r2, #1
	str	r2, [r4, #268]
	add	r3, r3, #1
	str	r3, [r4, #260]
.L994:
	sub	sp, fp, #32
	ldmfd	sp, {r4, r5, r6, r7, r8, fp, sp, pc}
.L995:
	ldr	r8, [r6, #2028]
	cmp	r8, #0
	beq	.L1018
.L998:
	ldr	r3, [r4, #2308]
	ldr	r3, [r3, #4]
	cmp	r3, r2
	bcs	.L1000
	ldr	r1, [r5, #32]
	mov	r2, #0
	ldr	r0, [r4, #244]
	bl	FSP_SetDisplay
	ldr	r2, [r4, #2308]
	ldr	ip, .L1019
	mov	r0, #1
	ldr	r3, [r7, #200]
	ldr	r1, [r2, #4]
	ldr	ip, [ip, #68]
	ldr	r2, .L1019+4
	str	r1, [sp]
	ldr	r1, .L1019+8
	blx	ip
	mvn	r0, #0
	b	.L994
.L1015:
	mov	r2, #1
	ldr	r1, [r5, #32]
	ldr	r0, [r4, #244]
	bl	FSP_SetRef
	b	.L997
.L1017:
	mov	r1, r7
	mov	r0, r4
	bl	HEVC_SetFrmRepeatCount.part.2
	b	.L1004
.L1018:
	ldr	r3, .L1019
	mov	r0, #1
	ldr	r2, .L1019+4
	ldr	r1, .L1019+12
	ldr	r3, [r3, #68]
	blx	r3
	ldr	r3, .L1019+16
	ldr	ip, [r3]
	cmp	ip, #0
	beq	.L999
	mov	r3, r8
	mov	r2, r8
	mov	r1, #111
	ldr	r0, [r4, #244]
	blx	ip
.L999:
	ldr	r2, [r7, #200]
	cmp	r2, #0
	bne	.L998
	b	.L1000
.L1016:
	ldr	r3, .L1019
	mov	r0, #1
	ldr	r2, .L1019+4
	ldr	r1, .L1019+20
	ldr	r3, [r3, #68]
	blx	r3
	ldr	r0, [r4, #244]
	ldr	r1, [r5, #32]
	mov	r2, #0
	bl	FSP_SetDisplay
	mvn	r0, #0
	b	.L994
.L1014:
	ldr	r3, .L1019
	ldr	r2, .L1019+4
	ldr	r1, .L1019+24
	ldr	r3, [r3, #68]
	blx	r3
	mvn	r0, #0
	b	.L994
.L1020:
	.align	2
.L1019:
	.word	vfmw_Osal_Func_Ptr_S
	.word	.LANCHOR1+268
	.word	.LC86
	.word	.LC84
	.word	g_event_report
	.word	.LC85
	.word	.LC83
	UNWIND(.fnend)
	.size	HEVC_OutputCurrPic, .-HEVC_OutputCurrPic
	.align	2
	.global	HEVC_FirstFrameFastOut
	.type	HEVC_FirstFrameFastOut, %function
HEVC_FirstFrameFastOut:
	UNWIND(.fnstart)
	@ args = 0, pretend = 0, frame = 0
	@ frame_needed = 1, uses_anonymous_args = 0
	UNWIND(.movsp ip)
	mov	ip, sp
	stmfd	sp!, {r4, r5, fp, ip, lr, pc}
	UNWIND(.pad #4)
	UNWIND(.save {r4, r5, fp, ip, lr})
	UNWIND(.setfp fp, ip, #-4)
	sub	fp, ip, #4
	mov	r4, r0
	bl	HEVC_OutputCurrPic
	subs	r5, r0, #0
	bne	.L1024
	add	r3, r4, #40960
	add	r1, r4, #49152
	mov	r2, #1
	mov	ip, #2
	ldr	r0, [r3, #2068]
	str	ip, [r0, #8]
	mov	r0, r5
	str	r2, [r1, #2200]
	ldr	r1, [r3, #2024]
	str	r1, [r4, #212]
	ldr	r3, [r3, #2068]
	strb	r2, [r3, #2]
	ldmfd	sp, {r4, r5, fp, sp, pc}
.L1024:
	ldr	r3, .L1025
	mov	r0, #1
	ldr	r2, .L1025+4
	ldr	r1, .L1025+8
	ldr	r3, [r3, #68]
	blx	r3
	mov	r0, r5
	ldmfd	sp, {r4, r5, fp, sp, pc}
.L1026:
	.align	2
.L1025:
	.word	vfmw_Osal_Func_Ptr_S
	.word	.LANCHOR1+288
	.word	.LC87
	UNWIND(.fnend)
	.size	HEVC_FirstFrameFastOut, .-HEVC_FirstFrameFastOut
	.align	2
	.global	HEVC_CheckOutputImage
	.type	HEVC_CheckOutputImage, %function
HEVC_CheckOutputImage:
	UNWIND(.fnstart)
	@ args = 0, pretend = 0, frame = 0
	@ frame_needed = 1, uses_anonymous_args = 0
	UNWIND(.movsp ip)
	mov	ip, sp
	stmfd	sp!, {fp, ip, lr, pc}
	UNWIND(.pad #4)
	UNWIND(.save {fp, ip, lr})
	UNWIND(.setfp fp, ip, #-4)
	sub	fp, ip, #4
	cmp	r1, #19
	bhi	.L1029
	mov	r3, #584
	mla	r1, r3, r1, r0
	add	r1, r1, #57088
	ldrb	r0, [r1, #225]	@ zero_extendqisi2
	adds	r0, r0, #0
	movne	r0, #1
	ldmfd	sp, {fp, sp, pc}
.L1029:
	mvn	r0, #0
	ldmfd	sp, {fp, sp, pc}
	UNWIND(.fnend)
	.size	HEVC_CheckOutputImage, .-HEVC_CheckOutputImage
	.align	2
	.global	HEVC_DECRecycleImage
	.type	HEVC_DECRecycleImage, %function
HEVC_DECRecycleImage:
	UNWIND(.fnstart)
	@ args = 0, pretend = 0, frame = 0
	@ frame_needed = 1, uses_anonymous_args = 0
	UNWIND(.movsp ip)
	mov	ip, sp
	stmfd	sp!, {r4, r5, r6, r7, r8, r9, fp, ip, lr, pc}
	UNWIND(.pad #4)
	UNWIND(.save {r4, r5, r6, r7, r8, r9, fp, ip, lr})
	UNWIND(.setfp fp, ip, #-4)
	sub	fp, ip, #4
	mov	r6, r0
	ldr	r0, [r0, #244]
	mov	r8, r1
	bl	FSP_GetLogicFs
	cmp	r0, #0
	beq	.L1035
	ldrsb	r3, [r0, #1]
	cmp	r3, #0
	addne	r4, r0, #216
	addne	r5, r0, #232
	movne	r7, #0
	beq	.L1040
.L1034:
	ldr	r1, [r4, #4]!
	cmp	r1, #0
	beq	.L1033
	ldr	r0, [r6, #244]
	bl	FreeUsdByDec
	str	r7, [r4]
.L1033:
	cmp	r4, r5
	bne	.L1034
	ldr	r0, [r6, #244]
	mov	r1, r8
	mov	r2, #0
	bl	FSP_SetDisplay
	mov	r0, #0
	ldmfd	sp, {r4, r5, r6, r7, r8, r9, fp, sp, pc}
.L1040:
	ldr	r3, .L1041
	mov	r0, #1
	ldr	r1, .L1041+4
	ldr	r3, [r3, #68]
	blx	r3
	mvn	r0, #0
	ldmfd	sp, {r4, r5, r6, r7, r8, r9, fp, sp, pc}
.L1035:
	mvn	r0, #0
	ldmfd	sp, {r4, r5, r6, r7, r8, r9, fp, sp, pc}
.L1042:
	.align	2
.L1041:
	.word	vfmw_Osal_Func_Ptr_S
	.word	.LC88
	UNWIND(.fnend)
	.size	HEVC_DECRecycleImage, .-HEVC_DECRecycleImage
	.align	2
	.global	HEVC_ArrangeVahbMem
	.type	HEVC_ArrangeVahbMem, %function
HEVC_ArrangeVahbMem:
	UNWIND(.fnstart)
	@ args = 12, pretend = 0, frame = 40
	@ frame_needed = 1, uses_anonymous_args = 0
	UNWIND(.movsp ip)
	mov	ip, sp
	stmfd	sp!, {r4, r5, r6, r7, fp, ip, lr, pc}
	UNWIND(.pad #4)
	UNWIND(.save {r4, r5, r6, r7, fp, ip, lr})
	UNWIND(.setfp fp, ip, #-4)
	sub	fp, ip, #4
	UNWIND(.pad #40)
	sub	sp, sp, #40
	ldr	r7, .L1051
	mov	r5, r1
	mov	r6, r2
	mov	r4, r0
	mov	r2, #32
	ldr	r3, [r7, #48]
	sub	r0, fp, #60
	mov	r1, #0
	blx	r3
	ldr	r2, [r4, #2308]
	str	r6, [fp, #-32]
	mov	r3, #0
	str	r5, [fp, #-52]
	ldr	r2, [r2, #28]
	str	r6, [fp, #-48]
	cmp	r2, #24
	str	r5, [fp, #-44]
	str	r6, [fp, #-40]
	str	r5, [fp, #-36]
	strb	r3, [fp, #-60]
	strb	r3, [fp, #-59]
	beq	.L1044
	ldr	r1, [r4, #2488]
	ldrb	r2, [fp, #12]	@ zero_extendqisi2
	strb	r3, [fp, #-55]
	mov	r3, #5
	strb	r1, [fp, #-56]
	strb	r3, [fp, #-54]
.L1047:
	sub	r1, fp, #60
	ldr	r0, [r4, #244]
	mov	r3, #0
	strb	r2, [fp, #-53]
	mov	r5, #1
	strb	r3, [fp, #-57]
	strb	r5, [fp, #-58]
	bl	FSP_ConfigInstance
	cmp	r0, #0
	bne	.L1045
	ldr	r1, [r4, #2308]
	sub	r3, fp, #64
	ldr	r0, [r4, #244]
	ldr	r2, [r1, #24]
	ldr	r1, [r1, #20]
	bl	FSP_PartitionFsMemory
	cmp	r0, #0
	moveq	r0, r5
	bne	.L1050
.L1049:
	sub	sp, fp, #28
	ldmfd	sp, {r4, r5, r6, r7, fp, sp, pc}
.L1044:
	mov	r1, #5
	strb	r3, [fp, #-56]
	strb	r3, [fp, #-55]
	mov	r2, #1
	strb	r1, [fp, #-54]
	b	.L1047
.L1045:
	ldr	r3, [r7, #68]
	mov	r0, r5
	ldr	r1, .L1051+4
	blx	r3
	mvn	r0, #19
	b	.L1049
.L1050:
	ldr	r3, [r7, #68]
	mov	r0, r5
	ldr	r1, .L1051+8
	blx	r3
	mvn	r0, #19
	b	.L1049
.L1052:
	.align	2
.L1051:
	.word	vfmw_Osal_Func_Ptr_S
	.word	.LC90
	.word	.LC89
	UNWIND(.fnend)
	.size	HEVC_ArrangeVahbMem, .-HEVC_ArrangeVahbMem
	.align	2
	.global	HEVC_AllocFrameStore
	.type	HEVC_AllocFrameStore, %function
HEVC_AllocFrameStore:
	UNWIND(.fnstart)
	@ args = 0, pretend = 0, frame = 0
	@ frame_needed = 1, uses_anonymous_args = 0
	UNWIND(.movsp ip)
	mov	ip, sp
	stmfd	sp!, {r4, r5, r6, r7, r8, r9, fp, ip, lr, pc}
	UNWIND(.pad #4)
	UNWIND(.save {r4, r5, r6, r7, r8, r9, fp, ip, lr})
	UNWIND(.setfp fp, ip, #-4)
	sub	fp, ip, #4
	add	ip, r0, #57088
	mov	r3, #0
	add	r5, r0, #40960
	add	ip, ip, #224
	mov	r6, r0
	mov	r7, r3
	strb	r3, [r5, #2017]
.L1058:
	ldr	r3, [ip, #4]
	cmp	r3, #0
	bne	.L1054
	cmp	ip, #0
	beq	.L1065
	ldr	lr, [r6, #2492]
	cmp	lr, #0
	beq	.L1065
	ldr	r2, [r6, #2512]
	cmp	r2, ip
	beq	.L1054
	add	r2, r6, #2512
	b	.L1056
.L1057:
	ldr	r1, [r2, #4]!
	cmp	r1, ip
	beq	.L1054
.L1056:
	add	r3, r3, #1
	cmp	r3, lr
	bne	.L1057
.L1065:
	mov	r3, #584
	add	r0, r5, #2064
	mla	r7, r3, r7, r6
	mov	r2, #101
	mov	r3, #1
	str	r2, [r5, #2056]
	strb	r3, [r5, #2017]
	mov	r2, #504
	add	r1, r7, #57344
	add	r0, r0, #8
	add	r1, r1, #40
	mov	r4, ip
	bl	memcpy
	add	r2, r7, #57088
	str	r4, [r5, #2068]
	mov	r3, #0
	add	r7, r2, #224
	str	r3, [r5, #2272]
	str	r3, [r2, #244]
	strb	r3, [r2, #226]
	strb	r3, [r4]
	ldr	r2, [r5, #2068]
	str	r3, [r2, #52]
	ldr	r2, [r5, #2068]
	str	r3, [r2, #56]
	ldr	r2, [r5, #2068]
	str	r3, [r2, #8]
	ldrb	r1, [r5, #2017]	@ zero_extendqisi2
	cmp	r1, #1
	bne	.L1063
	ldr	r0, [r6, #244]
	bl	FSP_NewLogicFs
	mov	r7, r0
	mov	r1, r0
	ldr	r0, [r6, #244]
	bl	FSP_GetLogicFs
	mvn	r3, r7
	mov	r3, r3, lsr #31
	cmp	r0, #0
	mov	r4, r0
	moveq	r3, #0
	cmp	r3, #0
	beq	.L1060
	ldr	r3, [r6, #2308]
	ldr	r3, [r3, #28]
	cmp	r3, #25
	beq	.L1068
.L1061:
	ldr	r8, .L1069
	add	r1, r4, #8
	ldr	r0, [r5, #2068]
	mov	r2, #504
	ldr	r3, [r8, #52]
	add	r0, r0, #72
	blx	r3
	ldr	r1, [r5, #2068]
	add	r0, r6, #43008
	ldr	r3, [r8, #52]
	add	r1, r1, #72
	mov	r2, #504
	add	r0, r0, #24
	blx	r3
	ldr	r3, [r5, #2068]
	mov	r0, #0
	str	r7, [r3, #32]
	ldrsb	r3, [r4, #4]
	str	r3, [r5, #2052]
	ldmfd	sp, {r4, r5, r6, r7, r8, r9, fp, sp, pc}
.L1054:
	add	r7, r7, #1
	add	ip, ip, #584
	cmp	r7, #20
	bne	.L1058
.L1063:
	ldr	r3, .L1069
	mov	r0, #0
	ldr	r1, .L1069+4
	ldr	r3, [r3, #68]
	blx	r3
	mvn	r0, #3
	ldmfd	sp, {r4, r5, r6, r7, r8, r9, fp, sp, pc}
.L1068:
	add	r3, r6, #24576
	ldr	r8, [r0, #200]
	ldr	r0, [r0, #112]
	ldr	r2, [r3, #2604]
	ldr	r3, [r2, #76]
	ldr	r2, [r2, #72]
	mul	r8, r8, r3
	str	r2, [r4, #172]
	str	r3, [r4, #176]
	add	r0, r8, r0
	str	r0, [r4, #116]
	bl	MEM_Phy2Vir
	ldr	r3, [r4, #128]
	ldr	r1, [r4, #96]
	add	r3, r8, r3
	ldr	r2, [r4, #200]
	add	r8, r8, r1
	str	r3, [r4, #132]
	str	r8, [r4, #100]
	add	r8, r8, r2
	str	r8, [r4, #108]
	str	r0, [r4, #44]
	mov	r0, r3
	bl	MEM_Phy2Vir
	str	r0, [r4, #60]
	b	.L1061
.L1060:
	ldr	r2, .L1069
	mov	r0, r3
	strb	r3, [r5, #2017]
	ldr	r1, .L1069+8
	ldr	r3, [r2, #68]
	blx	r3
	mvn	r0, #3
	ldmfd	sp, {r4, r5, r6, r7, r8, r9, fp, sp, pc}
.L1070:
	.align	2
.L1069:
	.word	vfmw_Osal_Func_Ptr_S
	.word	.LC91
	.word	.LC92
	UNWIND(.fnend)
	.size	HEVC_AllocFrameStore, .-HEVC_AllocFrameStore
	.align	2
	.global	HEVC_IsVoFinish
	.type	HEVC_IsVoFinish, %function
HEVC_IsVoFinish:
	UNWIND(.fnstart)
	@ args = 0, pretend = 0, frame = 0
	@ frame_needed = 1, uses_anonymous_args = 0
	UNWIND(.movsp ip)
	mov	ip, sp
	stmfd	sp!, {r4, r5, fp, ip, lr, pc}
	UNWIND(.pad #4)
	UNWIND(.save {r4, r5, fp, ip, lr})
	UNWIND(.setfp fp, ip, #-4)
	sub	fp, ip, #4
	mov	r5, r0
	ldr	r0, [r0, #244]
	bl	FSP_GetFspType
	cmn	r0, #1
	mov	r4, r0
	movne	r4, #0
	bne	.L1075
	b	.L1078
.L1074:
	ldrsb	r3, [r0, #1]
	cmp	r3, #3
	beq	.L1076
	cmp	r4, #64
	beq	.L1079
.L1075:
	mov	r1, r4
	ldr	r0, [r5, #244]
	bl	FSP_GetLogicFs
	add	r4, r4, #1
	cmp	r0, #0
	bne	.L1074
	ldr	r3, .L1080
	mov	r0, #1
	ldr	r1, .L1080+4
	ldr	r3, [r3, #68]
	blx	r3
	mvn	r0, #0
	ldmfd	sp, {r4, r5, fp, sp, pc}
.L1076:
	mov	r0, #0
	ldmfd	sp, {r4, r5, fp, sp, pc}
.L1078:
	ldr	r3, .L1080
	mov	r0, #1
	ldr	r1, .L1080+8
	ldr	r3, [r3, #68]
	blx	r3
	mov	r0, r4
	ldmfd	sp, {r4, r5, fp, sp, pc}
.L1079:
	mov	r0, #1
	ldmfd	sp, {r4, r5, fp, sp, pc}
.L1081:
	.align	2
.L1080:
	.word	vfmw_Osal_Func_Ptr_S
	.word	.LC94
	.word	.LC93
	UNWIND(.fnend)
	.size	HEVC_IsVoFinish, .-HEVC_IsVoFinish
	.align	2
	.global	HEVC_WaitVo
	.type	HEVC_WaitVo, %function
HEVC_WaitVo:
	UNWIND(.fnstart)
	@ args = 0, pretend = 0, frame = 0
	@ frame_needed = 1, uses_anonymous_args = 0
	UNWIND(.movsp ip)
	mov	ip, sp
	stmfd	sp!, {fp, ip, lr, pc}
	UNWIND(.pad #4)
	UNWIND(.save {fp, ip, lr})
	UNWIND(.setfp fp, ip, #-4)
	sub	fp, ip, #4
	ldmfd	sp, {fp, sp, pc}
	UNWIND(.fnend)
	.size	HEVC_WaitVo, .-HEVC_WaitVo
	.align	2
	.global	HEVC_GetBackPicFromVOQueue
	.type	HEVC_GetBackPicFromVOQueue, %function
HEVC_GetBackPicFromVOQueue:
	UNWIND(.fnstart)
	@ args = 0, pretend = 0, frame = 0
	@ frame_needed = 1, uses_anonymous_args = 0
	UNWIND(.movsp ip)
	mov	ip, sp
	stmfd	sp!, {r4, r5, r6, r7, r8, r9, fp, ip, lr, pc}
	UNWIND(.pad #4)
	UNWIND(.save {r4, r5, r6, r7, r8, r9, fp, ip, lr})
	UNWIND(.setfp fp, ip, #-4)
	sub	fp, ip, #4
	mov	r7, r0
	ldr	r0, [r0, #244]
	bl	FSP_GetFspType
	cmp	r0, #0
	beq	.L1097
.L1084:
	add	r5, r7, #57600
	add	r8, r7, #68608
	add	r5, r5, #8
	add	r8, r8, #680
	mov	r6, #0
.L1087:
	sub	r4, r5, #16
	strb	r6, [r5, #-295]
	str	r6, [r5, #-292]
.L1086:
	ldr	r1, [r4, #4]!
	cmp	r1, #0
	beq	.L1085
	ldr	r0, [r7, #244]
	bl	FreeUsdByDec
	str	r6, [r4]
.L1085:
	cmp	r4, r5
	bne	.L1086
	add	r5, r4, #584
	cmp	r5, r8
	bne	.L1087
	ldr	r2, [r7, #180]
	cmp	r2, #0
	ldmeqfd	sp, {r4, r5, r6, r7, r8, r9, fp, sp, pc}
	mov	r3, #0
	add	r7, r7, #2096
	mov	r1, r3
.L1089:
	add	r3, r3, #1
	str	r1, [r7, #4]!
	cmp	r3, r2
	bne	.L1089
	ldmfd	sp, {r4, r5, r6, r7, r8, r9, fp, sp, pc}
.L1097:
	add	r0, r7, #50944
	add	r0, r0, #56
	bl	ResetVoQueue
	b	.L1084
	UNWIND(.fnend)
	.size	HEVC_GetBackPicFromVOQueue, .-HEVC_GetBackPicFromVOQueue
	.align	2
	.global	HEVC_RemoveFrameStoreOutDPB
	.type	HEVC_RemoveFrameStoreOutDPB, %function
HEVC_RemoveFrameStoreOutDPB:
	UNWIND(.fnstart)
	@ args = 0, pretend = 0, frame = 0
	@ frame_needed = 1, uses_anonymous_args = 0
	UNWIND(.movsp ip)
	mov	ip, sp
	stmfd	sp!, {r4, r5, r6, r7, fp, ip, lr, pc}
	UNWIND(.pad #4)
	UNWIND(.save {r4, r5, r6, r7, fp, ip, lr})
	UNWIND(.setfp fp, ip, #-4)
	sub	fp, ip, #4
	add	r6, r0, r1, lsl #2
	mov	r7, #0
	mov	r4, r1
	mov	r5, r0
	ldr	r3, [r6, #2512]
	str	r7, [r3, #4]
	ldr	r3, [r6, #2512]
	ldr	r0, [r0, #244]
	ldr	r1, [r3, #32]
	bl	FSP_GetLogicFs
	cmp	r0, #0
	beq	.L1099
	ldrsb	r3, [r0, #1]
	cmp	r3, #3
	beq	.L1100
	ldr	r3, [r6, #2512]
	mov	r2, r7
	ldr	r0, [r5, #244]
	ldr	r1, [r3, #32]
	bl	FSP_SetDisplay
.L1100:
	ldr	r3, [r6, #2512]
	mov	r2, #0
	ldr	r0, [r5, #244]
	ldr	r1, [r3, #32]
	bl	FSP_SetRef
.L1099:
	ldr	r1, [r5, #2492]
	sub	r1, r1, #1
	cmp	r4, r1
	addls	r3, r4, #628
	addls	r3, r5, r3, lsl #2
	bhi	.L1103
.L1102:
	add	r4, r4, #1
	ldr	r2, [r3, #4]!
	cmp	r4, r1
	str	r2, [r3, #-4]
	bls	.L1102
.L1103:
	add	r3, r1, #628
	mov	r2, #0
	str	r2, [r5, r3, asl #2]
	str	r1, [r5, #2492]
	ldmfd	sp, {r4, r5, r6, r7, fp, sp, pc}
	UNWIND(.fnend)
	.size	HEVC_RemoveFrameStoreOutDPB, .-HEVC_RemoveFrameStoreOutDPB
	.align	2
	.global	HEVC_RemoveDummyFrame
	.type	HEVC_RemoveDummyFrame, %function
HEVC_RemoveDummyFrame:
	UNWIND(.fnstart)
	@ args = 0, pretend = 0, frame = 0
	@ frame_needed = 1, uses_anonymous_args = 0
	UNWIND(.movsp ip)
	mov	ip, sp
	stmfd	sp!, {r4, r5, r6, r7, fp, ip, lr, pc}
	UNWIND(.pad #4)
	UNWIND(.save {r4, r5, r6, r7, fp, ip, lr})
	UNWIND(.setfp fp, ip, #-4)
	sub	fp, ip, #4
	ldr	r3, [r0, #2492]
	mov	r5, r0
	cmp	r3, #0
	ldmeqfd	sp, {r4, r5, r6, r7, fp, sp, pc}
	mov	r7, #0
	mov	r4, r7
	mov	r6, r7
	b	.L1115
.L1114:
	ldr	r3, [r5, #2492]
	add	r4, r4, #1
	cmp	r4, r3
	mov	r7, r4
	bcs	.L1121
.L1115:
	add	r3, r4, #628
	ldr	r3, [r5, r3, asl #2]
	ldrb	r2, [r3]	@ zero_extendqisi2
	cmp	r2, #0
	beq	.L1114
	mov	r1, r7
	mov	r0, r5
	strb	r6, [r3]
	sub	r4, r4, #1
	bl	HEVC_RemoveApcStore
	mov	r1, r7
	mov	r0, r5
	bl	HEVC_RemoveFrameStoreOutDPB
	b	.L1114
.L1121:
	ldmfd	sp, {r4, r5, r6, r7, fp, sp, pc}
	UNWIND(.fnend)
	.size	HEVC_RemoveDummyFrame, .-HEVC_RemoveDummyFrame
	.align	2
	.global	HEVC_RemoveUnUsedFrameStore
	.type	HEVC_RemoveUnUsedFrameStore, %function
HEVC_RemoveUnUsedFrameStore:
	UNWIND(.fnstart)
	@ args = 0, pretend = 0, frame = 0
	@ frame_needed = 1, uses_anonymous_args = 0
	UNWIND(.movsp ip)
	mov	ip, sp
	stmfd	sp!, {r3, r4, r5, r6, r7, r8, r9, r10, fp, ip, lr, pc}
	UNWIND(.pad #4)
	UNWIND(.save {r3, r4, r5, r6, r7, r8, r9, r10, fp, ip, lr})
	UNWIND(.setfp fp, ip, #-4)
	sub	fp, ip, #4
	ldr	r5, [r0, #2492]
	mov	r7, r0
	cmp	r5, #0
	beq	.L1131
	mov	r6, #0
	mvn	r8, #0
	mov	r10, r6
	mov	r9, r6
	b	.L1130
.L1141:
	ldrsb	r3, [r0, #1]
	cmp	r3, #0
	cmpne	r3, #3
	ldr	r3, [r4, #2512]
	bne	.L1126
	ldr	r0, [r3, #8]
	cmp	r0, #1
	beq	.L1126
	str	r8, [r3, #32]
	mov	r2, #1
	ldr	r3, [r4, #2512]
	strb	r1, [r3, #1]
	ldr	r3, [r4, #2512]
	strb	r2, [r3, #2]
	ldr	r3, [r4, #2512]
.L1126:
	ldr	r3, [r3]
	bic	r3, r3, #-16777216
	bic	r3, r3, #255
	cmp	r3, #65536
	addne	r10, r10, #1
	beq	.L1140
	add	r9, r9, #1
	cmp	r9, r5
	beq	.L1123
.L1130:
	add	r4, r7, r10, lsl #2
	ldr	r0, [r7, #244]
	ldr	r3, [r4, #2512]
	ldr	r1, [r3, #32]
	bl	FSP_GetLogicFs
	cmp	r0, #0
	beq	.L1124
	ldrsb	r1, [r0]
	cmp	r1, #0
	beq	.L1141
	ldr	r3, [r4, #2512]
	b	.L1126
.L1124:
	ldr	r3, [r4, #2512]
	ldr	r1, [r3, #8]
	cmp	r1, #1
	beq	.L1126
	str	r8, [r3, #32]
	mov	r2, #1
	ldr	r3, [r4, #2512]
	strb	r0, [r3, #1]
	ldr	r3, [r4, #2512]
	strb	r2, [r3, #2]
	ldr	r3, [r4, #2512]
	b	.L1126
.L1140:
	mov	r1, r10
	mov	r0, r7
	add	r9, r9, #1
	bl	HEVC_RemoveFrameStoreOutDPB
	cmp	r9, r5
	mov	r6, #1
	bne	.L1130
.L1123:
	mov	r0, r6
	ldmfd	sp, {r3, r4, r5, r6, r7, r8, r9, r10, fp, sp, pc}
.L1131:
	mov	r6, r5
	b	.L1123
	UNWIND(.fnend)
	.size	HEVC_RemoveUnUsedFrameStore, .-HEVC_RemoveUnUsedFrameStore
	.align	2
	.global	HEVC_SimpleSlideDPB
	.type	HEVC_SimpleSlideDPB, %function
HEVC_SimpleSlideDPB:
	UNWIND(.fnstart)
	@ args = 0, pretend = 0, frame = 0
	@ frame_needed = 1, uses_anonymous_args = 0
	UNWIND(.movsp ip)
	mov	ip, sp
	stmfd	sp!, {r4, r5, fp, ip, lr, pc}
	UNWIND(.pad #4)
	UNWIND(.save {r4, r5, fp, ip, lr})
	UNWIND(.setfp fp, ip, #-4)
	sub	fp, ip, #4
	ldr	r3, [r0, #2488]
	mov	r4, r0
	ldr	r2, [r0, #2492]
	cmp	r2, r3
	ldmccfd	sp, {r4, r5, fp, sp, pc}
	cmp	r3, #15
	bls	.L1145
.L1146:
	ldr	r3, [r4, #2512]
	mov	r5, #0
	mov	r2, r5
	strb	r5, [r3, #1]
	ldr	r1, [r3, #32]
	ldr	r0, [r4, #244]
	bl	FSP_SetRef
	mov	r1, r5
	mov	r0, r4
	bl	HEVC_RemoveApcStore
	mov	r1, r5
	mov	r0, r4
	sub	sp, fp, #20
	ldmfd	sp, {r4, r5, fp, sp, lr}
	b	HEVC_RemoveFrameStoreOutDPB
.L1145:
	bl	HEVC_IncreaseDPBSize
	cmp	r0, #0
	bne	.L1146
	ldmfd	sp, {r4, r5, fp, sp, pc}
	UNWIND(.fnend)
	.size	HEVC_SimpleSlideDPB, .-HEVC_SimpleSlideDPB
	.align	2
	.global	HEVC_GetMinPOC
	.type	HEVC_GetMinPOC, %function
HEVC_GetMinPOC:
	UNWIND(.fnstart)
	@ args = 0, pretend = 0, frame = 0
	@ frame_needed = 1, uses_anonymous_args = 0
	UNWIND(.movsp ip)
	mov	ip, sp
	stmfd	sp!, {r4, r5, r6, r7, fp, ip, lr, pc}
	UNWIND(.pad #4)
	UNWIND(.save {r4, r5, r6, r7, fp, ip, lr})
	UNWIND(.setfp fp, ip, #-4)
	sub	fp, ip, #4
	mov	r7, r2
	mvn	r3, #-2147483648
	mov	r2, #0
	str	r2, [r7]
	str	r3, [r1]
	mov	r5, r1
	ldr	r2, [r0, #2492]
	mov	r6, r0
	ldr	r3, [r0, #2488]
	cmp	r2, r3
	bhi	.L1155
	cmp	r2, #0
	ldmeqfd	sp, {r4, r5, r6, r7, fp, sp, pc}
.L1156:
	add	lr, r6, #2496
	mov	r3, #0
	add	lr, lr, #12
.L1152:
	ldr	r2, [lr, #4]!
	ldr	r4, [r5]
	ldr	ip, [r2, #12]
	cmp	r4, ip
	strgt	ip, [r5]
	strgt	r3, [r7]
	add	r3, r3, #1
	ldr	ip, [r6, #2492]
	cmp	ip, r3
	bhi	.L1152
	ldmfd	sp, {r4, r5, r6, r7, fp, sp, pc}
.L1155:
	ldr	ip, .L1157
	mov	r0, #1
	ldr	r1, .L1157+4
	ldr	ip, [ip, #68]
	blx	ip
	ldr	r2, [r6, #2488]
	cmp	r2, #0
	str	r2, [r6, #2492]
	bne	.L1156
	ldmfd	sp, {r4, r5, r6, r7, fp, sp, pc}
.L1158:
	.align	2
.L1157:
	.word	vfmw_Osal_Func_Ptr_S
	.word	.LC95
	UNWIND(.fnend)
	.size	HEVC_GetMinPOC, .-HEVC_GetMinPOC
	.align	2
	.global	HEVC_GetReRangeFlag
	.type	HEVC_GetReRangeFlag, %function
HEVC_GetReRangeFlag:
	UNWIND(.fnstart)
	@ args = 0, pretend = 0, frame = 0
	@ frame_needed = 1, uses_anonymous_args = 0
	UNWIND(.movsp ip)
	mov	ip, sp
	stmfd	sp!, {r4, r5, fp, ip, lr, pc}
	UNWIND(.pad #4)
	UNWIND(.save {r4, r5, fp, ip, lr})
	UNWIND(.setfp fp, ip, #-4)
	sub	fp, ip, #4
	add	r3, r0, #40960
	ldr	r4, [r0, #2304]
	movw	r5, #2024
	movw	lr, #15788
	ldr	ip, [r3, #2652]
	ldr	r3, [r0, #2300]
	mla	ip, r5, ip, r4
	ldr	ip, [ip, #32]
	mla	r3, lr, ip, r3
	ldrb	ip, [r3, #2]	@ zero_extendqisi2
	ldr	lr, [r3, #72]
	cmp	ip, #0
	ldr	r3, [r3, #76]
	bne	.L1163
	cmp	r2, r3
	cmpeq	r1, lr
	beq	.L1164
.L1163:
	mov	r0, #1
	ldmfd	sp, {r4, r5, fp, sp, pc}
.L1164:
	ldr	r3, [r0, #168]
	cmp	r3, #0
	beq	.L1163
	ldr	r3, [r0, #2308]
	ldr	r0, [r3, #900]
	adds	r0, r0, #0
	movne	r0, #1
	ldmfd	sp, {r4, r5, fp, sp, pc}
	UNWIND(.fnend)
	.size	HEVC_GetReRangeFlag, .-HEVC_GetReRangeFlag
	.align	2
	.global	HEVC_CalcStreamBits
	.type	HEVC_CalcStreamBits, %function
HEVC_CalcStreamBits:
	UNWIND(.fnstart)
	@ args = 0, pretend = 0, frame = 0
	@ frame_needed = 1, uses_anonymous_args = 0
	UNWIND(.movsp ip)
	mov	ip, sp
	stmfd	sp!, {r4, fp, ip, lr, pc}
	UNWIND(.pad #4)
	UNWIND(.save {r4, fp, ip, lr})
	UNWIND(.setfp fp, ip, #-4)
	sub	fp, ip, #4
	ldr	r4, [r0, #2316]
	ldrb	lr, [r4, #1]	@ zero_extendqisi2
	cmp	lr, #0
	beq	.L1176
	mov	r3, #0
	mov	r2, r4
	mov	r1, r3
.L1167:
	add	r3, r3, #1
	ldr	ip, [r2, #48]
	cmp	r3, lr
	add	r2, r2, #28
	add	r1, r1, ip
	bne	.L1167
.L1166:
	ldr	r2, [r0, #2292]
	mov	r3, lr, asl #5
	sub	lr, r3, lr, asl #2
	add	r4, r4, lr
	ldr	r3, [r2, #24]
	and	r3, r3, #7
	str	r3, [r4, #60]
	ldr	r2, [r0, #2316]
	ldr	r3, [r0, #2292]
	ldrb	lr, [r2, #1]	@ zero_extendqisi2
	ldr	ip, [r3, #24]
	mov	r3, lr, asl #5
	cmp	ip, #0
	sub	r3, r3, lr, asl #2
	add	r4, ip, #7
	add	r3, r2, r3
	movlt	ip, r4
	ldr	r2, [r3, #52]
	add	r2, r2, ip, asr #3
	rsb	r2, r1, r2
	str	r2, [r3, #64]
	ldr	ip, [r0, #2316]
	ldr	r3, [r0, #2292]
	ldrb	r2, [ip, #1]	@ zero_extendqisi2
	ldr	lr, [r3, #24]
	mov	r3, r2, asl #5
	sub	r2, r3, r2, asl #2
	add	r2, ip, r2
	ldr	r3, [r2, #48]
	add	r3, r1, r3
	rsb	r3, lr, r3, lsl #3
	str	r3, [r2, #56]
	ldr	r2, [r0, #2316]
	ldrb	r1, [r2, #1]	@ zero_extendqisi2
	mov	r3, r1, asl #5
	sub	r3, r3, r1, asl #2
	add	r3, r2, r3
	ldr	r2, [r3, #64]
	ldr	r1, [r3, #60]
	and	r2, r2, #3
	add	r2, r1, r2, lsl #3
	str	r2, [r3, #60]
	ldr	r2, [r0, #2316]
	ldrb	r1, [r2, #1]	@ zero_extendqisi2
	mov	r3, r1, asl #5
	sub	r3, r3, r1, asl #2
	add	r3, r2, r3
	ldr	r2, [r3, #64]
	bic	r2, r2, #3
	str	r2, [r3, #64]
	ldr	r3, [r0, #2316]
	ldr	r2, [r3, #8]
	sub	ip, r2, #1
	cmp	ip, #1
	bhi	.L1183
	ldrb	r1, [r3, #1]	@ zero_extendqisi2
	add	lr, r1, #1
	cmp	r2, lr
	movhi	r2, #1
	movls	r2, #0
	cmp	lr, #1
	movhi	r2, #0
	cmp	r2, #0
	beq	.L1169
	add	r1, r1, #2
	mov	ip, #0
.L1170:
	sub	r2, r1, #1
	mov	lr, r2, asl #5
	sub	lr, lr, r2, asl #2
	add	r3, r3, lr
	str	ip, [r3, #60]
	ldr	r2, [r0, #2316]
	add	r2, r2, lr
	ldr	r3, [r2, #52]
	str	r3, [r2, #64]
	ldr	r2, [r0, #2316]
	add	r2, r2, lr
	ldr	r3, [r2, #48]
	mov	r3, r3, asl #3
	str	r3, [r2, #56]
	ldr	r3, [r0, #2316]
	add	r3, r3, lr
	ldr	r2, [r3, #64]
	ldr	r4, [r3, #60]
	and	r2, r2, #15
	add	r2, r4, r2, lsl #3
	str	r2, [r3, #60]
	ldr	r2, [r0, #2316]
	add	r3, r2, lr
	ldr	r2, [r3, #64]
	bic	r2, r2, #15
	str	r2, [r3, #64]
	ldr	r3, [r0, #2316]
	ldr	r2, [r3, #8]
	cmp	r1, #1
	cmpls	r1, r2
	add	r1, r1, #1
	movcc	lr, #1
	movcs	lr, #0
	cmp	lr, #0
	bne	.L1170
	sub	ip, r2, #1
.L1169:
	mov	r1, ip, asl #5
	ldr	lr, [r3, #12]
	sub	ip, r1, ip, asl #2
	add	r3, r3, ip
	ldr	r2, [r3, #56]
	rsb	r2, lr, r2
	str	r2, [r3, #56]
	ldr	lr, [r0, #2316]
	ldrb	r1, [lr, #1]	@ zero_extendqisi2
	ldr	r3, [lr, #8]
	cmp	r1, r3
	ldmcsfd	sp, {r4, fp, sp, pc}
	sxth	r3, r1
	add	r0, r0, #40960
	mov	r2, r3, asl #5
	sub	r3, r2, r3, asl #2
	add	r3, lr, r3
.L1174:
	ldr	r2, [r3, #64]
	add	r1, r1, #1
	ldr	ip, [r0, #2048]
	add	r3, r3, #28
	cmp	r2, ip
	strcc	r2, [r0, #2048]
	ldr	r2, [lr, #8]
	cmp	r2, r1
	bhi	.L1174
	ldmfd	sp, {r4, fp, sp, pc}
.L1183:
	ldr	r3, .L1184
	mov	r0, #0
	ldr	r1, .L1184+4
	ldr	r3, [r3, #68]
	sub	sp, fp, #16
	ldmia	sp, {r4, fp, sp, lr}
	bx	r3
.L1176:
	mov	r1, lr
	b	.L1166
.L1185:
	.align	2
.L1184:
	.word	vfmw_Osal_Func_Ptr_S
	.word	.LC96
	UNWIND(.fnend)
	.size	HEVC_CalcStreamBits, .-HEVC_CalcStreamBits
	.align	2
	.global	HEVC_VpsSpsPpsCheck
	.type	HEVC_VpsSpsPpsCheck, %function
HEVC_VpsSpsPpsCheck:
	UNWIND(.fnstart)
	@ args = 0, pretend = 0, frame = 0
	@ frame_needed = 1, uses_anonymous_args = 0
	UNWIND(.movsp ip)
	mov	ip, sp
	stmfd	sp!, {fp, ip, lr, pc}
	UNWIND(.pad #4)
	UNWIND(.save {fp, ip, lr})
	UNWIND(.setfp fp, ip, #-4)
	sub	fp, ip, #4
	add	r2, r0, #40960
	ldr	r3, [r0, #156]
	ldr	r2, [r2, #2652]
	cmp	r2, r3
	bge	.L1194
	movw	r3, #2024
	ldr	r1, [r0, #2304]
	mul	r3, r3, r2
	add	ip, r1, r3
	ldrb	r3, [r1, r3]	@ zero_extendqisi2
	cmp	r3, #0
	beq	.L1195
	ldr	r2, [ip, #32]
	ldr	r3, [r0, #152]
	cmp	r2, r3
	bge	.L1196
	ldr	r1, [r0, #2300]
	movw	r3, #15788
	mla	r3, r3, r2, r1
	ldrb	r1, [r3, #1]	@ zero_extendqisi2
	cmp	r1, #0
	beq	.L1197
	ldr	r2, [r3, #52]
	ldr	r3, [r0, #148]
	cmp	r2, r3
	bcs	.L1198
	movw	r3, #12820
	ldr	r1, [r0, #2296]
	mul	r3, r3, r2
	ldrb	r3, [r1, r3]	@ zero_extendqisi2
	cmp	r3, #0
	beq	.L1199
	mov	r0, #0
	ldmfd	sp, {fp, sp, pc}
.L1194:
	ldr	r3, .L1200
	mov	r0, #1
	ldr	r1, .L1200+4
	ldr	r3, [r3, #68]
	blx	r3
	mvn	r0, #0
	ldmfd	sp, {fp, sp, pc}
.L1195:
	ldr	r3, .L1200
	mov	r0, #1
	ldr	r1, .L1200+8
	ldr	r3, [r3, #68]
	blx	r3
	mvn	r0, #0
	ldmfd	sp, {fp, sp, pc}
.L1196:
	ldr	r3, .L1200
	mov	r0, #1
	ldr	r1, .L1200+12
	ldr	r3, [r3, #68]
	blx	r3
	mvn	r0, #0
	ldmfd	sp, {fp, sp, pc}
.L1197:
	ldr	r3, .L1200
	mov	r0, #1
	ldr	r1, .L1200+16
	ldr	r3, [r3, #68]
	blx	r3
	mvn	r0, #0
	ldmfd	sp, {fp, sp, pc}
.L1198:
	ldr	r3, .L1200
	mov	r0, #1
	ldr	r1, .L1200+20
	ldr	r3, [r3, #68]
	blx	r3
	mvn	r0, #0
	ldmfd	sp, {fp, sp, pc}
.L1199:
	ldr	r3, .L1200
	mov	r0, #1
	ldr	r1, .L1200+24
	ldr	r3, [r3, #68]
	blx	r3
	mvn	r0, #0
	ldmfd	sp, {fp, sp, pc}
.L1201:
	.align	2
.L1200:
	.word	vfmw_Osal_Func_Ptr_S
	.word	.LC97
	.word	.LC98
	.word	.LC99
	.word	.LC100
	.word	.LC101
	.word	.LC102
	UNWIND(.fnend)
	.size	HEVC_VpsSpsPpsCheck, .-HEVC_VpsSpsPpsCheck
	.align	2
	.global	HEVC_IsNewPic
	.type	HEVC_IsNewPic, %function
HEVC_IsNewPic:
	UNWIND(.fnstart)
	@ args = 0, pretend = 0, frame = 0
	@ frame_needed = 1, uses_anonymous_args = 0
	UNWIND(.movsp ip)
	mov	ip, sp
	stmfd	sp!, {r4, r5, fp, ip, lr, pc}
	UNWIND(.pad #4)
	UNWIND(.save {r4, r5, fp, ip, lr})
	UNWIND(.setfp fp, ip, #-4)
	sub	fp, ip, #4
	UNWIND(.pad #16)
	sub	sp, sp, #16
	ldr	r2, [r0, #2316]
	ldr	r1, [r0, #200]
	ldr	r3, [r2, #16]
	cmn	r1, #-2147483647
	sub	ip, r3, #16
	beq	.L1234
	cmp	r3, #21
	cmpne	ip, #2
	addls	ip, r0, #40960
	ldrls	lr, [ip, #2624]
	bls	.L1208
.L1216:
	sub	r3, r3, #19
	add	ip, r0, #40960
	cmp	r3, #1
	movls	r1, #-2147483647
	strls	r1, [r0, #200]
	ldr	lr, [ip, #2624]
.L1208:
	cmp	lr, r1
	bge	.L1206
	ldr	r4, [r2, #16]
	sub	r3, r4, #8
	cmp	r3, #1
	bls	.L1235
.L1209:
	ldrb	r1, [r0, #7]	@ zero_extendqisi2
	cmp	r1, #0
	beq	.L1210
	ldr	r4, [r0, #204]
	cmp	lr, r4
	bge	.L1210
	ldr	r5, [r2, #16]
	sub	r3, r5, #8
	cmp	r3, #1
	bls	.L1236
.L1210:
	ldrb	r3, [ip, #2579]	@ zero_extendqisi2
	cmp	r3, #0
	bne	.L1211
	ldr	r2, [r2, #16]
	sub	r1, r2, #19
	cmp	r1, #1
	bls	.L1231
	cmp	r2, #21
	beq	.L1231
	sub	r2, r2, #16
	cmp	r2, #2
	strls	lr, [r0, #204]
	movls	r3, #1
	strlsb	r3, [r0, #7]
.L1211:
	ldr	r2, [r0, #216]
	ldrb	r3, [ip, #2577]	@ zero_extendqisi2
	cmp	r2, #0
	ldreq	r1, [ip, #2652]
	bne	.L1237
	ldr	r2, [r0, #272]
	cmp	r2, r1
	movne	r0, #1
	beq	.L1238
.L1229:
	sub	sp, fp, #20
	ldmfd	sp, {r4, r5, fp, sp, pc}
.L1234:
	cmp	ip, #5
	bhi	.L1232
	cmp	r3, #21
	cmpne	ip, #2
	bhi	.L1216
	add	ip, r0, #40960
	ldr	lr, [ip, #2624]
	str	lr, [r0, #200]
.L1206:
	ldrb	r1, [r0, #2]	@ zero_extendqisi2
	cmp	r1, #0
	beq	.L1209
	ldr	r4, [r2, #16]
	sub	r3, r4, #8
	cmp	r3, #1
	bhi	.L1209
	ldr	r2, .L1239
	movw	r3, #9315
	str	r1, [sp, #4]
	mov	r0, #1
	str	r4, [sp, #8]
	str	lr, [sp]
	ldr	r1, .L1239+4
	ldr	ip, [r2, #68]
	ldr	r2, .L1239+8
	blx	ip
	mov	r0, #2
	b	.L1229
.L1237:
	add	r2, r2, #14080
	ldr	r1, [ip, #2652]
	add	r2, r2, #45
	ldr	r2, [r0, r2, asl #2]
	cmp	r1, r2
	ldr	r2, [r0, #272]
	movne	r3, #1
	cmp	r2, r1
	movne	r0, #1
	bne	.L1229
	b	.L1238
.L1236:
	ldr	r2, .L1239
	movw	r3, #9325
	stmia	sp, {r1, lr}
	mov	r0, #1
	str	r5, [sp, #12]
	str	r4, [sp, #8]
	ldr	r1, .L1239+12
	ldr	ip, [r2, #68]
	ldr	r2, .L1239+8
	blx	ip
.L1232:
	mov	r0, #2
	sub	sp, fp, #20
	ldmfd	sp, {r4, r5, fp, sp, pc}
.L1238:
	ldr	r0, [r0, #252]
	cmp	r0, lr
	moveq	r0, r3
	movne	r0, #1
	sub	sp, fp, #20
	ldmfd	sp, {r4, r5, fp, sp, pc}
.L1235:
	ldr	r2, .L1239
	movw	r3, #9307
	str	r1, [sp, #4]
	mov	r0, #1
	str	r4, [sp, #8]
	str	lr, [sp]
	ldr	r1, .L1239+16
	ldr	ip, [r2, #68]
	ldr	r2, .L1239+8
	blx	ip
	mov	r0, #2
	b	.L1229
.L1231:
	str	lr, [r0, #204]
	strb	r3, [r0, #7]
	b	.L1211
.L1240:
	.align	2
.L1239:
	.word	vfmw_Osal_Func_Ptr_S
	.word	.LC104
	.word	.LANCHOR1+312
	.word	.LC105
	.word	.LC103
	UNWIND(.fnend)
	.size	HEVC_IsNewPic, .-HEVC_IsNewPic
	.align	2
	.global	HEVC_ReadByteAlignment
	.type	HEVC_ReadByteAlignment, %function
HEVC_ReadByteAlignment:
	UNWIND(.fnstart)
	@ args = 0, pretend = 0, frame = 0
	@ frame_needed = 1, uses_anonymous_args = 0
	UNWIND(.movsp ip)
	mov	ip, sp
	stmfd	sp!, {r4, r5, fp, ip, lr, pc}
	UNWIND(.pad #4)
	UNWIND(.save {r4, r5, fp, ip, lr})
	UNWIND(.setfp fp, ip, #-4)
	sub	fp, ip, #4
	mov	r1, #1
	mov	r4, r0
	ldr	r0, [r0, #2292]
	bl	BsGet
	cmp	r0, #0
	beq	.L1246
	ldr	r0, [r4, #2292]
	bl	BsBitsToNextByte
	subs	r1, r0, #0
	beq	.L1245
	ldr	r0, [r4, #2292]
	bl	BsGet
	ldr	r3, .L1247
	ldr	r1, .L1247+4
	ldr	r3, [r3, #68]
	mov	r2, r0
	mov	r0, #19
	blx	r3
.L1245:
	mov	r0, #0
	ldmfd	sp, {r4, r5, fp, sp, pc}
.L1246:
	ldr	r3, .L1247
	mov	r0, #1
	ldr	r1, .L1247+8
	ldr	r3, [r3, #68]
	blx	r3
	mvn	r0, #0
	ldmfd	sp, {r4, r5, fp, sp, pc}
.L1248:
	.align	2
.L1247:
	.word	vfmw_Osal_Func_Ptr_S
	.word	.LC107
	.word	.LC106
	UNWIND(.fnend)
	.size	HEVC_ReadByteAlignment, .-HEVC_ReadByteAlignment
	.align	2
	.global	HEVC_GetRapPicFlag
	.type	HEVC_GetRapPicFlag, %function
HEVC_GetRapPicFlag:
	UNWIND(.fnstart)
	@ args = 0, pretend = 0, frame = 0
	@ frame_needed = 1, uses_anonymous_args = 0
	UNWIND(.movsp ip)
	mov	ip, sp
	stmfd	sp!, {fp, ip, lr, pc}
	UNWIND(.pad #4)
	UNWIND(.save {fp, ip, lr})
	UNWIND(.setfp fp, ip, #-4)
	sub	fp, ip, #4
	add	r0, r0, #40960
	ldr	r0, [r0, #2648]
	sub	r0, r0, #16
	cmp	r0, #5
	movhi	r0, #0
	movls	r0, #1
	ldmfd	sp, {fp, sp, pc}
	UNWIND(.fnend)
	.size	HEVC_GetRapPicFlag, .-HEVC_GetRapPicFlag
	.align	2
	.global	HEVC_GetIdrPicFlag
	.type	HEVC_GetIdrPicFlag, %function
HEVC_GetIdrPicFlag:
	UNWIND(.fnstart)
	@ args = 0, pretend = 0, frame = 0
	@ frame_needed = 1, uses_anonymous_args = 0
	UNWIND(.movsp ip)
	mov	ip, sp
	stmfd	sp!, {fp, ip, lr, pc}
	UNWIND(.pad #4)
	UNWIND(.save {fp, ip, lr})
	UNWIND(.setfp fp, ip, #-4)
	sub	fp, ip, #4
	add	r0, r0, #40960
	ldr	r0, [r0, #2648]
	sub	r0, r0, #19
	cmp	r0, #1
	movhi	r0, #0
	movls	r0, #1
	ldmfd	sp, {fp, sp, pc}
	UNWIND(.fnend)
	.size	HEVC_GetIdrPicFlag, .-HEVC_GetIdrPicFlag
	.align	2
	.global	HEVC_DecPTL
	.type	HEVC_DecPTL, %function
HEVC_DecPTL:
	UNWIND(.fnstart)
	@ args = 0, pretend = 0, frame = 112
	@ frame_needed = 1, uses_anonymous_args = 0
	UNWIND(.movsp ip)
	mov	ip, sp
	stmfd	sp!, {r4, r5, r6, r7, r8, r9, r10, fp, ip, lr, pc}
	UNWIND(.pad #4)
	UNWIND(.save {r4, r5, r6, r7, r8, r9, r10, fp, ip, lr})
	UNWIND(.setfp fp, ip, #-4)
	sub	fp, ip, #4
	UNWIND(.pad #116)
	sub	sp, sp, #116
	subs	r8, r2, #0
	mov	r5, r1
	mov	r4, r0
	str	r3, [fp, #-152]
	moveq	r1, #8
	bne	.L1290
.L1287:
	ldr	r0, [r4, #2292]
	bl	BsGet
	ldr	r3, [fp, #-152]
	cmp	r3, #0
	str	r0, [r5, #284]
	ble	.L1254
	ldr	r3, [fp, #-152]
	add	r6, r5, #42
	add	r9, r3, #42
	mov	r7, r6
	add	r9, r5, r9
	b	.L1256
.L1255:
	mov	r1, #1
	ldr	r0, [r4, #2292]
	bl	BsGet
	strb	r0, [r7, #1]!
	cmp	r7, r9
	beq	.L1291
.L1256:
	cmp	r8, #0
	beq	.L1255
	mov	r1, #1
	ldr	r0, [r4, #2292]
	bl	BsGet
	strb	r0, [r7, #-5]
	b	.L1255
.L1291:
	ldr	r3, [fp, #-152]
	cmp	r3, #7
	ldrle	r7, [fp, #-152]
	ble	.L1260
	b	.L1266
.L1259:
	cmp	r7, #8
	beq	.L1266
.L1260:
	mov	r1, #2
	ldr	r0, [r4, #2292]
	bl	BsGet
	add	r7, r7, #1
	cmp	r0, #0
	beq	.L1259
	ldr	r3, .L1292
	mov	r0, #1
	ldr	r1, .L1292+4
	ldr	r3, [r3, #68]
	blx	r3
	mvn	r0, #0
	sub	sp, fp, #40
	ldmfd	sp, {r4, r5, r6, r7, r8, r9, r10, fp, sp, pc}
.L1254:
	mov	r0, #0
	sub	sp, fp, #40
	ldmfd	sp, {r4, r5, r6, r7, r8, r9, r10, fp, sp, pc}
.L1266:
	add	r9, r5, #360
	add	r3, r5, #48
	mov	r7, #0
	b	.L1264
.L1263:
	ldr	r3, [fp, #-152]
	add	r7, r7, #1
	add	r9, r9, #4
	cmp	r3, r7
	mov	r3, r5
	ble	.L1254
.L1264:
	cmp	r8, #0
	beq	.L1288
	ldrb	r2, [r6, #-5]	@ zero_extendqisi2
	cmp	r2, #0
	bne	.L1286
.L1288:
	add	r5, r3, #32
.L1261:
	ldrb	r3, [r6, #1]!	@ zero_extendqisi2
	cmp	r3, #0
	beq	.L1263
	mov	r1, #8
	ldr	r0, [r4, #2292]
	bl	BsGet
	str	r0, [r9]
	b	.L1263
.L1286:
	mov	r1, #2
	ldr	r0, [r4, #2292]
	str	r3, [fp, #-156]
	bl	BsGet
	ldr	r3, [fp, #-156]
	mov	r1, #1
	add	r5, r3, #32
	mov	r10, r3
	str	r0, [r9, #-72]
	ldr	r0, [r4, #2292]
	bl	BsGet
	mov	r1, #5
	strb	r0, [r6, #199]
	ldr	r0, [r4, #2292]
	bl	BsGet
	str	r0, [r9, #-48]
.L1262:
	mov	r1, #1
	ldr	r0, [r4, #2292]
	bl	BsGet
	strb	r0, [r10, #1]!
	cmp	r10, r5
	bne	.L1262
	mov	r1, #1
	ldr	r0, [r4, #2292]
	bl	BsGet
	mov	r1, #1
	strb	r0, [r6, #205]
	ldr	r0, [r4, #2292]
	bl	BsGet
	mov	r1, #1
	strb	r0, [r6, #211]
	ldr	r0, [r4, #2292]
	bl	BsGet
	mov	r1, #1
	strb	r0, [r6, #217]
	ldr	r0, [r4, #2292]
	bl	BsGet
	mov	r1, #16
	strb	r0, [r6, #223]
	ldr	r0, [r4, #2292]
	bl	BsGet
	mov	r1, #16
	ldr	r0, [r4, #2292]
	bl	BsGet
	mov	r1, #12
	ldr	r0, [r4, #2292]
	bl	BsGet
	b	.L1261
.L1290:
	mov	r1, #2
	ldr	r0, [r0, #2292]
	bl	BsGet
	mov	r1, #1
	ldr	r9, .L1292
	mov	r7, r5
	mov	r6, #0
	str	r0, [r5, #276]
	ldr	r0, [r4, #2292]
	bl	BsGet
	mov	r1, #5
	strb	r0, [r5]
	ldr	r0, [r4, #2292]
	bl	BsGet
	str	r0, [r5, #272]
.L1253:
	mov	r3, r6
	ldr	ip, [r9, #72]
	ldr	r2, .L1292+8
	mov	r1, #100
	sub	r0, fp, #144
	add	r6, r6, #1
	blx	ip
	mov	r1, #1
	ldr	r0, [r4, #2292]
	bl	BsGet
	cmp	r6, #32
	strb	r0, [r7, #1]!
	bne	.L1253
	mov	r1, #1
	ldr	r0, [r4, #2292]
	bl	BsGet
	mov	r1, #1
	strb	r0, [r5, #33]
	ldr	r0, [r4, #2292]
	bl	BsGet
	mov	r1, #1
	strb	r0, [r5, #34]
	ldr	r0, [r4, #2292]
	bl	BsGet
	mov	r1, #1
	strb	r0, [r5, #35]
	ldr	r0, [r4, #2292]
	bl	BsGet
	mov	r1, #16
	strb	r0, [r5, #36]
	ldr	r0, [r4, #2292]
	bl	BsGet
	mov	r1, #16
	ldr	r0, [r4, #2292]
	bl	BsGet
	mov	r1, #12
	ldr	r0, [r4, #2292]
	bl	BsGet
	ldr	r2, [r5, #272]
	add	r3, r4, #69632
	mov	r1, #8
	str	r2, [r3, #2824]
	ldrb	r2, [r5, #2]	@ zero_extendqisi2
	str	r2, [r3, #2828]
	ldrb	r2, [r5, #3]	@ zero_extendqisi2
	str	r2, [r3, #2832]
	b	.L1287
.L1293:
	.align	2
.L1292:
	.word	vfmw_Osal_Func_Ptr_S
	.word	.LC109
	.word	.LC108
	UNWIND(.fnend)
	.size	HEVC_DecPTL, .-HEVC_DecPTL
	.align	2
	.global	HEVC_SetDefaultScalingList
	.type	HEVC_SetDefaultScalingList, %function
HEVC_SetDefaultScalingList:
	UNWIND(.fnstart)
	@ args = 0, pretend = 0, frame = 8
	@ frame_needed = 1, uses_anonymous_args = 0
	UNWIND(.movsp ip)
	mov	ip, sp
	stmfd	sp!, {r4, r5, r6, r7, r8, r9, r10, fp, ip, lr, pc}
	UNWIND(.pad #4)
	UNWIND(.save {r4, r5, r6, r7, r8, r9, r10, fp, ip, lr})
	UNWIND(.setfp fp, ip, #-4)
	sub	fp, ip, #4
	UNWIND(.pad #12)
	sub	sp, sp, #12
	ldr	r9, .L1312
	add	r10, r0, #2176
	mov	r6, #0
	add	r3, r0, #2192
	str	r0, [fp, #-52]
	str	r3, [fp, #-48]
.L1295:
	ldr	r3, [r10, #4]!
	cmp	r3, #0
	beq	.L1303
	ldr	r3, [fp, #-52]
	mov	r8, r6, asl #9
	ldr	r7, [fp, #-48]
	sub	r8, r8, r6, asl #7
	add	r5, r3, #564
	mov	r4, #0
.L1301:
	cmp	r6, #0
	add	r0, r5, r8
	mov	r2, #64
	ldr	r3, [r9, #52]
	beq	.L1310
	cmp	r6, #3
	beq	.L1311
	ldr	ip, .L1312+4
	cmp	r4, #2
	ldr	r1, .L1312+8
	movhi	r1, ip
	blx	r3
.L1297:
	mov	r3, #16
	str	r3, [r7, #4]!
	ldr	r3, [r10]
	add	r4, r4, #1
	add	r5, r5, #64
	cmp	r3, r4
	bhi	.L1301
.L1303:
	add	r6, r6, #1
	ldr	r3, [fp, #-48]
	cmp	r6, #4
	add	r3, r3, #24
	str	r3, [fp, #-48]
	bne	.L1295
	sub	sp, fp, #40
	ldmfd	sp, {r4, r5, r6, r7, r8, r9, r10, fp, sp, pc}
.L1310:
	mov	r2, #16
	ldr	r1, .L1312+12
	mov	r0, r5
	blx	r3
	b	.L1297
.L1311:
	ldr	r0, .L1312+4
	cmp	r4, #0
	ldr	r1, .L1312+8
	mov	r2, #64
	movne	r1, r0
	add	r0, r5, #1152
	blx	r3
	b	.L1297
.L1313:
	.align	2
.L1312:
	.word	vfmw_Osal_Func_Ptr_S
	.word	.LANCHOR1+328
	.word	.LANCHOR4
	.word	.LANCHOR1+392
	UNWIND(.fnend)
	.size	HEVC_SetDefaultScalingList, .-HEVC_SetDefaultScalingList
	.align	2
	.global	HEVC_CalScalingList
	.type	HEVC_CalScalingList, %function
HEVC_CalScalingList:
	UNWIND(.fnstart)
	@ args = 0, pretend = 0, frame = 0
	@ frame_needed = 1, uses_anonymous_args = 0
	UNWIND(.movsp ip)
	mov	ip, sp
	stmfd	sp!, {r4, r5, r6, r7, r8, r9, fp, ip, lr, pc}
	UNWIND(.pad #4)
	UNWIND(.save {r4, r5, r6, r7, r8, r9, fp, ip, lr})
	UNWIND(.setfp fp, ip, #-4)
	sub	fp, ip, #4
	add	lr, r0, r2, lsl #2
	mov	ip, r2, asl #3
	sub	r2, ip, r2, asl #1
	mov	r5, #0
	ldr	r7, [lr, #276]
	add	r3, r3, r2
	cmp	r7, #64
	mov	r6, r3, asl #4
	movcs	r7, #64
	mov	r8, r7, lsr #2
.L1315:
	cmp	r5, r8
	ldmcsfd	sp, {r4, r5, r6, r7, r8, r9, fp, sp, pc}
	cmp	r7, #0
	beq	.L1315
	add	r3, r5, r6
	ldrb	ip, [r1]	@ zero_extendqisi2
	mov	r4, r1
	mov	r2, #0
	add	r3, r0, r3, lsl #2
	ldr	lr, [r3, #564]
	orr	ip, lr, ip
	str	ip, [r3, #564]
.L1321:
	add	r2, r2, #1
	add	r3, r5, r6
	and	lr, r2, #3
	cmp	r2, r7
	add	r3, r0, r3, lsl #2
	mov	ip, lr, asl #3
	beq	.L1315
	ldrb	r9, [r4, #1]!	@ zero_extendqisi2
	cmp	lr, #3
	ldr	lr, [r3, #564]
	addeq	r5, r5, #1
	orr	ip, lr, r9, asl ip
	str	ip, [r3, #564]
	b	.L1321
	UNWIND(.fnend)
	.size	HEVC_CalScalingList, .-HEVC_CalScalingList
	.align	2
	.global	HEVC_SetScalingList
	.type	HEVC_SetScalingList, %function
HEVC_SetScalingList:
	UNWIND(.fnstart)
	@ args = 0, pretend = 0, frame = 0
	@ frame_needed = 1, uses_anonymous_args = 0
	UNWIND(.movsp ip)
	mov	ip, sp
	stmfd	sp!, {r3, r4, r5, r6, r7, r8, r9, r10, fp, ip, lr, pc}
	UNWIND(.pad #4)
	UNWIND(.save {r3, r4, r5, r6, r7, r8, r9, r10, fp, ip, lr})
	UNWIND(.setfp fp, ip, #-4)
	sub	fp, ip, #4
	add	r6, r0, #24576
	mov	r5, r0
	ldr	r3, [r6, #2604]
	ldrb	r2, [r3, #6]	@ zero_extendqisi2
	cmp	r2, #0
	beq	.L1323
	ldrb	r3, [r3, #7]	@ zero_extendqisi2
	cmp	r3, #0
	ldr	r3, [r6, #2608]
	bne	.L1324
	ldrb	r3, [r3, #21]	@ zero_extendqisi2
	cmp	r3, #0
	beq	.L1342
.L1325:
	ldr	r8, .L1343
	mov	r1, #0
	mov	r2, #1536
	add	r0, r5, #564
	add	r10, r5, #2176
	mov	r7, r1
	ldr	r3, [r8, #48]
	blx	r3
.L1327:
	ldr	r3, [r10, #4]!
	cmp	r3, #0
	movne	r9, r7, asl #3
	movne	r4, #0
	subne	r9, r9, r7, asl #1
	beq	.L1331
.L1328:
	add	r0, r9, r4
	ldr	r1, [r6, #2608]
	mov	r3, r4
	mov	r2, r7
	add	r1, r1, r0, lsl #6
	mov	r0, r5
	add	r1, r1, #308
	add	r4, r4, #1
	add	r1, r1, #1
	bl	HEVC_CalScalingList
	ldr	r3, [r10]
	cmp	r4, r3
	bcc	.L1328
.L1331:
	add	r7, r7, #1
	cmp	r7, #4
	bne	.L1327
	ldr	r1, [r6, #2608]
	add	r0, r5, #2192
	add	r0, r0, #4
	ldr	r3, [r8, #52]
	add	r1, r1, #1920
	mov	r2, #96
	add	r1, r1, #8
	blx	r3
.L1323:
	mov	r0, #0
	ldmfd	sp, {r3, r4, r5, r6, r7, r8, r9, r10, fp, sp, pc}
.L1324:
	ldrb	r1, [r3, #21]	@ zero_extendqisi2
	cmp	r1, #0
	bne	.L1325
	ldr	r8, .L1343
	mov	r2, #1536
	add	r0, r0, #564
	mov	r7, r1
	add	r10, r5, #2176
	ldr	r3, [r8, #48]
	blx	r3
.L1332:
	ldr	r3, [r10, #4]!
	cmp	r3, #0
	movne	r9, r7, asl #3
	movne	r4, #0
	subne	r9, r9, r7, asl #1
	beq	.L1336
.L1333:
	add	r0, r9, r4
	ldr	r1, [r6, #2604]
	mov	r3, r4
	mov	r2, r7
	add	r1, r1, r0, lsl #6
	mov	r0, r5
	add	r1, r1, #908
	add	r4, r4, #1
	add	r1, r1, #1
	bl	HEVC_CalScalingList
	ldr	r3, [r10]
	cmp	r4, r3
	bcc	.L1333
.L1336:
	add	r7, r7, #1
	cmp	r7, #4
	bne	.L1332
	ldr	r1, [r6, #2604]
	add	r0, r5, #2192
	ldr	r3, [r8, #52]
	mov	r2, #96
	add	r1, r1, #2528
	add	r0, r0, #4
	blx	r3
	mov	r0, #0
	ldmfd	sp, {r3, r4, r5, r6, r7, r8, r9, r10, fp, sp, pc}
.L1342:
	bl	HEVC_SetDefaultScalingList
	b	.L1323
.L1344:
	.align	2
.L1343:
	.word	vfmw_Osal_Func_Ptr_S
	UNWIND(.fnend)
	.size	HEVC_SetScalingList, .-HEVC_SetScalingList
	.align	2
	.global	HEVC_GetScalingListDefaultAddress
	.type	HEVC_GetScalingListDefaultAddress, %function
HEVC_GetScalingListDefaultAddress:
	UNWIND(.fnstart)
	@ args = 0, pretend = 0, frame = 0
	@ frame_needed = 1, uses_anonymous_args = 0
	UNWIND(.movsp ip)
	mov	ip, sp
	stmfd	sp!, {fp, ip, lr, pc}
	UNWIND(.pad #4)
	UNWIND(.save {fp, ip, lr})
	UNWIND(.setfp fp, ip, #-4)
	sub	fp, ip, #4
	cmp	r0, #3
	ldrls	pc, [pc, r0, asl #2]
	b	.L1346
.L1348:
	.word	.L1352
	.word	.L1350
	.word	.L1350
	.word	.L1351
.L1350:
	ldr	r3, .L1356
	cmp	r1, #2
	add	r0, r3, #64
	movhi	r0, r3
	ldmfd	sp, {fp, sp, pc}
.L1352:
	ldr	r0, .L1356+4
	ldmfd	sp, {fp, sp, pc}
.L1351:
	ldr	r3, .L1356
	cmp	r1, #0
	add	r0, r3, #64
	movne	r0, r3
	ldmfd	sp, {fp, sp, pc}
.L1346:
	ldr	r3, .L1356+8
	mov	r0, #1
	ldr	r1, .L1356+12
	ldr	r3, [r3, #68]
	blx	r3
	mov	r0, #0
	ldmfd	sp, {fp, sp, pc}
.L1357:
	.align	2
.L1356:
	.word	.LANCHOR4+80
	.word	.LANCHOR4+64
	.word	vfmw_Osal_Func_Ptr_S
	.word	.LC110
	UNWIND(.fnend)
	.size	HEVC_GetScalingListDefaultAddress, .-HEVC_GetScalingListDefaultAddress
	.align	2
	.global	HEVC_DecRefPicListsModification
	.type	HEVC_DecRefPicListsModification, %function
HEVC_DecRefPicListsModification:
	UNWIND(.fnstart)
	@ args = 0, pretend = 0, frame = 0
	@ frame_needed = 1, uses_anonymous_args = 0
	UNWIND(.movsp ip)
	mov	ip, sp
	stmfd	sp!, {r3, r4, r5, r6, r7, r8, r9, r10, fp, ip, lr, pc}
	UNWIND(.pad #4)
	UNWIND(.save {r3, r4, r5, r6, r7, r8, r9, r10, fp, ip, lr})
	UNWIND(.setfp fp, ip, #-4)
	sub	fp, ip, #4
	cmp	r2, #0
	cmpne	r1, #0
	mov	r5, r3
	mov	r7, r1
	mov	r8, r2
	moveq	ip, #1
	movne	ip, #0
	cmp	r0, #0
	orreq	ip, ip, #1
	mov	r6, r0
	cmp	ip, #0
	bne	.L1368
	sub	ip, r3, #1
	mov	r4, #1
	movs	ip, ip, asr #1
	beq	.L1360
.L1361:
	movs	ip, ip, asr #1
	add	r4, r4, #1
	bne	.L1361
.L1360:
	mov	r1, #1
	ldr	r0, [r6, #2292]
	bl	BsGet
	cmp	r5, #1
	movls	r10, #0
	movhi	r10, #1
	uxtb	r0, r0
	strb	r0, [r8]
	cmp	r0, #0
	cmpne	r5, #1
	bls	.L1365
	ldr	r3, [r7, #168]
	cmp	r3, #0
	beq	.L1365
	mov	r9, r8
	mov	r5, #0
.L1366:
	mov	r1, r4
	ldr	r0, [r6, #2292]
	bl	BsGet
	add	r5, r5, #1
	str	r0, [r9, #4]!
	ldr	r3, [r7, #168]
	cmp	r3, r5
	bhi	.L1366
.L1365:
	ldr	r5, [r7, #60]
	cmp	r5, #0
	beq	.L1383
.L1364:
	mov	r0, #0
	ldmfd	sp, {r3, r4, r5, r6, r7, r8, r9, r10, fp, sp, pc}
.L1383:
	mov	r1, #1
	ldr	r0, [r6, #2292]
	bl	BsGet
	uxtb	r0, r0
	strb	r0, [r8, #1]
	cmp	r0, #0
	moveq	r10, #0
	andne	r10, r10, #1
	cmp	r10, #0
	beq	.L1364
	ldr	r3, [r7, #172]
	cmp	r3, #0
	beq	.L1364
	add	r8, r8, #128
.L1367:
	mov	r1, r4
	ldr	r0, [r6, #2292]
	bl	BsGet
	add	r5, r5, #1
	str	r0, [r8, #4]!
	ldr	r3, [r7, #172]
	cmp	r3, r5
	bhi	.L1367
	mov	r0, #0
	ldmfd	sp, {r3, r4, r5, r6, r7, r8, r9, r10, fp, sp, pc}
.L1368:
	mvn	r0, #0
	ldmfd	sp, {r3, r4, r5, r6, r7, r8, r9, r10, fp, sp, pc}
	UNWIND(.fnend)
	.size	HEVC_DecRefPicListsModification, .-HEVC_DecRefPicListsModification
	.align	2
	.global	HEVC_MoreRbspData
	.type	HEVC_MoreRbspData, %function
HEVC_MoreRbspData:
	UNWIND(.fnstart)
	@ args = 0, pretend = 0, frame = 0
	@ frame_needed = 1, uses_anonymous_args = 0
	UNWIND(.movsp ip)
	mov	ip, sp
	stmfd	sp!, {r4, r5, fp, ip, lr, pc}
	UNWIND(.pad #4)
	UNWIND(.save {r4, r5, fp, ip, lr})
	UNWIND(.setfp fp, ip, #-4)
	sub	fp, ip, #4
	mov	r4, r0
	ldr	r0, [r0, #2292]
	bl	BsResidBits
	subs	r3, r0, #0
	ble	.L1386
	ldr	r2, [r4, #2316]
	ldr	r0, [r2, #12]
	add	r0, r0, #3
	cmp	r3, r0
	movls	r0, #0
	movhi	r0, #1
	ldmfd	sp, {r4, r5, fp, sp, pc}
.L1386:
	mov	r0, #0
	ldmfd	sp, {r4, r5, fp, sp, pc}
	UNWIND(.fnend)
	.size	HEVC_MoreRbspData, .-HEVC_MoreRbspData
	.align	2
	.global	HEVC_More_Rbsp_Data
	.type	HEVC_More_Rbsp_Data, %function
HEVC_More_Rbsp_Data:
	UNWIND(.fnstart)
	@ args = 0, pretend = 0, frame = 0
	@ frame_needed = 1, uses_anonymous_args = 0
	UNWIND(.movsp ip)
	mov	ip, sp
	stmfd	sp!, {fp, ip, lr, pc}
	UNWIND(.pad #4)
	UNWIND(.save {fp, ip, lr})
	UNWIND(.setfp fp, ip, #-4)
	sub	fp, ip, #4
	ldr	r0, [r0, #2292]
	ldr	r2, [r0, #16]
	ldr	r3, [r0, #24]
	mov	r2, r2, asl #3
	cmp	r2, r3
	ble	.L1390
	mov	r1, #8
	bl	BsShow
	subs	r0, r0, #128
	movne	r0, #1
	ldmfd	sp, {fp, sp, pc}
.L1390:
	ldr	ip, .L1391
	mov	r0, #1
	ldr	r1, .L1391+4
	ldr	ip, [ip, #68]
	blx	ip
	mov	r0, #0
	ldmfd	sp, {fp, sp, pc}
.L1392:
	.align	2
.L1391:
	.word	vfmw_Osal_Func_Ptr_S
	.word	.LC111
	UNWIND(.fnend)
	.size	HEVC_More_Rbsp_Data, .-HEVC_More_Rbsp_Data
	.align	2
	.global	HEVC_FindTrailZeros
	.type	HEVC_FindTrailZeros, %function
HEVC_FindTrailZeros:
	UNWIND(.fnstart)
	@ args = 0, pretend = 0, frame = 0
	@ frame_needed = 1, uses_anonymous_args = 0
	UNWIND(.movsp ip)
	mov	ip, sp
	stmfd	sp!, {r4, r5, r6, r7, fp, ip, lr, pc}
	UNWIND(.pad #4)
	UNWIND(.save {r4, r5, r6, r7, fp, ip, lr})
	UNWIND(.setfp fp, ip, #-4)
	sub	fp, ip, #4
	mov	r1, #0
	mov	r6, r0
.L1405:
	ldr	r3, [r6, #2316]
	ldr	ip, [r3, #8]
	sub	ip, ip, #1
	mov	r0, ip, asl #2
	mov	ip, ip, asl #5
	rsb	r2, r0, ip
	add	r2, r3, r2
	add	r2, r2, #40
	ldr	r3, [r2, #8]
	ldr	r2, [r2, #4]
	sub	r3, r3, #1
	add	r3, r2, r3
.L1394:
	ldrb	r4, [r3]	@ zero_extendqisi2
	rsb	r5, r0, ip
	cmp	r4, #0
	bne	.L1406
	ldr	r2, [r6, #2316]
	add	r1, r1, #1
	add	lr, r2, r5
	ldr	r2, [r2, #44]
	cmp	r2, r3
	beq	.L1407
	ldr	r2, [lr, #44]
	cmp	r2, r3
	sub	r3, r3, #1
	bne	.L1394
	ldr	r1, [lr, #68]
	ldr	r0, [r6, #244]
	bl	SM_ReleaseStreamSeg
	ldr	r3, [r6, #2316]
	mov	r1, r4
	add	r5, r3, r5
	str	r4, [r5, #44]
	ldr	r2, [r6, #2316]
	ldr	r3, [r2, #8]
	sub	r3, r3, #1
	str	r3, [r2, #8]
	b	.L1405
.L1406:
	tst	r4, #1
	mov	r3, #1
	moveq	r2, r3
	bne	.L1401
.L1402:
	ands	r0, r4, r2, asl r3
	add	r3, r3, #1
	bne	.L1401
	cmp	r3, #8
	bne	.L1402
	ldr	r3, .L1408
	mov	r0, #1
	ldr	r1, .L1408+4
	ldr	r3, [r3, #68]
	blx	r3
	mvn	r0, #0
	ldmfd	sp, {r4, r5, r6, r7, fp, sp, pc}
.L1407:
	ldr	r3, .L1408
	mov	r0, #1
	ldr	r1, .L1408+8
	ldr	r3, [r3, #68]
	blx	r3
	mvn	r0, #0
	ldmfd	sp, {r4, r5, r6, r7, fp, sp, pc}
.L1401:
	ldr	ip, [r6, #2316]
	mov	r2, #0
	add	r1, r3, r1, lsl #3
	mov	r0, r2
	str	r2, [ip, #4]
	ldr	r3, [r6, #2316]
	str	r1, [r3, #12]
	ldmfd	sp, {r4, r5, r6, r7, fp, sp, pc}
.L1409:
	.align	2
.L1408:
	.word	vfmw_Osal_Func_Ptr_S
	.word	.LC113
	.word	.LC112
	UNWIND(.fnend)
	.size	HEVC_FindTrailZeros, .-HEVC_FindTrailZeros
	.align	2
	.global	HEVC_FindNaluArraySlot
	.type	HEVC_FindNaluArraySlot, %function
HEVC_FindNaluArraySlot:
	UNWIND(.fnstart)
	@ args = 0, pretend = 0, frame = 0
	@ frame_needed = 1, uses_anonymous_args = 0
	UNWIND(.movsp ip)
	mov	ip, sp
	stmfd	sp!, {r4, r5, r6, r7, r8, r9, fp, ip, lr, pc}
	UNWIND(.pad #4)
	UNWIND(.save {r4, r5, r6, r7, r8, r9, fp, ip, lr})
	UNWIND(.setfp fp, ip, #-4)
	sub	fp, ip, #4
	ldr	r6, [r0, #160]
	mov	r9, r0
	ldr	r3, [r0, #140]
	cmp	r6, #0
	blt	.L1411
	add	r7, r6, #1
	mov	r0, r3
	mov	r5, #100
	mov	r1, r7
	bl	__aeabi_uidivmod
	add	r2, r9, #53248
	ldr	r8, [r2, #3252]
	mla	r2, r5, r1, r8
	mov	r3, r1
	ldr	r2, [r2, #36]
	cmp	r2, #0
	beq	.L1412
	mov	r4, #0
	b	.L1414
.L1415:
	bl	__aeabi_uidivmod
	mla	r2, r5, r1, r8
	mov	r3, r1
	ldr	r2, [r2, #36]
	cmp	r2, #0
	beq	.L1412
.L1414:
	add	r4, r4, #1
	mov	r1, r7
	cmp	r4, r6
	add	r0, r3, r4
	ble	.L1415
.L1411:
	mvn	r0, #0
	str	r3, [r9, #140]
	ldmfd	sp, {r4, r5, r6, r7, r8, r9, fp, sp, pc}
.L1412:
	cmp	r3, r7
	mov	r0, r3
	str	r3, [r9, #140]
	bcs	.L1425
	mov	r3, #100
	mov	r2, #1
	mla	r8, r3, r0, r8
	str	r2, [r8, #36]
	ldmfd	sp, {r4, r5, r6, r7, r8, r9, fp, sp, pc}
.L1425:
	mvn	r0, #0
	ldmfd	sp, {r4, r5, r6, r7, r8, r9, fp, sp, pc}
	UNWIND(.fnend)
	.size	HEVC_FindNaluArraySlot, .-HEVC_FindNaluArraySlot
	.align	2
	.global	HEVC_ReleaseNAL
	.type	HEVC_ReleaseNAL, %function
HEVC_ReleaseNAL:
	UNWIND(.fnstart)
	@ args = 0, pretend = 0, frame = 0
	@ frame_needed = 1, uses_anonymous_args = 0
	UNWIND(.movsp ip)
	mov	ip, sp
	stmfd	sp!, {r4, r5, r6, r7, r8, fp, ip, lr, pc}
	UNWIND(.pad #4)
	UNWIND(.save {r4, r5, r6, r7, r8, fp, ip, lr})
	UNWIND(.setfp fp, ip, #-4)
	sub	fp, ip, #4
	UNWIND(.pad #12)
	sub	sp, sp, #12
	subs	r5, r1, #0
	mov	r7, r0
	beq	.L1434
	ldr	r6, .L1435
	add	r8, r5, #56
	mov	r4, r5
	mov	r3, #0
	str	r3, [r5, #36]
	str	r3, [r5, #40]
.L1429:
	ldr	r3, [r4, #44]
	mov	r0, r7
	cmp	r3, #0
	beq	.L1428
	ldr	r1, [r4, #68]
	bl	SM_ReleaseStreamSeg
	ldr	r1, [r4, #48]
	ldr	r3, [r4, #44]
	mov	r0, #7
	ldr	ip, [r6, #68]
	str	r1, [sp]
	ldr	r2, .L1435+4
	ldr	r1, .L1435+8
	blx	ip
	mov	r3, #0
	str	r3, [r4, #44]
	str	r3, [r4, #60]
	str	r3, [r4, #48]
.L1428:
	add	r4, r4, #28
	cmp	r4, r8
	bne	.L1429
	ldr	r3, [r6, #48]
	mov	r0, r5
	mov	r2, #100
	mov	r1, #0
	sub	sp, fp, #32
	ldmfd	sp, {r4, r5, r6, r7, r8, fp, sp, lr}
	bx	r3
.L1434:
	ldr	ip, .L1435
	mov	r0, r5
	movw	r3, #10602
	ldr	r2, .L1435+12
	ldr	r1, .L1435+16
	ldr	ip, [ip, #68]
	sub	sp, fp, #32
	ldmfd	sp, {r4, r5, r6, r7, r8, fp, sp, lr}
	bx	ip
.L1436:
	.align	2
.L1435:
	.word	vfmw_Osal_Func_Ptr_S
	.word	.LANCHOR1+408
	.word	.LC114
	.word	.LC43
	.word	.LC44
	UNWIND(.fnend)
	.size	HEVC_ReleaseNAL, .-HEVC_ReleaseNAL
	.align	2
	.global	Hevc_InitDecBuffers
	.type	Hevc_InitDecBuffers, %function
Hevc_InitDecBuffers:
	UNWIND(.fnstart)
	@ args = 0, pretend = 0, frame = 0
	@ frame_needed = 1, uses_anonymous_args = 0
	UNWIND(.movsp ip)
	mov	ip, sp
	stmfd	sp!, {r3, r4, r5, r6, r7, r8, r9, r10, fp, ip, lr, pc}
	UNWIND(.pad #4)
	UNWIND(.save {r3, r4, r5, r6, r7, r8, r9, r10, fp, ip, lr})
	UNWIND(.setfp fp, ip, #-4)
	sub	fp, ip, #4
	add	r3, r0, #24576
	mov	r8, r0
	add	r0, r0, #2704
	add	r1, r8, #2640
	ldr	r3, [r3, #2604]
	add	r2, r8, #2496
	mov	lr, #0
	add	r1, r1, #4
	add	r2, r2, #12
	add	ip, r8, #2576
	ldr	r3, [r3, #236]
	mov	r6, #17
	add	r3, r3, #1
	cmp	r3, #17
	movhi	r3, #17
	str	r3, [r0, #-216]
	add	r0, r0, #8
	mov	r3, lr
	str	lr, [r8, #2492]
	str	lr, [r8, #2504]
	str	lr, [r8, #2508]
	str	lr, [r8, #2500]
	str	lr, [r8, #2496]
.L1440:
	subs	r6, r6, #1
	str	r3, [r0, #4]!
	str	r3, [ip, #4]!
	str	r3, [r1, #4]!
	str	r3, [r2, #4]!
	bne	.L1440
	add	r4, r8, #57344
	ldr	r10, .L1463
	add	r4, r4, #40
	mov	r7, r6
.L1441:
	ldr	r3, [r10, #48]
	mov	r2, #504
	mov	r0, r4
	mov	r1, #0
	blx	r3
	str	r7, [r4, #196]
	add	r7, r7, #1
	mov	r5, #0
	cmp	r7, #20
	sub	r3, r4, #72
	strb	r5, [r4, #-72]
	mov	r2, #20
	str	r3, [r4, #-4]
	mov	r9, #16
	str	r5, [r4, #-68]
	add	r4, r4, #584
	strb	r5, [r4, #-655]
	str	r5, [r4, #-644]
	strb	r5, [r4, #-654]
	str	r5, [r4, #-608]
	str	r2, [r4, #-632]
	str	r9, [r4, #-628]
	ldr	r3, .L1463
	bne	.L1441
	ldr	r3, [r3, #48]
	mov	r2, #200
	mov	r1, r5
	add	r0, r8, #2784
	blx	r3
	add	r2, r8, #2304
	add	r2, r2, #12
	add	r3, r8, #2384
	mov	r1, r5
	str	r9, [r8, #2784]
	str	r5, [r8, #2788]
.L1442:
	str	r1, [r2, #4]!
	cmp	r2, r3
	mov	r0, #0
	bne	.L1442
	add	r1, r8, #2448
	add	lr, r8, #40960
	add	r1, r1, #4
	mov	ip, r0
	str	r0, [lr, #2736]
.L1443:
	str	ip, [r3, #4]!
	cmp	r3, r1
	mov	r2, #0
	bne	.L1443
	str	r2, [lr, #2740]
	ldr	r1, [r8, #180]
	cmp	r1, r2
	movne	r3, r2
	addne	r2, r8, #2096
	movne	r0, r3
	beq	.L1448
.L1447:
	add	r3, r3, #1
	str	r0, [r2, #4]!
	cmp	r3, r1
	bne	.L1447
.L1448:
	ldr	r3, [r8, #160]
	cmp	r3, #0
	beq	.L1462
	mov	r4, #0
	add	r7, r8, #53248
	mov	r5, r4
.L1450:
	ldr	r3, [r7, #4056]
	add	r4, r4, #1
	add	r3, r3, r6
	ldr	r3, [r3, #24]
	cmp	r3, #0
	mov	r1, r3
	beq	.L1449
	ldr	r2, [r8, #2316]
	cmp	r3, r2
	beq	.L1449
	ldr	r0, [r8, #244]
	bl	HEVC_ReleaseNAL
	ldr	r3, [r7, #4056]
	add	r3, r3, r6
	str	r5, [r3, #24]
.L1449:
	ldr	r3, [r8, #160]
	add	r6, r6, #28
	cmp	r3, r4
	bhi	.L1450
	ldmfd	sp, {r3, r4, r5, r6, r7, r8, r9, r10, fp, sp, pc}
.L1462:
	ldmfd	sp, {r3, r4, r5, r6, r7, r8, r9, r10, fp, sp, pc}
.L1464:
	.align	2
.L1463:
	.word	vfmw_Osal_Func_Ptr_S
	UNWIND(.fnend)
	.size	Hevc_InitDecBuffers, .-Hevc_InitDecBuffers
	.align	2
	.global	HEVC_EmptyFrmFromDPB
	.type	HEVC_EmptyFrmFromDPB, %function
HEVC_EmptyFrmFromDPB:
	UNWIND(.fnstart)
	@ args = 0, pretend = 0, frame = 0
	@ frame_needed = 1, uses_anonymous_args = 0
	UNWIND(.movsp ip)
	mov	ip, sp
	stmfd	sp!, {r4, r5, r6, r7, r8, r9, fp, ip, lr, pc}
	UNWIND(.pad #4)
	UNWIND(.save {r4, r5, r6, r7, r8, r9, fp, ip, lr})
	UNWIND(.setfp fp, ip, #-4)
	sub	fp, ip, #4
	subs	r6, r0, #0
	beq	.L1476
	ldr	r3, [r6, #2492]
	add	r8, r6, #2496
	cmp	r3, #0
	addne	r8, r8, #12
	movne	r3, #0
	movne	ip, #1
	movne	r1, r8
	beq	.L1491
.L1470:
	ldr	r2, [r1, #4]!
	add	r3, r3, #1
	ldrb	r0, [r2, #2]	@ zero_extendqisi2
	cmp	r0, #0
	streqb	ip, [r2, #2]
	ldr	r2, [r6, #2492]
	cmp	r2, r3
	bhi	.L1470
.L1471:
	mov	r4, r6
	mov	r7, #17
	mov	r5, #0
	mov	r3, #-2147483647
	str	r3, [r6, #212]
.L1468:
	ldr	r3, [r8, #4]!
	mov	r2, #1
	cmp	r3, #0
	beq	.L1472
	ldr	r1, [r3, #32]
	ldr	r0, [r6, #244]
	bl	FSP_ClearLogicFs
.L1472:
	ldr	r3, [r4, #2580]
	mov	r2, #1
	cmp	r3, #0
	beq	.L1473
	ldr	r1, [r3, #32]
	ldr	r0, [r6, #244]
	bl	FSP_ClearLogicFs
.L1473:
	ldr	r3, [r4, #2648]
	mov	r2, #1
	cmp	r3, #0
	beq	.L1474
	ldr	r1, [r3, #32]
	ldr	r0, [r6, #244]
	bl	FSP_ClearLogicFs
.L1474:
	ldr	r3, [r4, #2716]
	mov	r2, #1
	cmp	r3, #0
	beq	.L1475
	ldr	r1, [r3, #32]
	ldr	r0, [r6, #244]
	bl	FSP_ClearLogicFs
.L1475:
	subs	r7, r7, #1
	str	r5, [r4, #2716]
	str	r5, [r4, #2648]
	add	r4, r4, #4
	str	r5, [r4, #2576]
	str	r5, [r4, #2508]
	bne	.L1468
	mov	r0, r6
	bl	Hevc_InitDecBuffers
	mov	r0, r7
	ldmfd	sp, {r4, r5, r6, r7, r8, r9, fp, sp, pc}
.L1491:
	add	r8, r8, #12
	b	.L1471
.L1476:
	mvn	r0, #0
	ldmfd	sp, {r4, r5, r6, r7, r8, r9, fp, sp, pc}
	UNWIND(.fnend)
	.size	HEVC_EmptyFrmFromDPB, .-HEVC_EmptyFrmFromDPB
	.align	2
	.global	HEVC_CombinePacket
	.type	HEVC_CombinePacket, %function
HEVC_CombinePacket:
	UNWIND(.fnstart)
	@ args = 0, pretend = 0, frame = 0
	@ frame_needed = 1, uses_anonymous_args = 0
	UNWIND(.movsp ip)
	mov	ip, sp
	stmfd	sp!, {r4, r5, r6, r7, fp, ip, lr, pc}
	UNWIND(.pad #4)
	UNWIND(.save {r4, r5, r6, r7, fp, ip, lr})
	UNWIND(.setfp fp, ip, #-4)
	sub	fp, ip, #4
	mov	r4, r0
	ldr	r0, [r0, #2316]
	cmp	r0, #0
	beq	.L1495
	ldr	r3, [r0, #48]
	cmp	r3, #4096
	ldmcsfd	sp, {r4, r5, r6, r7, fp, sp, pc}
	ldr	r6, .L1496
	mov	r0, #7
	ldr	r1, .L1496+4
	mov	r5, #0
	ldr	r3, [r6, #68]
	blx	r3
	ldr	r3, [r4, #2316]
	ldr	ip, [r6, #52]
	ldr	r2, [r3, #48]
	ldr	r0, [r3, #72]
	ldr	r1, [r3, #44]
	rsb	r0, r2, r0
	blx	ip
	ldr	r3, [r4, #2316]
	mov	r0, #1
	ldr	r2, [r3, #96]
	ldr	r1, [r3, #68]
	str	r2, [r3, #68]
	ldr	r3, [r4, #2316]
	str	r5, [r3, #60]
	ldr	r3, [r4, #2316]
	ldr	ip, [r3, #48]
	ldr	r2, [r3, #72]
	rsb	r2, ip, r2
	str	r2, [r3, #44]
	ldr	r3, [r4, #2316]
	ldr	ip, [r3, #48]
	ldr	r2, [r3, #80]
	rsb	r2, ip, r2
	str	r2, [r3, #52]
	ldr	r3, [r4, #2316]
	ldr	r2, [r3, #48]
	ldr	ip, [r3, #76]
	add	r2, r2, ip
	str	r2, [r3, #48]
	ldr	r3, [r4, #2316]
	str	r0, [r3, #8]
	ldr	r0, [r4, #244]
	bl	SM_ReleaseStreamSeg
	ldr	r3, [r4, #2316]
	str	r5, [r3, #72]
	ldr	r3, [r4, #2316]
	str	r5, [r3, #88]
	ldr	r3, [r4, #2316]
	str	r5, [r3, #76]
	ldmfd	sp, {r4, r5, r6, r7, fp, sp, pc}
.L1495:
	ldr	r3, .L1496
	ldr	r1, .L1496+8
	ldr	r3, [r3, #68]
	sub	sp, fp, #28
	ldmfd	sp, {r4, r5, r6, r7, fp, sp, lr}
	bx	r3
.L1497:
	.align	2
.L1496:
	.word	vfmw_Osal_Func_Ptr_S
	.word	.LC116
	.word	.LC115
	UNWIND(.fnend)
	.size	HEVC_CombinePacket, .-HEVC_CombinePacket
	.align	2
	.global	HEVC_IsOutDPB
	.type	HEVC_IsOutDPB, %function
HEVC_IsOutDPB:
	UNWIND(.fnstart)
	@ args = 0, pretend = 0, frame = 0
	@ frame_needed = 1, uses_anonymous_args = 0
	UNWIND(.movsp ip)
	mov	ip, sp
	stmfd	sp!, {fp, ip, lr, pc}
	UNWIND(.pad #4)
	UNWIND(.save {fp, ip, lr})
	UNWIND(.setfp fp, ip, #-4)
	sub	fp, ip, #4
	cmp	r1, #0
	beq	.L1503
	ldr	ip, [r0, #2492]
	cmp	ip, #0
	beq	.L1503
	ldr	r3, [r0, #2512]
	cmp	r3, r1
	beq	.L1505
	add	r0, r0, #2512
	mov	r3, #0
	b	.L1500
.L1501:
	ldr	r2, [r0, #4]!
	cmp	r2, r1
	beq	.L1505
.L1500:
	add	r3, r3, #1
	cmp	r3, ip
	bne	.L1501
.L1503:
	mov	r0, #1
	ldmfd	sp, {fp, sp, pc}
.L1505:
	mov	r0, #0
	ldmfd	sp, {fp, sp, pc}
	UNWIND(.fnend)
	.size	HEVC_IsOutDPB, .-HEVC_IsOutDPB
	.align	2
	.global	HEVC_IsNewPicNal
	.type	HEVC_IsNewPicNal, %function
HEVC_IsNewPicNal:
	UNWIND(.fnstart)
	@ args = 0, pretend = 0, frame = 0
	@ frame_needed = 1, uses_anonymous_args = 0
	UNWIND(.movsp ip)
	mov	ip, sp
	stmfd	sp!, {fp, ip, lr, pc}
	UNWIND(.pad #4)
	UNWIND(.save {fp, ip, lr})
	UNWIND(.setfp fp, ip, #-4)
	sub	fp, ip, #4
	mov	r0, #0
	ldmfd	sp, {fp, sp, pc}
	UNWIND(.fnend)
	.size	HEVC_IsNewPicNal, .-HEVC_IsNewPicNal
	.align	2
	.global	HEVC_u_v
	.type	HEVC_u_v, %function
HEVC_u_v:
	UNWIND(.fnstart)
	@ args = 0, pretend = 0, frame = 0
	@ frame_needed = 1, uses_anonymous_args = 0
	UNWIND(.movsp ip)
	mov	ip, sp
	stmfd	sp!, {fp, ip, lr, pc}
	UNWIND(.pad #4)
	UNWIND(.save {fp, ip, lr})
	UNWIND(.setfp fp, ip, #-4)
	sub	fp, ip, #4
	sub	sp, fp, #12
	ldmia	sp, {fp, sp, lr}
	b	BsGet
	UNWIND(.fnend)
	.size	HEVC_u_v, .-HEVC_u_v
	.align	2
	.global	HEVC_f_v
	.type	HEVC_f_v, %function
HEVC_f_v:
	UNWIND(.fnstart)
	@ args = 0, pretend = 0, frame = 0
	@ frame_needed = 1, uses_anonymous_args = 0
	UNWIND(.movsp ip)
	mov	ip, sp
	stmfd	sp!, {fp, ip, lr, pc}
	UNWIND(.pad #4)
	UNWIND(.save {fp, ip, lr})
	UNWIND(.setfp fp, ip, #-4)
	sub	fp, ip, #4
	sub	sp, fp, #12
	ldmia	sp, {fp, sp, lr}
	b	BsGet
	UNWIND(.fnend)
	.size	HEVC_f_v, .-HEVC_f_v
	.align	2
	.global	HEVC_ue_v
	.type	HEVC_ue_v, %function
HEVC_ue_v:
	UNWIND(.fnstart)
	@ args = 0, pretend = 0, frame = 0
	@ frame_needed = 1, uses_anonymous_args = 0
	UNWIND(.movsp ip)
	mov	ip, sp
	stmfd	sp!, {r4, r5, fp, ip, lr, pc}
	UNWIND(.pad #4)
	UNWIND(.save {r4, r5, fp, ip, lr})
	UNWIND(.setfp fp, ip, #-4)
	sub	fp, ip, #4
	mov	r1, #32
	mov	r5, r0
	bl	BsShow
	bl	ZerosMS_32
	cmp	r0, #31
	bls	.L1512
	ldr	ip, .L1513
	movw	r3, #61166
	mov	r2, r0
	movt	r3, 65535
	ldr	r1, .L1513+4
	mov	r0, #1
	ldr	ip, [ip, #68]
	blx	ip
	movw	r0, #61166
	movt	r0, 65535
	ldmfd	sp, {r4, r5, fp, sp, pc}
.L1512:
	add	r4, r0, #1
	mov	r1, r0
	mov	r0, r5
	bl	BsSkip
	mov	r1, r4
	mov	r0, r5
	bl	BsShow
	mov	r1, r4
	sub	r4, r0, #1
	mov	r0, r5
	bl	BsSkip
	mov	r0, r4
	ldmfd	sp, {r4, r5, fp, sp, pc}
.L1514:
	.align	2
.L1513:
	.word	vfmw_Osal_Func_Ptr_S
	.word	.LC117
	UNWIND(.fnend)
	.size	HEVC_ue_v, .-HEVC_ue_v
	.align	2
	.global	HEVC_Sei_Tone_Mapping_Info
	.type	HEVC_Sei_Tone_Mapping_Info, %function
HEVC_Sei_Tone_Mapping_Info:
	UNWIND(.fnstart)
	@ args = 0, pretend = 0, frame = 0
	@ frame_needed = 1, uses_anonymous_args = 0
	UNWIND(.movsp ip)
	mov	ip, sp
	stmfd	sp!, {r4, r5, r6, r7, r8, r9, fp, ip, lr, pc}
	UNWIND(.pad #4)
	UNWIND(.save {r4, r5, r6, r7, r8, r9, fp, ip, lr})
	UNWIND(.setfp fp, ip, #-4)
	sub	fp, ip, #4
	mov	r4, r1
	mov	r5, r0
	ldr	r1, .L1539
	ldr	r0, [r0, #2292]
	bl	HEVC_ue_v
	mov	r1, #1
	str	r0, [r4, #4]
	ldr	r0, [r5, #2292]
	bl	BsGet
	uxtb	r0, r0
	strb	r0, [r4]
	cmp	r0, #0
	beq	.L1516
	ldr	r3, [r4, #16]
.L1517:
	cmp	r3, #4
	ldrls	pc, [pc, r3, asl #2]
	b	.L1534
.L1521:
	.word	.L1520
	.word	.L1522
	.word	.L1523
	.word	.L1524
	.word	.L1525
.L1516:
	mov	r1, #1
	ldr	r0, [r5, #2292]
	bl	BsGet
	mov	r1, #8
	strb	r0, [r4, #1]
	ldr	r0, [r5, #2292]
	bl	BsGet
	mov	r1, #8
	str	r0, [r4, #8]
	ldr	r0, [r5, #2292]
	bl	BsGet
	cmp	r0, #8
	str	r0, [r4, #12]
	bhi	.L1537
	mov	r1, #8
	ldr	r0, [r5, #2292]
	bl	BsGet
	mov	r3, r0
	str	r0, [r4, #16]
	b	.L1517
.L1525:
	mov	r1, #8
	ldr	r0, [r5, #2292]
	bl	BsGet
	cmp	r0, #255
	str	r0, [r4, #36]
	beq	.L1538
.L1533:
	mov	r1, #1
	ldr	r0, [r5, #2292]
	bl	BsGet
	mov	r1, #16
	strb	r0, [r4, #2]
	ldr	r0, [r5, #2292]
	bl	BsGet
	mov	r1, #16
	str	r0, [r4, #52]
	ldr	r0, [r5, #2292]
	bl	BsGet
	mov	r1, #32
	str	r0, [r4, #56]
	ldr	r0, [r5, #2292]
	bl	BsGet
	mov	r1, #32
	str	r0, [r4, #60]
	ldr	r0, [r5, #2292]
	bl	BsGet
	mov	r1, #16
	str	r0, [r4, #64]
	ldr	r0, [r5, #2292]
	bl	BsGet
	mov	r1, #16
	str	r0, [r4, #68]
	ldr	r0, [r5, #2292]
	bl	BsGet
	mov	r1, #16
	str	r0, [r4, #72]
	ldr	r0, [r5, #2292]
	bl	BsGet
	mov	r1, #16
	str	r0, [r4, #52]
	ldr	r0, [r5, #2292]
	bl	BsGet
	mov	r3, #0
	str	r0, [r4, #76]
.L1519:
	mov	r0, r3
	ldmfd	sp, {r4, r5, r6, r7, r8, r9, fp, sp, pc}
.L1520:
	mov	r1, #32
	ldr	r0, [r5, #2292]
	bl	BsGet
	mov	r1, #32
	str	r0, [r4, #20]
	ldr	r0, [r5, #2292]
	bl	BsGet
	mov	r3, #0
	str	r0, [r4, #24]
	mov	r0, r3
	ldmfd	sp, {r4, r5, r6, r7, r8, r9, fp, sp, pc}
.L1522:
	mov	r1, #32
	ldr	r0, [r5, #2292]
	bl	BsGet
	mov	r1, #32
	str	r0, [r4, #28]
	ldr	r0, [r5, #2292]
	bl	BsGet
	mov	r3, #0
	str	r0, [r4, #32]
	mov	r0, r3
	ldmfd	sp, {r4, r5, r6, r7, r8, r9, fp, sp, pc}
.L1523:
	ldr	r8, [r4, #12]
	mov	r3, #1
	movs	r8, r3, asl r8
	addne	r7, r4, #2128
	movne	r6, #0
	beq	.L1528
.L1527:
	ldr	r1, [r4, #8]
	add	r6, r6, #1
	ldr	r0, [r5, #2292]
	add	r1, r1, #7
	bic	r1, r1, #7
	bl	BsGet
	cmp	r8, r6
	str	r0, [r7, #4]!
	bne	.L1527
.L1528:
	ldr	r1, [r4, #8]
	add	r8, r4, r8, lsl #2
	mov	r3, #0
	mov	r2, #1
	mov	r2, r2, asl r1
	mov	r0, r3
	str	r2, [r8, #2132]
	ldmfd	sp, {r4, r5, r6, r7, r8, r9, fp, sp, pc}
.L1524:
	mov	r1, #16
	ldr	r0, [r5, #2292]
	bl	BsGet
	cmp	r0, #256
	str	r0, [r4, #80]
	bhi	.L1529
	cmp	r0, #0
	addne	r6, r4, #80
	movne	r7, #0
	beq	.L1534
.L1531:
	ldr	r1, [r4, #8]
	add	r7, r7, #1
	ldr	r0, [r5, #2292]
	add	r1, r1, #7
	bic	r1, r1, #7
	bl	BsGet
	str	r0, [r6, #4]!
	ldr	r1, [r4, #12]
	ldr	r0, [r5, #2292]
	add	r1, r1, #7
	bic	r1, r1, #7
	bl	BsGet
	str	r0, [r6, #1024]
	ldr	r3, [r4, #80]
	cmp	r3, r7
	bhi	.L1531
.L1534:
	mov	r3, #0
	mov	r0, r3
	ldmfd	sp, {r4, r5, r6, r7, r8, r9, fp, sp, pc}
.L1538:
	mov	r1, #32
	ldr	r0, [r5, #2292]
	bl	BsGet
	str	r0, [r4, #40]
	b	.L1533
.L1537:
	ldr	r3, .L1539+4
	mov	r2, r0
	ldr	r1, .L1539+8
	mov	r0, #1
	ldr	r3, [r3, #68]
	blx	r3
	mvn	r3, #0
	b	.L1519
.L1529:
	ldr	r3, .L1539+4
	mov	r0, #1
	ldr	r1, .L1539+12
	ldr	r3, [r3, #68]
	blx	r3
	mvn	r3, #0
	b	.L1519
.L1540:
	.align	2
.L1539:
	.word	.LC118
	.word	vfmw_Osal_Func_Ptr_S
	.word	.LC119
	.word	.LC120
	UNWIND(.fnend)
	.size	HEVC_Sei_Tone_Mapping_Info, .-HEVC_Sei_Tone_Mapping_Info
	.align	2
	.global	HEVC_Sei_Frame_Packing_Arrangement
	.type	HEVC_Sei_Frame_Packing_Arrangement, %function
HEVC_Sei_Frame_Packing_Arrangement:
	UNWIND(.fnstart)
	@ args = 0, pretend = 0, frame = 0
	@ frame_needed = 1, uses_anonymous_args = 0
	UNWIND(.movsp ip)
	mov	ip, sp
	stmfd	sp!, {r4, r5, fp, ip, lr, pc}
	UNWIND(.pad #4)
	UNWIND(.save {r4, r5, fp, ip, lr})
	UNWIND(.setfp fp, ip, #-4)
	sub	fp, ip, #4
	mov	r5, r1
	mov	r4, r0
	ldr	r1, .L1550
	ldr	r0, [r0, #2292]
	bl	HEVC_ue_v
	mov	r1, #1
	str	r0, [r5, #12]
	ldr	r0, [r4, #2292]
	bl	BsGet
	uxtb	r0, r0
	strb	r0, [r5]
	cmp	r0, #0
	bne	.L1542
	mov	r1, #7
	ldr	r0, [r4, #2292]
	bl	BsGet
	sub	r3, r0, #3
	str	r0, [r5, #16]
	cmp	r3, #2
	bhi	.L1549
	mov	r1, #1
	ldr	r0, [r4, #2292]
	bl	BsGet
	mov	r1, #6
	strb	r0, [r5, #1]
	ldr	r0, [r4, #2292]
	bl	BsGet
	mov	r1, #1
	str	r0, [r5, #20]
	ldr	r0, [r4, #2292]
	bl	BsGet
	mov	r1, #1
	strb	r0, [r5, #2]
	ldr	r0, [r4, #2292]
	bl	BsGet
	mov	r1, #1
	strb	r0, [r5, #3]
	ldr	r0, [r4, #2292]
	bl	BsGet
	mov	r1, #1
	strb	r0, [r5, #4]
	ldr	r0, [r4, #2292]
	bl	BsGet
	mov	r1, #1
	strb	r0, [r5, #5]
	ldr	r0, [r4, #2292]
	bl	BsGet
	mov	r1, #1
	strb	r0, [r5, #6]
	ldr	r0, [r4, #2292]
	bl	BsGet
	ldrb	r3, [r5, #1]	@ zero_extendqisi2
	cmp	r3, #0
	strb	r0, [r5, #7]
	bne	.L1545
	ldr	r3, [r5, #16]
	cmp	r3, #5
	beq	.L1545
	mov	r1, #4
	ldr	r0, [r4, #2292]
	bl	BsGet
	mov	r1, #4
	str	r0, [r5, #24]
	ldr	r0, [r4, #2292]
	bl	BsGet
	mov	r1, #4
	str	r0, [r5, #28]
	ldr	r0, [r4, #2292]
	bl	BsGet
	mov	r1, #4
	str	r0, [r5, #32]
	ldr	r0, [r4, #2292]
	bl	BsGet
	str	r0, [r5, #36]
.L1545:
	mov	r1, #8
	ldr	r0, [r4, #2292]
	bl	BsGet
	mov	r1, #1
	str	r0, [r5, #40]
	ldr	r0, [r4, #2292]
	bl	BsGet
	strb	r0, [r5, #8]
.L1542:
	mov	r1, #1
	ldr	r0, [r4, #2292]
	bl	BsGet
	strb	r0, [r5, #9]
	ldr	r0, [r4, #2292]
	bl	BsToNextByte
	mov	r0, #0
	ldmfd	sp, {r4, r5, fp, sp, pc}
.L1549:
	ldr	r3, .L1550+4
	mov	r2, r0
	ldr	r1, .L1550+8
	mov	r0, #1
	ldr	r3, [r3, #68]
	blx	r3
	mvn	r0, #0
	ldmfd	sp, {r4, r5, fp, sp, pc}
.L1551:
	.align	2
.L1550:
	.word	.LC121
	.word	vfmw_Osal_Func_Ptr_S
	.word	.LC122
	UNWIND(.fnend)
	.size	HEVC_Sei_Frame_Packing_Arrangement, .-HEVC_Sei_Frame_Packing_Arrangement
	.align	2
	.global	HEVC_Sei_Dec_Unit_Info
	.type	HEVC_Sei_Dec_Unit_Info, %function
HEVC_Sei_Dec_Unit_Info:
	UNWIND(.fnstart)
	@ args = 0, pretend = 0, frame = 0
	@ frame_needed = 1, uses_anonymous_args = 0
	UNWIND(.movsp ip)
	mov	ip, sp
	stmfd	sp!, {r4, r5, r6, r7, fp, ip, lr, pc}
	UNWIND(.pad #4)
	UNWIND(.save {r4, r5, r6, r7, fp, ip, lr})
	UNWIND(.setfp fp, ip, #-4)
	sub	fp, ip, #4
	cmp	r2, #0
	cmpne	r1, #0
	mov	r5, r1
	mov	r6, r2
	mov	r4, r0
	moveq	r3, #1
	movne	r3, #0
	cmp	r0, #0
	orreq	r3, r3, #1
	cmp	r3, #0
	bne	.L1557
	ldr	r1, .L1563
	ldr	r0, [r0, #2292]
	bl	HEVC_ue_v
	str	r0, [r5, #4]
	ldrb	r3, [r6, #3]	@ zero_extendqisi2
	cmp	r3, #0
	streq	r3, [r5, #8]
	bne	.L1561
.L1555:
	mov	r1, #1
	ldr	r0, [r4, #2292]
	bl	BsGet
	uxtb	r0, r0
	strb	r0, [r5]
	cmp	r0, #0
	bne	.L1562
.L1556:
	ldr	r0, [r4, #2292]
	bl	BsToNextByte
	mov	r0, #0
	ldmfd	sp, {r4, r5, r6, r7, fp, sp, pc}
.L1561:
	ldr	r1, [r6, #8]
	ldr	r0, [r4, #2292]
	add	r1, r1, #1
	bl	BsGet
	str	r0, [r5, #8]
	b	.L1555
.L1562:
	ldr	r1, [r6, #12]
	ldr	r0, [r4, #2292]
	add	r1, r1, #1
	bl	BsGet
	str	r0, [r5, #12]
	b	.L1556
.L1557:
	mvn	r0, #0
	ldmfd	sp, {r4, r5, r6, r7, fp, sp, pc}
.L1564:
	.align	2
.L1563:
	.word	.LC123
	UNWIND(.fnend)
	.size	HEVC_Sei_Dec_Unit_Info, .-HEVC_Sei_Dec_Unit_Info
	.align	2
	.global	HEVC_Sei_Active_Param_sets
	.type	HEVC_Sei_Active_Param_sets, %function
HEVC_Sei_Active_Param_sets:
	UNWIND(.fnstart)
	@ args = 0, pretend = 0, frame = 0
	@ frame_needed = 1, uses_anonymous_args = 0
	UNWIND(.movsp ip)
	mov	ip, sp
	stmfd	sp!, {r4, r5, r6, r7, fp, ip, lr, pc}
	UNWIND(.pad #4)
	UNWIND(.save {r4, r5, r6, r7, fp, ip, lr})
	UNWIND(.setfp fp, ip, #-4)
	sub	fp, ip, #4
	mov	r7, r1
	mov	r6, r0
	mov	r1, #4
	ldr	r0, [r0, #2292]
	bl	BsGet
	mov	r1, #1
	str	r0, [r7, #4]
	ldr	r0, [r6, #2292]
	bl	BsGet
	mov	r1, #1
	strb	r0, [r7]
	ldr	r0, [r6, #2292]
	bl	BsGet
	ldr	r1, .L1572
	strb	r0, [r7, #1]
	ldr	r0, [r6, #2292]
	bl	HEVC_ue_v
	cmp	r0, #15
	str	r0, [r7, #8]
	bgt	.L1566
	cmp	r0, #0
	addge	r5, r7, #8
	movge	r4, #0
	blt	.L1570
.L1569:
	ldr	r1, .L1572+4
	add	r4, r4, #1
	ldr	r0, [r6, #2292]
	bl	HEVC_ue_v
	str	r0, [r5, #4]!
	ldr	r3, [r7, #8]
	cmp	r3, r4
	bge	.L1569
.L1570:
	ldr	r0, [r6, #2292]
	bl	BsToNextByte
	mov	r0, #0
	ldmfd	sp, {r4, r5, r6, r7, fp, sp, pc}
.L1566:
	ldr	r3, .L1572+8
	mov	r0, #1
	ldr	r1, .L1572+12
	ldr	r3, [r3, #68]
	blx	r3
	mvn	r0, #0
	ldmfd	sp, {r4, r5, r6, r7, fp, sp, pc}
.L1573:
	.align	2
.L1572:
	.word	.LC124
	.word	.LC126
	.word	vfmw_Osal_Func_Ptr_S
	.word	.LC125
	UNWIND(.fnend)
	.size	HEVC_Sei_Active_Param_sets, .-HEVC_Sei_Active_Param_sets
	.align	2
	.global	HEVC_Sei_Buf_Period
	.type	HEVC_Sei_Buf_Period, %function
HEVC_Sei_Buf_Period:
	UNWIND(.fnstart)
	@ args = 0, pretend = 0, frame = 8
	@ frame_needed = 1, uses_anonymous_args = 0
	UNWIND(.movsp ip)
	mov	ip, sp
	stmfd	sp!, {r4, r5, r6, r7, r8, r9, r10, fp, ip, lr, pc}
	UNWIND(.pad #4)
	UNWIND(.save {r4, r5, r6, r7, r8, r9, r10, fp, ip, lr})
	UNWIND(.setfp fp, ip, #-4)
	sub	fp, ip, #4
	UNWIND(.pad #12)
	sub	sp, sp, #12
	mov	r5, r1
	mov	r6, r0
	ldr	r1, .L1607
	ldr	r0, [r0, #2292]
	mov	r8, r2
	bl	HEVC_ue_v
	cmp	r0, #15
	str	r0, [r5, #4]
	bhi	.L1602
	ldrb	r3, [r8, #2]	@ zero_extendqisi2
	cmp	r3, #0
	beq	.L1577
	ldrb	r0, [r5]	@ zero_extendqisi2
.L1578:
	cmp	r0, #0
	bne	.L1603
.L1579:
	mov	r1, #1
	ldr	r0, [r6, #2292]
	bl	BsGet
	strb	r0, [r5, #1]
	ldr	r1, [r8, #32]
	ldr	r0, [r6, #2292]
	add	r1, r1, #1
	bl	BsGet
	add	r0, r0, #1
	str	r0, [r5, #16]
	ldr	r2, [r8, #48]
	cmp	r2, #31
	bhi	.L1604
.L1580:
	mov	r4, #0
	cmp	r4, #0
	mov	r9, r5
	mov	r7, #1
	beq	.L1605
.L1581:
	cmp	r4, #1
	beq	.L1606
.L1585:
	cmp	r7, #1
	bhi	.L1584
.L1583:
	add	r4, r4, #1
	add	r7, r7, #1
	cmp	r4, #0
	add	r9, r9, #16
	bne	.L1581
.L1605:
	ldrb	r3, [r8]	@ zero_extendqisi2
	cmp	r3, #0
	beq	.L1585
	ldr	r3, [r8, #48]
	cmn	r3, #1
	movne	r10, r9
	movne	r3, r4
	beq	.L1583
.L1597:
	ldr	r1, [r8, #28]
	add	r3, r3, #1
	ldr	r0, [r6, #2292]
	add	r1, r1, #1
	str	r3, [fp, #-48]
	str	r3, [fp, #-52]
	bl	BsGet
	str	r0, [r10, #20]
	ldr	r1, [r8, #28]
	ldr	r0, [r6, #2292]
	add	r1, r1, #1
	bl	BsGet
	ldr	r3, [fp, #-48]
	str	r0, [r10, #24]
	ldrb	r2, [r8, #2]	@ zero_extendqisi2
	cmp	r2, #0
	bne	.L1587
	ldrb	r2, [r5]	@ zero_extendqisi2
	cmp	r2, #0
	beq	.L1588
.L1587:
	ldr	r1, [r8, #28]
	ldr	r0, [r6, #2292]
	add	r1, r1, #1
	str	r3, [fp, #-48]
	bl	BsGet
	str	r0, [r10, #28]
	ldr	r1, [r8, #28]
	ldr	r0, [r6, #2292]
	add	r1, r1, #1
	bl	BsGet
	ldr	r3, [fp, #-48]
	str	r0, [r10, #32]
.L1588:
	ldr	r2, [r8, #48]
	add	r10, r10, #32
	add	r2, r2, #1
	cmp	r2, r3
	bhi	.L1597
	b	.L1585
.L1584:
	ldr	r0, [r6, #2292]
	bl	BsToNextByte
	mov	r0, #0
.L1601:
	sub	sp, fp, #40
	ldmfd	sp, {r4, r5, r6, r7, r8, r9, r10, fp, sp, pc}
.L1604:
	ldr	r3, .L1607+4
	mov	r0, #1
	ldr	r1, .L1607+8
	ldr	r3, [r3, #68]
	blx	r3
	mov	r3, #0
	str	r3, [r8, #48]
	b	.L1580
.L1603:
	ldr	r1, [r8, #32]
	ldr	r0, [r6, #2292]
	add	r1, r1, #1
	bl	BsGet
	str	r0, [r5, #8]
	ldr	r1, [r8, #36]
	ldr	r0, [r6, #2292]
	add	r1, r1, #1
	bl	BsGet
	str	r0, [r5, #12]
	b	.L1579
.L1577:
	mov	r1, #1
	ldr	r0, [r6, #2292]
	bl	BsGet
	uxtb	r0, r0
	strb	r0, [r5]
	b	.L1578
.L1602:
	ldr	r3, .L1607+4
	mov	r2, r0
	ldr	r1, .L1607+12
	mov	r0, #1
	ldr	r3, [r3, #68]
	blx	r3
	mvn	r0, #0
	b	.L1601
.L1606:
	ldrb	r3, [r8, #1]	@ zero_extendqisi2
	cmp	r3, #0
	beq	.L1584
	ldr	r3, [r8, #48]
	cmn	r3, #1
	beq	.L1584
	mov	r10, r9
	mov	r3, #0
	b	.L1597
.L1608:
	.align	2
.L1607:
	.word	.LC127
	.word	vfmw_Osal_Func_Ptr_S
	.word	.LC129
	.word	.LC128
	UNWIND(.fnend)
	.size	HEVC_Sei_Buf_Period, .-HEVC_Sei_Buf_Period
	.align	2
	.global	HEVC_Sei_Pic_Timming
	.type	HEVC_Sei_Pic_Timming, %function
HEVC_Sei_Pic_Timming:
	UNWIND(.fnstart)
	@ args = 0, pretend = 0, frame = 0
	@ frame_needed = 1, uses_anonymous_args = 0
	UNWIND(.movsp ip)
	mov	ip, sp
	stmfd	sp!, {r4, r5, r6, r7, r8, r9, fp, ip, lr, pc}
	UNWIND(.pad #4)
	UNWIND(.save {r4, r5, r6, r7, r8, r9, fp, ip, lr})
	UNWIND(.setfp fp, ip, #-4)
	sub	fp, ip, #4
	ldrb	r3, [r2, #9]	@ zero_extendqisi2
	mov	r4, r0
	mov	r5, r1
	cmp	r3, #0
	bne	.L1635
.L1610:
	ldr	r6, .L1638
	sub	r3, r6, #3456
	ldrh	r3, [r3, #-8]
	cmp	r3, #0
	beq	.L1613
	ldr	r1, [r6, #-3432]
	ldr	r0, [r4, #2292]
	add	r1, r1, #1
	bl	BsGet
	add	r0, r0, #1
	str	r0, [r5, #12]
	ldr	r1, [r6, #-3428]
	ldr	r0, [r4, #2292]
	add	r1, r1, #1
	bl	BsGet
	ldrb	r3, [r6, #-3462]	@ zero_extendqisi2
	cmp	r3, #0
	str	r0, [r5, #16]
	bne	.L1636
.L1613:
	ldr	r0, [r4, #2292]
	bl	BsToNextByte
	mov	r0, #0
	ldmfd	sp, {r4, r5, r6, r7, r8, r9, fp, sp, pc}
.L1635:
	mov	r1, #4
	ldr	r0, [r0, #2292]
	bl	BsGet
	mov	r1, #2
	str	r0, [r5, #4]
	ldr	r0, [r4, #2292]
	bl	BsGet
	mov	r1, #1
	str	r0, [r5, #8]
	ldr	r0, [r4, #2292]
	bl	BsGet
	strb	r0, [r5]
	b	.L1610
.L1636:
	ldr	r1, [r6, #-3452]
	ldr	r0, [r4, #2292]
	add	r1, r1, #1
	bl	BsGet
	ldrb	r3, [r6, #-3462]	@ zero_extendqisi2
	cmp	r3, #0
	str	r0, [r5, #20]
	beq	.L1613
	ldrb	r3, [r6, #-3461]	@ zero_extendqisi2
	cmp	r3, #0
	beq	.L1613
	ldr	r1, .L1638+4
	ldr	r0, [r4, #2292]
	bl	HEVC_ue_v
	mov	r1, #1
	str	r0, [r5, #24]
	ldr	r0, [r4, #2292]
	bl	BsGet
	uxtb	r0, r0
	strb	r0, [r5, #1]
	cmp	r0, #0
	bne	.L1637
.L1614:
	ldr	r3, [r5, #24]
	cmp	r3, #255
	bhi	.L1617
	add	r8, r5, #28
	mov	r7, #0
	b	.L1616
.L1615:
	ldr	r3, [r5, #24]
	cmp	r3, r7
	bcc	.L1613
.L1616:
	ldr	r1, .L1638+8
	add	r7, r7, #1
	ldr	r0, [r4, #2292]
	bl	HEVC_ue_v
	str	r0, [r8, #4]!
	ldrb	r3, [r5, #1]	@ zero_extendqisi2
	cmp	r3, #0
	bne	.L1615
	ldr	r1, [r6, #-3456]
	ldr	r0, [r4, #2292]
	add	r1, r1, #1
	bl	BsGet
	str	r0, [r8, #1024]
	b	.L1615
.L1637:
	ldr	r1, [r6, #-3456]
	ldr	r0, [r4, #2292]
	add	r1, r1, #1
	bl	BsGet
	str	r0, [r5, #28]
	b	.L1614
.L1617:
	ldr	r3, .L1638+12
	mov	r0, #1
	ldr	r1, .L1638+16
	ldr	r3, [r3, #68]
	blx	r3
	mvn	r0, #0
	ldmfd	sp, {r4, r5, r6, r7, r8, r9, fp, sp, pc}
.L1639:
	.align	2
.L1638:
	.word	.LANCHOR5
	.word	.LC130
	.word	.LC132
	.word	vfmw_Osal_Func_Ptr_S
	.word	.LC131
	UNWIND(.fnend)
	.size	HEVC_Sei_Pic_Timming, .-HEVC_Sei_Pic_Timming
	.align	2
	.global	HEVC_DecShortTermRefPicSet
	.type	HEVC_DecShortTermRefPicSet, %function
HEVC_DecShortTermRefPicSet:
	UNWIND(.fnstart)
	@ args = 0, pretend = 0, frame = 16
	@ frame_needed = 1, uses_anonymous_args = 0
	UNWIND(.movsp ip)
	mov	ip, sp
	stmfd	sp!, {r4, r5, r6, r7, r8, r9, r10, fp, ip, lr, pc}
	UNWIND(.pad #4)
	UNWIND(.save {r4, r5, r6, r7, r8, r9, r10, fp, ip, lr})
	UNWIND(.setfp fp, ip, #-4)
	sub	fp, ip, #4
	UNWIND(.pad #20)
	sub	sp, sp, #20
	subs	r6, r3, #0
	mov	r5, r0
	mov	r10, r1
	mov	r4, r2
	streq	r6, [r2]
	bne	.L1682
.L1643:
	ldr	r1, .L1690
	ldr	r0, [r5, #2292]
	bl	HEVC_ue_v
	cmp	r0, #16
	str	r0, [r4, #16]
	bhi	.L1683
	ldr	r1, .L1690+4
	ldr	r0, [r5, #2292]
	bl	HEVC_ue_v
	cmp	r0, #16
	str	r0, [r4, #20]
	bhi	.L1684
	ldr	r6, [r4, #16]
	add	r2, r0, r6
	str	r2, [r4, #24]
	cmp	r2, #16
	bhi	.L1668
	cmp	r6, #0
	addne	r10, r4, #68
	addne	r9, r4, #52
	movne	r7, #0
	movne	r8, r7
	beq	.L1670
.L1671:
	ldr	r1, .L1690+8
	add	r7, r7, #1
	ldr	r0, [r5, #2292]
	bl	HEVC_ue_v
	mov	r1, #1
	mvn	r0, r0
	add	r8, r8, r0
	str	r8, [r10, #4]!
	ldr	r0, [r5, #2292]
	bl	BsGet
	strb	r0, [r9, #1]!
	ldr	r6, [r4, #16]
	cmp	r6, r7
	bhi	.L1671
	ldr	r2, [r4, #24]
.L1670:
	cmp	r2, r6
	bls	.L1659
	add	r8, r6, #17
	add	r9, r6, #52
	add	r9, r4, r9
	mov	r7, #0
	add	r8, r4, r8, lsl #2
.L1672:
	ldr	r1, .L1690+12
	add	r6, r6, #1
	ldr	r0, [r5, #2292]
	bl	HEVC_ue_v
	mov	r1, #1
	add	r0, r0, r1
	add	r7, r7, r0
	str	r7, [r8, #4]!
	ldr	r0, [r5, #2292]
	bl	BsGet
	strb	r0, [r9, #1]!
	ldr	r3, [r4, #24]
	cmp	r3, r6
	bhi	.L1672
.L1659:
	mov	r0, #0
.L1648:
	sub	sp, fp, #40
	ldmfd	sp, {r4, r5, r6, r7, r8, r9, r10, fp, sp, pc}
.L1682:
	mov	r1, #1
	ldr	r0, [r0, #2292]
	bl	BsGet
	cmp	r0, #0
	str	r0, [r4]
	beq	.L1643
	ldr	r7, [r10, #228]
	cmp	r7, r6
	subne	r6, r6, #1
	movne	r3, #0
	strne	r3, [r4, #4]
	beq	.L1685
.L1647:
	mov	r1, #1
	ldr	r0, [r5, #2292]
	bl	BsGet
	ldr	r1, .L1690+16
	mov	r9, #204
	mul	r9, r9, r6
	str	r0, [r4, #8]
	ldr	r0, [r5, #2292]
	bl	HEVC_ue_v
	ldr	r3, [r4, #8]
	add	r2, r10, r9
	mov	r3, r3, asl #1
	rsb	r3, r3, #1
	add	r0, r0, #1
	str	r0, [r4, #12]
	ldr	r2, [r2, #2756]
	mul	r3, r3, r0
	cmp	r2, #16
	str	r3, [fp, #-60]
	bhi	.L1686
	add	r6, r9, #2800
	mov	r7, #0
	add	r6, r6, #4
	add	r8, r4, #35
	str	r4, [fp, #-56]
	add	r6, r10, r6
	str	r7, [fp, #-48]
	mov	r4, r7
	str	r7, [fp, #-52]
	b	.L1655
.L1650:
	sub	r3, r0, #1
	cmp	r3, #1
	bls	.L1687
.L1651:
	add	r3, r10, r9
	strb	r0, [r8, #1]!
	add	r4, r4, #1
	add	r6, r6, #4
	ldr	r3, [r3, #2756]
	cmp	r3, r4
	bcc	.L1688
.L1655:
	mov	r1, #1
	ldr	r0, [r5, #2292]
	bl	BsGet
	cmp	r0, #0
	bne	.L1650
	mov	r1, #1
	ldr	r0, [r5, #2292]
	bl	BsGet
	mov	r0, r0, asl #1
	sub	r3, r0, #1
	cmp	r3, #1
	bhi	.L1651
.L1687:
	add	r3, r10, r9
	ldr	r2, [fp, #-60]
	add	r1, r7, #18
	sub	ip, r0, #1
	ldr	r3, [r3, #2756]
	clz	ip, ip
	cmp	r3, r4
	mov	ip, ip, lsr #5
	ldrhi	r3, [r6]
	movls	r3, #0
	add	r3, r3, r2
	ldr	r2, [fp, #-56]
	cmp	r3, #0
	str	r3, [r2, r1, asl #2]
	add	r3, r2, r7
	add	r7, r7, #1
	strb	ip, [r3, #53]
	ldrlt	r3, [fp, #-52]
	ldrge	r3, [fp, #-48]
	addlt	r3, r3, #1
	addge	r3, r3, #1
	strlt	r3, [fp, #-52]
	strge	r3, [fp, #-48]
	b	.L1651
.L1688:
	ldr	r4, [fp, #-56]
	add	r3, r3, #1
	ldr	r1, [fp, #-48]
	cmp	r7, #16
	str	r3, [r4, #28]
	ldr	r3, [fp, #-52]
	str	r7, [r4, #24]
	str	r1, [r4, #20]
	str	r3, [r4, #16]
	bhi	.L1656
	cmp	r3, #16
	bhi	.L1656
	cmp	r1, #16
	bhi	.L1656
	cmp	r7, #1
	bls	.L1662
	mov	r3, r7
	add	r8, r4, #72
	sub	r7, r7, #1
	add	r6, r4, #53
	mov	r5, #0
.L1661:
	ldr	ip, [r8, #4]!
	cmp	r5, #0
	ldrb	lr, [r6, #1]!	@ zero_extendqisi2
	mov	r2, r5
	movge	r1, r8
	movge	r3, r6
	blt	.L1664
.L1660:
	ldr	r0, [r1, #-4]!
	sub	r3, r3, #1
	cmp	ip, r0
	strlt	r0, [r1, #4]
	ldrltb	r0, [r3]	@ zero_extendqisi2
	strltb	r0, [r3, #1]
	strlt	ip, [r1]
	strltb	lr, [r3]
	subs	r2, r2, #1
	bpl	.L1660
.L1664:
	add	r5, r5, #1
	cmp	r5, r7
	bne	.L1661
.L1662:
	ldr	r3, [fp, #-52]
	movs	r6, r3, lsr #1
	beq	.L1659
	ldr	r3, [fp, #-52]
	add	r0, r4, #72
	mov	r1, #0
	add	r2, r3, #17
	add	r3, r3, #52
	add	r3, r4, r3
	add	r2, r4, r2, lsl #2
	add	r4, r4, #53
.L1665:
	ldr	r5, [r2]
	add	r1, r1, #1
	ldr	lr, [r0]
	cmp	r1, r6
	ldrb	ip, [r4]	@ zero_extendqisi2
	str	r5, [r0], #4
	ldrb	r5, [r3]	@ zero_extendqisi2
	strb	r5, [r4], #1
	str	lr, [r2], #-4
	strb	ip, [r3], #-1
	bne	.L1665
	b	.L1659
.L1685:
	ldr	r1, .L1690+20
	ldr	r0, [r5, #2292]
	bl	HEVC_ue_v
	add	r2, r0, #1
	str	r2, [r4, #4]
	cmp	r7, r2
	bcc	.L1689
	sub	r3, r7, #1
	rsb	r6, r0, r3
	cmp	r6, r3
	bls	.L1647
	ldr	ip, .L1690+24
	mov	r2, r6
	ldr	r1, .L1690+28
	mov	r0, #1
	ldr	ip, [ip, #68]
	blx	ip
	mvn	r0, #0
	b	.L1648
.L1656:
	ldr	r3, .L1690+24
	mov	r0, #1
	ldr	r1, .L1690+32
	ldr	r3, [r3, #68]
	blx	r3
	mvn	r0, #0
	b	.L1648
.L1683:
	ldr	r3, .L1690+24
	mov	r2, r0
	ldr	r1, .L1690+36
	mov	r0, #1
	ldr	r3, [r3, #68]
	blx	r3
	mvn	r0, #0
	b	.L1648
.L1689:
	ldr	ip, .L1690+24
	mov	r3, r7
	ldr	r1, .L1690+40
	mov	r0, #1
	ldr	ip, [ip, #68]
	blx	ip
	mvn	r0, #0
	b	.L1648
.L1686:
	ldr	r3, .L1690+24
	mov	r0, #1
	ldr	r1, .L1690+44
	ldr	r3, [r3, #68]
	blx	r3
	mvn	r0, #0
	b	.L1648
.L1668:
	ldr	ip, .L1690+24
	mov	r3, #16
	ldr	r1, .L1690+48
	mov	r0, #1
	ldr	ip, [ip, #68]
	blx	ip
	mvn	r0, #0
	b	.L1648
.L1684:
	ldr	r3, .L1690+24
	mov	r0, #1
	ldr	r2, [r4, #16]
	ldr	r1, .L1690+52
	ldr	r3, [r3, #68]
	blx	r3
	mvn	r0, #0
	b	.L1648
.L1691:
	.align	2
.L1690:
	.word	.LC139
	.word	.LC141
	.word	.LC144
	.word	.LC145
	.word	.LC136
	.word	.LC133
	.word	vfmw_Osal_Func_Ptr_S
	.word	.LC135
	.word	.LC138
	.word	.LC140
	.word	.LC134
	.word	.LC137
	.word	.LC143
	.word	.LC142
	UNWIND(.fnend)
	.size	HEVC_DecShortTermRefPicSet, .-HEVC_DecShortTermRefPicSet
	.align	2
	.global	HEVC_DecHrdParam
	.type	HEVC_DecHrdParam, %function
HEVC_DecHrdParam:
	UNWIND(.fnstart)
	@ args = 0, pretend = 0, frame = 8
	@ frame_needed = 1, uses_anonymous_args = 0
	UNWIND(.movsp ip)
	mov	ip, sp
	stmfd	sp!, {r4, r5, r6, r7, r8, r9, r10, fp, ip, lr, pc}
	UNWIND(.pad #4)
	UNWIND(.save {r4, r5, r6, r7, r8, r9, r10, fp, ip, lr})
	UNWIND(.setfp fp, ip, #-4)
	sub	fp, ip, #4
	UNWIND(.pad #12)
	sub	sp, sp, #12
	cmp	r1, #0
	cmpne	r0, #0
	mov	r7, r3
	mov	r5, r0
	mov	r8, r1
	beq	.L1714
	cmp	r2, #0
	bne	.L1739
.L1697:
	mov	r4, r8
	mov	r6, #0
.L1711:
	mov	r1, #1
	ldr	r0, [r5, #2292]
	bl	BsGet
	uxtb	r0, r0
	strb	r0, [r4, #40]
	cmp	r0, #0
	movne	r3, #1
	strneb	r3, [r4, #41]
	beq	.L1740
.L1699:
	ldrb	r2, [r4, #41]	@ zero_extendqisi2
	mov	r3, #0
	strb	r3, [r4, #42]
	cmp	r2, r3
	str	r3, [r4, #48]
	beq	.L1700
	ldr	r1, .L1747
	ldr	r0, [r5, #2292]
	bl	HEVC_ue_v
	ldrb	r3, [r4, #42]	@ zero_extendqisi2
	cmp	r3, #0
	str	r0, [r4, #44]
	beq	.L1702
.L1743:
	ldr	r2, [r4, #48]
	cmp	r2, #31
	bhi	.L1741
.L1704:
	mov	r2, r4
	mov	r10, #0
.L1713:
	cmp	r10, #0
	beq	.L1742
	cmp	r10, #1
	beq	.L1737
.L1710:
	add	r10, r10, #1
	add	r2, r2, #4
	cmp	r10, #2
	bne	.L1713
.L1709:
	add	r6, r6, #1
	add	r4, r4, #1280
	cmp	r7, r6
	add	r4, r4, #12
	bcs	.L1711
	mov	r0, #0
.L1736:
	sub	sp, fp, #40
	ldmfd	sp, {r4, r5, r6, r7, r8, r9, r10, fp, sp, pc}
.L1700:
	mov	r1, #1
	ldr	r0, [r5, #2292]
	bl	BsGet
	uxtb	r3, r0
	strb	r3, [r4, #42]
	cmp	r3, #0
	bne	.L1743
.L1702:
	ldr	r1, .L1747+4
	ldr	r0, [r5, #2292]
	bl	HEVC_ue_v
	mov	r2, r0
	cmp	r2, #31
	str	r0, [r4, #48]
	bls	.L1704
.L1741:
	ldr	r3, .L1747+8
	mov	r0, #1
	ldr	r1, .L1747+12
	ldr	r3, [r3, #68]
	blx	r3
	mov	r3, #0
	str	r3, [r4, #48]
	b	.L1704
.L1740:
	mov	r1, #1
	ldr	r0, [r5, #2292]
	bl	BsGet
	strb	r0, [r4, #41]
	b	.L1699
.L1739:
	mov	r1, #1
	ldr	r0, [r0, #2292]
	bl	BsGet
	mov	r1, #1
	strb	r0, [r8]
	ldr	r0, [r5, #2292]
	bl	BsGet
	strb	r0, [r8, #1]
	ldrh	r3, [r8]
	cmp	r3, #0
	beq	.L1697
	mov	r1, #1
	ldr	r0, [r5, #2292]
	bl	BsGet
	uxtb	r0, r0
	strb	r0, [r8, #2]
	cmp	r0, #0
	bne	.L1744
.L1695:
	mov	r1, #4
	ldr	r0, [r5, #2292]
	bl	BsGet
	mov	r1, #4
	str	r0, [r8, #16]
	ldr	r0, [r5, #2292]
	bl	BsGet
	ldrb	r3, [r8, #2]	@ zero_extendqisi2
	cmp	r3, #0
	str	r0, [r8, #20]
	bne	.L1745
.L1696:
	mov	r1, #5
	ldr	r0, [r5, #2292]
	bl	BsGet
	mov	r1, #5
	str	r0, [r8, #28]
	ldr	r0, [r5, #2292]
	bl	BsGet
	mov	r1, #5
	str	r0, [r8, #32]
	ldr	r0, [r5, #2292]
	bl	BsGet
	str	r0, [r8, #36]
	b	.L1697
.L1714:
	mvn	r0, #0
	b	.L1736
.L1745:
	mov	r1, #4
	ldr	r0, [r5, #2292]
	bl	BsGet
	str	r0, [r8, #24]
	b	.L1696
.L1744:
	mov	r1, #8
	ldr	r0, [r5, #2292]
	bl	BsGet
	mov	r1, #5
	str	r0, [r8, #4]
	ldr	r0, [r5, #2292]
	bl	BsGet
	mov	r1, #1
	str	r0, [r8, #8]
	ldr	r0, [r5, #2292]
	bl	BsGet
	mov	r1, #5
	strb	r0, [r8, #3]
	ldr	r0, [r5, #2292]
	bl	BsGet
	str	r0, [r8, #36]
	b	.L1695
.L1742:
	ldrb	r1, [r8]	@ zero_extendqisi2
	cmp	r1, #0
	beq	.L1746
	mov	r9, r2
	str	r10, [fp, #-48]
	b	.L1727
.L1712:
	mov	r1, #1
	ldr	r0, [r5, #2292]
	str	r2, [fp, #-52]
	bl	BsGet
	ldr	r3, [fp, #-48]
	add	r9, r9, #8
	ldr	r2, [fp, #-52]
	str	r0, [r9, #1068]
	ldr	r1, [r4, #48]
	cmp	r1, r3
	bcc	.L1710
.L1727:
	ldr	r3, [fp, #-48]
	ldr	r1, .L1747+16
	ldr	r0, [r5, #2292]
	add	r3, r3, #1
	str	r2, [fp, #-52]
	str	r3, [fp, #-48]
	bl	HEVC_ue_v
	ldr	r1, .L1747+20
	str	r0, [r9, #52]
	ldr	r0, [r5, #2292]
	bl	HEVC_ue_v
	ldr	r2, [fp, #-52]
	str	r0, [r9, #308]
	ldrb	r1, [r8, #2]	@ zero_extendqisi2
	cmp	r1, #0
	beq	.L1712
	ldr	r1, .L1747+24
	ldr	r0, [r5, #2292]
	bl	HEVC_ue_v
	ldr	r1, .L1747+28
	str	r0, [r9, #564]
	ldr	r0, [r5, #2292]
	bl	HEVC_ue_v
	ldr	r2, [fp, #-52]
	str	r0, [r9, #820]
	b	.L1712
.L1746:
	add	r2, r2, #4
	mov	r10, #1
.L1737:
	ldrb	r1, [r8, #1]	@ zero_extendqisi2
	cmp	r1, #0
	beq	.L1709
	mov	r3, #0
	mov	r9, r2
	str	r3, [fp, #-48]
	b	.L1727
.L1748:
	.align	2
.L1747:
	.word	.LC146
	.word	.LC147
	.word	vfmw_Osal_Func_Ptr_S
	.word	.LC148
	.word	.LC149
	.word	.LC150
	.word	.LC151
	.word	.LC152
	UNWIND(.fnend)
	.size	HEVC_DecHrdParam, .-HEVC_DecHrdParam
	.align	2
	.global	HEVC_ProcessVPS
	.type	HEVC_ProcessVPS, %function
HEVC_ProcessVPS:
	UNWIND(.fnstart)
	@ args = 0, pretend = 0, frame = 112
	@ frame_needed = 1, uses_anonymous_args = 0
	UNWIND(.movsp ip)
	mov	ip, sp
	stmfd	sp!, {r4, r5, r6, r7, r8, r9, r10, fp, ip, lr, pc}
	UNWIND(.pad #4)
	UNWIND(.save {r4, r5, r6, r7, r8, r9, r10, fp, ip, lr})
	UNWIND(.setfp fp, ip, #-4)
	sub	fp, ip, #4
	UNWIND(.pad #124)
	sub	sp, sp, #124
	mov	r6, r1
	mov	r7, r0
	mov	r1, #2
	ldr	r0, [r0, #2292]
	bl	BsGet
	cmp	r0, #3
	str	r0, [r6, #12]
	beq	.L1750
	ldr	r3, .L1802
	mov	r2, r0
	ldr	r1, .L1802+4
	mov	r0, #1
	ldr	r3, [r3, #68]
	blx	r3
.L1750:
	mov	r1, #6
	ldr	r0, [r7, #2292]
	bl	BsGet
	cmp	r0, #63
	str	r0, [r6, #16]
	bhi	.L1794
	mov	r1, #3
	ldr	r0, [r7, #2292]
	bl	BsGet
	cmp	r0, #8
	str	r0, [fp, #-152]
	bhi	.L1795
	ldr	r3, [fp, #-152]
	mov	r1, #1
	add	r3, r3, #1
	str	r3, [r6, #20]
	ldr	r0, [r7, #2292]
	bl	BsGet
	mov	r1, #16
	strb	r0, [r6, #1]
	ldr	r0, [r7, #2292]
	bl	BsGet
	movw	r3, #65535
	cmp	r0, r3
	str	r0, [r6, #24]
	bne	.L1796
	add	r1, r6, #12416
	ldr	r3, [fp, #-152]
	add	r1, r1, #20
	mov	r2, #1
	mov	r0, r7
	bl	HEVC_DecPTL
	subs	r4, r0, #0
	bne	.L1797
	mov	r1, #1
	ldr	r0, [r7, #2292]
	bl	BsGet
	ldr	r3, [fp, #-152]
	cmp	r3, #0
	addgt	r5, r6, #48
	ldrgt	r8, [fp, #-152]
	strb	r0, [r6, #7]
	bgt	.L1762
	b	.L1760
.L1759:
	add	r4, r4, #1
	cmp	r4, r8
	beq	.L1760
.L1762:
	ldr	r1, .L1802+8
	ldr	r0, [r7, #2292]
	bl	HEVC_ue_v
	ldr	r1, .L1802+12
	add	r0, r0, #1
	str	r0, [r5, #4]!
	ldr	r0, [r7, #2292]
	bl	HEVC_ue_v
	ldr	r1, .L1802+16
	str	r0, [r5, #32]
	ldr	r0, [r7, #2292]
	bl	HEVC_ue_v
	str	r0, [r5, #64]
	ldrb	r3, [r6, #7]	@ zero_extendqisi2
	cmp	r3, #0
	bne	.L1759
	ldr	r0, [fp, #-152]
	add	r2, r4, #1
	cmp	r0, r2
	ble	.L1760
	add	r3, r4, #13
	add	r3, r6, r3, lsl #2
.L1761:
	ldr	r1, [r6, #52]
	add	r2, r2, #1
	cmp	r2, r0
	str	r1, [r3, #4]!
	ldr	r1, [r6, #84]
	str	r1, [r3, #32]
	ldr	r1, [r6, #116]
	str	r1, [r3, #64]
	bne	.L1761
.L1760:
	mov	r1, #6
	ldr	r0, [r7, #2292]
	bl	BsGet
	ldr	r1, .L1802+20
	str	r0, [r6, #28]
	ldr	r0, [r7, #2292]
	bl	HEVC_ue_v
	cmp	r0, #1024
	str	r0, [r6, #32]
	bhi	.L1798
	cmp	r0, #1
	ble	.L1763
	ldr	r10, .L1802
	add	r9, r6, #148
	mov	r8, #1
.L1764:
	ldr	r3, [r6, #28]
	cmp	r3, #0
	movgt	r5, r9
	movgt	r4, #0
	ble	.L1766
.L1765:
	ldr	r2, .L1802+24
	mov	r3, r8
	str	r4, [sp]
	mov	r1, #100
	ldr	ip, [r10, #72]
	sub	r0, fp, #144
	blx	ip
	mov	r1, #1
	ldr	r0, [r7, #2292]
	add	r4, r4, r1
	bl	BsGet
	str	r0, [r5, #4]!
	ldr	r2, [r6, #28]
	cmp	r2, r4
	bgt	.L1765
.L1766:
	ldr	r3, [r6, #32]
	add	r8, r8, #1
	add	r9, r9, #4
	cmp	r3, r8
	bgt	.L1764
.L1763:
	mov	r1, #1
	ldr	r0, [r7, #2292]
	bl	BsGet
	uxtb	r0, r0
	strb	r0, [r6, #6]
	cmp	r0, #0
	beq	.L1772
	mov	r1, #32
	ldr	r0, [r7, #2292]
	bl	BsGet
	mov	r1, #32
	str	r0, [r6, #36]
	ldr	r0, [r7, #2292]
	bl	BsGet
	mov	r1, #1
	str	r0, [r6, #40]
	ldr	r0, [r7, #2292]
	bl	BsGet
	uxtb	r0, r0
	strb	r0, [r6, #5]
	cmp	r0, #0
	bne	.L1799
.L1770:
	ldr	r1, .L1802+28
	ldr	r0, [r7, #2292]
	bl	HEVC_ue_v
	cmp	r0, #1024
	str	r0, [r6, #48]
	bcs	.L1800
	cmp	r0, #0
	ble	.L1772
	add	r8, r6, #8192
	mov	r3, #1
	ldr	r1, .L1802+32
	add	r5, r6, #4224
	str	r3, [r8, #148]
	add	r5, r5, #24
	ldr	r0, [r7, #2292]
	mov	r4, #0
	bl	HEVC_ue_v
	add	r3, r6, #4096
	str	r0, [r3, #148]
	ldr	r0, [r8, #148]
	ldr	r8, [fp, #-152]
.L1773:
	uxtb	r2, r0
	ldr	r1, .L1802+36
	mov	r3, r8
	mov	r0, r7
	bl	HEVC_DecHrdParam
	add	r4, r4, #1
	ldr	r1, .L1802+32
	cmp	r0, #0
	bne	.L1801
	ldr	r2, [r6, #48]
	cmp	r2, r4
	ble	.L1772
	ldr	r0, [r7, #2292]
	bl	HEVC_ue_v
	cmp	r4, #0
	mov	r1, #1
	str	r0, [r5], #4
	ldrle	r0, [r5, #4092]
	ble	.L1773
	ldr	r0, [r7, #2292]
	bl	BsGet
	str	r0, [r5, #4092]
	b	.L1773
.L1772:
	mov	r1, #1
	ldr	r0, [r7, #2292]
	bl	BsGet
	uxtb	r0, r0
	strb	r0, [r6, #3]
	cmp	r0, #0
	bne	.L1789
.L1769:
	mov	r0, #0
.L1752:
	sub	sp, fp, #40
	ldmfd	sp, {r4, r5, r6, r7, r8, r9, r10, fp, sp, pc}
.L1778:
	ldr	r0, [r7, #2292]
	bl	BsGet
	strb	r0, [r6, #4]
.L1789:
	mov	r0, r7
	bl	HEVC_MoreRbspData
	mov	r1, #1
	cmp	r0, #0
	bne	.L1778
	b	.L1769
.L1801:
	ldr	r3, .L1802
	mov	r0, #1
	ldr	r1, .L1802+40
	ldr	r3, [r3, #68]
	blx	r3
	mvn	r0, #0
	sub	sp, fp, #40
	ldmfd	sp, {r4, r5, r6, r7, r8, r9, r10, fp, sp, pc}
.L1799:
	ldr	r1, .L1802+44
	ldr	r0, [r7, #2292]
	bl	HEVC_ue_v
	str	r0, [r6, #44]
	b	.L1770
.L1796:
	ldr	r3, .L1802
	mov	r0, #1
	ldr	r1, .L1802+48
	ldr	r3, [r3, #68]
	blx	r3
	mvn	r0, #0
	b	.L1752
.L1794:
	ldr	r3, .L1802
	mov	r0, #1
	ldr	r1, .L1802+52
	ldr	r3, [r3, #68]
	blx	r3
	mvn	r0, #0
	b	.L1752
.L1797:
	ldr	r3, .L1802
	mov	r0, #1
	ldr	r1, .L1802+56
	ldr	r3, [r3, #68]
	blx	r3
	mvn	r0, #0
	b	.L1752
.L1795:
	ldr	r3, .L1802
	mov	r2, r0
	ldr	r1, .L1802+60
	mov	r0, #1
	ldr	r3, [r3, #68]
	blx	r3
	mvn	r0, #0
	b	.L1752
.L1798:
	ldr	ip, .L1802
	mov	r2, r0
	mov	r3, #1024
	ldr	r1, .L1802+64
	mov	r0, #1
	ldr	ip, [ip, #68]
	blx	ip
	mvn	r0, #0
	b	.L1752
.L1800:
	ldr	ip, .L1802
	mov	r2, r0
	mov	r3, #1024
	ldr	r1, .L1802+68
	mov	r0, #1
	ldr	ip, [ip, #68]
	blx	ip
	mvn	r0, #0
	b	.L1752
.L1803:
	.align	2
.L1802:
	.word	vfmw_Osal_Func_Ptr_S
	.word	.LC153
	.word	.LC159
	.word	.LC160
	.word	.LC161
	.word	.LC158
	.word	.LC163
	.word	.LC165
	.word	.LC167
	.word	.LANCHOR5-3464
	.word	.LC168
	.word	.LC164
	.word	.LC156
	.word	.LC154
	.word	.LC157
	.word	.LC155
	.word	.LC162
	.word	.LC166
	UNWIND(.fnend)
	.size	HEVC_ProcessVPS, .-HEVC_ProcessVPS
	.align	2
	.global	HEVC_DecVPS
	.type	HEVC_DecVPS, %function
HEVC_DecVPS:
	UNWIND(.fnstart)
	@ args = 0, pretend = 0, frame = 0
	@ frame_needed = 1, uses_anonymous_args = 0
	UNWIND(.movsp ip)
	mov	ip, sp
	stmfd	sp!, {r4, r5, r6, r7, r8, r9, fp, ip, lr, pc}
	UNWIND(.pad #4)
	UNWIND(.save {r4, r5, r6, r7, r8, r9, fp, ip, lr})
	UNWIND(.setfp fp, ip, #-4)
	sub	fp, ip, #4
	mov	r1, #4
	mov	r4, r0
	ldr	r0, [r0, #2292]
	bl	BsGet
	cmp	r0, #15
	mov	r6, r0
	bhi	.L1810
	movw	r7, #12820
	ldr	r3, [r4, #2296]
	mul	r5, r7, r0
	add	r2, r3, r5
	ldrb	r9, [r3, r5]	@ zero_extendqisi2
	cmp	r9, #0
	bne	.L1811
	str	r0, [r2, #8]
	mov	r0, r4
	ldr	r1, [r4, #2296]
	add	r1, r1, r5
	bl	HEVC_ProcessVPS
	subs	r8, r0, #0
	bne	.L1812
	ldr	r3, [r4, #2296]
	mov	r2, #1
	add	r3, r3, r5
	strb	r2, [r3, #2]
	ldr	r3, [r4, #2296]
	strb	r2, [r3, r5]
.L1806:
	mov	r0, r8
	ldmfd	sp, {r4, r5, r6, r7, r8, r9, fp, sp, pc}
.L1811:
	ldr	r9, .L1814
	mov	r0, r4
	ldr	r1, .L1814+4
	str	r6, [r9, #-1264]
	bl	HEVC_ProcessVPS
	subs	r8, r0, #0
	bne	.L1813
	ldr	ip, .L1814+8
	mov	r3, #1
	ldr	r0, [r4, #2296]
	mov	r2, r7
	ldr	r1, .L1814+4
	add	r0, r0, r5
	ldr	ip, [ip, #56]
	strb	r3, [r9, #-1270]
	strb	r3, [r9, #-1272]
	blx	ip
	mov	r0, r8
	ldmfd	sp, {r4, r5, r6, r7, r8, r9, fp, sp, pc}
.L1813:
	ldr	r3, .L1814+8
	mov	r2, r6
	ldr	r1, .L1814+12
	mov	r0, #1
	mvn	r8, #0
	ldr	r3, [r3, #68]
	blx	r3
	b	.L1806
.L1810:
	ldr	r3, .L1814+8
	mov	r0, #1
	ldr	r1, .L1814+16
	mvn	r8, #0
	ldr	r3, [r3, #68]
	blx	r3
	b	.L1806
.L1812:
	ldr	r3, .L1814+8
	mov	r2, r6
	ldr	r1, .L1814+20
	mov	r0, #1
	mvn	r8, #0
	ldr	r3, [r3, #68]
	blx	r3
	ldr	r3, [r4, #2296]
	mov	r2, #1
	add	r3, r3, r5
	strb	r2, [r3, #2]
	ldr	r3, [r4, #2296]
	strb	r9, [r3, r5]
	b	.L1806
.L1815:
	.align	2
.L1814:
	.word	.LANCHOR6
	.word	.LANCHOR6-1272
	.word	vfmw_Osal_Func_Ptr_S
	.word	.LC170
	.word	.LC169
	.word	.LC171
	UNWIND(.fnend)
	.size	HEVC_DecVPS, .-HEVC_DecVPS
	.align	2
	.global	HEVC_DecVuiParam
	.type	HEVC_DecVuiParam, %function
HEVC_DecVuiParam:
	UNWIND(.fnstart)
	@ args = 0, pretend = 0, frame = 32
	@ frame_needed = 1, uses_anonymous_args = 0
	UNWIND(.movsp ip)
	mov	ip, sp
	stmfd	sp!, {r4, r5, r6, fp, ip, lr, pc}
	UNWIND(.pad #4)
	UNWIND(.save {r4, r5, r6, fp, ip, lr})
	UNWIND(.setfp fp, ip, #-4)
	sub	fp, ip, #4
	UNWIND(.pad #36)
	sub	sp, sp, #36
	ldr	r3, .L1865
	mov	r5, r0
	mov	r4, r1
	add	ip, r3, #16
	mov	r6, r2
	ldmia	r3, {r0, r1, r2, r3}
	sub	lr, fp, #60
	stmia	lr, {r0, r1, r2, r3}
	ldmia	ip, {r0, r1, r2, r3}
	sub	ip, fp, #28
	stmdb	ip, {r0, r1, r2, r3}
	mov	r1, #1
	ldr	r0, [r5, #2292]
	bl	BsGet
	uxtb	r0, r0
	strb	r0, [r4]
	cmp	r0, #0
	bne	.L1856
.L1818:
	mov	r1, #1
	ldr	r0, [r5, #2292]
	bl	BsGet
	uxtb	r0, r0
	strb	r0, [r4, #1]
	cmp	r0, #0
	bne	.L1857
.L1820:
	mov	r1, #1
	ldr	r0, [r5, #2292]
	bl	BsGet
	uxtb	r0, r0
	strb	r0, [r4, #3]
	cmp	r0, #0
	bne	.L1858
.L1822:
	mov	r1, #1
	ldr	r0, [r5, #2292]
	bl	BsGet
	uxtb	r0, r0
	strb	r0, [r4, #6]
	cmp	r0, #0
	bne	.L1859
.L1824:
	mov	r1, #1
	ldr	r0, [r5, #2292]
	bl	BsGet
	mov	r1, #1
	strb	r0, [r4, #7]
	ldr	r0, [r5, #2292]
	bl	BsGet
	mov	r1, #1
	strb	r0, [r4, #8]
	ldr	r0, [r5, #2292]
	bl	BsGet
	mov	r1, #1
	strb	r0, [r4, #9]
	ldr	r0, [r5, #2292]
	bl	BsGet
	uxtb	r0, r0
	strb	r0, [r4, #10]
	cmp	r0, #0
	beq	.L1825
	ldr	r1, .L1865+4
	ldr	r0, [r5, #2292]
	bl	HEVC_ue_v
	str	r0, [r4, #60]
	ldr	r3, [r6, #64]
	cmp	r3, #3
	bhi	.L1860
	sub	r2, fp, #28
	ldr	r1, .L1865+8
	add	r3, r2, r3, lsl #2
	ldr	r3, [r3, #-32]
	mul	r0, r3, r0
	str	r0, [r4, #60]
	ldr	r0, [r5, #2292]
	bl	HEVC_ue_v
	sub	r2, fp, #28
	ldr	r1, .L1865+12
	str	r0, [r4, #64]
	ldr	r3, [r6, #64]
	add	r3, r2, r3, lsl #2
	ldr	r3, [r3, #-32]
	mul	r0, r3, r0
	str	r0, [r4, #64]
	ldr	r0, [r5, #2292]
	bl	HEVC_ue_v
	sub	r2, fp, #28
	ldr	r1, .L1865+16
	str	r0, [r4, #68]
	ldr	r3, [r6, #64]
	add	r3, r2, r3, lsl #2
	ldr	r3, [r3, #-16]
	mul	r0, r3, r0
	str	r0, [r4, #68]
	ldr	r0, [r5, #2292]
	bl	HEVC_ue_v
	sub	r2, fp, #28
	str	r0, [r4, #72]
	ldr	r3, [r6, #64]
	add	r3, r2, r3, lsl #2
	ldr	r3, [r3, #-16]
	mul	r0, r3, r0
	str	r0, [r4, #72]
.L1825:
	mov	r1, #1
	ldr	r0, [r5, #2292]
	bl	BsGet
	uxtb	r0, r0
	strb	r0, [r4, #11]
	cmp	r0, #0
	beq	.L1828
	mov	r1, #32
	ldr	r0, [r5, #2292]
	bl	BsGet
	mov	r1, #32
	str	r0, [r4, #76]
	ldr	r0, [r5, #2292]
	bl	BsGet
	mov	r1, #1
	str	r0, [r4, #80]
	ldr	r0, [r5, #2292]
	bl	BsGet
	uxtb	r0, r0
	strb	r0, [r4, #12]
	cmp	r0, #0
	bne	.L1861
.L1829:
	mov	r1, #1
	ldr	r0, [r5, #2292]
	bl	BsGet
	uxtb	r0, r0
	strb	r0, [r4, #13]
	cmp	r0, #0
	bne	.L1862
.L1828:
	mov	r1, #1
	ldr	r0, [r5, #2292]
	bl	BsGet
	uxtb	r0, r0
	strb	r0, [r4, #14]
	cmp	r0, #0
	moveq	r3, r0
	bne	.L1863
.L1827:
	mov	r0, r3
	sub	sp, fp, #24
	ldmfd	sp, {r4, r5, r6, fp, sp, pc}
.L1863:
	mov	r1, #1
	ldr	r0, [r5, #2292]
	bl	BsGet
	mov	r1, #1
	strb	r0, [r4, #15]
	ldr	r0, [r5, #2292]
	bl	BsGet
	mov	r1, #1
	strb	r0, [r4, #16]
	ldr	r0, [r5, #2292]
	bl	BsGet
	ldr	r1, .L1865+20
	strb	r0, [r4, #17]
	ldr	r0, [r5, #2292]
	bl	HEVC_ue_v
	cmp	r0, #4096
	str	r0, [r4, #88]
	bcs	.L1864
.L1830:
	ldr	r1, .L1865+24
	ldr	r0, [r5, #2292]
	bl	HEVC_ue_v
	ldr	r1, .L1865+28
	str	r0, [r4, #92]
	ldr	r0, [r5, #2292]
	bl	HEVC_ue_v
	ldr	r1, .L1865+32
	str	r0, [r4, #96]
	ldr	r0, [r5, #2292]
	bl	HEVC_ue_v
	ldr	r1, .L1865+36
	str	r0, [r4, #100]
	ldr	r0, [r5, #2292]
	bl	HEVC_ue_v
	mov	r3, #0
	str	r0, [r4, #104]
	mov	r0, r3
	sub	sp, fp, #24
	ldmfd	sp, {r4, r5, r6, fp, sp, pc}
.L1859:
	ldr	r1, .L1865+40
	ldr	r0, [r5, #2292]
	bl	HEVC_ue_v
	ldr	r1, .L1865+44
	str	r0, [r4, #52]
	ldr	r0, [r5, #2292]
	bl	HEVC_ue_v
	str	r0, [r4, #56]
	b	.L1824
.L1856:
	mov	r1, #8
	ldr	r0, [r5, #2292]
	bl	BsGet
	cmp	r0, #255
	str	r0, [r4, #24]
	bne	.L1818
	mov	r1, #16
	ldr	r0, [r5, #2292]
	bl	BsGet
	mov	r1, #16
	str	r0, [r4, #28]
	ldr	r0, [r5, #2292]
	bl	BsGet
	str	r0, [r4, #32]
	b	.L1818
.L1858:
	mov	r1, #3
	ldr	r0, [r5, #2292]
	bl	BsGet
	mov	r1, #1
	str	r0, [r4, #36]
	ldr	r0, [r5, #2292]
	bl	BsGet
	mov	r1, #1
	strb	r0, [r4, #4]
	ldr	r0, [r5, #2292]
	bl	BsGet
	uxtb	r0, r0
	strb	r0, [r4, #5]
	cmp	r0, #0
	beq	.L1822
	mov	r1, #8
	ldr	r0, [r5, #2292]
	bl	BsGet
	mov	r1, #8
	str	r0, [r4, #40]
	ldr	r0, [r5, #2292]
	bl	BsGet
	mov	r1, #8
	str	r0, [r4, #44]
	ldr	r0, [r5, #2292]
	bl	BsGet
	str	r0, [r4, #48]
	b	.L1822
.L1857:
	mov	r1, #1
	ldr	r0, [r5, #2292]
	bl	BsGet
	strb	r0, [r4, #2]
	b	.L1820
.L1862:
	ldr	r3, [r6, #56]
	mov	r2, #1
	ldr	r1, .L1865+48
	mov	r0, r5
	bl	HEVC_DecHrdParam
	cmp	r0, #0
	beq	.L1828
	ldr	r3, .L1865+52
	mov	r0, #1
	ldr	r1, .L1865+56
	ldr	r3, [r3, #68]
	blx	r3
	mvn	r3, #0
	b	.L1827
.L1861:
	ldr	r1, .L1865+60
	ldr	r0, [r5, #2292]
	bl	HEVC_ue_v
	str	r0, [r4, #84]
	b	.L1829
.L1864:
	ldr	r3, .L1865+52
	mov	r0, #1
	ldr	r1, .L1865+64
	ldr	r3, [r3, #68]
	blx	r3
	b	.L1830
.L1860:
	ldr	r3, .L1865+52
	mov	r0, #1
	ldr	r1, .L1865+68
	ldr	r3, [r3, #68]
	blx	r3
	mvn	r3, #0
	b	.L1827
.L1866:
	.align	2
.L1865:
	.word	.LANCHOR1+424
	.word	.LC174
	.word	.LC176
	.word	.LC177
	.word	.LC178
	.word	.LC181
	.word	.LC183
	.word	.LC184
	.word	.LC185
	.word	.LC186
	.word	.LC172
	.word	.LC173
	.word	.LANCHOR5-3464
	.word	vfmw_Osal_Func_Ptr_S
	.word	.LC180
	.word	.LC179
	.word	.LC182
	.word	.LC175
	UNWIND(.fnend)
	.size	HEVC_DecVuiParam, .-HEVC_DecVuiParam
	.align	2
	.global	HEVC_se_v
	.type	HEVC_se_v, %function
HEVC_se_v:
	UNWIND(.fnstart)
	@ args = 0, pretend = 0, frame = 0
	@ frame_needed = 1, uses_anonymous_args = 0
	UNWIND(.movsp ip)
	mov	ip, sp
	stmfd	sp!, {r4, r5, r6, r7, fp, ip, lr, pc}
	UNWIND(.pad #4)
	UNWIND(.save {r4, r5, r6, r7, fp, ip, lr})
	UNWIND(.setfp fp, ip, #-4)
	sub	fp, ip, #4
	mov	r1, #32
	mov	r5, r0
	bl	BsShow
	bl	ZerosMS_32
	cmp	r0, #31
	bls	.L1872
	mvn	r0, #-2147483648
	ldmfd	sp, {r4, r5, r6, r7, fp, sp, pc}
.L1872:
	add	r6, r0, #1
	mov	r1, r0
	mov	r0, r5
	bl	BsSkip
	mov	r1, r6
	mov	r0, r5
	bl	BsShow
	mov	r1, r6
	sub	r0, r0, #1
	tst	r0, #1
	mov	r3, r0, asr #1
	mov	r0, r5
	addne	r4, r3, #1
	rsbeq	r4, r3, #0
	bl	BsSkip
	mov	r0, r4
	ldmfd	sp, {r4, r5, r6, r7, fp, sp, pc}
	UNWIND(.fnend)
	.size	HEVC_se_v, .-HEVC_se_v
	.align	2
	.global	HEVC_Sei_Structure_Of_Pictures_Info
	.type	HEVC_Sei_Structure_Of_Pictures_Info, %function
HEVC_Sei_Structure_Of_Pictures_Info:
	UNWIND(.fnstart)
	@ args = 0, pretend = 0, frame = 0
	@ frame_needed = 1, uses_anonymous_args = 0
	UNWIND(.movsp ip)
	mov	ip, sp
	stmfd	sp!, {r4, r5, r6, r7, r8, r9, fp, ip, lr, pc}
	UNWIND(.pad #4)
	UNWIND(.save {r4, r5, r6, r7, r8, r9, fp, ip, lr})
	UNWIND(.setfp fp, ip, #-4)
	sub	fp, ip, #4
	mov	r9, r1
	mov	r5, r0
	ldr	r1, .L1885
	ldr	r0, [r0, #2292]
	bl	HEVC_ue_v
	ldr	r1, .L1885+4
	str	r0, [r9]
	ldr	r0, [r5, #2292]
	bl	HEVC_ue_v
	cmp	r0, #1024
	str	r0, [r9, #4]
	bhi	.L1874
	cmp	r0, #0
	beq	.L1880
	add	r7, r9, #4096
	add	r8, r9, #12288
	add	r7, r7, #8
	add	r8, r8, #8
	add	r6, r9, #4
	mov	r4, #0
	b	.L1879
.L1878:
	ldr	r3, [r9, #4]
	add	r8, r8, #4
	cmp	r3, r4
	bls	.L1880
.L1879:
	mov	r1, #6
	ldr	r0, [r5, #2292]
	bl	BsGet
	mov	r1, #3
	str	r0, [r6, #4]!
	ldr	r0, [r5, #2292]
	bl	BsGet
	ldr	r1, .L1885+8
	str	r0, [r7], #4
	ldr	r3, [r6]
	sub	r3, r3, #19
	cmp	r3, #1
	bls	.L1877
	ldr	r0, [r5, #2292]
	bl	HEVC_ue_v
	str	r0, [r7, #4092]
.L1877:
	cmp	r4, #0
	add	r4, r4, #1
	beq	.L1878
	ldr	r1, .L1885+12
	add	r8, r8, #4
	ldr	r0, [r5, #2292]
	bl	HEVC_se_v
	str	r0, [r8, #-4]
	ldr	r3, [r9, #4]
	cmp	r3, r4
	bhi	.L1879
.L1880:
	ldr	r0, [r5, #2292]
	bl	BsToNextByte
	mov	r0, #0
	ldmfd	sp, {r4, r5, r6, r7, r8, r9, fp, sp, pc}
.L1874:
	ldr	r3, .L1885+16
	mov	r0, #1
	ldr	r1, .L1885+20
	ldr	r3, [r3, #68]
	blx	r3
	mvn	r0, #0
	ldmfd	sp, {r4, r5, r6, r7, r8, r9, fp, sp, pc}
.L1886:
	.align	2
.L1885:
	.word	.LC187
	.word	.LC188
	.word	.LC190
	.word	.LC191
	.word	vfmw_Osal_Func_Ptr_S
	.word	.LC189
	UNWIND(.fnend)
	.size	HEVC_Sei_Structure_Of_Pictures_Info, .-HEVC_Sei_Structure_Of_Pictures_Info
	.align	2
	.global	HEVC_Sei_Recovery_Point
	.type	HEVC_Sei_Recovery_Point, %function
HEVC_Sei_Recovery_Point:
	UNWIND(.fnstart)
	@ args = 0, pretend = 0, frame = 0
	@ frame_needed = 1, uses_anonymous_args = 0
	UNWIND(.movsp ip)
	mov	ip, sp
	stmfd	sp!, {r4, r5, r6, r7, fp, ip, lr, pc}
	UNWIND(.pad #4)
	UNWIND(.save {r4, r5, r6, r7, fp, ip, lr})
	UNWIND(.setfp fp, ip, #-4)
	sub	fp, ip, #4
	cmp	r1, #0
	cmpne	r0, #0
	mov	r4, r0
	mov	r6, r1
	moveq	r5, #1
	movne	r5, #0
	beq	.L1889
	ldr	r1, .L1890
	ldr	r0, [r0, #2292]
	bl	HEVC_se_v
	mov	r1, #1
	str	r0, [r6, #4]
	ldr	r0, [r4, #2292]
	bl	BsGet
	mov	r1, #1
	strb	r0, [r6]
	ldr	r0, [r4, #2292]
	bl	BsGet
	strb	r0, [r6, #1]
	ldr	r0, [r4, #2292]
	bl	BsToNextByte
	mov	r0, r5
	ldmfd	sp, {r4, r5, r6, r7, fp, sp, pc}
.L1889:
	mvn	r0, #0
	ldmfd	sp, {r4, r5, r6, r7, fp, sp, pc}
.L1891:
	.align	2
.L1890:
	.word	.LC192
	UNWIND(.fnend)
	.size	HEVC_Sei_Recovery_Point, .-HEVC_Sei_Recovery_Point
	.align	2
	.global	HEVC_Sei_Payload
	.type	HEVC_Sei_Payload, %function
HEVC_Sei_Payload:
	UNWIND(.fnstart)
	@ args = 4, pretend = 0, frame = 0
	@ frame_needed = 1, uses_anonymous_args = 0
	UNWIND(.movsp ip)
	mov	ip, sp
	stmfd	sp!, {r4, r5, r6, r7, fp, ip, lr, pc}
	UNWIND(.pad #4)
	UNWIND(.save {r4, r5, r6, r7, fp, ip, lr})
	UNWIND(.setfp fp, ip, #-4)
	sub	fp, ip, #4
	ldr	ip, [r0, #2316]
	mov	r4, r0
	mov	r6, r1
	ldr	r7, [fp, #4]
	ldr	ip, [ip, #16]
	cmp	ip, #39
	beq	.L1937
	cmp	r3, #5
	beq	.L1919
	cmp	r3, #132
	beq	.L1920
	cmp	r7, #0
	movne	r5, #0
	beq	.L1914
.L1922:
	add	r5, r5, #1
	mov	r1, #8
	ldr	r0, [r4, #2292]
	bl	BsGet
	cmp	r5, r7
	bne	.L1922
	b	.L1914
.L1919:
	add	r1, r6, #3136
	mov	r2, r7
	add	r1, r1, #12
	bl	HEVC_Sei_User_Data_Unregistered
	cmp	r0, #0
	bne	.L1916
.L1914:
	mov	r1, r7
	mov	r0, r4
	bl	HEVC_Sei_More_Data_In_Payload
	cmp	r0, #0
	bne	.L1938
	mov	r0, #0
	ldmfd	sp, {r4, r5, r6, r7, fp, sp, pc}
.L1938:
	mov	r1, r7
	mov	r0, r4
	bl	HEVC_Sei_Payload_Extension_Present
	cmp	r0, #0
	bne	.L1939
.L1923:
	mov	r1, #1
	ldr	r0, [r4, #2292]
	bl	BsGet
	str	r0, [r6, #12]
	b	.L1924
.L1925:
	ldr	r0, [r4, #2292]
	bl	BsGet
	str	r0, [r6, #16]
.L1924:
	ldr	r0, [r4, #2292]
	bl	BsIsByteAligned
	mov	r1, #1
	cmp	r0, #0
	beq	.L1925
	mov	r0, #0
	ldmfd	sp, {r4, r5, r6, r7, fp, sp, pc}
.L1937:
	cmp	r3, #47
	beq	.L1895
	bls	.L1940
	cmp	r3, #130
	beq	.L1904
	bls	.L1941
	cmp	r3, #133
	beq	.L1908
	cmp	r3, #134
	beq	.L1909
	cmp	r3, #131
	beq	.L1910
.L1894:
	cmp	r7, #0
	movne	r5, #0
	beq	.L1914
.L1917:
	add	r5, r5, #1
	mov	r1, #8
	ldr	r0, [r4, #2292]
	bl	BsGet
	cmp	r5, r7
	bne	.L1917
	b	.L1914
.L1920:
	add	r1, r1, #23552
	add	r1, r1, #124
	bl	HEVC_Sei_Decoded_Picture_Hash
	cmp	r0, #0
	beq	.L1914
	b	.L1916
.L1940:
	cmp	r3, #5
	beq	.L1919
	bls	.L1942
	cmp	r3, #23
	beq	.L1901
	cmp	r3, #45
	beq	.L1902
	cmp	r3, #6
	bne	.L1894
	add	r1, r1, #3264
	bl	HEVC_Sei_Recovery_Point
	cmp	r0, #0
	beq	.L1914
.L1916:
	mvn	r0, #0
	ldmfd	sp, {r4, r5, r6, r7, fp, sp, pc}
.L1939:
	ldr	r1, .L1943
	ldr	r0, [r4, #2292]
	bl	HEVC_ue_v
	str	r0, [r6, #8]
	b	.L1923
.L1901:
	add	r1, r1, #3328
	add	r1, r1, #8
	bl	HEVC_Sei_Tone_Mapping_Info
	cmp	r0, #0
	beq	.L1914
	b	.L1916
.L1908:
	mov	r3, r7
	bl	HEVC_Sei_Scalable_Nesting
	cmp	r0, #0
	beq	.L1914
	b	.L1916
.L1941:
	cmp	r3, #128
	beq	.L1906
	cmp	r3, #129
	bne	.L1894
	add	r1, r1, #3168
	add	r1, r1, #4
	bl	HEVC_Sei_Active_Param_sets
	cmp	r0, #0
	beq	.L1914
	b	.L1916
.L1942:
	cmp	r3, #0
	beq	.L1899
	cmp	r3, #1
	bne	.L1894
	add	r1, r1, #1056
	add	r2, r2, #2624
	add	r1, r1, #12
	bl	HEVC_Sei_Pic_Timming
	cmp	r0, #0
	beq	.L1914
	b	.L1916
.L1910:
	add	r1, r1, #3312
	add	r1, r1, #12
	bl	HEVC_Sei_Temporal_Sub_Layer_Zero_Index
	cmp	r0, #0
	beq	.L1914
	b	.L1916
.L1909:
	add	r1, r1, #3328
	add	r1, r1, #4
	bl	HEVC_Sei_Region_Refresh_Info
	cmp	r0, #0
	beq	.L1914
	b	.L1916
.L1899:
	ldr	r2, .L1943+4
	add	r1, r1, #24
	bl	HEVC_Sei_Buf_Period
	cmp	r0, #0
	beq	.L1914
	b	.L1916
.L1904:
	ldr	r2, .L1943+4
	add	r1, r1, #3248
	bl	HEVC_Sei_Dec_Unit_Info
	cmp	r0, #0
	beq	.L1914
	b	.L1916
.L1895:
	add	r1, r1, #3312
	add	r1, r1, #4
	bl	HEVC_Sei_Display_Orientation
	cmp	r0, #0
	beq	.L1914
	b	.L1916
.L1902:
	add	r1, r1, #3264
	add	r1, r1, #8
	bl	HEVC_Sei_Frame_Packing_Arrangement
	cmp	r0, #0
	beq	.L1914
	b	.L1916
.L1906:
	add	r1, r1, #6464
	mov	r2, r7
	add	r1, r1, #32
	bl	HEVC_Sei_Structure_Of_Pictures_Info
	cmp	r0, #0
	beq	.L1914
	b	.L1916
.L1944:
	.align	2
.L1943:
	.word	.LC193
	.word	.LANCHOR5-3464
	UNWIND(.fnend)
	.size	HEVC_Sei_Payload, .-HEVC_Sei_Payload
	.align	2
	.global	HEVC_SeiMessage
	.type	HEVC_SeiMessage, %function
HEVC_SeiMessage:
	UNWIND(.fnstart)
	@ args = 0, pretend = 0, frame = 0
	@ frame_needed = 1, uses_anonymous_args = 0
	UNWIND(.movsp ip)
	mov	ip, sp
	stmfd	sp!, {r4, r5, r6, r7, r8, fp, ip, lr, pc}
	UNWIND(.pad #4)
	UNWIND(.save {r4, r5, r6, r7, r8, fp, ip, lr})
	UNWIND(.setfp fp, ip, #-4)
	sub	fp, ip, #4
	UNWIND(.pad #12)
	sub	sp, sp, #12
	mov	r6, #0
	mov	r4, r0
	mov	r7, r1
	mov	r8, r2
	b	.L1946
.L1947:
	add	r6, r6, #255
	bl	BsSkip
.L1946:
	mov	r1, #8
	ldr	r0, [r4, #2292]
	bl	BsShow
	mov	r1, #8
	cmp	r0, #255
	ldr	r0, [r4, #2292]
	beq	.L1947
	bl	BsGet
	mov	r5, #0
	str	r0, [r7]
	add	r6, r0, r6
	b	.L1948
.L1949:
	add	r5, r5, #255
	bl	BsSkip
.L1948:
	mov	r1, #8
	ldr	r0, [r4, #2292]
	bl	BsShow
	mov	r1, #8
	cmp	r0, #255
	ldr	r0, [r4, #2292]
	beq	.L1949
	bl	BsGet
	mov	r3, r6
	mov	r2, r8
	mov	r1, r7
	str	r0, [r7, #4]
	add	r5, r0, r5
	mov	r0, r4
	str	r5, [sp]
	bl	HEVC_Sei_Payload
	cmp	r0, #0
	bne	.L1952
.L1950:
	sub	sp, fp, #32
	ldmfd	sp, {r4, r5, r6, r7, r8, fp, sp, pc}
.L1952:
	ldr	r3, .L1953
	mov	r0, #1
	ldr	r1, .L1953+4
	ldr	r3, [r3, #68]
	blx	r3
	mvn	r0, #0
	b	.L1950
.L1954:
	.align	2
.L1953:
	.word	vfmw_Osal_Func_Ptr_S
	.word	.LC194
	UNWIND(.fnend)
	.size	HEVC_SeiMessage, .-HEVC_SeiMessage
	.align	2
	.global	HEVC_DecSEI
	.type	HEVC_DecSEI, %function
HEVC_DecSEI:
	UNWIND(.fnstart)
	@ args = 0, pretend = 0, frame = 0
	@ frame_needed = 1, uses_anonymous_args = 0
	UNWIND(.movsp ip)
	mov	ip, sp
	stmfd	sp!, {r4, r5, r6, r7, fp, ip, lr, pc}
	UNWIND(.pad #4)
	UNWIND(.save {r4, r5, r6, r7, fp, ip, lr})
	UNWIND(.setfp fp, ip, #-4)
	sub	fp, ip, #4
	add	r6, r0, #3424
	add	r5, r0, #27136
	mov	r4, r0
	add	r6, r6, #4
	add	r5, r5, #52
	b	.L1959
.L1956:
	ldr	r0, [r4, #2292]
	bl	BsIsByteAligned
	cmp	r0, #0
	mov	r0, r4
	beq	.L1964
	bl	HEVC_More_Rbsp_Data
	subs	r7, r0, #0
	beq	.L1965
.L1959:
	mov	r2, r5
	mov	r1, r6
	mov	r0, r4
	bl	HEVC_SeiMessage
	cmp	r0, #0
	beq	.L1956
	ldr	r3, .L1966
	mov	r0, #1
	ldr	r1, .L1966+4
	mvn	r7, #0
	ldr	r3, [r3, #68]
	blx	r3
.L1957:
	mov	r0, r7
	ldmfd	sp, {r4, r5, r6, r7, fp, sp, pc}
.L1964:
	ldr	r3, .L1966
	mvn	r7, #0
	ldr	r1, .L1966+8
	mov	r0, #1
	ldr	r3, [r3, #68]
	blx	r3
	mov	r0, r7
	ldmfd	sp, {r4, r5, r6, r7, fp, sp, pc}
.L1965:
	ldr	r0, [r4, #2292]
	mov	r1, #8
	bl	BsGet
	cmp	r0, #128
	beq	.L1957
	ldr	r3, .L1966
	mov	r2, r0
	ldr	r1, .L1966+12
	mov	r0, #1
	mvn	r7, #0
	ldr	r3, [r3, #68]
	blx	r3
	b	.L1957
.L1967:
	.align	2
.L1966:
	.word	vfmw_Osal_Func_Ptr_S
	.word	.LC195
	.word	.LC196
	.word	.LC197
	UNWIND(.fnend)
	.size	HEVC_DecSEI, .-HEVC_DecSEI
	.align	2
	.global	HEVC_Sei_Scalable_Nesting
	.type	HEVC_Sei_Scalable_Nesting, %function
HEVC_Sei_Scalable_Nesting:
	UNWIND(.fnstart)
	@ args = 0, pretend = 0, frame = 0
	@ frame_needed = 1, uses_anonymous_args = 0
	UNWIND(.movsp ip)
	mov	ip, sp
	stmfd	sp!, {r4, r5, r6, r7, r8, r9, fp, ip, lr, pc}
	UNWIND(.pad #4)
	UNWIND(.save {r4, r5, r6, r7, r8, r9, fp, ip, lr})
	UNWIND(.setfp fp, ip, #-4)
	sub	fp, ip, #4
	mov	r4, r0
	mov	r7, r1
	ldr	r0, [r0, #2292]
	mov	r1, #1
	mov	r9, r2
	bl	BsGet
	add	r8, r7, #20480
	mov	r1, #1
	strb	r0, [r8, #2408]
	ldr	r0, [r4, #2292]
	bl	BsGet
	mov	r1, #1
	uxtb	r0, r0
	strb	r0, [r8, #2409]
	cmp	r0, #0
	ldr	r0, [r4, #2292]
	beq	.L1969
	bl	BsGet
	ldr	r1, .L1985
	strb	r0, [r8, #2410]
	ldr	r0, [r4, #2292]
	bl	HEVC_ue_v
	cmp	r0, #63
	str	r0, [r8, #2416]
	bhi	.L1982
	ldrb	r6, [r8, #2410]	@ zero_extendqisi2
	cmp	r0, r6
	addcs	r5, r6, #5696
	addcs	r5, r5, #28
	addcs	r5, r7, r5, lsl #2
	bcc	.L1975
.L1974:
	mov	r1, #3
	ldr	r0, [r4, #2292]
	bl	BsGet
	ldr	r1, .L1985+4
	add	r6, r6, #1
	str	r0, [r5, #4]!
	ldr	r0, [r4, #2292]
	bl	HEVC_ue_v
	str	r0, [r5, #256]
	ldr	r3, [r8, #2416]
	cmp	r3, r6
	bcs	.L1974
.L1975:
	ldr	r0, [r4, #2292]
	bl	BsToNextByte
	mov	r3, #0
	strb	r3, [r8, #2412]
	b	.L1973
.L1978:
	bl	HEVC_MoreRbspData
	cmp	r0, #0
	beq	.L1983
.L1973:
	mov	r2, r9
	mov	r1, r7
	mov	r0, r4
	bl	HEVC_SeiMessage
	cmp	r0, #0
	mov	r0, r4
	beq	.L1978
	ldr	r3, .L1985+8
	mov	r0, #1
	ldr	r1, .L1985+12
	ldr	r3, [r3, #68]
	blx	r3
	mvn	r0, #0
	ldmfd	sp, {r4, r5, r6, r7, r8, r9, fp, sp, pc}
.L1969:
	bl	BsGet
	uxtb	r5, r0
	strb	r5, [r8, #2411]
	cmp	r5, #0
	bne	.L1975
	mov	r1, #3
	ldr	r0, [r4, #2292]
	bl	BsGet
	ldr	r1, .L1985+16
	str	r0, [r8, #2932]
	ldr	r0, [r4, #2292]
	bl	HEVC_ue_v
	cmp	r0, #63
	str	r0, [r8, #2936]
	addls	r6, r7, #23296
	addls	r6, r6, #120
	bhi	.L1984
.L1977:
	mov	r1, #6
	ldr	r0, [r4, #2292]
	bl	BsGet
	add	r5, r5, #1
	str	r0, [r6, #4]!
	ldr	r3, [r8, #2936]
	cmp	r3, r5
	bcs	.L1977
	b	.L1975
.L1983:
	ldmfd	sp, {r4, r5, r6, r7, r8, r9, fp, sp, pc}
.L1982:
	ldr	r3, .L1985+8
	mov	r2, #64
	ldr	r1, .L1985+20
	mov	r0, #1
	ldr	r3, [r3, #68]
	blx	r3
	mvn	r0, #0
	ldmfd	sp, {r4, r5, r6, r7, r8, r9, fp, sp, pc}
.L1984:
	ldr	r3, .L1985+8
	mov	r0, #1
	ldr	r1, .L1985+24
	ldr	r3, [r3, #68]
	blx	r3
	mvn	r0, #0
	ldmfd	sp, {r4, r5, r6, r7, r8, r9, fp, sp, pc}
.L1986:
	.align	2
.L1985:
	.word	.LC198
	.word	.LC200
	.word	vfmw_Osal_Func_Ptr_S
	.word	.LC195
	.word	.LC201
	.word	.LC199
	.word	.LC202
	UNWIND(.fnend)
	.size	HEVC_Sei_Scalable_Nesting, .-HEVC_Sei_Scalable_Nesting
	.align	2
	.global	HEVC_DecScalingListData
	.type	HEVC_DecScalingListData, %function
HEVC_DecScalingListData:
	UNWIND(.fnstart)
	@ args = 0, pretend = 0, frame = 32
	@ frame_needed = 1, uses_anonymous_args = 0
	UNWIND(.movsp ip)
	mov	ip, sp
	stmfd	sp!, {r4, r5, r6, r7, r8, r9, r10, fp, ip, lr, pc}
	UNWIND(.pad #4)
	UNWIND(.save {r4, r5, r6, r7, r8, r9, r10, fp, ip, lr})
	UNWIND(.setfp fp, ip, #-4)
	sub	fp, ip, #4
	UNWIND(.pad #36)
	sub	sp, sp, #36
	ldr	r3, .L2024
	mov	r9, r1
	mov	r6, r0
	add	ip, r9, #1664
	add	r1, r1, #1264
	add	r0, r9, #1392
	ldr	r3, [r3, #52]
	add	r1, r1, #1
	add	r0, r0, #1
	mov	r2, #64
	mov	r4, ip
	blx	r3
	add	r3, r4, #4
	str	r3, [fp, #-76]
	add	r3, r6, #2176
	str	r3, [fp, #-48]
	add	r3, r9, #24
	str	r3, [fp, #-68]
	add	r3, r9, #49
	str	r3, [fp, #-72]
	mov	r3, #0
	str	r3, [fp, #-52]
.L1988:
	ldr	r2, [fp, #-48]
	ldr	r3, [r2, #4]!
	cmp	r3, #0
	str	r2, [fp, #-48]
	beq	.L2007
	ldr	r3, [fp, #-76]
	ldr	r7, [fp, #-72]
	str	r3, [fp, #-64]
	ldr	r3, [fp, #-68]
	str	r3, [fp, #-56]
	mov	r3, #0
	str	r3, [fp, #-60]
.L2006:
	mov	r1, #1
	ldr	r0, [r6, #2292]
	bl	BsGet
	ldr	r3, [fp, #-56]
	uxtb	r0, r0
	strb	r0, [r3, #1]!
	str	r3, [fp, #-56]
	ldr	r3, [fp, #-48]
	ldr	r5, [r3, #-1904]
	ldr	r3, [fp, #-52]
	cmp	r5, #64
	movge	r5, #64
	cmp	r3, #0
	beq	.L1989
	cmp	r0, #0
	add	r4, r6, #308
	beq	.L2020
	ldr	r3, [fp, #-52]
	cmp	r3, #1
	bls	.L2013
	ldr	r1, .L2024+4
	ldr	r0, [r6, #2292]
	bl	HEVC_se_v
	add	r3, r0, #7
	str	r0, [r9, #1660]
	cmp	r3, #254
	bhi	.L2021
	ldr	r3, [fp, #-64]
	add	r8, r0, #8
	str	r8, [r3]
.L2000:
	cmp	r5, #0
	ble	.L1999
	sub	r4, r4, #4
	mov	r10, #0
	b	.L2004
.L2003:
	mov	r8, r8, lsr #24
	ldr	r2, [r4, #4]!
	add	r3, r3, r8
	cmp	r10, r5
	uxtb	r3, r3
	rsb	r8, r8, r3
	strb	r8, [r7, r2]
	beq	.L1999
.L2004:
	ldr	r1, .L2024+8
	add	r10, r10, #1
	ldr	r0, [r6, #2292]
	bl	HEVC_se_v
	add	r3, r8, r0
	add	r2, r0, #128
	add	r3, r3, #256
	cmp	r2, #255
	str	r0, [r9, #1664]
	mov	r8, r3, asr #31
	bls	.L2003
	ldr	r3, .L2024
	mov	r0, #1
	ldr	r1, .L2024+12
	ldr	r3, [r3, #68]
	blx	r3
	mvn	r0, #0
.L2018:
	sub	sp, fp, #40
	ldmfd	sp, {r4, r5, r6, r7, r8, r9, r10, fp, sp, pc}
.L2008:
	ldr	r1, .L2024+16
	ldr	r0, [r6, #2292]
	bl	HEVC_ue_v
	ldr	r3, [fp, #-60]
	cmp	r0, r3
	bhi	.L2010
	ldr	r2, [fp, #-60]
	uxtb	r0, r0
	ldr	r3, [fp, #-56]
	rsb	r1, r0, r2
	strb	r0, [r3, #1560]
	uxtb	r1, r1
	strb	r1, [r3, #1584]
.L1994:
	ldr	r3, [fp, #-60]
	cmp	r1, r3
	beq	.L2022
	ldr	r2, [fp, #-52]
	mov	r3, r2, asl #3
	sub	r3, r3, r2, asl #1
	add	r1, r3, r1
	add	r1, r9, r1, lsl #6
	add	r1, r1, #49
.L1997:
	cmp	r1, #0
	beq	.L2023
	ldr	r3, .L2024
	mov	r2, r5
	mov	r0, r7
	ldr	r3, [r3, #52]
	blx	r3
.L1999:
	ldr	r3, [fp, #-48]
	add	r7, r7, #64
	ldr	r2, [fp, #-60]
	ldr	r1, [fp, #-64]
	ldr	r3, [r3]
	add	r2, r2, #1
	add	r1, r1, #4
	str	r2, [fp, #-60]
	cmp	r3, r2
	str	r1, [fp, #-64]
	bhi	.L2006
.L2007:
	ldr	r3, [fp, #-52]
	ldr	r2, [fp, #-68]
	add	r3, r3, #1
	str	r3, [fp, #-52]
	cmp	r3, #4
	ldr	r3, [fp, #-72]
	add	r2, r2, #6
	str	r2, [fp, #-68]
	add	r3, r3, #384
	str	r3, [fp, #-72]
	ldr	r3, [fp, #-76]
	add	r3, r3, #24
	str	r3, [fp, #-76]
	bne	.L1988
	mov	r0, #0
	b	.L2018
.L2013:
	mov	r8, #8
	b	.L2000
.L2020:
	ldr	r1, .L2024+16
	ldr	r0, [r6, #2292]
	bl	HEVC_ue_v
	ldr	r3, [fp, #-60]
	cmp	r0, r3
	bhi	.L2010
	ldr	r3, [fp, #-52]
	uxtb	r0, r0
	ldr	ip, [fp, #-60]
	ldr	r2, [fp, #-56]
	cmp	r3, #1
	rsb	r1, r0, ip
	strb	r0, [r2, #1560]
	uxtb	r1, r1
	strb	r1, [r2, #1584]
	bls	.L1994
	cmp	ip, r1
	mov	r2, ip
	movne	r2, r3
	movne	r3, r3, asl #3
	subne	r3, r3, r2, asl #1
	ldr	r2, [fp, #-64]
	addne	r3, r3, r1
	moveq	r3, #16
	addne	r3, r9, r3, lsl #2
	ldrne	r3, [r3, #1668]
	str	r3, [r2]
	b	.L1994
.L2022:
	mov	r1, r3
	ldr	r0, [fp, #-52]
	bl	HEVC_GetScalingListDefaultAddress
	mov	r1, r0
	b	.L1997
.L2021:
	ldr	r3, .L2024
	mov	r0, #1
	ldr	r1, .L2024+20
	ldr	r3, [r3, #68]
	blx	r3
	mvn	r0, #0
	b	.L2018
.L2023:
	ldr	r3, .L2024
	mov	r0, #1
	ldr	r1, .L2024+24
	ldr	r3, [r3, #68]
	blx	r3
	mvn	r0, #0
	b	.L2018
.L2010:
	ldr	r3, .L2024
	mov	r0, #1
	ldr	r1, .L2024+28
	ldr	r3, [r3, #68]
	blx	r3
	mvn	r0, #0
	b	.L2018
.L1989:
	cmp	r0, #0
	beq	.L2008
	ldr	r4, .L2024+32
	mov	r8, #8
	b	.L2000
.L2025:
	.align	2
.L2024:
	.word	vfmw_Osal_Func_Ptr_S
	.word	.LC206
	.word	.LC208
	.word	.LC209
	.word	.LC203
	.word	.LC207
	.word	.LC205
	.word	.LC204
	.word	.LANCHOR0+65536
	UNWIND(.fnend)
	.size	HEVC_DecScalingListData, .-HEVC_DecScalingListData
	.align	2
	.global	HEVC_ProcessSPS
	.type	HEVC_ProcessSPS, %function
HEVC_ProcessSPS:
	UNWIND(.fnstart)
	@ args = 0, pretend = 0, frame = 8
	@ frame_needed = 1, uses_anonymous_args = 0
	UNWIND(.movsp ip)
	mov	ip, sp
	stmfd	sp!, {r4, r5, r6, r7, r8, fp, ip, lr, pc}
	UNWIND(.pad #4)
	UNWIND(.save {r4, r5, r6, r7, r8, fp, ip, lr})
	UNWIND(.setfp fp, ip, #-4)
	sub	fp, ip, #4
	UNWIND(.pad #20)
	sub	sp, sp, #20
	mov	r4, r1
	mov	r5, r0
	ldr	r1, .L2196
	ldr	r0, [r0, #2292]
	bl	HEVC_ue_v
	cmp	r0, #1
	mov	r8, r0
	str	r0, [r4, #64]
	beq	.L2027
	cmp	r0, #3
	ldr	r3, .L2196+4
	bhi	.L2173
	mov	r2, r0
	ldr	r1, .L2196+8
	mov	r0, #1
	ldr	r3, [r3, #68]
	blx	r3
	mvn	r0, #0
.L2029:
	sub	sp, fp, #32
	ldmfd	sp, {r4, r5, r6, r7, r8, fp, sp, pc}
.L2173:
	ldr	r1, .L2196+12
	mov	r0, #1
	ldr	r3, [r3, #68]
	blx	r3
	mvn	r0, #0
	sub	sp, fp, #32
	ldmfd	sp, {r4, r5, r6, r7, r8, fp, sp, pc}
.L2027:
	ldr	r1, .L2196+16
	ldr	r0, [r5, #2292]
	bl	HEVC_ue_v
	cmp	r0, #8192
	str	r0, [r4, #72]
	bhi	.L2174
	ldr	r1, .L2196+20
	ldr	r0, [r5, #2292]
	bl	HEVC_ue_v
	cmp	r0, #4096
	str	r0, [r4, #76]
	bhi	.L2175
	ldr	r2, [r4, #760]
	ldr	r3, [r4, #72]
	cmp	r2, #120
	mul	r0, r3, r0
	beq	.L2033
	bgt	.L2034
	cmp	r2, #60
	beq	.L2035
	ble	.L2176
	cmp	r2, #90
	beq	.L2038
	cmp	r2, #93
	beq	.L2039
	cmp	r2, #63
	bne	.L2032
	mov	r2, #61440
	mov	r3, #245760
	b	.L2040
.L2034:
	cmp	r2, #156
	beq	.L2041
	bgt	.L2042
	cmp	r2, #150
	beq	.L2041
	cmp	r2, #153
	beq	.L2041
	cmp	r2, #123
	beq	.L2033
.L2032:
	ldr	r3, .L2196+4
	mov	r0, #1
	ldr	r1, .L2196+24
	ldr	r3, [r3, #68]
	blx	r3
	mvn	r0, #0
	b	.L2029
.L2042:
	cmp	r2, #183
	beq	.L2043
	cmp	r2, #186
	beq	.L2043
	cmp	r2, #180
	bne	.L2032
.L2043:
	mov	r2, #8912896
	mov	r3, #35651584
.L2040:
	cmp	r0, r2
	movls	r3, #16
	strls	r3, [r4, #236]
	bls	.L2045
	cmp	r0, r3, lsr #1
	movls	r3, #12
	strls	r3, [r4, #236]
	bls	.L2045
	add	r3, r3, r3, lsl #1
	cmp	r0, r3, lsr #2
	movls	r3, #8
	movhi	r3, #6
	str	r3, [r4, #236]
.L2045:
	mov	r1, #1
	ldr	r0, [r5, #2292]
	bl	BsGet
	cmp	r0, #0
	str	r0, [r4, #80]
	beq	.L2048
	ldr	r1, .L2196+28
	ldr	r0, [r5, #2292]
	bl	HEVC_ue_v
	ldr	r3, [r4, #64]
	ldr	r6, .L2196+32
	ldr	r1, .L2196+36
	add	r3, r6, r3, lsl #2
	ldr	r3, [r3, #456]
	mul	r0, r3, r0
	str	r0, [r4, #84]
	ldr	r0, [r5, #2292]
	bl	HEVC_ue_v
	ldr	r3, [r4, #64]
	ldr	r2, [r4, #84]
	ldr	r1, [r4, #72]
	add	r3, r6, r3, lsl #2
	ldr	r3, [r3, #456]
	mul	r0, r3, r0
	add	r2, r0, r2
	cmp	r1, r2
	str	r0, [r4, #88]
	bcc	.L2177
	ldr	r1, .L2196+40
	ldr	r0, [r5, #2292]
	bl	HEVC_ue_v
	ldr	r3, [r4, #64]
	ldr	r1, .L2196+44
	add	r3, r6, r3, lsl #2
	ldr	r3, [r3, #472]
	mul	r0, r3, r0
	str	r0, [r4, #92]
	ldr	r0, [r5, #2292]
	bl	HEVC_ue_v
	ldr	r3, [r4, #64]
	ldr	r2, [r4, #92]
	ldr	r1, [r4, #76]
	add	r6, r6, r3, lsl #2
	ldr	r3, [r6, #472]
	mul	r0, r3, r0
	add	r2, r0, r2
	cmp	r1, r2
	str	r0, [r4, #96]
	bcc	.L2178
.L2048:
	ldr	r1, .L2196+48
	ldr	r0, [r5, #2292]
	bl	HEVC_ue_v
	add	r2, r0, #8
	str	r2, [r4, #100]
	cmp	r2, #8
	beq	.L2051
	cmp	r0, #6
	ldr	r3, .L2196+4
	bhi	.L2179
	ldr	r3, [r3, #68]
	mov	r0, #1
	ldr	r1, .L2196+52
	blx	r3
	ldr	r3, .L2196+56
	ldr	ip, [r3]
	cmp	ip, #0
	beq	.L2051
	ldr	r0, [r4, #100]
	mov	r2, #0
	mov	r3, #8
	str	r2, [fp, #-44]
	mov	r1, #119
	sub	r2, fp, #44
	str	r0, [fp, #-40]
	ldr	r0, [r5, #244]
	blx	ip
.L2051:
	ldr	r1, .L2196+60
	ldr	r0, [r5, #2292]
	bl	HEVC_ue_v
	add	r2, r0, #8
	str	r2, [r4, #108]
	cmp	r2, #8
	beq	.L2055
	cmp	r0, #6
	ldr	r3, .L2196+4
	bhi	.L2180
	ldr	r3, [r3, #68]
	mov	r0, #1
	ldr	r1, .L2196+64
	blx	r3
	ldr	r3, .L2196+56
	ldr	ip, [r3]
	cmp	ip, #0
	beq	.L2055
	ldr	r0, [r4, #108]
	mov	r2, #0
	mov	r3, #8
	str	r2, [fp, #-44]
	mov	r1, #119
	sub	r2, fp, #44
	str	r0, [fp, #-40]
	ldr	r0, [r5, #244]
	blx	ip
.L2055:
	ldr	r3, [r4, #100]
	ldr	r1, .L2196+68
	str	r3, [r5, #192]
	ldr	r3, [r4, #108]
	str	r3, [r5, #196]
	ldr	r0, [r4, #108]
	ldr	ip, [r4, #100]
	mov	r3, r0, asl #3
	mov	r2, ip, asl #3
	sub	r3, r3, r0, asl #1
	sub	r2, r2, ip, asl #1
	sub	r3, r3, #48
	sub	r2, r2, #48
	str	r3, [r4, #112]
	str	r2, [r4, #104]
	ldr	r0, [r5, #2292]
	bl	HEVC_ue_v
	cmp	r0, #12
	bhi	.L2181
	add	r0, r0, #4
	mov	r1, #1
	str	r0, [r4, #128]
	mov	r6, r4
	str	r0, [r4, #132]
	mov	r7, #0
	ldr	r0, [r5, #2292]
	bl	BsGet
	strb	r0, [r4, #4]
	b	.L2065
.L2059:
	ldr	r3, [r4, #56]
	add	r7, r7, #1
	cmp	r3, r7
	bcc	.L2064
.L2065:
	ldr	r1, .L2196+72
	add	r6, r6, #4
	ldr	r0, [r5, #2292]
	bl	HEVC_ue_v
	ldr	r1, .L2196+76
	add	r0, r0, #1
	str	r0, [r6, #376]
	ldr	r0, [r5, #2292]
	bl	HEVC_ue_v
	ldr	r2, [r6, #376]
	ldr	r1, .L2196+80
	str	r0, [r6, #408]
	ldr	r3, [r4, #236]
	cmp	r3, r2
	movcs	r3, r2
	str	r3, [r4, #236]
	ldr	r0, [r5, #2292]
	bl	HEVC_ue_v
	str	r0, [r6, #440]
	ldrb	r3, [r4, #4]	@ zero_extendqisi2
	cmp	r3, #0
	bne	.L2059
	ldr	r1, [r4, #56]
	add	r3, r7, #1
	cmp	r3, r1
	addls	r7, r7, #95
	addls	r7, r4, r7, lsl #2
	bhi	.L2064
.L2063:
	ldr	r2, [r4, #380]
	add	r3, r3, #1
	cmp	r3, r1
	str	r2, [r7, #4]!
	ldr	r2, [r4, #412]
	str	r2, [r7, #32]
	ldr	r2, [r4, #444]
	str	r2, [r7, #64]
	bls	.L2063
.L2064:
	ldr	r1, .L2196+84
	ldr	r0, [r5, #2292]
	bl	HEVC_ue_v
	cmp	r0, #3
	str	r0, [r4, #136]
	bhi	.L2182
	ldr	r1, .L2196+88
	ldr	r0, [r5, #2292]
	bl	HEVC_ue_v
	cmp	r0, #3
	str	r0, [r4, #144]
	bhi	.L2183
	ldr	r3, [r4, #136]
	add	r3, r3, #3
	str	r3, [r4, #140]
	add	r6, r0, r3
	str	r6, [r4, #148]
	sub	r2, r6, #4
	cmp	r2, #2
	bhi	.L2184
	mov	r2, #1
	ldr	r7, [r4, #72]
	mov	r6, r2, asl r6
	mov	r3, r2, asl r3
	str	r6, [r4, #156]
	str	r6, [r4, #160]
	mov	r1, r6
	str	r6, [r4, #164]
	mov	r0, r7
	str	r3, [r4, #152]
	bl	__aeabi_uidivmod
	mov	r0, r7
	cmp	r1, #0
	mov	r1, r6
	beq	.L2068
	bl	__aeabi_uidiv
	add	r0, r0, #1
.L2069:
	ldr	r7, [r4, #76]
	mov	r1, r6
	str	r0, [r4, #240]
	mov	r0, r7
	bl	__aeabi_uidivmod
	mov	r0, r7
	cmp	r1, #0
	mov	r1, r6
	beq	.L2070
	bl	__aeabi_uidiv
	add	r0, r0, #1
.L2071:
	str	r0, [r4, #244]
	ldr	r1, .L2196+92
	ldr	r0, [r5, #2292]
	bl	HEVC_ue_v
	cmp	r0, #3
	str	r0, [r4, #168]
	bhi	.L2185
	ldr	r1, .L2196+96
	ldr	r0, [r5, #2292]
	bl	HEVC_ue_v
	cmp	r0, #3
	str	r0, [r4, #176]
	bhi	.L2186
	ldr	r3, [r4, #168]
	ldr	r2, [r4, #140]
	add	r3, r3, #2
	str	r3, [r4, #172]
	cmp	r3, r2
	bcs	.L2187
	add	r0, r0, r3
	str	r0, [r4, #180]
	cmp	r0, #5
	bhi	.L2075
	ldr	r3, [r4, #148]
	cmp	r0, r3
	bhi	.L2075
	ldr	r1, .L2196+100
	ldr	r0, [r5, #2292]
	bl	HEVC_ue_v
	ldr	r3, [r4, #148]
	ldr	r2, [r4, #172]
	rsb	r3, r2, r3
	cmp	r0, r3
	str	r0, [r4, #200]
	bhi	.L2188
	ldr	r1, .L2196+104
	ldr	r0, [r5, #2292]
	bl	HEVC_ue_v
	ldr	r3, [r4, #148]
	ldr	r2, [r4, #172]
	rsb	r3, r2, r3
	cmp	r0, r3
	str	r0, [r4, #208]
	bhi	.L2189
	ldr	r3, [r4, #200]
	add	r0, r0, #1
	mov	r1, #0
	str	r0, [r4, #212]
	add	r3, r3, #1
	str	r3, [r4, #204]
	str	r1, [r5, #228]
	mov	ip, #1
	ldr	r3, [r4, #172]
	ldr	r0, [r4, #160]
	ldr	r2, [r4, #144]
	mov	r3, ip, asl r3
	cmp	r3, r0, lsr r2
	bcc	.L2080
	b	.L2190
.L2107:
	mov	r8, r0
.L2080:
	str	r8, [r5, #228]
	add	r0, r8, #1
	ldr	r3, [r4, #172]
	ldr	r1, [r4, #160]
	add	r3, r8, r3
	ldr	r2, [r4, #144]
	mov	r3, ip, asl r3
	cmp	r3, r1, lsr r2
	bcc	.L2107
.L2079:
	mov	r6, #1
	add	r8, r8, r2
	str	r6, [r4, #224]
	mov	r3, #0
	str	r8, [r4, #216]
	mov	r1, r6
	str	r3, [r4, #220]
	ldr	r0, [r5, #2292]
	bl	BsGet
	uxtb	r0, r0
	strb	r0, [r4, #6]
	cmp	r0, #0
	beq	.L2081
	mov	r1, r6
	ldr	r0, [r5, #2292]
	bl	BsGet
	uxtb	r0, r0
	strb	r0, [r4, #7]
	cmp	r0, #0
	bne	.L2191
.L2081:
	mov	r1, #1
	ldr	r0, [r5, #2292]
	bl	BsGet
	mov	r1, #1
	strb	r0, [r4, #8]
	ldr	r0, [r5, #2292]
	bl	BsGet
	uxtb	r6, r0
	strb	r6, [r4, #9]
	cmp	r6, #0
	bne	.L2082
	ldr	r2, [r4, #76]
	cmp	r2, #64
	bls	.L2192
.L2082:
	mov	r1, #1
	ldr	r0, [r5, #2292]
	bl	BsGet
	cmp	r0, #0
	str	r0, [r4, #116]
	beq	.L2083
	mov	r1, #4
	ldr	r0, [r5, #2292]
	bl	BsGet
	mov	r1, #4
	add	r0, r0, #1
	str	r0, [r4, #120]
	ldr	r0, [r5, #2292]
	bl	BsGet
	ldr	r1, .L2196+108
	add	r0, r0, #1
	str	r0, [r4, #124]
	ldr	r0, [r5, #2292]
	bl	HEVC_ue_v
	cmp	r0, #2
	str	r0, [r4, #184]
	bhi	.L2193
.L2084:
	ldr	r1, .L2196+112
	ldr	r0, [r5, #2292]
	bl	HEVC_ue_v
	cmp	r0, #2
	str	r0, [r4, #192]
	bhi	.L2194
.L2085:
	ldr	r2, [r4, #184]
	add	r2, r2, #3
	str	r2, [r4, #188]
	add	r0, r0, r2
	str	r0, [r4, #196]
	cmp	r0, #5
	bhi	.L2086
	ldr	r3, [r4, #148]
	cmp	r0, r3
	bhi	.L2086
	mov	r1, #1
	ldr	r0, [r5, #2292]
	bl	BsGet
	strb	r0, [r4, #10]
.L2083:
	ldr	r1, .L2196+116
	ldr	r0, [r5, #2292]
	bl	HEVC_ue_v
	cmp	r0, #64
	str	r0, [r4, #228]
	bhi	.L2088
	cmp	r0, #0
	addne	r7, r4, #2720
	movne	r6, #0
	addne	r7, r7, #12
	bne	.L2093
	b	.L2094
.L2092:
	ldr	r3, [r4, #228]
	cmp	r3, r6
	bls	.L2094
.L2093:
	mov	r3, r6
	mov	r2, r7
	mov	r1, r4
	mov	r0, r5
	bl	HEVC_DecShortTermRefPicSet
	add	r6, r6, #1
	add	r7, r7, #204
	cmp	r0, #0
	beq	.L2092
	ldr	r3, .L2196+4
	mov	r0, #1
	ldr	r1, .L2196+120
	ldr	r3, [r3, #68]
	blx	r3
	mvn	r0, #0
	b	.L2029
.L2039:
	mov	r2, #245760
	mov	r3, #983040
	b	.L2040
.L2070:
	bl	__aeabi_uidiv
	b	.L2071
.L2068:
	bl	__aeabi_uidiv
	b	.L2069
.L2094:
	mov	r1, #1
	ldr	r0, [r5, #2292]
	bl	BsGet
	uxtb	r0, r0
	strb	r0, [r4, #11]
	cmp	r0, #0
	beq	.L2091
	ldr	r1, .L2196+124
	ldr	r0, [r5, #2292]
	bl	HEVC_ue_v
	cmp	r0, #32
	str	r0, [r4, #232]
	bhi	.L2097
	cmp	r0, #0
	addne	r8, r4, #244
	addne	r7, r4, #16
	movne	r6, #0
	beq	.L2091
.L2099:
	ldr	r1, [r4, #128]
	add	r6, r6, #1
	ldr	r0, [r5, #2292]
	bl	BsGet
	mov	r1, #1
	str	r0, [r8, #4]!
	ldr	r0, [r5, #2292]
	bl	BsGet
	strb	r0, [r7, #1]!
	ldr	r3, [r4, #232]
	cmp	r3, r6
	bhi	.L2099
.L2091:
	mov	r1, #1
	ldr	r0, [r5, #2292]
	bl	BsGet
	mov	r1, #1
	strb	r0, [r4, #12]
	ldr	r0, [r5, #2292]
	bl	BsGet
	mov	r1, #1
	strb	r0, [r4, #13]
	ldr	r0, [r5, #2292]
	bl	BsGet
	uxtb	r0, r0
	strb	r0, [r4, #14]
	cmp	r0, #0
	beq	.L2096
	mov	r2, r4
	add	r1, r4, #2624
	mov	r0, r5
	bl	HEVC_DecVuiParam
	cmp	r0, #0
	bne	.L2195
.L2096:
	ldr	ip, [r4, #76]
	ldr	r3, [r4, #72]
	ldr	r2, [r4, #2656]
	ldr	r1, [r4, #2652]
	ldr	r0, [r4, #2648]
	str	ip, [sp]
	bl	HEVCGetDar
	mov	r1, #1
	str	r0, [r4, #2644]
	ldr	r0, [r5, #2292]
	bl	BsGet
	uxtb	r0, r0
	strb	r0, [r4, #15]
	cmp	r0, #0
	bne	.L2167
.L2104:
	mov	r1, #1
	ldr	r2, [r4, #60]
	strb	r1, [r4]
	movw	ip, #15788
	ldr	r3, [r5, #2300]
	ldr	r0, [r4, #236]
	mla	r3, ip, r2, r3
	ldr	r3, [r3, #236]
	cmp	r0, r3
	strneb	r1, [r4, #2]
	movne	r0, #0
	moveq	r0, #0
	streqb	r0, [r4, #2]
	b	.L2029
.L2103:
	ldr	r0, [r5, #2292]
	bl	BsGet
	strb	r0, [r4, #16]
.L2167:
	mov	r0, r5
	bl	HEVC_MoreRbspData
	mov	r1, #1
	cmp	r0, #0
	bne	.L2103
	b	.L2104
.L2176:
	cmp	r2, #0
	beq	.L2037
	cmp	r2, #30
	bne	.L2032
.L2037:
	mov	r2, #9216
	mov	r3, #36864
	b	.L2040
.L2192:
	ldr	r3, .L2196+4
	mov	r0, #1
	ldr	r1, .L2196+128
	ldr	r3, [r3, #68]
	blx	r3
	ldr	r3, .L2196+56
	ldr	ip, [r3]
	cmp	ip, #0
	mvneq	r0, #0
	beq	.L2029
	ldr	r0, [r5, #244]
	mov	r3, r6
	mov	r2, r6
	mov	r1, #102
	blx	ip
	mvn	r0, #0
	b	.L2029
.L2035:
	mov	r2, #30720
	mov	r3, #122880
	b	.L2040
.L2033:
	mov	r2, #557056
	mov	r3, #2228224
	b	.L2040
.L2041:
	mov	r2, #2228224
	mov	r3, #8912896
	b	.L2040
.L2038:
	mov	r2, #138240
	mov	r3, #552960
	b	.L2040
.L2191:
	add	r1, r4, #860
	mov	r0, r5
	bl	HEVC_DecScalingListData
	cmp	r0, #0
	beq	.L2081
	ldr	r3, .L2196+4
	mov	r0, r6
	ldr	r1, .L2196+132
	ldr	r3, [r3, #68]
	blx	r3
	mvn	r0, #0
	b	.L2029
.L2075:
	ldr	r3, .L2196+4
	mov	r0, #1
	ldr	r1, .L2196+136
	ldr	r3, [r3, #68]
	blx	r3
	mvn	r0, #0
	b	.L2029
.L2194:
	ldr	r3, .L2196+4
	mov	r2, r0
	ldr	r1, .L2196+140
	mov	r0, #1
	ldr	r3, [r3, #68]
	blx	r3
	ldr	r0, [r4, #192]
	b	.L2085
.L2193:
	ldr	r3, .L2196+4
	mov	r2, r0
	ldr	r1, .L2196+144
	mov	r0, #1
	ldr	r3, [r3, #68]
	blx	r3
	b	.L2084
.L2190:
	mov	r8, r1
	b	.L2079
.L2174:
	ldr	r3, .L2196+4
	mov	r0, r8
	ldr	r1, .L2196+148
	ldr	r3, [r3, #68]
	blx	r3
	mvn	r0, #0
	b	.L2029
.L2181:
	ldr	r3, .L2196+4
	mov	r0, #1
	ldr	r1, .L2196+152
	ldr	r3, [r3, #68]
	blx	r3
	mvn	r0, #0
	b	.L2029
.L2182:
	ldr	r3, .L2196+4
	mov	r0, #1
	ldr	r1, .L2196+156
	ldr	r3, [r3, #68]
	blx	r3
	mvn	r0, #0
	b	.L2029
.L2179:
	ldr	r1, .L2196+160
	mov	r0, #1
	ldr	r3, [r3, #68]
	blx	r3
	mvn	r0, #0
	b	.L2029
.L2185:
	ldr	r3, .L2196+4
	mov	r0, #1
	ldr	r1, .L2196+164
	ldr	r3, [r3, #68]
	blx	r3
	mvn	r0, #0
	b	.L2029
.L2180:
	ldr	r1, .L2196+168
	mov	r0, #1
	ldr	r3, [r3, #68]
	blx	r3
	mvn	r0, #0
	b	.L2029
.L2188:
	ldr	r3, .L2196+4
	mov	r0, #1
	ldr	r1, .L2196+172
	ldr	r3, [r3, #68]
	blx	r3
	mvn	r0, #0
	b	.L2029
.L2086:
	ldr	r3, .L2196+4
	mov	r0, #1
	ldr	r1, .L2196+176
	ldr	r3, [r3, #68]
	blx	r3
	mvn	r0, #0
	b	.L2029
.L2177:
	ldr	r3, .L2196+4
	mov	r0, #1
	ldr	r1, .L2196+180
	ldr	r3, [r3, #68]
	blx	r3
	mvn	r0, #0
	b	.L2029
.L2175:
	ldr	r3, .L2196+4
	mov	r0, r8
	ldr	r1, .L2196+184
	ldr	r3, [r3, #68]
	blx	r3
	mvn	r0, #0
	b	.L2029
.L2183:
	ldr	r3, .L2196+4
	mov	r0, #1
	ldr	r1, .L2196+188
	ldr	r3, [r3, #68]
	blx	r3
	mvn	r0, #0
	b	.L2029
.L2184:
	ldr	r3, .L2196+4
	mov	r0, #1
	ldr	r1, .L2196+192
	ldr	r3, [r3, #68]
	blx	r3
	mvn	r0, #0
	b	.L2029
.L2187:
	ldr	r3, .L2196+4
	mov	r0, #1
	ldr	r1, .L2196+196
	ldr	r3, [r3, #68]
	blx	r3
	mvn	r0, #0
	b	.L2029
.L2186:
	ldr	r3, .L2196+4
	mov	r0, #1
	ldr	r1, .L2196+200
	ldr	r3, [r3, #68]
	blx	r3
	mvn	r0, #0
	b	.L2029
.L2189:
	ldr	r3, .L2196+4
	mov	r0, #1
	ldr	r1, .L2196+204
	ldr	r3, [r3, #68]
	blx	r3
	mvn	r0, #0
	b	.L2029
.L2088:
	ldr	r3, .L2196+4
	mov	r2, #64
	ldr	r1, .L2196+208
	mov	r0, #1
	ldr	r3, [r3, #68]
	blx	r3
	mvn	r0, #0
	b	.L2029
.L2178:
	ldr	r3, .L2196+4
	mov	r0, #1
	ldr	r1, .L2196+212
	ldr	r3, [r3, #68]
	blx	r3
	mvn	r0, #0
	b	.L2029
.L2097:
	ldr	r3, .L2196+4
	mov	r0, #1
	ldr	r1, .L2196+216
	ldr	r3, [r3, #68]
	blx	r3
	mvn	r0, #0
	b	.L2029
.L2195:
	ldr	r3, .L2196+4
	mov	r0, #1
	ldr	r1, .L2196+220
	ldr	r3, [r3, #68]
	blx	r3
	mvn	r0, #0
	b	.L2029
.L2197:
	.align	2
.L2196:
	.word	.LC210
	.word	vfmw_Osal_Func_Ptr_S
	.word	.LC212
	.word	.LC211
	.word	.LC213
	.word	.LC215
	.word	.LC217
	.word	.LC218
	.word	.LANCHOR1
	.word	.LC219
	.word	.LC221
	.word	.LC222
	.word	.LC224
	.word	.LC226
	.word	g_event_report
	.word	.LC227
	.word	.LC229
	.word	.LC230
	.word	.LC232
	.word	.LC233
	.word	.LC234
	.word	.LC235
	.word	.LC237
	.word	.LC240
	.word	.LC242
	.word	.LC246
	.word	.LC248
	.word	.LC252
	.word	.LC254
	.word	.LC257
	.word	.LC259
	.word	.LC260
	.word	.LC251
	.word	.LC250
	.word	.LC245
	.word	.LC255
	.word	.LC253
	.word	.LC214
	.word	.LC231
	.word	.LC236
	.word	.LC225
	.word	.LC241
	.word	.LC228
	.word	.LC247
	.word	.LC256
	.word	.LC220
	.word	.LC216
	.word	.LC238
	.word	.LC239
	.word	.LC244
	.word	.LC243
	.word	.LC249
	.word	.LC258
	.word	.LC223
	.word	.LC261
	.word	.LC262
	UNWIND(.fnend)
	.size	HEVC_ProcessSPS, .-HEVC_ProcessSPS
	.align	2
	.global	HEVC_DecSPS
	.type	HEVC_DecSPS, %function
HEVC_DecSPS:
	UNWIND(.fnstart)
	@ args = 0, pretend = 0, frame = 400
	@ frame_needed = 1, uses_anonymous_args = 0
	UNWIND(.movsp ip)
	mov	ip, sp
	stmfd	sp!, {r4, r5, r6, r7, r8, r9, r10, fp, ip, lr, pc}
	UNWIND(.pad #4)
	UNWIND(.save {r4, r5, r6, r7, r8, r9, r10, fp, ip, lr})
	UNWIND(.setfp fp, ip, #-4)
	sub	fp, ip, #4
	UNWIND(.pad #404)
	sub	sp, sp, #404
	ldr	r5, .L2216
	mov	r4, r0
	movw	r2, #15788
	mov	r1, #0
	ldr	r0, .L2216+4
	ldr	r3, [r5, #48]
	blx	r3
	mov	r2, #384
	ldr	r3, [r5, #48]
	mov	r1, #0
	sub	r0, fp, #428
	ldr	r8, .L2216+8
	blx	r3
	ldr	r0, [r4, #2292]
	mov	r1, #4
	bl	BsGet
	ldr	r2, [r4, #148]
	cmp	r2, r0
	str	r0, [fp, #-440]
	bls	.L2209
	mov	r1, #3
	ldr	r0, [r4, #2292]
	bl	BsGet
	cmp	r0, #8
	mov	r7, r0
	bhi	.L2210
	mov	r1, #1
	ldr	r0, [r4, #2292]
	bl	BsGet
	mov	r3, r7
	mov	r2, #1
	sub	r1, fp, #428
	mov	r9, r0
	mov	r0, r4
	bl	HEVC_DecPTL
	cmp	r0, #0
	bne	.L2211
	ldr	r1, .L2216+12
	ldr	r0, [r4, #2292]
	bl	HEVC_ue_v
	ldr	r2, [r4, #152]
	cmp	r0, r2
	mov	r10, r0
	bcs	.L2212
	movw	ip, #15788
	ldr	r2, [r4, #2300]
	mul	r6, ip, r0
	uxtb	r0, r9
	str	ip, [fp, #-444]
	ldr	r3, [fp, #-440]
	add	r2, r2, r6
	ldrb	r9, [r2, #1]	@ zero_extendqisi2
	cmp	r9, #0
	bne	.L2213
	str	r3, [r2, #52]
	sub	r1, fp, #428
	ldr	lr, [r4, #2300]
	mov	r2, #384
	add	lr, lr, r6
	str	r7, [lr, #56]
	ldr	lr, [r4, #2300]
	add	lr, lr, r6
	strb	r0, [lr, #3]
	ldr	r0, [r4, #2300]
	ldr	r7, [r5, #52]
	add	r0, r0, r6
	add	r0, r0, #476
	blx	r7
	ldr	r2, [r4, #2300]
	mov	r0, r4
	add	r2, r2, r6
	str	r10, [r2, #60]
	ldr	r1, [r4, #2300]
	add	r1, r1, r6
	bl	HEVC_ProcessSPS
	ldr	ip, [fp, #-444]
	subs	r7, r0, #0
	bne	.L2214
	ldr	r3, [r4, #2300]
	mov	r1, #1
	add	r0, r4, #27136
	mov	r2, ip
	add	r0, r0, #52
	strb	r1, [r3, r6]
	ldr	r3, [r4, #2300]
	add	r3, r3, r6
	strb	r1, [r3, #1]
	ldr	r1, [r4, #2300]
	ldr	r3, [r5, #52]
	add	r1, r1, r6
	blx	r3
.L2200:
	mov	r0, r7
	sub	sp, fp, #40
	ldmfd	sp, {r4, r5, r6, r7, r8, r9, r10, fp, sp, pc}
.L2213:
	str	r3, [r8, #-1220]
	sub	r1, fp, #428
	str	r7, [r8, #-1216]
	mov	r2, #384
	strb	r0, [r8, #-1269]
	sub	r0, r8, #796
	ldr	r7, [r5, #52]
	blx	r7
	ldr	r1, .L2216+4
	mov	r0, r4
	str	r10, [r8, #-1212]
	bl	HEVC_ProcessSPS
	ldr	ip, [fp, #-444]
	subs	r7, r0, #0
	bne	.L2215
	ldr	r0, [r4, #2300]
	mov	r3, #1
	mov	r2, ip
	strb	r3, [r8, #-1272]
	strb	r3, [r8, #-1271]
	add	r0, r0, r6
	ldr	r9, [r5, #56]
	ldr	r1, .L2216+4
	str	ip, [fp, #-440]
	blx	r9
	ldr	ip, [fp, #-440]
	add	r0, r4, #27136
	ldr	r1, [r4, #2300]
	add	r0, r0, #52
	ldr	r3, [r5, #52]
	mov	r2, ip
	add	r1, r1, r6
	blx	r3
	mov	r0, r7
	sub	sp, fp, #40
	ldmfd	sp, {r4, r5, r6, r7, r8, r9, r10, fp, sp, pc}
.L2212:
	ldr	ip, [r5, #68]
	mov	r0, #1
	ldr	r1, .L2216+16
	blx	ip
	ldr	r2, [r4, #152]
	cmp	r10, r2
	bcc	.L2208
	ldr	r1, .L2216+20
	ldr	ip, [r1]
	cmp	ip, #0
	beq	.L2208
	str	r2, [fp, #-432]
	mov	r3, #8
	str	r10, [fp, #-436]
	sub	r2, fp, #436
	ldr	r0, [r4, #244]
	mov	r1, #109
	blx	ip
	mvn	r7, #0
	mov	r0, r7
	sub	sp, fp, #40
	ldmfd	sp, {r4, r5, r6, r7, r8, r9, r10, fp, sp, pc}
.L2208:
	mvn	r7, #0
	b	.L2200
.L2209:
	ldr	r3, [r5, #68]
	mov	r0, #1
	ldr	r1, .L2216+24
	mvn	r7, #0
	blx	r3
	b	.L2200
.L2210:
	ldr	r3, [r5, #68]
	mov	r2, #8
	ldr	r1, .L2216+28
	mov	r0, #1
	blx	r3
	mvn	r7, #0
	b	.L2200
.L2211:
	ldr	r3, [r5, #68]
	mov	r0, #1
	ldr	r1, .L2216+32
	mvn	r7, #0
	blx	r3
	b	.L2200
.L2214:
	mov	r2, r10
	ldr	ip, [r5, #68]
	ldr	r1, .L2216+36
	mov	r0, #1
	blx	ip
	ldr	r3, [r4, #2300]
	mov	r2, #1
	mvn	r7, #0
	strb	r2, [r3, r6]
	ldr	r3, [r4, #2300]
	add	r6, r3, r6
	strb	r9, [r6, #1]
	b	.L2200
.L2215:
	ldr	r1, [r4, #2300]
	add	r0, r4, #27136
	mov	r2, ip
	add	r0, r0, #52
	add	r1, r1, r6
	ldr	ip, [r5, #52]
	blx	ip
	ldr	ip, [r5, #68]
	mov	r2, r10
	ldr	r1, .L2216+40
	mov	r0, #1
	mvn	r7, #0
	blx	ip
	b	.L2200
.L2217:
	.align	2
.L2216:
	.word	vfmw_Osal_Func_Ptr_S
	.word	.LANCHOR6-1272
	.word	.LANCHOR6
	.word	.LC266
	.word	.LC267
	.word	g_event_report
	.word	.LC263
	.word	.LC264
	.word	.LC265
	.word	.LC269
	.word	.LC268
	UNWIND(.fnend)
	.size	HEVC_DecSPS, .-HEVC_DecSPS
	.align	2
	.global	HEVC_ProcessPPS
	.type	HEVC_ProcessPPS, %function
HEVC_ProcessPPS:
	UNWIND(.fnstart)
	@ args = 0, pretend = 0, frame = 8
	@ frame_needed = 1, uses_anonymous_args = 0
	UNWIND(.movsp ip)
	mov	ip, sp
	stmfd	sp!, {r4, r5, r6, r7, r8, r9, r10, fp, ip, lr, pc}
	UNWIND(.pad #4)
	UNWIND(.save {r4, r5, r6, r7, r8, r9, r10, fp, ip, lr})
	UNWIND(.setfp fp, ip, #-4)
	sub	fp, ip, #4
	UNWIND(.pad #20)
	sub	sp, sp, #20
	mov	r4, r1
	mov	r7, #1
	mov	r5, r0
	strb	r7, [r4, #16]
	str	r7, [r4, #68]
	str	r7, [r4, #72]
	ldr	r1, .L2346
	ldr	r0, [r0, #2292]
	bl	HEVC_ue_v
	cmp	r0, #0
	str	r0, [r4, #32]
	blt	.L2219
	ldr	r3, [r5, #152]
	cmp	r0, r3
	bge	.L2219
	ldr	r3, [r5, #2300]
	movw	r6, #15788
	mla	r6, r6, r0, r3
	ldrb	r3, [r6, #1]	@ zero_extendqisi2
	cmp	r3, #0
	beq	.L2326
	mov	r1, r7
	ldr	r0, [r5, #2292]
	bl	BsGet
	mov	r1, r7
	strb	r0, [r4, #2]
	ldr	r0, [r5, #2292]
	bl	BsGet
	mov	r1, #3
	strb	r0, [r4, #4]
	ldr	r0, [r5, #2292]
	bl	BsGet
	mov	r1, r7
	str	r0, [r4, #36]
	ldr	r0, [r5, #2292]
	bl	BsGet
	mov	r1, r7
	strb	r0, [r4, #3]
	ldr	r0, [r5, #2292]
	bl	BsGet
	ldr	r1, .L2346+4
	strb	r0, [r4, #5]
	ldr	r0, [r5, #2292]
	bl	HEVC_ue_v
	add	r0, r0, #1
	str	r0, [r4, #40]
	cmp	r0, #15
	bhi	.L2327
	ldr	r1, .L2346+8
	ldr	r0, [r5, #2292]
	bl	HEVC_ue_v
	add	r0, r0, #1
	str	r0, [r4, #44]
	cmp	r0, #15
	bhi	.L2328
	ldr	r1, .L2346+12
	ldr	r0, [r5, #2292]
	bl	HEVC_se_v
	add	r2, r0, #26
	str	r2, [r4, #48]
	ldr	r3, [r6, #104]
	cmp	r2, #51
	rsb	r0, r3, #0
	movle	r1, #0
	movgt	r1, #1
	cmp	r2, r0
	orrlt	r1, r1, #1
	cmp	r1, #0
	bne	.L2329
	mov	r1, r7
	ldr	r0, [r5, #2292]
	bl	BsGet
	mov	r1, r7
	strb	r0, [r4, #6]
	ldr	r0, [r5, #2292]
	bl	BsGet
	mov	r1, r7
	strb	r0, [r4, #7]
	ldr	r0, [r5, #2292]
	bl	BsGet
	uxtb	r0, r0
	strb	r0, [r4, #8]
	cmp	r0, #0
	streq	r0, [r4, #52]
	bne	.L2330
.L2228:
	str	r0, [r4, #56]
	ldr	r1, .L2346+16
	ldr	r0, [r5, #2292]
	bl	HEVC_se_v
	add	r3, r0, #12
	str	r0, [r4, #60]
	cmp	r3, #24
	bhi	.L2331
	ldr	r1, .L2346+20
	ldr	r0, [r5, #2292]
	bl	HEVC_se_v
	add	r3, r0, #12
	str	r0, [r4, #64]
	cmp	r3, #24
	bhi	.L2332
	mov	r1, #1
	ldr	r0, [r5, #2292]
	bl	BsGet
	mov	r1, #1
	strb	r0, [r4, #9]
	ldr	r0, [r5, #2292]
	bl	BsGet
	mov	r1, #1
	strb	r0, [r4, #10]
	ldr	r0, [r5, #2292]
	bl	BsGet
	mov	r1, #1
	strb	r0, [r4, #11]
	ldr	r0, [r5, #2292]
	bl	BsGet
	mov	r1, #1
	strb	r0, [r4, #12]
	ldr	r0, [r5, #2292]
	bl	BsGet
	mov	r1, #1
	strb	r0, [r4, #13]
	ldr	r0, [r5, #2292]
	bl	BsGet
	ldrb	r3, [r4, #13]	@ zero_extendqisi2
	cmp	r3, #0
	strb	r0, [r4, #14]
	bne	.L2333
	ldr	r3, [r6, #240]
	strh	r3, [r4, #176]	@ movhi
	ldr	r3, [r6, #244]
	strh	r3, [r4, #216]	@ movhi
.L2267:
	ldr	r0, [r4, #68]
	cmp	r0, #0
	ble	.L2272
.L2266:
	ldr	ip, [r6, #160]
	add	r1, r4, #174
	mov	r3, #0
.L2271:
	ldrsh	r2, [r1, #2]!
	add	r3, r3, #1
	mul	r2, ip, r2
	cmp	r2, #64
	bhi	.L2270
	ldr	lr, [r6, #72]
	cmp	lr, #64
	bhi	.L2334
.L2270:
	cmp	r3, r0
	blt	.L2271
.L2272:
	ldr	r1, [r4, #72]
	cmp	r1, #0
	ble	.L2269
	ldr	r0, [r6, #160]
	ldrsh	r2, [r4, #216]
	mul	r2, r0, r2
	cmp	r2, #63
	addhi	r1, r1, #107
	addhi	r3, r4, #216
	addhi	r1, r4, r1, lsl #1
	bhi	.L2275
	b	.L2273
.L2276:
	ldrsh	r2, [r3, #2]!
	mul	r2, r0, r2
	cmp	r2, #63
	bls	.L2273
.L2275:
	cmp	r3, r1
	bne	.L2276
.L2269:
	mov	r1, #1
	ldr	r0, [r5, #2292]
	bl	BsGet
	mov	r1, #1
	strb	r0, [r4, #17]
	ldr	r0, [r5, #2292]
	bl	BsGet
	uxtb	r0, r0
	strb	r0, [r4, #18]
	cmp	r0, #0
	bne	.L2335
.L2278:
	mov	r1, #1
	ldr	r0, [r5, #2292]
	bl	BsGet
	uxtb	r0, r0
	strb	r0, [r4, #21]
	cmp	r0, #0
	beq	.L2281
	add	r1, r4, #260
	mov	r0, r5
	bl	HEVC_DecScalingListData
	cmp	r0, #0
	bne	.L2336
.L2281:
	mov	r1, #1
	ldr	r0, [r5, #2292]
	bl	BsGet
	ldr	r1, .L2346+24
	strb	r0, [r4, #22]
	ldr	r0, [r5, #2292]
	bl	HEVC_ue_v
	add	r2, r0, #2
	str	r2, [r4, #84]
	cmp	r2, #1
	ble	.L2282
	ldr	r3, [r6, #148]
	cmp	r2, r3
	bhi	.L2282
	mov	r1, #1
	ldr	r0, [r5, #2292]
	bl	BsGet
	mov	r1, #1
	strb	r0, [r4, #23]
	ldr	r0, [r5, #2292]
	bl	BsGet
	uxtb	r0, r0
	strb	r0, [r4, #24]
	cmp	r0, #0
	bne	.L2313
	b	.L2286
.L2285:
	ldr	r0, [r5, #2292]
	bl	BsGet
	strb	r0, [r4, #25]
.L2313:
	mov	r0, r5
	bl	HEVC_MoreRbspData
	mov	r1, #1
	cmp	r0, #0
