#include "hi_asm_define.h"
	.arch armv7-a
	.fpu softvfp
	.eabi_attribute 20, 1
	.eabi_attribute 21, 1
	.eabi_attribute 23, 3
	.eabi_attribute 24, 1
	.eabi_attribute 25, 1
	.eabi_attribute 26, 2
	.eabi_attribute 30, 2
	.eabi_attribute 34, 0
	.eabi_attribute 18, 4
	.file	"hevc.c"
	.text
	.align	2
	.type	compare_pic_by_poc_asc, %function
compare_pic_by_poc_asc:
	UNWIND(.fnstart)
	@ args = 0, pretend = 0, frame = 0
	@ frame_needed = 1, uses_anonymous_args = 0
	UNWIND(.movsp ip)
	mov	ip, sp
	stmfd	sp!, {fp, ip, lr, pc}
	UNWIND(.pad #4)
	UNWIND(.save {fp, ip, lr})
	UNWIND(.setfp fp, ip, #-4)
	sub	fp, ip, #4
	ldr	r2, [r0]
	ldr	r3, [r1]
	ldr	r2, [r2, #12]
	ldr	r3, [r3, #12]
	cmp	r2, r3
	blt	.L3
	movgt	r0, #1
	movle	r0, #0
	ldmfd	sp, {fp, sp, pc}
.L3:
	mvn	r0, #0
	ldmfd	sp, {fp, sp, pc}
	UNWIND(.fnend)
	.size	compare_pic_by_poc_asc, .-compare_pic_by_poc_asc
	.align	2
	.type	HEVC_SetFrmRepeatCount.part.4, %function
HEVC_SetFrmRepeatCount.part.4:
	UNWIND(.fnstart)
	@ args = 0, pretend = 0, frame = 0
	@ frame_needed = 1, uses_anonymous_args = 0
	UNWIND(.movsp ip)
	mov	ip, sp
	stmfd	sp!, {fp, ip, lr, pc}
	UNWIND(.pad #4)
	UNWIND(.save {fp, ip, lr})
	UNWIND(.setfp fp, ip, #-4)
	sub	fp, ip, #4
	ldr	ip, [r0, #308]
	ldr	r2, [r0, #2536]
	ldr	r3, [r0, #304]
	add	r2, r2, ip
	add	ip, r2, #1
	cmp	r3, ip
	movcc	r3, #0
	strcc	r3, [r1, #24]
	ldmccfd	sp, {fp, sp, pc}
	sub	r3, r3, #1
	rsb	r3, r2, r3
	cmp	r3, #1
	movhi	r3, #2
	movls	r3, #1
	strhi	r3, [r1, #24]
	strls	r3, [r1, #24]
	ldrhi	r3, [r0, #308]
	ldrls	r3, [r0, #308]
	addhi	r3, r3, #2
	addls	r3, r3, #1
	str	r3, [r0, #308]
	ldmfd	sp, {fp, sp, pc}
	UNWIND(.fnend)
	.size	HEVC_SetFrmRepeatCount.part.4, .-HEVC_SetFrmRepeatCount.part.4
	.global	__aeabi_uidiv
	.align	2
	.global	HEVC_InitSigLastScan
	.type	HEVC_InitSigLastScan, %function
HEVC_InitSigLastScan:
	UNWIND(.fnstart)
	@ args = 16, pretend = 0, frame = 24
	@ frame_needed = 1, uses_anonymous_args = 0
	UNWIND(.movsp ip)
	mov	ip, sp
	stmfd	sp!, {r4, r5, r6, r7, r8, r9, r10, fp, ip, lr, pc}
	UNWIND(.pad #4)
	UNWIND(.save {r4, r5, r6, r7, r8, r9, r10, fp, ip, lr})
	UNWIND(.setfp fp, ip, #-4)
	sub	fp, ip, #4
	UNWIND(.pad #28)
	sub	sp, sp, #28
	ldr	r4, [fp, #8]
	str	r0, [fp, #-48]
	cmp	r4, #15
	ldr	r6, [fp, #4]
	bgt	.L10
	cmp	r4, #8
	mul	r9, r4, r4
	beq	.L43
	cmp	r9, #0
	movne	r10, r6
	beq	.L10
.L12:
	mov	r5, #0
	rsb	r7, r4, #1
	mov	r8, r5
.L18:
	cmp	r4, r8
	bgt	.L30
	rsb	lr, r4, r8
	sub	r2, r4, #1
	add	lr, lr, #1
.L19:
	cmp	r2, #0
	cmpge	r4, lr
	ble	.L16
	mla	r0, r2, r4, lr
	add	ip, r10, r5, lsl #2
	mov	r1, r5
.L17:
	add	r1, r1, #1
	sub	r2, r2, #1
	rsb	r3, r5, r1
	str	r0, [ip], #4
	add	r3, r3, lr
	add	r0, r0, r7
	cmp	r2, #0
	cmpge	r4, r3
	bgt	.L17
	mov	r5, r1
.L16:
	cmp	r9, r5
	add	r8, r8, #1
	bhi	.L18
.L10:
	cmp	r4, #4
	ble	.L9
	mov	r3, r4, asr #2
	ldr	r1, [fp, #-48]
	str	r3, [fp, #-64]
	mov	r2, r3
	add	r3, r1, r3
	mul	r2, r2, r2
	mov	r0, r2
	str	r2, [fp, #-60]
	cmp	r0, #0
	ldrsb	r2, [r3, #10]
	add	r2, r2, #1
	beq	.L9
	add	r3, r1, #356
.L14:
	ldr	r1, .L44
	rsb	r7, r4, #1
	str	r3, [fp, #-52]
	mov	r3, #0
	add	r2, r1, r2, lsl #16
	str	r3, [fp, #-48]
	sub	r3, r2, #4
	str	r3, [fp, #-56]
.L28:
	ldr	r3, [fp, #-56]
	cmp	r4, #32
	ldr	r9, [fp, #-64]
	mov	r8, #0
	ldr	r5, [r3, #4]!
	mov	r1, r9
	str	r3, [fp, #-56]
	ldreq	r3, [fp, #-52]
	ldreq	r5, [r3]
	mov	r0, r5
	bl	__aeabi_uidiv
	ldr	ip, [fp, #-48]
	mov	r3, r8
	mov	r2, r8
	mov	lr, r8
	mov	r10, ip, asl #4
	mla	r1, r4, r0, r5
	mls	r1, r9, r0, r1
	mov	r9, r1, asl #2
.L22:
	cmp	lr, #3
	mvn	r1, r2
	mov	r1, r1, lsr #31
	movgt	r1, #0
	cmp	r1, #0
	beq	.L23
	mla	r1, r2, r4, lr
	add	r0, r3, r10
	rsb	lr, r3, lr
	add	r0, r6, r0, lsl #2
	add	r1, r1, r9
.L24:
	add	r3, r3, #1
	sub	r2, r2, #1
	add	r5, lr, r3
	str	r1, [r0], #4
	cmp	r5, #3
	mvn	ip, r2
	mov	ip, ip, lsr #31
	add	r1, r1, r7
	movgt	ip, #0
	cmp	ip, #0
	bne	.L24
.L23:
	cmp	r3, #15
	add	r8, r8, #1
	bhi	.L25
	cmp	r8, #3
	movle	r2, r8
	movle	lr, #0
	subgt	lr, r8, #3
	movgt	r2, #3
	b	.L22
.L25:
	ldr	r2, [fp, #-52]
	ldr	r3, [fp, #-48]
	add	r2, r2, #4
	str	r2, [fp, #-52]
	ldr	r2, [fp, #-60]
	add	r3, r3, #1
	str	r3, [fp, #-48]
	cmp	r3, r2
	bne	.L28
.L9:
	sub	sp, fp, #40
	ldmfd	sp, {r4, r5, r6, r7, r8, r9, r10, fp, sp, pc}
.L30:
	mov	r2, r8
	mov	lr, #0
	b	.L19
.L43:
	add	r3, r0, #356
	cmp	r9, #0
	mov	r10, r3
	bne	.L12
	ldr	r2, [fp, #-48]
	mov	r1, #2
	str	r1, [fp, #-64]
	mov	r1, #4
	str	r1, [fp, #-60]
	ldrsb	r2, [r2, #12]
	add	r2, r2, #1
	b	.L14
.L45:
	.align	2
.L44:
	.word	.LANCHOR0
	UNWIND(.fnend)
	.size	HEVC_InitSigLastScan, .-HEVC_InitSigLastScan
	.align	2
	.global	HEVC_InitScalingOrderTable
	.type	HEVC_InitScalingOrderTable, %function
HEVC_InitScalingOrderTable:
	UNWIND(.fnstart)
	@ args = 0, pretend = 0, frame = 0
	@ frame_needed = 1, uses_anonymous_args = 0
	UNWIND(.movsp ip)
	mov	ip, sp
	stmfd	sp!, {r4, r5, r6, r7, fp, ip, lr, pc}
	UNWIND(.pad #4)
	UNWIND(.save {r4, r5, r6, r7, fp, ip, lr})
	UNWIND(.setfp fp, ip, #-4)
	sub	fp, ip, #4
	UNWIND(.pad #16)
	sub	sp, sp, #16
	add	r3, r0, #9
	add	r1, r0, #138
	mov	r7, r0
	mvn	r2, #0
.L47:
	strb	r2, [r3, #1]!
	cmp	r3, r1
	bne	.L47
	ldr	r6, .L51
	mov	r2, #0
	mov	r3, #2
	mov	r5, r2
	mov	r4, r3
	strb	r2, [r7, #14]
	strb	r3, [r7, #26]
	mov	r2, #1
	mov	r3, #3
	strb	r2, [r7, #18]
	strb	r3, [r7, #42]
	mov	r3, #4
	strb	r3, [r7, #74]
.L48:
	mov	r3, #0
	str	r5, [sp, #12]
	str	r4, [sp, #8]
	add	r5, r5, #1
	str	r4, [sp, #4]
	mov	r2, r3
	str	r6, [sp]
	mov	r1, r3
	mov	r0, r7
	mov	r4, r4, asl #1
	bl	HEVC_InitSigLastScan
	cmp	r5, #7
	add	r6, r6, #65536
	bne	.L48
	sub	sp, fp, #28
	ldmfd	sp, {r4, r5, r6, r7, fp, sp, pc}
.L52:
	.align	2
.L51:
	.word	.LANCHOR0
	UNWIND(.fnend)
	.size	HEVC_InitScalingOrderTable, .-HEVC_InitScalingOrderTable
	.global	__aeabi_idiv
	.align	2
	.global	HEVCGetDar
	.type	HEVCGetDar, %function
HEVCGetDar:
	UNWIND(.fnstart)
	@ args = 4, pretend = 0, frame = 8
	@ frame_needed = 1, uses_anonymous_args = 0
	UNWIND(.movsp ip)
	mov	ip, sp
	stmfd	sp!, {r4, fp, ip, lr, pc}
	UNWIND(.pad #4)
	UNWIND(.save {r4, fp, ip, lr})
	UNWIND(.setfp fp, ip, #-4)
	sub	fp, ip, #4
	UNWIND(.pad #12)
	sub	sp, sp, #12
	cmp	r0, #0
	mov	ip, r1
	moveq	r4, r0
	beq	.L54
	subs	lr, r0, #255
	movne	lr, #1
	cmp	r0, #16
	movle	r4, #0
	andgt	r4, lr, #1
	cmp	r4, #0
	movne	r4, #0
	bne	.L54
	cmp	r2, #0
	cmpne	r1, #0
	moveq	r1, #1
	movne	r1, #0
	cmp	r0, #255
	movne	r1, #0
	andeq	r1, r1, #1
	cmp	r1, #0
	bne	.L54
	cmp	r0, #1
	moveq	r4, #5
	beq	.L54
	cmp	lr, #0
	str	r3, [fp, #-24]
	ldrne	r2, .L76
	addne	r1, r2, r0, lsl #3
	ldrne	ip, [r2, r0, asl #3]
	ldrne	r2, [r1, #4]
	mov	r0, ip, asl #10
	mov	r1, r2
	bl	__aeabi_idiv
	ldr	r3, [fp, #-24]
	ldr	r1, [fp, #4]
	mov	r4, r0
	mov	r0, r3, asl #10
	bl	__aeabi_idiv
	movw	r3, #2405
	movw	r2, #2262
	mul	r0, r0, r4
	add	r4, r0, #1020
	cmp	r0, #0
	add	r4, r4, #3
	movlt	r0, r4
	mov	r0, r0, asr #10
	cmp	r0, r3
	rsble	r3, r0, #2400
	subgt	r3, r0, #2400
	addle	r3, r3, #6
	subgt	r3, r3, #6
	cmp	r0, r2
	bgt	.L58
	rsb	r2, r0, #2256
	add	r2, r2, #7
	cmp	r3, r2
	bge	.L59
.L69:
	mov	r4, #4
.L54:
	mov	r2, r4
	ldr	r1, .L76+4
	mov	r0, #22
	bl	dprint_vfmw
	mov	r0, r4
	sub	sp, fp, #16
	ldmfd	sp, {r4, fp, sp, pc}
.L58:
	sub	r2, r0, #2256
	sub	r2, r2, #7
	cmp	r3, r2
	blt	.L69
.L59:
	movw	r3, #1819
	cmp	r0, r3
	bgt	.L60
	rsb	r3, r0, #1808
	add	r3, r3, #12
	cmp	r2, r3
	blt	.L71
.L61:
	movw	r2, #1364
	cmp	r0, r2
	rsble	r0, r0, #1360
	subgt	r0, r0, #1360
	addle	r0, r0, #5
	subgt	r0, r0, #5
	cmp	r3, r0
	movlt	r4, #2
	movge	r4, #1
	b	.L54
.L60:
	sub	r3, r0, #1808
	sub	r3, r3, #12
	cmp	r2, r3
	bge	.L61
.L71:
	mov	r4, #3
	b	.L54
.L77:
	.align	2
.L76:
	.word	.LANCHOR1
	.word	.LC4
	UNWIND(.fnend)
	.size	HEVCGetDar, .-HEVCGetDar
	.align	2
	.global	HEVC_PrintNaluArraySlot
	.type	HEVC_PrintNaluArraySlot, %function
HEVC_PrintNaluArraySlot:
	UNWIND(.fnstart)
	@ args = 0, pretend = 0, frame = 0
	@ frame_needed = 1, uses_anonymous_args = 0
	UNWIND(.movsp ip)
	mov	ip, sp
	stmfd	sp!, {r4, r5, r6, r7, r8, fp, ip, lr, pc}
	UNWIND(.pad #4)
	UNWIND(.save {r4, r5, r6, r7, r8, fp, ip, lr})
	UNWIND(.setfp fp, ip, #-4)
	sub	fp, ip, #4
	UNWIND(.pad #12)
	sub	sp, sp, #12
	ldr	r1, .L84
	mov	r5, r0
	mov	r0, #1
	bl	dprint_vfmw
	ldr	r3, [r5, #160]
	cmn	r3, #1
	beq	.L82
	mov	r8, #0
	movw	r6, #52429
	add	r7, r5, #65536
	mov	r4, r8
	movt	r6, 52428
	b	.L81
.L80:
	ldr	r3, [r5, #160]
	add	r3, r3, #1
	cmp	r3, r4
	bls	.L82
.L81:
	ldr	r3, [r7, #1876]
	mov	r2, r4
	ldr	r1, .L84+4
	mov	r0, #1
	add	r3, r3, r8
	add	r8, r8, #100
	ldr	ip, [r3, #36]
	str	ip, [sp]
	bl	dprint_vfmw
	umull	r2, r3, r4, r6
	mov	r2, r3, lsr #3
	mov	r3, r2, asl #3
	add	r3, r3, r2, lsl #1
	cmp	r4, r3
	add	r4, r4, #1
	bne	.L80
	ldr	r1, .L84+8
	mov	r0, #1
	bl	dprint_vfmw
	ldr	r3, [r5, #160]
	add	r3, r3, #1
	cmp	r3, r4
	bhi	.L81
.L82:
	ldr	r1, .L84+8
	mov	r0, #1
	bl	dprint_vfmw
	ldr	r1, .L84+12
	mov	r0, #1
	sub	sp, fp, #32
	ldmfd	sp, {r4, r5, r6, r7, r8, fp, sp, lr}
	b	dprint_vfmw
.L85:
	.align	2
.L84:
	.word	.LC5
	.word	.LC8
	.word	.LC6
	.word	.LC7
	UNWIND(.fnend)
	.size	HEVC_PrintNaluArraySlot, .-HEVC_PrintNaluArraySlot
	.align	2
	.global	HEVC_PrintCurrSlicelistX
	.type	HEVC_PrintCurrSlicelistX, %function
HEVC_PrintCurrSlicelistX:
	UNWIND(.fnstart)
	@ args = 0, pretend = 0, frame = 0
	@ frame_needed = 1, uses_anonymous_args = 0
	UNWIND(.movsp ip)
	mov	ip, sp
	stmfd	sp!, {r4, r5, r6, r7, fp, ip, lr, pc}
	UNWIND(.pad #4)
	UNWIND(.save {r4, r5, r6, r7, fp, ip, lr})
	UNWIND(.setfp fp, ip, #-4)
	sub	fp, ip, #4
	add	r6, r0, #53248
	mov	r7, r0
	ldr	r1, .L107
	mov	r0, #1
	bl	dprint_vfmw
	ldr	r2, [r6, #1208]
	ldr	r1, .L107+4
	mov	r0, #1
	bl	dprint_vfmw
	ldr	r3, [r6, #1208]
	cmp	r3, #0
	addne	r5, r7, #2352
	movne	r4, #0
	addne	r5, r5, #12
	beq	.L94
.L93:
	ldr	r3, [r5, #4]!
	mov	r2, r4
	ldr	r1, .L107+8
	mov	r0, #1
	bl	dprint_vfmw
	mov	r0, #1
	ldr	r3, [r5]
	add	r4, r4, r0
	ldr	r1, .L107+12
	cmp	r3, #0
	beq	.L91
	ldr	r2, [r3, #32]
	bl	dprint_vfmw
	ldr	r3, [r5]
	ldr	r3, [r3, #32]
	cmp	r3, #0
	beq	.L91
	ldr	r1, [r3, #32]
	ldr	r0, [r7, #276]
	bl	FSP_GetLogicFs
	ldr	r1, .L107+16
	mov	r2, r0
	mov	r0, #1
	bl	dprint_vfmw
.L91:
	ldr	r1, .L107+20
	mov	r0, #1
	bl	dprint_vfmw
	ldr	r3, [r6, #1208]
	cmp	r3, r4
	bhi	.L93
.L94:
	ldr	r2, [r6, #1212]
	mov	r0, #1
	ldr	r1, .L107+24
	bl	dprint_vfmw
	ldr	r3, [r6, #1212]
	cmp	r3, #0
	addne	r5, r7, #2432
	movne	r4, #0
	beq	.L89
.L98:
	ldr	r3, [r5, #4]!
	mov	r2, r4
	ldr	r1, .L107+28
	mov	r0, #1
	bl	dprint_vfmw
	mov	r0, #1
	ldr	r3, [r5]
	add	r4, r4, r0
	ldr	r1, .L107+12
	cmp	r3, #0
	beq	.L96
	ldr	r2, [r3, #32]
	bl	dprint_vfmw
	ldr	r3, [r5]
	ldr	r3, [r3, #32]
	cmp	r3, #0
	beq	.L96
	ldr	r1, [r3, #32]
	ldr	r0, [r7, #276]
	bl	FSP_GetLogicFs
	ldr	r1, .L107+16
	mov	r2, r0
	mov	r0, #1
	bl	dprint_vfmw
.L96:
	ldr	r1, .L107+20
	mov	r0, #1
	bl	dprint_vfmw
	ldr	r3, [r6, #1212]
	cmp	r3, r4
	bhi	.L98
.L89:
	ldr	r1, .L107+32
	mov	r0, #1
	sub	sp, fp, #28
	ldmfd	sp, {r4, r5, r6, r7, fp, sp, lr}
	b	dprint_vfmw
.L108:
	.align	2
.L107:
	.word	.LC9
	.word	.LC10
	.word	.LC12
	.word	.LC13
	.word	.LC14
	.word	.LC6
	.word	.LC11
	.word	.LC16
	.word	.LC15
	UNWIND(.fnend)
	.size	HEVC_PrintCurrSlicelistX, .-HEVC_PrintCurrSlicelistX
	.align	2
	.global	HEVC_PrintFrameStoreState
	.type	HEVC_PrintFrameStoreState, %function
HEVC_PrintFrameStoreState:
	UNWIND(.fnstart)
	@ args = 0, pretend = 0, frame = 0
	@ frame_needed = 1, uses_anonymous_args = 0
	UNWIND(.movsp ip)
	mov	ip, sp
	stmfd	sp!, {r4, r5, r6, r7, r8, r9, r10, fp, ip, lr, pc}
	UNWIND(.pad #4)
	UNWIND(.save {r4, r5, r6, r7, r8, r9, r10, fp, ip, lr})
	UNWIND(.setfp fp, ip, #-4)
	sub	fp, ip, #4
	UNWIND(.pad #20)
	sub	sp, sp, #20
	ldr	r1, .L116
	mov	r10, r0
	mov	r0, #1
	bl	dprint_vfmw
	ldr	r3, [r10, #176]
	cmp	r3, #0
	addne	r8, r10, #67584
	movne	r9, #0
	addne	r8, r8, #640
	beq	.L113
.L112:
	ldrb	ip, [r8, #2]	@ zero_extendqisi2
	mov	r3, r8
	mov	r2, r9
	ldr	r1, .L116+4
	mov	r0, #1
	add	r5, r8, #624
	str	ip, [sp, #8]
	mov	r4, #0
	ldrb	ip, [r8, #1]	@ zero_extendqisi2
	str	ip, [sp, #4]
	ldr	ip, [r8, #4]
	str	ip, [sp]
	bl	dprint_vfmw
.L111:
	ldrd	r6, [r5, #8]!
	mov	r2, r4
	ldr	r1, .L116+8
	add	r4, r4, #1
	mov	r0, #1
	strd	r6, [sp]
	bl	dprint_vfmw
	cmp	r4, #4
	bne	.L111
	ldr	r1, .L116+12
	mov	r0, #1
	bl	dprint_vfmw
	ldr	r3, [r10, #176]
	add	r9, r9, #1
	add	r8, r8, #704
	cmp	r3, r9
	bhi	.L112
.L113:
	ldr	r1, .L116+16
	mov	r0, #1
	sub	sp, fp, #40
	ldmfd	sp, {r4, r5, r6, r7, r8, r9, r10, fp, sp, lr}
	b	dprint_vfmw
.L117:
	.align	2
.L116:
	.word	.LC17
	.word	.LC19
	.word	.LC20
	.word	.LC6
	.word	.LC18
	UNWIND(.fnend)
	.size	HEVC_PrintFrameStoreState, .-HEVC_PrintFrameStoreState
	.align	2
	.global	HEVC_PrintAPCState
	.type	HEVC_PrintAPCState, %function
HEVC_PrintAPCState:
	UNWIND(.fnstart)
	@ args = 0, pretend = 0, frame = 0
	@ frame_needed = 1, uses_anonymous_args = 0
	UNWIND(.movsp ip)
	mov	ip, sp
	stmfd	sp!, {r4, r5, r6, r7, fp, ip, lr, pc}
	UNWIND(.pad #4)
	UNWIND(.save {r4, r5, r6, r7, fp, ip, lr})
	UNWIND(.setfp fp, ip, #-4)
	sub	fp, ip, #4
	UNWIND(.pad #8)
	sub	sp, sp, #8
	ldr	r1, .L121
	mov	r5, r0
	mov	r7, r0
	mov	r0, #1
	add	r6, r5, #2896
	bl	dprint_vfmw
	ldr	r3, [r5, #2832]
	ldr	r2, [r7, #2836]!
	mov	r0, #1
	ldr	r1, .L121+4
	add	r5, r5, #2960
	bl	dprint_vfmw
	add	r6, r6, #4
	add	r5, r5, #4
	mov	r4, #0
.L119:
	ldr	lr, [r5, #4]!
	mov	r2, r4
	ldr	ip, [r6, #4]!
	add	r4, r4, #1
	ldr	r3, [r7, #4]!
	mov	r0, #1
	ldr	r1, .L121+8
	stmia	sp, {ip, lr}
	bl	dprint_vfmw
	cmp	r4, #16
	bne	.L119
	ldr	r1, .L121+12
	mov	r0, #1
	sub	sp, fp, #28
	ldmfd	sp, {r4, r5, r6, r7, fp, sp, lr}
	b	dprint_vfmw
.L122:
	.align	2
.L121:
	.word	.LC21
	.word	.LC22
	.word	.LC23
	.word	.LC24
	UNWIND(.fnend)
	.size	HEVC_PrintAPCState, .-HEVC_PrintAPCState
	.align	2
	.global	HEVC_PrintDPBState
	.type	HEVC_PrintDPBState, %function
HEVC_PrintDPBState:
	UNWIND(.fnstart)
	@ args = 0, pretend = 0, frame = 16
	@ frame_needed = 1, uses_anonymous_args = 0
	UNWIND(.movsp ip)
	mov	ip, sp
	stmfd	sp!, {r4, r5, r6, r7, r8, r9, r10, fp, ip, lr, pc}
	UNWIND(.pad #4)
	UNWIND(.save {r4, r5, r6, r7, r8, r9, r10, fp, ip, lr})
	UNWIND(.setfp fp, ip, #-4)
	sub	fp, ip, #4
	UNWIND(.pad #68)
	sub	sp, sp, #68
	ldr	r1, .L139
	mov	r9, r0
	mov	r0, #1
	bl	dprint_vfmw
	ldr	r1, [r9, #2552]
	ldr	lr, [r9, #2548]
	mov	r0, #1
	ldr	ip, [r9, #2556]
	ldr	r3, [r9, #2540]
	ldr	r2, [r9, #2536]
	stmia	sp, {r1, ip, lr}
	ldr	r1, .L139+4
	bl	dprint_vfmw
	ldr	r3, [r9, #2540]
	cmp	r3, #0
	addne	r4, r9, #2544
	movne	r5, #0
	addne	r4, r4, #12
	beq	.L128
.L127:
	ldr	r3, [r4, #4]!
	ldr	r0, [r9, #276]
	ldr	ip, [r3, #4]
	ldrb	r2, [r3]	@ zero_extendqisi2
	ldrb	lr, [r3, #1]	@ zero_extendqisi2
	str	ip, [fp, #-52]
	ldr	ip, [r3, #52]
	ldr	r1, [r3, #32]
	str	r2, [fp, #-48]
	str	lr, [fp, #-56]
	str	ip, [fp, #-60]
	ldrb	r8, [r3, #2]	@ zero_extendqisi2
	ldr	r10, [r3, #12]
	bl	FSP_GetLogicFs
	ldr	r3, [r4]
	ldr	r1, [r3, #32]
	mov	r6, r0
	ldr	r0, [r9, #276]
	bl	FSP_GetRef
	ldr	r3, [r4]
	ldr	r1, [r3, #32]
	mov	r7, r0
	ldr	r0, [r9, #276]
	bl	FSP_GetDisplay
	ldr	r1, [r4]
	ldr	ip, [fp, #-60]
	mov	r2, r5
	add	r5, r5, #1
	ldr	lr, [r1, #228]
	mov	r3, r1
	str	lr, [sp, #40]
	ldr	r1, [r1, #32]
	ldr	lr, [fp, #-56]
	str	ip, [sp, #20]
	str	r1, [sp, #36]
	ldr	ip, [fp, #-52]
	ldr	r1, [fp, #-48]
	str	r10, [sp, #16]
	str	r8, [sp, #12]
	str	r1, [sp]
	str	lr, [sp, #8]
	str	ip, [sp, #4]
	str	r7, [sp, #28]
	str	r6, [sp, #24]
	ldr	r1, .L139+8
	str	r0, [sp, #32]
	mov	r0, #1
	bl	dprint_vfmw
	ldr	r3, [r9, #2540]
	cmp	r3, r5
	bhi	.L127
.L128:
	ldr	r1, .L139+12
	mov	r0, #1
	bl	dprint_vfmw
	ldr	r3, [r9, #2540]
	cmp	r3, #0
	addne	r5, r9, #2544
	movne	r6, #0
	addne	r5, r5, #12
	bne	.L135
	b	.L126
.L138:
	bl	dprint_vfmw
	ldr	r2, [r4, #632]
	ldr	r1, .L139+16
	mov	r0, #1
	bl	dprint_vfmw
	ldrsb	r2, [r4]
	ldr	r1, .L139+20
	mov	r0, #1
	bl	dprint_vfmw
	ldrsb	r2, [r4, #1]
	ldr	r1, .L139+24
	mov	r0, #1
	bl	dprint_vfmw
.L130:
	cmp	r8, #0
	mov	r2, r8
	ldr	r1, .L139+28
	mov	r0, #1
	beq	.L131
	bl	dprint_vfmw
	ldr	r2, [r8, #88]
	ldr	r1, .L139+32
	mov	r0, #1
	bl	dprint_vfmw
.L132:
	cmp	r7, #0
	mov	r2, r7
	ldr	r1, .L139+36
	mov	r0, #1
	beq	.L133
	bl	dprint_vfmw
	ldr	r2, [r7, #88]
	ldr	r1, .L139+40
	mov	r0, #1
	bl	dprint_vfmw
.L134:
	ldr	r1, .L139+12
	mov	r0, #1
	bl	dprint_vfmw
	ldr	r3, [r9, #2540]
	add	r6, r6, #1
	cmp	r3, r6
	bls	.L126
.L135:
	ldr	r3, [r5, #4]!
	ldr	r0, [r9, #276]
	ldr	r1, [r3, #32]
	bl	FSP_GetLogicFs
	ldr	r3, [r5]
	ldr	r1, [r3, #32]
	mov	r4, r0
	ldr	r0, [r9, #276]
	bl	FSP_GetDecPhyFs
	ldr	r3, [r5]
	ldr	r1, [r3, #32]
	mov	r8, r0
	ldr	r0, [r9, #276]
	bl	FSP_GetDispPhyFs
	mov	r2, r6
	ldr	r1, .L139+44
	mov	r7, r0
	mov	r0, #1
	bl	dprint_vfmw
	cmp	r4, #0
	mov	r2, r4
	ldr	r1, .L139+48
	mov	r0, #1
	bne	.L138
	ldr	r1, .L139+52
	mov	r0, #1
	bl	dprint_vfmw
	b	.L130
.L133:
	ldr	r1, .L139+56
	mov	r0, #1
	bl	dprint_vfmw
	b	.L134
.L131:
	ldr	r1, .L139+60
	mov	r0, #1
	bl	dprint_vfmw
	b	.L132
.L126:
	ldr	r1, .L139+64
	mov	r0, #1
	sub	sp, fp, #40
	ldmfd	sp, {r4, r5, r6, r7, r8, r9, r10, fp, sp, lr}
	b	dprint_vfmw
.L140:
	.align	2
.L139:
	.word	.LC25
	.word	.LC26
	.word	.LC27
	.word	.LC6
	.word	.LC31
	.word	.LC32
	.word	.LC33
	.word	.LC35
	.word	.LC36
	.word	.LC38
	.word	.LC39
	.word	.LC29
	.word	.LC30
	.word	.LC34
	.word	.LC40
	.word	.LC37
	.word	.LC28
	UNWIND(.fnend)
	.size	HEVC_PrintDPBState, .-HEVC_PrintDPBState
	.align	2
	.global	HEVC_IsSliceUnit
	.type	HEVC_IsSliceUnit, %function
HEVC_IsSliceUnit:
	UNWIND(.fnstart)
	@ args = 0, pretend = 0, frame = 0
	@ frame_needed = 1, uses_anonymous_args = 0
	UNWIND(.movsp ip)
	mov	ip, sp
	stmfd	sp!, {fp, ip, lr, pc}
	UNWIND(.pad #4)
	UNWIND(.save {fp, ip, lr})
	UNWIND(.setfp fp, ip, #-4)
	sub	fp, ip, #4
	cmp	r0, #9
	bls	.L143
	sub	r0, r0, #16
	cmp	r0, #5
	movhi	r0, #0
	movls	r0, #1
	ldmfd	sp, {fp, sp, pc}
.L143:
	mov	r0, #1
	ldmfd	sp, {fp, sp, pc}
	UNWIND(.fnend)
	.size	HEVC_IsSliceUnit, .-HEVC_IsSliceUnit
	.align	2
	.global	HEVC_IsIUnit
	.type	HEVC_IsIUnit, %function
HEVC_IsIUnit:
	UNWIND(.fnstart)
	@ args = 0, pretend = 0, frame = 0
	@ frame_needed = 1, uses_anonymous_args = 0
	UNWIND(.movsp ip)
	mov	ip, sp
	stmfd	sp!, {fp, ip, lr, pc}
	UNWIND(.pad #4)
	UNWIND(.save {fp, ip, lr})
	UNWIND(.setfp fp, ip, #-4)
	sub	fp, ip, #4
	sub	r0, r0, #16
	cmp	r0, #5
	movhi	r0, #0
	movls	r0, #1
	ldmfd	sp, {fp, sp, pc}
	UNWIND(.fnend)
	.size	HEVC_IsIUnit, .-HEVC_IsIUnit
	.align	2
	.global	HEVC_IsNonRefPic
	.type	HEVC_IsNonRefPic, %function
HEVC_IsNonRefPic:
	UNWIND(.fnstart)
	@ args = 0, pretend = 0, frame = 0
	@ frame_needed = 1, uses_anonymous_args = 0
	UNWIND(.movsp ip)
	mov	ip, sp
	stmfd	sp!, {fp, ip, lr, pc}
	UNWIND(.pad #4)
	UNWIND(.save {fp, ip, lr})
	UNWIND(.setfp fp, ip, #-4)
	sub	fp, ip, #4
	bics	r0, r0, #6
	subne	r0, r0, #8
	clzne	r0, r0
	movne	r0, r0, lsr #5
	moveq	r0, #1
	ldmfd	sp, {fp, sp, pc}
	UNWIND(.fnend)
	.size	HEVC_IsNonRefPic, .-HEVC_IsNonRefPic
	.align	2
	.global	HEVC_IsFlushUnit
	.type	HEVC_IsFlushUnit, %function
HEVC_IsFlushUnit:
	UNWIND(.fnstart)
	@ args = 0, pretend = 0, frame = 0
	@ frame_needed = 1, uses_anonymous_args = 0
	UNWIND(.movsp ip)
	mov	ip, sp
	stmfd	sp!, {fp, ip, lr, pc}
	UNWIND(.pad #4)
	UNWIND(.save {fp, ip, lr})
	UNWIND(.setfp fp, ip, #-4)
	sub	fp, ip, #4
	sub	r0, r0, #16
	cmp	r0, #4
	movhi	r0, #0
	movls	r0, #1
	ldmfd	sp, {fp, sp, pc}
	UNWIND(.fnend)
	.size	HEVC_IsFlushUnit, .-HEVC_IsFlushUnit
	.align	2
	.global	HEVC_IsPVRFlushPic
	.type	HEVC_IsPVRFlushPic, %function
HEVC_IsPVRFlushPic:
	UNWIND(.fnstart)
	@ args = 0, pretend = 0, frame = 0
	@ frame_needed = 1, uses_anonymous_args = 0
	UNWIND(.movsp ip)
	mov	ip, sp
	stmfd	sp!, {fp, ip, lr, pc}
	UNWIND(.pad #4)
	UNWIND(.save {fp, ip, lr})
	UNWIND(.setfp fp, ip, #-4)
	sub	fp, ip, #4
	add	r3, r0, #53248
	ldr	r3, [r3, #380]
	cmp	r3, #0
	bne	.L151
	ldr	r2, [r0, #2356]
	ldr	r1, [r2, #640]
	cmp	r1, #1
	beq	.L155
.L153:
	mov	r0, r3
	ldmfd	sp, {fp, sp, pc}
.L151:
	mov	r0, #0
	ldmfd	sp, {fp, sp, pc}
.L155:
	ldr	r0, [r2, #636]
	cmp	r0, #0
	bne	.L153
	ldr	r3, [r2, #644]
	cmp	r3, #0
	ldmnefd	sp, {fp, sp, pc}
	ldr	r3, [r2, #604]
	add	r3, r3, #1024
	cmp	r3, #2048
	movls	r0, #0
	movhi	r0, #1
	ldmfd	sp, {fp, sp, pc}
	UNWIND(.fnend)
	.size	HEVC_IsPVRFlushPic, .-HEVC_IsPVRFlushPic
	.align	2
	.global	HEVC_IsEosNal
	.type	HEVC_IsEosNal, %function
HEVC_IsEosNal:
	UNWIND(.fnstart)
	@ args = 0, pretend = 0, frame = 0
	@ frame_needed = 1, uses_anonymous_args = 0
	UNWIND(.movsp ip)
	mov	ip, sp
	stmfd	sp!, {r4, r5, fp, ip, lr, pc}
	UNWIND(.pad #4)
	UNWIND(.save {r4, r5, fp, ip, lr})
	UNWIND(.setfp fp, ip, #-4)
	sub	fp, ip, #4
	mov	r1, #32
	mov	r4, r0
	ldr	r0, [r0, #2340]
	bl	BsGet
	mov	r1, #32
	mov	r5, r0
	ldr	r0, [r4, #2340]
	bl	BsGet
	movw	r2, #20036
	movw	r3, #20553
	movt	r2, 17221
	movt	r3, 18515
	cmp	r0, r2
	cmpeq	r5, r3
	moveq	r0, #1
	movne	r0, #0
	ldmfd	sp, {r4, r5, fp, sp, pc}
	UNWIND(.fnend)
	.size	HEVC_IsEosNal, .-HEVC_IsEosNal
	.align	2
	.global	HEVC_IsFrameEndNal
	.type	HEVC_IsFrameEndNal, %function
HEVC_IsFrameEndNal:
	UNWIND(.fnstart)
	@ args = 0, pretend = 0, frame = 0
	@ frame_needed = 1, uses_anonymous_args = 0
	UNWIND(.movsp ip)
	mov	ip, sp
	stmfd	sp!, {fp, ip, lr, pc}
	UNWIND(.pad #4)
	UNWIND(.save {fp, ip, lr})
	UNWIND(.setfp fp, ip, #-4)
	sub	fp, ip, #4
	sub	r3, r0, #48
	sub	r0, r0, #32
	cmp	r0, #2
	cmphi	r3, #1
	movls	r0, #1
	movhi	r0, #0
	ldmfd	sp, {fp, sp, pc}
	UNWIND(.fnend)
	.size	HEVC_IsFrameEndNal, .-HEVC_IsFrameEndNal
	.align	2
	.global	HEVCDEC_IsNeedSedOnly
	.type	HEVCDEC_IsNeedSedOnly, %function
HEVCDEC_IsNeedSedOnly:
	UNWIND(.fnstart)
	@ args = 0, pretend = 0, frame = 0
	@ frame_needed = 1, uses_anonymous_args = 0
	UNWIND(.movsp ip)
	mov	ip, sp
	stmfd	sp!, {r4, r5, fp, ip, lr, pc}
	UNWIND(.pad #4)
	UNWIND(.save {r4, r5, fp, ip, lr})
	UNWIND(.setfp fp, ip, #-4)
	sub	fp, ip, #4
	ldr	r3, [r0, #208]
	mov	r4, r0
	cmp	r3, #0
	beq	.L161
	ldr	r2, [r0, #2360]
	cmp	r2, #0
	beq	.L166
.L161:
	mov	r0, #0
	ldmfd	sp, {r4, r5, fp, sp, pc}
.L166:
	add	r2, r0, #61440
	ldr	r2, [r2, #696]
	cmp	r2, #1
	bls	.L161
	ldr	r2, [r0, #236]
	cmp	r3, r2
	beq	.L161
	ldr	r3, [r0, #220]
	cmp	r3, #1
	beq	.L167
	cmp	r3, #0
	bne	.L161
	ldr	r0, [r0, #276]
	bl	VCTRL_CheckFreshRaw
	cmp	r0, #0
	beq	.L161
	ldr	r0, [r4, #276]
	bl	VCTRL_CheckFreshSeg
	adds	r0, r0, #0
	movne	r0, #1
	ldmfd	sp, {r4, r5, fp, sp, pc}
.L167:
	ldr	r0, [r0, #2364]
	adds	r0, r0, #0
	movne	r0, #1
	ldmfd	sp, {r4, r5, fp, sp, pc}
	UNWIND(.fnend)
	.size	HEVCDEC_IsNeedSedOnly, .-HEVCDEC_IsNeedSedOnly
	.align	2
	.global	HEVC_CalcTileInfo
	.type	HEVC_CalcTileInfo, %function
HEVC_CalcTileInfo:
	UNWIND(.fnstart)
	@ args = 0, pretend = 0, frame = 8
	@ frame_needed = 1, uses_anonymous_args = 0
	UNWIND(.movsp ip)
	mov	ip, sp
	stmfd	sp!, {r4, r5, r6, r7, r8, r9, r10, fp, ip, lr, pc}
	UNWIND(.pad #4)
	UNWIND(.save {r4, r5, r6, r7, r8, r9, r10, fp, ip, lr})
	UNWIND(.setfp fp, ip, #-4)
	sub	fp, ip, #4
	UNWIND(.pad #20)
	sub	sp, sp, #20
	add	r5, r0, #24576
	str	r3, [fp, #-48]
	mov	r6, r2
	ldr	r3, [r5, #2872]
	mov	r8, r1
	ldr	r2, [r5, #2868]
	ldr	r7, [r3, #68]
	ldr	r9, [r3, #72]
	ldr	r2, [r2, #148]
	sub	r3, r7, #1
	cmp	r3, #9
	str	r2, [fp, #-52]
	bhi	.L196
	sub	r3, r9, #1
	cmp	r3, #10
	bhi	.L197
	ldr	r4, .L198
	mov	r2, #512
	mov	r1, #0
	mov	r0, r8
	ldr	r3, [r4, #48]
	blx	r3
	ldr	r3, [r4, #48]
	mov	r2, #80
	mov	r1, #0
	mov	r0, r6
	blx	r3
	ldr	r3, [r4, #48]
	mov	r2, #88
	mov	r1, #0
	ldr	r0, [fp, #-48]
	blx	r3
	cmp	r7, #0
	ble	.L177
	ldr	r3, [fp, #-52]
	mov	r2, #0
	mov	r1, r2
	mov	r0, r6
	sub	r10, r3, #4
.L176:
	str	r2, [r6, r1, asl #3]
	mov	r3, r2, asl r10
	ldr	ip, [r5, #2872]
	add	ip, ip, r1, lsl #1
	ldrsh	ip, [ip, #176]
	add	r2, ip, r2
	sub	ip, r2, #1
	str	ip, [r0, #4]
	mov	lr, r2, asl r10
	cmp	r3, lr
	bge	.L182
	cmp	r3, #255
	bhi	.L178
	uxtb	r4, r1
	add	ip, r8, r3
	b	.L180
.L181:
	cmp	r3, #256
	beq	.L178
.L180:
	add	r3, r3, #1
	strb	r4, [ip], #1
	cmp	r3, lr
	bne	.L181
.L182:
	add	r1, r1, #1
	add	r0, r0, #8
	cmp	r1, r7
	bne	.L176
.L177:
	cmp	r9, #0
	ble	.L174
	ldr	r3, [fp, #-52]
	mov	ip, #0
	ldr	r7, [fp, #-48]
	mov	lr, ip
	sub	r4, r3, #4
	mov	r6, r7
.L184:
	str	ip, [r7, lr, asl #3]
	mov	r3, ip, asl r4
	ldr	r2, [r5, #2872]
	add	r2, r2, lr, lsl #1
	ldrsh	r2, [r2, #216]
	add	ip, r2, ip
	sub	r2, ip, #1
	str	r2, [r6, #4]
	mov	r1, ip, asl r4
	cmp	r3, r1
	bge	.L189
	cmp	r3, #255
	bhi	.L185
	add	r2, r3, #255
	uxtb	r0, lr
	add	r2, r8, r2
	b	.L187
.L188:
	cmp	r3, #256
	beq	.L185
.L187:
	add	r3, r3, #1
	strb	r0, [r2, #1]!
	cmp	r3, r1
	bne	.L188
.L189:
	add	lr, lr, #1
	add	r6, r6, #8
	cmp	lr, r9
	bne	.L184
.L174:
	mov	r0, #0
	b	.L170
.L178:
	ldr	r2, .L198+4
	mov	r0, #1
	ldr	r1, .L198+8
	bl	dprint_vfmw
	mvn	r0, #0
.L170:
	sub	sp, fp, #40
	ldmfd	sp, {r4, r5, r6, r7, r8, r9, r10, fp, sp, pc}
.L185:
	ldr	r2, .L198+4
	mov	r0, #1
	ldr	r1, .L198+12
	bl	dprint_vfmw
	mvn	r0, #0
	b	.L170
.L197:
	mov	r1, #11
	mov	r3, r9
	str	r1, [sp]
	mov	r0, #1
	ldr	r2, .L198+4
	ldr	r1, .L198+16
	bl	dprint_vfmw
	mvn	r0, #0
	b	.L170
.L196:
	mov	r1, #10
	mov	r3, r7
	str	r1, [sp]
	mov	r0, #1
	ldr	r2, .L198+4
	ldr	r1, .L198+20
	bl	dprint_vfmw
	mvn	r0, #0
	b	.L170
.L199:
	.align	2
.L198:
	.word	vfmw_Osal_Func_Ptr_S
	.word	.LANCHOR1+136
	.word	.LC43
	.word	.LC44
	.word	.LC42
	.word	.LC41
	UNWIND(.fnend)
	.size	HEVC_CalcTileInfo, .-HEVC_CalcTileInfo
	.align	2
	.global	HEVC_VPSEqual
	.type	HEVC_VPSEqual, %function
HEVC_VPSEqual:
	UNWIND(.fnstart)
	@ args = 0, pretend = 0, frame = 16
	@ frame_needed = 1, uses_anonymous_args = 0
	UNWIND(.movsp ip)
	mov	ip, sp
	stmfd	sp!, {r4, r5, r6, r7, r8, r9, r10, fp, ip, lr, pc}
	UNWIND(.pad #4)
	UNWIND(.save {r4, r5, r6, r7, r8, r9, r10, fp, ip, lr})
	UNWIND(.setfp fp, ip, #-4)
	sub	fp, ip, #4
	UNWIND(.pad #20)
	sub	sp, sp, #20
	subs	r10, r0, #0
	beq	.L224
	cmp	r1, #0
	beq	.L225
	ldr	r4, [r10, #12]
	add	lr, r10, #12288
	ldr	r3, [r10, #16]
	add	ip, r1, #12288
	ldr	r6, [r1, #16]
	add	r2, r10, #12416
	ldr	r5, [r1, #12]
	add	r0, r1, #12416
	ldr	r9, [r1, #20]
	mov	r7, r2
	cmp	r3, r6
	cmpeq	r4, r5
	ldr	r8, [r10, #20]
	ldrb	r5, [r10, #1]	@ zero_extendqisi2
	add	r2, r2, #20
	ldrb	r3, [r1, #1]	@ zero_extendqisi2
	moveq	r4, #1
	movne	r4, #0
	cmp	r8, r9
	movne	r4, #0
	andeq	r4, r4, #1
	cmp	r5, r3
	movne	r9, #0
	andeq	r9, r4, #1
	ldr	r6, [r1, #24]
	ldr	r3, [r10, #24]
	add	r0, r0, #20
	ldr	r5, [r10, #8]
	add	r7, r7, #52
	ldr	r4, [r1, #8]
	cmp	r3, r6
	movne	r3, #0
	andeq	r3, r9, #1
	ldr	r9, [ip, #424]
	cmp	r5, r4
	movne	r6, #0
	andeq	r6, r3, #1
	ldr	r5, [lr, #424]
	ldrb	r3, [ip, #148]	@ zero_extendqisi2
	ldrb	r4, [lr, #148]	@ zero_extendqisi2
	cmp	r5, r9
	movne	r5, #0
	andeq	r5, r6, #1
	ldr	r9, [lr, #420]
	ldr	r6, [ip, #420]
	cmp	r4, r3
	movne	r4, #0
	andeq	r4, r5, #1
	cmp	r9, r6
	movne	r3, #0
	andeq	r3, r4, #1
.L204:
	ldrb	r5, [r2, #1]!	@ zero_extendqisi2
	ldrb	r4, [r0, #1]!	@ zero_extendqisi2
	cmp	r5, r4
	movne	r3, #0
	andeq	r3, r3, #1
	cmp	r2, r7
	bne	.L204
	ldrb	r2, [lr, #182]	@ zero_extendqisi2
	add	r7, r10, #80
	ldrb	r6, [ip, #182]	@ zero_extendqisi2
	sub	r0, r8, #1
	ldrb	r5, [lr, #181]	@ zero_extendqisi2
	add	r9, r1, #48
	ldrb	r4, [ip, #181]	@ zero_extendqisi2
	add	r8, r1, #80
	str	r7, [fp, #-56]
	cmp	r2, r6
	cmpeq	r5, r4
	ldrb	r7, [lr, #183]	@ zero_extendqisi2
	ldrb	r4, [ip, #183]	@ zero_extendqisi2
	mov	r5, #0
	ldrb	lr, [lr, #184]	@ zero_extendqisi2
	moveq	r2, #1
	ldrb	ip, [ip, #184]	@ zero_extendqisi2
	movne	r2, #0
	ldrb	r6, [r10, #7]	@ zero_extendqisi2
	cmp	r7, r4
	movne	r2, #0
	andeq	r2, r2, #1
	add	r4, r10, #112
	str	r4, [fp, #-52]
	ldrb	r4, [r1, #7]	@ zero_extendqisi2
	cmp	lr, ip
	movne	ip, #0
	andeq	ip, r2, #1
	add	r7, r1, #112
	str	r1, [fp, #-60]
	cmp	r6, r4
	movne	ip, #0
	andeq	ip, ip, #1
	ldr	r1, [fp, #-56]
	str	r0, [fp, #-48]
	and	r6, r3, ip
	add	r0, r10, #48
	ldr	r2, [fp, #-52]
	str	r10, [fp, #-52]
.L205:
	ldr	r3, [r1, #4]!
	add	r5, r5, #1
	ldr	r10, [r8, #4]!
	ldr	r4, [r0, #4]!
	ldr	lr, [r9, #4]!
	ldr	ip, [r2, #4]!
	cmp	r3, r10
	cmpeq	r4, lr
	ldr	r10, [r7, #4]!
	moveq	r3, #1
	movne	r3, #0
	cmp	ip, r10
	movne	r3, #0
	andeq	r3, r3, #1
	ldr	ip, [fp, #-48]
	and	r6, r6, r3
	cmp	r5, ip
	bls	.L205
	ldr	r10, [fp, #-52]
	ldr	r1, [fp, #-60]
	ldr	r8, [r10, #32]
	ldr	r3, [r1, #32]
	ldr	r4, [r10, #28]
	ldr	r2, [r1, #28]
	cmp	r8, r3
	cmpeq	r4, r2
	moveq	r3, #1
	movne	r3, #0
	cmp	r8, #0
	and	r6, r6, r3
	beq	.L206
	add	r7, r10, #148
	add	r5, r1, #148
	mov	r9, #1
.L207:
	mov	r0, r5
	mov	r2, r7
	mov	r3, #0
.L208:
	ldr	lr, [r2, #4]!
	add	r3, r3, #1
	ldr	ip, [r0, #4]!
	cmp	lr, ip
	movne	r6, #0
	andeq	r6, r6, #1
	cmp	r3, r4
	bls	.L208
	add	r9, r9, #1
	add	r7, r7, #4
	cmp	r9, r8
	add	r5, r5, #4
	bls	.L207
.L206:
	ldrb	r3, [r10, #6]	@ zero_extendqisi2
	ldrb	r2, [r1, #6]	@ zero_extendqisi2
	cmp	r2, r3
	movne	r6, #0
	andeq	r6, r6, #1
	cmp	r3, #0
	beq	.L209
	ldr	r3, [r10, #36]
	ldr	r2, [r10, #40]
	ldr	r4, [r1, #40]
	ldr	lr, [r1, #36]
	ldrb	r0, [r10, #5]	@ zero_extendqisi2
	cmp	r2, r4
	cmpeq	r3, lr
	ldrb	ip, [r1, #5]	@ zero_extendqisi2
	moveq	r3, #1
	movne	r3, #0
	cmp	ip, r0
	movne	r3, #0
	andeq	r3, r3, #1
	cmp	r0, #0
	and	r6, r6, r3
	bne	.L226
.L210:
	ldr	r2, [r10, #48]
	ldr	r3, [r1, #48]
	cmp	r2, r3
	movne	r6, #0
	andeq	r6, r6, #1
.L209:
	eor	r6, r6, #1
	rsb	r0, r6, #0
.L202:
	sub	sp, fp, #40
	ldmfd	sp, {r4, r5, r6, r7, r8, r9, r10, fp, sp, pc}
.L226:
	ldr	r2, [r10, #44]
	ldr	r3, [r1, #44]
	cmp	r2, r3
	movne	r6, #0
	andeq	r6, r6, #1
	b	.L210
.L225:
	mov	r0, r1
	movw	r3, #1884
	ldr	r2, .L227
	ldr	r1, .L227+4
	bl	dprint_vfmw
	mvn	r0, #0
	b	.L202
.L224:
	movw	r3, #1883
	ldr	r2, .L227
	ldr	r1, .L227+4
	bl	dprint_vfmw
	mvn	r0, #0
	b	.L202
.L228:
	.align	2
.L227:
	.word	.LC45
	.word	.LC46
	UNWIND(.fnend)
	.size	HEVC_VPSEqual, .-HEVC_VPSEqual
	.align	2
	.global	HEVC_Sei_More_Data_In_Payload
	.type	HEVC_Sei_More_Data_In_Payload, %function
HEVC_Sei_More_Data_In_Payload:
	UNWIND(.fnstart)
	@ args = 0, pretend = 0, frame = 0
	@ frame_needed = 1, uses_anonymous_args = 0
	UNWIND(.movsp ip)
	mov	ip, sp
	stmfd	sp!, {r4, r5, fp, ip, lr, pc}
	UNWIND(.pad #4)
	UNWIND(.save {r4, r5, fp, ip, lr})
	UNWIND(.setfp fp, ip, #-4)
	sub	fp, ip, #4
	ldr	r2, [r0, #2340]
	mov	r5, r1
	ldr	r3, [r2, #24]
	mov	r0, r2
	ldr	r4, [r2, #28]
	rsb	r4, r4, r3
	bl	BsIsByteAligned
	cmp	r4, r5, asl #3
	movne	r3, #1
	moveq	r3, #0
	cmp	r0, #0
	moveq	r0, #0
	andne	r0, r3, #1
	eor	r0, r0, #1
	ldmfd	sp, {r4, r5, fp, sp, pc}
	UNWIND(.fnend)
	.size	HEVC_Sei_More_Data_In_Payload, .-HEVC_Sei_More_Data_In_Payload
	.align	2
	.global	HEVC_Sei_Payload_Extension_Present
	.type	HEVC_Sei_Payload_Extension_Present, %function
HEVC_Sei_Payload_Extension_Present:
	UNWIND(.fnstart)
	@ args = 0, pretend = 0, frame = 32
	@ frame_needed = 1, uses_anonymous_args = 0
	UNWIND(.movsp ip)
	mov	ip, sp
	stmfd	sp!, {r4, r5, fp, ip, lr, pc}
	UNWIND(.pad #4)
	UNWIND(.save {r4, r5, fp, ip, lr})
	UNWIND(.setfp fp, ip, #-4)
	sub	fp, ip, #4
	UNWIND(.pad #32)
	sub	sp, sp, #32
	ldr	r3, .L237
	mov	r5, r1
	mov	r2, #32
	ldr	r1, [r0, #2340]
	sub	r0, fp, #52
	ldr	r3, [r3, #52]
	mov	r5, r5, asl #3
	blx	r3
	ldr	r3, [fp, #-28]
	ldr	r2, [fp, #-24]
	rsb	r3, r2, r3
	cmp	r3, r5
	movcs	r0, #0
	bcc	.L236
.L231:
	sub	sp, fp, #20
	ldmfd	sp, {r4, r5, fp, sp, pc}
.L236:
	mov	r1, #1
	sub	r0, fp, #52
	bl	BsShow
	cmp	r0, #0
	moveq	r0, #1
	beq	.L231
	mov	r1, #1
	sub	r0, fp, #52
	bl	BsSkip
	ldr	r3, [fp, #-28]
	ldr	r4, [fp, #-24]
	rsb	r4, r4, r3
	b	.L232
.L233:
	bl	BsSkip
	ldr	r3, [fp, #-28]
	ldr	r4, [fp, #-24]
	rsb	r4, r4, r3
.L232:
	mov	r1, #1
	sub	r0, fp, #52
	bl	BsShow
	cmp	r4, r5
	mov	r1, #1
	movcs	r3, #0
	movcc	r3, #1
	cmp	r0, #0
	movne	r2, #0
	andeq	r2, r3, #1
	sub	r0, fp, #52
	cmp	r2, #0
	bne	.L233
	mov	r0, r3
	sub	sp, fp, #20
	ldmfd	sp, {r4, r5, fp, sp, pc}
.L238:
	.align	2
.L237:
	.word	vfmw_Osal_Func_Ptr_S
	UNWIND(.fnend)
	.size	HEVC_Sei_Payload_Extension_Present, .-HEVC_Sei_Payload_Extension_Present
	.align	2
	.global	HEVC_Sei_Decoded_Picture_Hash
	.type	HEVC_Sei_Decoded_Picture_Hash, %function
HEVC_Sei_Decoded_Picture_Hash:
	UNWIND(.fnstart)
	@ args = 0, pretend = 0, frame = 0
	@ frame_needed = 1, uses_anonymous_args = 0
	UNWIND(.movsp ip)
	mov	ip, sp
	stmfd	sp!, {r4, r5, r6, r7, r8, r9, fp, ip, lr, pc}
	UNWIND(.pad #4)
	UNWIND(.save {r4, r5, r6, r7, r8, r9, fp, ip, lr})
	UNWIND(.setfp fp, ip, #-4)
	sub	fp, ip, #4
	cmp	r1, #0
	cmpne	r0, #0
	mov	r6, r0
	mov	r7, r1
	beq	.L247
	mov	r1, #8
	ldr	r0, [r0, #2340]
	bl	BsGet
	sub	r4, r7, #1
	add	r8, r7, #47
	mov	r3, r0
	cmp	r3, #0
	str	r0, [r7, #48]
	str	r0, [r7, #52]
	bne	.L241
.L252:
	add	r5, r4, #16
.L242:
	mov	r1, #8
	ldr	r0, [r6, #2340]
	bl	BsGet
	strb	r0, [r4, #1]!
	cmp	r4, r5
	bne	.L242
.L243:
	cmp	r5, r8
	mov	r4, r5
	beq	.L248
.L254:
	ldr	r3, [r7, #52]
	cmp	r3, #0
	beq	.L252
.L241:
	cmp	r3, #1
	beq	.L253
	cmp	r3, #2
	addne	r5, r4, #16
	bne	.L243
	mov	r1, #32
	ldr	r0, [r6, #2340]
	bl	BsGet
	add	r5, r4, #16
	cmp	r5, r8
	strb	r0, [r4, #4]
	mov	r2, r0, lsr #24
	mov	r3, r0, lsr #16
	strb	r2, [r4, #1]
	mov	r0, r0, lsr #8
	strb	r3, [r4, #2]
	strb	r0, [r4, #3]
	mov	r4, r5
	bne	.L254
.L248:
	mov	r0, #0
	ldmfd	sp, {r4, r5, r6, r7, r8, r9, fp, sp, pc}
.L253:
	mov	r1, #16
	ldr	r0, [r6, #2340]
	bl	BsGet
	add	r5, r4, #16
	mov	r3, r0, lsr #8
	strb	r0, [r4, #2]
	strb	r3, [r4, #1]
	b	.L243
.L247:
	mvn	r0, #0
	ldmfd	sp, {r4, r5, r6, r7, r8, r9, fp, sp, pc}
	UNWIND(.fnend)
	.size	HEVC_Sei_Decoded_Picture_Hash, .-HEVC_Sei_Decoded_Picture_Hash
	.align	2
	.global	HEVC_Sei_Region_Refresh_Info
	.type	HEVC_Sei_Region_Refresh_Info, %function
HEVC_Sei_Region_Refresh_Info:
	UNWIND(.fnstart)
	@ args = 0, pretend = 0, frame = 0
	@ frame_needed = 1, uses_anonymous_args = 0
	UNWIND(.movsp ip)
	mov	ip, sp
	stmfd	sp!, {r4, r5, fp, ip, lr, pc}
	UNWIND(.pad #4)
	UNWIND(.save {r4, r5, fp, ip, lr})
	UNWIND(.setfp fp, ip, #-4)
	sub	fp, ip, #4
	cmp	r1, #0
	cmpne	r0, #0
	mov	r5, r1
	moveq	r4, #1
	movne	r4, #0
	beq	.L257
	ldr	r0, [r0, #2340]
	mov	r1, #1
	bl	BsGet
	mov	r3, r4
	strb	r0, [r5]
.L256:
	mov	r0, r3
	ldmfd	sp, {r4, r5, fp, sp, pc}
.L257:
	mvn	r3, #0
	b	.L256
	UNWIND(.fnend)
	.size	HEVC_Sei_Region_Refresh_Info, .-HEVC_Sei_Region_Refresh_Info
	.align	2
	.global	HEVC_Sei_Mastering_Display_Colour_Volume
	.type	HEVC_Sei_Mastering_Display_Colour_Volume, %function
HEVC_Sei_Mastering_Display_Colour_Volume:
	UNWIND(.fnstart)
	@ args = 0, pretend = 0, frame = 0
	@ frame_needed = 1, uses_anonymous_args = 0
	UNWIND(.movsp ip)
	mov	ip, sp
	stmfd	sp!, {r4, r5, r6, r7, fp, ip, lr, pc}
	UNWIND(.pad #4)
	UNWIND(.save {r4, r5, r6, r7, fp, ip, lr})
	UNWIND(.setfp fp, ip, #-4)
	sub	fp, ip, #4
	cmp	r1, #0
	cmpne	r0, #0
	mov	r5, r0
	mov	r6, r1
	beq	.L261
	add	r7, r1, #12
	mov	r4, r1
	mov	r3, #1
	strb	r3, [r1]
.L260:
	mov	r1, #16
	ldr	r0, [r5, #2340]
	bl	BsGet
	mov	r1, #16
	str	r0, [r4, #4]!
	ldr	r0, [r5, #2340]
	bl	BsGet
	cmp	r4, r7
	str	r0, [r4, #12]
	bne	.L260
	mov	r1, #16
	ldr	r0, [r5, #2340]
	bl	BsGet
	mov	r1, #16
	str	r0, [r6, #28]
	ldr	r0, [r5, #2340]
	bl	BsGet
	mov	r1, #32
	str	r0, [r6, #32]
	ldr	r0, [r5, #2340]
	bl	BsGet
	mov	r1, #32
	str	r0, [r6, #36]
	ldr	r0, [r5, #2340]
	bl	BsGet
	mov	r3, #0
	str	r0, [r6, #40]
.L259:
	mov	r0, r3
	ldmfd	sp, {r4, r5, r6, r7, fp, sp, pc}
.L261:
	mvn	r3, #0
	b	.L259
	UNWIND(.fnend)
	.size	HEVC_Sei_Mastering_Display_Colour_Volume, .-HEVC_Sei_Mastering_Display_Colour_Volume
	.align	2
	.global	HEVC_Sei_Content_Light_Level_Information
	.type	HEVC_Sei_Content_Light_Level_Information, %function
HEVC_Sei_Content_Light_Level_Information:
	UNWIND(.fnstart)
	@ args = 0, pretend = 0, frame = 0
	@ frame_needed = 1, uses_anonymous_args = 0
	UNWIND(.movsp ip)
	mov	ip, sp
	stmfd	sp!, {r4, r5, r6, r7, fp, ip, lr, pc}
	UNWIND(.pad #4)
	UNWIND(.save {r4, r5, r6, r7, fp, ip, lr})
	UNWIND(.setfp fp, ip, #-4)
	sub	fp, ip, #4
	cmp	r1, #0
	cmpne	r0, #0
	mov	r6, r0
	mov	r5, r1
	moveq	r4, #1
	movne	r4, #0
	beq	.L265
	mov	r3, #1
	mov	r1, #16
	strb	r3, [r5]
	ldr	r0, [r0, #2340]
	bl	BsGet
	mov	r1, #16
	strh	r0, [r5, #2]	@ movhi
	ldr	r0, [r6, #2340]
	bl	BsGet
	mov	r3, r4
	strh	r0, [r5, #4]	@ movhi
.L264:
	mov	r0, r3
	ldmfd	sp, {r4, r5, r6, r7, fp, sp, pc}
.L265:
	mvn	r3, #0
	b	.L264
	UNWIND(.fnend)
	.size	HEVC_Sei_Content_Light_Level_Information, .-HEVC_Sei_Content_Light_Level_Information
	.align	2
	.global	HEVC_Sei_HLGHDR_Comapitibility_Info
	.type	HEVC_Sei_HLGHDR_Comapitibility_Info, %function
HEVC_Sei_HLGHDR_Comapitibility_Info:
	UNWIND(.fnstart)
	@ args = 0, pretend = 0, frame = 0
	@ frame_needed = 1, uses_anonymous_args = 0
	UNWIND(.movsp ip)
	mov	ip, sp
	stmfd	sp!, {r4, r5, fp, ip, lr, pc}
	UNWIND(.pad #4)
	UNWIND(.save {r4, r5, fp, ip, lr})
	UNWIND(.setfp fp, ip, #-4)
	sub	fp, ip, #4
	cmp	r1, #0
	cmpne	r0, #0
	mov	r5, r1
	moveq	r4, #1
	movne	r4, #0
	beq	.L268
	ldr	r0, [r0, #2340]
	mov	r1, #8
	bl	BsGet
	mov	r3, r4
	strb	r0, [r5]
.L267:
	mov	r0, r3
	ldmfd	sp, {r4, r5, fp, sp, pc}
.L268:
	mvn	r3, #0
	b	.L267
	UNWIND(.fnend)
	.size	HEVC_Sei_HLGHDR_Comapitibility_Info, .-HEVC_Sei_HLGHDR_Comapitibility_Info
	.align	2
	.global	HEVC_Sei_Temporal_Sub_Layer_Zero_Index
	.type	HEVC_Sei_Temporal_Sub_Layer_Zero_Index, %function
HEVC_Sei_Temporal_Sub_Layer_Zero_Index:
	UNWIND(.fnstart)
	@ args = 0, pretend = 0, frame = 0
	@ frame_needed = 1, uses_anonymous_args = 0
	UNWIND(.movsp ip)
	mov	ip, sp
	stmfd	sp!, {r4, r5, r6, r7, fp, ip, lr, pc}
	UNWIND(.pad #4)
	UNWIND(.save {r4, r5, r6, r7, fp, ip, lr})
	UNWIND(.setfp fp, ip, #-4)
	sub	fp, ip, #4
	cmp	r1, #0
	cmpne	r0, #0
	mov	r5, r0
	mov	r6, r1
	moveq	r4, #1
	movne	r4, #0
	beq	.L271
	mov	r1, #1
	ldr	r0, [r0, #2340]
	bl	BsGet
	mov	r1, #1
	str	r0, [r6]
	ldr	r0, [r5, #2340]
	bl	BsGet
	str	r0, [r6, #4]
	ldr	r0, [r5, #2340]
	bl	BsToNextByte
	mov	r0, r4
	ldmfd	sp, {r4, r5, r6, r7, fp, sp, pc}
.L271:
	mvn	r0, #0
	ldmfd	sp, {r4, r5, r6, r7, fp, sp, pc}
	UNWIND(.fnend)
	.size	HEVC_Sei_Temporal_Sub_Layer_Zero_Index, .-HEVC_Sei_Temporal_Sub_Layer_Zero_Index
	.align	2
	.global	HEVC_Sei_Display_Orientation
	.type	HEVC_Sei_Display_Orientation, %function
HEVC_Sei_Display_Orientation:
	UNWIND(.fnstart)
	@ args = 0, pretend = 0, frame = 0
	@ frame_needed = 1, uses_anonymous_args = 0
	UNWIND(.movsp ip)
	mov	ip, sp
	stmfd	sp!, {r4, r5, fp, ip, lr, pc}
	UNWIND(.pad #4)
	UNWIND(.save {r4, r5, fp, ip, lr})
	UNWIND(.setfp fp, ip, #-4)
	sub	fp, ip, #4
	cmp	r1, #0
	cmpne	r0, #0
	mov	r4, r0
	mov	r5, r1
	beq	.L275
	mov	r1, #1
	ldr	r0, [r0, #2340]
	bl	BsGet
	uxtb	r0, r0
	strb	r0, [r5, #2]
	cmp	r0, #0
	beq	.L276
.L274:
	ldr	r0, [r4, #2340]
	bl	BsToNextByte
	mov	r0, #0
	ldmfd	sp, {r4, r5, fp, sp, pc}
.L276:
	mov	r1, #1
	ldr	r0, [r4, #2340]
	bl	BsGet
	mov	r1, #1
	strb	r0, [r5]
	ldr	r0, [r4, #2340]
	bl	BsGet
	mov	r1, #16
	strb	r0, [r5, #1]
	ldr	r0, [r4, #2340]
	bl	BsGet
	mov	r1, #1
	str	r0, [r5, #4]
	ldr	r0, [r4, #2340]
	bl	BsGet
	strb	r0, [r5, #3]
	b	.L274
.L275:
	mvn	r0, #0
	ldmfd	sp, {r4, r5, fp, sp, pc}
	UNWIND(.fnend)
	.size	HEVC_Sei_Display_Orientation, .-HEVC_Sei_Display_Orientation
	.align	2
	.global	HEVC_Sei_ParsePts_Init
	.type	HEVC_Sei_ParsePts_Init, %function
HEVC_Sei_ParsePts_Init:
	UNWIND(.fnstart)
	@ args = 0, pretend = 0, frame = 0
	@ frame_needed = 1, uses_anonymous_args = 0
	UNWIND(.movsp ip)
	mov	ip, sp
	stmfd	sp!, {r4, r5, fp, ip, lr, pc}
	UNWIND(.pad #4)
	UNWIND(.save {r4, r5, fp, ip, lr})
	UNWIND(.setfp fp, ip, #-4)
	sub	fp, ip, #4
	ldr	r3, .L278
	mov	r4, r0
	add	r0, r0, #27136
	mov	r2, #80
	mov	r1, #0
	add	r0, r0, #224
	ldr	r3, [r3, #48]
	blx	r3
	add	r3, r4, #4096
	add	ip, r3, #2576
	add	r4, r4, #6656
	mov	r0, #0
	mov	r1, #0
	mov	r2, #0
	strd	r0, [ip]
	strd	r0, [r4, #-8]
	strd	r0, [r4]
	strd	r0, [ip, #-8]
	str	r2, [r3, #460]
	str	r2, [r3, #464]
	str	r2, [r3, #452]
	str	r2, [r3, #456]
	ldmfd	sp, {r4, r5, fp, sp, pc}
.L279:
	.align	2
.L278:
	.word	vfmw_Osal_Func_Ptr_S
	UNWIND(.fnend)
	.size	HEVC_Sei_ParsePts_Init, .-HEVC_Sei_ParsePts_Init
	.align	2
	.global	HEVC_Sei_Get_Dpb_Output_Time
	.type	HEVC_Sei_Get_Dpb_Output_Time, %function
HEVC_Sei_Get_Dpb_Output_Time:
	UNWIND(.fnstart)
	@ args = 0, pretend = 0, frame = 16
	@ frame_needed = 1, uses_anonymous_args = 0
	UNWIND(.movsp ip)
	mov	ip, sp
	stmfd	sp!, {r4, r5, r6, r7, r8, r9, r10, fp, ip, lr, pc}
	UNWIND(.pad #4)
	UNWIND(.save {r4, r5, r6, r7, r8, r9, r10, fp, ip, lr})
	UNWIND(.setfp fp, ip, #-4)
	sub	fp, ip, #4
	UNWIND(.pad #20)
	sub	sp, sp, #20
	add	r3, r0, #53248
	ldr	r5, [r0, #2352]
	movw	r6, #2024
	ldr	ip, [r3, #1124]
	add	r3, r0, #24576
	ldr	lr, [r1, #12]
	ldr	r4, [r0, #2348]
	mla	ip, r6, ip, r5
	movw	r5, #26164
	ldr	r6, [r3, #2788]
	cmp	r6, #1
	ldr	ip, [ip, #32]
	str	lr, [r3, #2808]
	ldr	lr, [r1, #16]
	mla	r1, r5, ip, r4
	str	lr, [r3, #2812]
	ldr	lr, [r2, #76]
	str	lr, [r3, #2832]
	ldr	ip, [r2, #80]
	str	ip, [r3, #2836]
	ldr	ip, [r1, #56]
	add	r1, r1, ip, lsl #2
	ldrb	r8, [r1, #412]	@ zero_extendqisi2
	beq	.L288
	ldrb	r1, [r3, #2857]	@ zero_extendqisi2
	cmp	r1, #0
	bne	.L289
	add	ip, r0, #4096
	add	r0, r0, #6656
	add	r1, ip, #2576
	ldrd	r4, [r0, #-8]
	ldr	r6, [ip, #484]
	adds	r4, r4, r6
	adc	r5, r5, #0
	strd	r4, [r1]
.L282:
	add	r1, ip, #2576
	mov	r0, #0
	strd	r4, [r1, #-8]
	strb	r0, [r3, #2857]
	ldrb	r2, [r2, #9]	@ zero_extendqisi2
	cmp	r2, r0
	ldr	r2, [ip, #488]
	bne	.L290
	adds	r4, r4, r2
	add	r3, r3, #2784
	adc	r5, r5, #0
	subs	r4, r4, r8
	sbc	r5, r5, #0
	strd	r4, [r3, #40]
	umull	r0, r1, r4, lr
	mla	r1, lr, r5, r1
	strd	r0, [r3, #32]
	sub	sp, fp, #40
	ldmfd	sp, {r4, r5, r6, r7, r8, r9, r10, fp, sp, pc}
.L289:
	ldrb	r1, [r0, #3505]	@ zero_extendqisi2
	add	ip, r0, #4096
	cmp	r1, #0
	add	r1, r0, #6656
	bne	.L291
	ldrd	r4, [r1, #-8]
	ldrd	r6, [r1]
	strd	r4, [fp, #-52]
.L285:
	mov	r5, #0
	ldr	r0, [ip, #484]
	mov	r1, r5
	ldrd	r4, [fp, #-52]
	add	r9, ip, #2576
	add	r10, ip, #2560
	adds	r4, r4, r0
	strd	r0, [fp, #-60]
	adc	r5, r5, r1
	cmp	r4, r6
	sbcs	r1, r5, r7
	strd	r4, [r9]
	strd	r4, [r10, #-8]
	bge	.L282
	ldrd	r4, [fp, #-60]
	adds	r4, r4, r6
	adc	r5, r5, r7
	strd	r4, [r9]
	strd	r4, [r10, #-8]
	b	.L282
.L290:
	adds	r4, r4, r2
	add	r1, r3, #2784
	adc	r5, r5, #0
	movs	r5, r5, asr #1
	mov	r4, r4, rrx
	subs	r4, r4, r8
	sbc	r5, r5, #0
	strd	r4, [r1, #40]
	umull	r2, r3, r4, lr
	mla	r3, lr, r5, r3
	strd	r2, [r1, #32]
	sub	sp, fp, #40
	ldmfd	sp, {r4, r5, r6, r7, r8, r9, r10, fp, sp, pc}
.L288:
	add	ip, r0, #4096
	add	r0, r0, #6656
	add	r1, ip, #2576
	ldr	r4, [ip, #452]
	mov	r5, r4, asr #31
	strd	r4, [r1]
	strd	r4, [r0, #-8]
	b	.L282
.L291:
	ldrd	r0, [r1]
	strd	r0, [fp, #-52]
	mov	r6, r0
	mov	r7, r1
	b	.L285
	UNWIND(.fnend)
	.size	HEVC_Sei_Get_Dpb_Output_Time, .-HEVC_Sei_Get_Dpb_Output_Time
	.align	2
	.global	HEVC_Get_Last_IDR_Frame_Info
	.type	HEVC_Get_Last_IDR_Frame_Info, %function
HEVC_Get_Last_IDR_Frame_Info:
	UNWIND(.fnstart)
	@ args = 0, pretend = 0, frame = 0
	@ frame_needed = 1, uses_anonymous_args = 0
	UNWIND(.movsp ip)
	mov	ip, sp
	stmfd	sp!, {r4, r5, fp, ip, lr, pc}
	UNWIND(.pad #4)
	UNWIND(.save {r4, r5, fp, ip, lr})
	UNWIND(.setfp fp, ip, #-4)
	sub	fp, ip, #4
	sub	r3, r1, #19
	cmp	r3, #1
	bls	.L296
.L293:
	sub	r1, r1, #6
	cmp	r1, #3
	ldmlsfd	sp, {r4, r5, fp, sp, pc}
	add	r3, r0, #6656
	mov	r0, r3
	add	r3, r3, #16
	ldrd	r2, [r3]
	strd	r2, [r0]
	ldmfd	sp, {r4, r5, fp, sp, pc}
.L296:
	ldr	ip, [r0, #2356]
	mvn	r3, #0
	mvn	r2, #0
	ldrd	r4, [ip, #56]
	cmp	r5, r3
	cmpeq	r4, r2
	beq	.L294
	add	r2, r0, #27392
	movw	ip, #27424
	add	r3, r2, #16
	strd	r4, [r2, #24]
	ldrd	r2, [r3, #-8]
	strd	r2, [r0, ip]
.L294:
	add	r3, r0, #24576
	mov	r2, #1
	strb	r2, [r3, #2856]
	b	.L293
	UNWIND(.fnend)
	.size	HEVC_Get_Last_IDR_Frame_Info, .-HEVC_Get_Last_IDR_Frame_Info
	.global	__aeabi_uidivmod
	.align	2
	.global	HEVC_Sei_Get_Frame_Pts
	.type	HEVC_Sei_Get_Frame_Pts, %function
HEVC_Sei_Get_Frame_Pts:
	UNWIND(.fnstart)
	@ args = 0, pretend = 0, frame = 16
	@ frame_needed = 1, uses_anonymous_args = 0
	UNWIND(.movsp ip)
	mov	ip, sp
	stmfd	sp!, {r4, r5, r6, r7, r8, r9, r10, fp, ip, lr, pc}
	UNWIND(.pad #4)
	UNWIND(.save {r4, r5, r6, r7, r8, r9, r10, fp, ip, lr})
	UNWIND(.setfp fp, ip, #-4)
	sub	fp, ip, #4
	UNWIND(.pad #20)
	sub	sp, sp, #20
	add	r2, r0, #27392
	add	r1, r0, #24576
	mov	r4, r0
	ldrd	r6, [r2, #24]
	mov	r3, r2
	ldr	r5, [r1, #2832]
	movw	r0, #27424
	ldr	r10, [r1, #2836]
	strd	r6, [fp, #-52]
	cmp	r5, #0
	ldrd	r6, [r3, #8]
	ldrd	r2, [r4, r0]
	strd	r2, [fp, #-60]
	beq	.L300
	mov	r9, r5
	mov	r0, r10
	b	.L299
.L301:
	mov	r9, r1
.L299:
	mov	r1, r9
	bl	__aeabi_uidivmod
	mov	r0, r9
	cmp	r1, #0
	bne	.L301
.L298:
	ldrd	r2, [fp, #-60]
	mov	r1, r9
	mov	r0, r5
	mov	r8, #1000
	subs	r2, r6, r2
	add	r4, r4, #54272
	mul	r6, r8, r2
	bl	__aeabi_uidiv
	mov	r1, r9
	mul	r6, r0, r6
	mov	r0, r10
	bl	__aeabi_uidiv
	mov	r1, r0
	mov	r0, r6
	bl	__aeabi_uidiv
	ldrd	r2, [fp, #-52]
	adds	r2, r2, r0
	adc	r3, r3, #0
	mov	r0, r2
	mov	r1, r3
	strd	r0, [r4]
	sub	sp, fp, #40
	ldmfd	sp, {r4, r5, r6, r7, r8, r9, r10, fp, sp, pc}
.L300:
	mov	r9, r10
	b	.L298
	UNWIND(.fnend)
	.size	HEVC_Sei_Get_Frame_Pts, .-HEVC_Sei_Get_Frame_Pts
	.align	2
	.global	HEVC_Sei_User_Data_Unregistered
	.type	HEVC_Sei_User_Data_Unregistered, %function
HEVC_Sei_User_Data_Unregistered:
	UNWIND(.fnstart)
	@ args = 0, pretend = 0, frame = 64
	@ frame_needed = 1, uses_anonymous_args = 0
	UNWIND(.movsp ip)
	mov	ip, sp
	stmfd	sp!, {r4, r5, r6, r7, r8, r9, r10, fp, ip, lr, pc}
	UNWIND(.pad #4)
	UNWIND(.save {r4, r5, r6, r7, r8, r9, r10, fp, ip, lr})
	UNWIND(.setfp fp, ip, #-4)
	sub	fp, ip, #4
	UNWIND(.pad #68)
	sub	sp, sp, #68
	ldr	r6, .L334
	mov	r5, r1
	mov	r8, r2
	mov	r7, r0
	str	r2, [fp, #-104]
	ldmia	r6!, {r0, r1, r2, r3}
	sub	r4, fp, #100
	mov	lr, #1
	strb	lr, [r5, #24]
	sub	ip, fp, #72
	cmp	r8, #15
	add	lr, r6, #12
	stmia	r4!, {r0, r1, r2, r3}
	ldmia	r6, {r0, r1, r2}
	stmia	r4, {r0, r1, r2}
	ldmia	lr!, {r0, r1, r2, r3}
	stmia	ip!, {r0, r1, r2, r3}
	ldmia	lr, {r0, r1, r2}
	stmia	ip, {r0, r1, r2}
	bls	.L320
	add	r4, r6, #39
	add	r9, r5, #3
	add	r6, r6, #55
	sub	r10, r8, #1
	mov	r8, #0
.L305:
	mov	r1, #8
	ldr	r0, [r7, #2340]
	bl	BsGet
	uxtb	r0, r0
	strb	r0, [r9, #1]!
	ldrb	r1, [r4, #1]!	@ zero_extendqisi2
	cmp	r1, r0
	strne	r10, [r5, #20]
	strneb	r8, [r5, #24]
	cmp	r4, r6
	sub	r10, r10, #1
	bne	.L305
	ldrb	r4, [r5, #24]	@ zero_extendqisi2
	cmp	r4, #1
	beq	.L330
	ldr	r3, [fp, #-104]
	sub	r9, r3, #16
	str	r9, [r5, #20]
	cmp	r9, #0
	beq	.L315
	mov	r4, #0
.L319:
	mov	r1, #8
	ldr	r0, [r7, #2340]
	bl	BsGet
	ldr	r3, [r5, #20]
	add	r4, r4, #1
	cmp	r3, r4
	bhi	.L319
.L318:
	mov	r0, #0
.L303:
	sub	sp, fp, #40
	ldmfd	sp, {r4, r5, r6, r7, r8, r9, r10, fp, sp, pc}
.L315:
	mov	r0, #0
	str	r0, [r5]
	sub	sp, fp, #40
	ldmfd	sp, {r4, r5, r6, r7, r8, r9, r10, fp, sp, pc}
.L330:
	mov	r1, #5
	ldr	r0, [r7, #2340]
	bl	BsGet
	mov	r1, #3
	uxtb	r6, r0
	ldr	r0, [r7, #2340]
	bl	BsGet
	uxtb	r0, r0
	cmp	r6, #6
	cmpeq	r0, #3
	beq	.L331
	sub	r3, r6, #2
	cmp	r0, #0
	cmpeq	r6, #2
	clz	r3, r3
	mov	r3, r3, lsr #5
	beq	.L332
	cmp	r0, #1
	movne	r3, #0
	andeq	r3, r3, #1
	cmp	r3, #0
	bne	.L333
	ldr	r3, [fp, #-104]
	sub	r9, r3, #18
	str	r9, [r5, #20]
.L310:
	cmp	r9, #0
	movne	r4, #0
	beq	.L315
.L317:
	mov	r1, #8
	ldr	r0, [r7, #2340]
	bl	BsGet
	ldr	r3, [r5, #20]
	add	r4, r4, #1
	cmp	r3, r4
	bhi	.L317
	b	.L318
.L333:
	mov	r1, #8
	ldr	r0, [r7, #2340]
	bl	BsGet
	mov	r1, #8
	mov	r4, r0
	ldr	r0, [r7, #2340]
	bl	BsGet
	ldr	r3, [fp, #-104]
	uxtb	r4, r4
	sub	r9, r3, #19
	str	r9, [r5, #20]
	uxtb	r0, r0
	add	r4, r4, r0, lsl #8
	str	r4, [r5, #64]
	b	.L310
.L320:
	mvn	r0, #0
	b	.L303
.L331:
	mov	r1, #2
	ldr	r0, [r7, #2340]
	bl	BsGet
	mov	r1, #2
	strb	r0, [r5, #31]
	ldr	r0, [r7, #2340]
	bl	BsGet
	mov	r1, r4
	strb	r0, [r5, #30]
	ldr	r0, [r7, #2340]
	bl	BsGet
	mov	r1, r4
	strb	r0, [r5, #29]
	ldr	r0, [r7, #2340]
	bl	BsGet
	mov	r1, #2
	strb	r0, [r5, #28]
	ldr	r0, [r7, #2340]
	bl	BsGet
	ldrb	r3, [r5, #29]	@ zero_extendqisi2
	mov	r2, #28
	add	r0, r5, #36
	cmp	r3, #0
	ldr	r3, .L334+4
	subeq	r1, fp, #100
	subne	r1, fp, #72
	ldr	r3, [r3, #52]
	blx	r3
	mov	r1, #8
	ldr	r0, [r7, #2340]
	bl	BsGet
	mov	r3, #50
	mov	r1, #8
	uxtb	r0, r0
	mul	r3, r3, r0
	str	r3, [r5, #32]
	ldr	r0, [r7, #2340]
	bl	BsGet
	mov	r1, #8
	mov	r4, r0
	ldr	r0, [r7, #2340]
	bl	BsGet
	ldr	r3, [fp, #-104]
	uxtb	r4, r4
	sub	r9, r3, #21
	str	r9, [r5, #20]
	uxtb	r0, r0
	add	r4, r4, r0, lsl #8
	str	r4, [r5, #64]
	b	.L310
.L332:
	mov	r1, #2
	ldr	r0, [r7, #2340]
	bl	BsGet
	mov	r1, #2
	strb	r0, [r5, #31]
	ldr	r0, [r7, #2340]
	bl	BsGet
	mov	r1, r4
	strb	r0, [r5, #30]
	ldr	r0, [r7, #2340]
	bl	BsGet
	mov	r1, r4
	strb	r0, [r5, #29]
	ldr	r0, [r7, #2340]
	bl	BsGet
	mov	r1, #2
	strb	r0, [r5, #28]
	ldr	r0, [r7, #2340]
	bl	BsGet
	ldrb	r3, [r5, #29]	@ zero_extendqisi2
	mov	r2, #28
	add	r0, r5, #36
	cmp	r3, #0
	ldr	r3, .L334+4
	subeq	r1, fp, #100
	subne	r1, fp, #72
	ldr	r3, [r3, #52]
	blx	r3
	mov	r1, #8
	ldr	r0, [r7, #2340]
	bl	BsGet
	mov	r3, #50
	ldr	r2, [fp, #-104]
	sub	r9, r2, #19
	str	r9, [r5, #20]
	uxtb	r0, r0
	mul	r3, r3, r0
	str	r3, [r5, #32]
	b	.L310
.L335:
	.align	2
.L334:
	.word	.LANCHOR1+156
	.word	vfmw_Osal_Func_Ptr_S
	UNWIND(.fnend)
	.size	HEVC_Sei_User_Data_Unregistered, .-HEVC_Sei_User_Data_Unregistered
	.align	2
	.global	HEVC_IsRefListWrong
	.type	HEVC_IsRefListWrong, %function
HEVC_IsRefListWrong:
	UNWIND(.fnstart)
	@ args = 0, pretend = 0, frame = 0
	@ frame_needed = 1, uses_anonymous_args = 0
	UNWIND(.movsp ip)
	mov	ip, sp
	stmfd	sp!, {r4, r5, r6, r7, fp, ip, lr, pc}
	UNWIND(.pad #4)
	UNWIND(.save {r4, r5, r6, r7, fp, ip, lr})
	UNWIND(.setfp fp, ip, #-4)
	sub	fp, ip, #4
	UNWIND(.pad #8)
	sub	sp, sp, #8
	add	r7, r0, #53248
	mov	r5, r0
	ldr	r3, [r7, #1208]
	cmp	r3, #0
	beq	.L337
	ldr	r4, [r0, #2368]
	cmp	r4, #0
	beq	.L338
	ldr	r2, [r4, #32]
	cmp	r2, #0
	addne	r6, r0, #2368
	movne	r4, #0
	bne	.L343
	b	.L381
.L344:
	ldr	r3, [ip, #640]
	cmp	r3, #0
	beq	.L345
	ldr	r3, [r7, #1208]
	add	r4, r4, #1
	cmp	r4, r3
	bcs	.L382
	ldr	r2, [r6, #4]!
	cmp	r2, #0
	beq	.L338
	ldr	r2, [r2, #32]
	cmp	r2, #0
	beq	.L339
.L343:
	ldr	r1, [r2, #32]
	ldr	r0, [r5, #276]
	bl	FSP_GetLogicFs
	subs	ip, r0, #0
	bne	.L344
.L345:
	add	r3, r4, #592
	mov	r2, r4
	ldr	r1, .L386
	mov	r0, #1
	ldr	r3, [r5, r3, asl #2]
	ldr	r3, [r3, #32]
	str	ip, [sp]
	bl	dprint_vfmw
.L342:
	mvn	r0, #0
	sub	sp, fp, #28
	ldmfd	sp, {r4, r5, r6, r7, fp, sp, pc}
.L382:
	cmp	r3, #0
	beq	.L337
	ldr	r2, [r7, #1212]
	cmp	r2, #0
	beq	.L337
	ldr	r4, [r5, #2436]
	cmp	r4, #0
	beq	.L350
	ldr	r2, [r4, #32]
	cmp	r2, #0
	addne	r6, r5, #2432
	movne	r4, #0
	addne	r6, r6, #4
	bne	.L354
	b	.L383
.L355:
	ldr	r3, [r0, #640]
	cmp	r3, #0
	beq	.L356
	ldr	r3, [r7, #1212]
	add	r4, r4, #1
	cmp	r4, r3
	bcs	.L337
	ldr	r3, [r6, #4]!
	cmp	r3, #0
	beq	.L384
	ldr	r2, [r3, #32]
	cmp	r2, #0
	beq	.L385
.L354:
	ldr	r1, [r2, #32]
	ldr	r0, [r5, #276]
	bl	FSP_GetLogicFs
	cmp	r0, #0
	bne	.L355
.L356:
	mov	r3, r0
	mov	r2, r4
	ldr	r1, .L386+4
	mov	r0, #1
	bl	dprint_vfmw
	mvn	r0, #0
	b	.L376
.L337:
	mov	r0, #0
.L376:
	sub	sp, fp, #28
	ldmfd	sp, {r4, r5, r6, r7, fp, sp, pc}
.L338:
	mov	r2, r4
	ldr	r1, .L386+8
	mov	r0, #1
	bl	dprint_vfmw
	b	.L342
.L381:
	mov	r4, r2
.L339:
	mov	r2, r4
	ldr	r1, .L386+12
	mov	r0, #1
	bl	dprint_vfmw
	b	.L342
.L384:
	ldr	r3, [r7, #1208]
.L350:
	mov	r2, r4
	ldr	r1, .L386+16
	mov	r0, #1
	bl	dprint_vfmw
	mvn	r0, #0
	b	.L376
.L385:
	ldr	r3, [r7, #1208]
.L351:
	mov	r2, r4
	ldr	r1, .L386+20
	mov	r0, #1
	bl	dprint_vfmw
	mvn	r0, #0
	b	.L376
.L383:
	mov	r4, r2
	b	.L351
.L387:
	.align	2
.L386:
	.word	.LC49
	.word	.LC52
	.word	.LC47
	.word	.LC48
	.word	.LC50
	.word	.LC51
	UNWIND(.fnend)
	.size	HEVC_IsRefListWrong, .-HEVC_IsRefListWrong
	.align	2
	.global	HEVC_GetUnRefPicWithMinPoc
	.type	HEVC_GetUnRefPicWithMinPoc, %function
HEVC_GetUnRefPicWithMinPoc:
	UNWIND(.fnstart)
	@ args = 0, pretend = 0, frame = 0
	@ frame_needed = 1, uses_anonymous_args = 0
	UNWIND(.movsp ip)
	mov	ip, sp
	stmfd	sp!, {r4, fp, ip, lr, pc}
	UNWIND(.pad #4)
	UNWIND(.save {r4, fp, ip, lr})
	UNWIND(.setfp fp, ip, #-4)
	sub	fp, ip, #4
	UNWIND(.pad #12)
	sub	sp, sp, #12
	mvn	r4, #0
	str	r4, [r1]
	ldr	r3, [r0, #2540]
	cmp	r3, #16
	bhi	.L389
	cmp	r3, #0
	addne	ip, r0, #2544
	mvnne	r4, #-2147483648
	addne	ip, ip, #12
	movne	r3, #0
	beq	.L391
.L394:
	ldr	r2, [ip, #4]!
	ldr	lr, [r2, #12]
	cmp	lr, r4
	bge	.L393
	ldr	r2, [r2]
	bic	r2, r2, #-16777216
	bic	r2, r2, #255
	cmp	r2, #0
	streq	r3, [r1]
	moveq	r4, lr
.L393:
	ldr	r2, [r0, #2540]
	add	r3, r3, #1
	cmp	r2, r3
	bhi	.L394
	ldr	r3, [r1]
	cmn	r3, #1
	beq	.L391
	str	r4, [sp]
	mov	r0, #1
	ldr	r2, .L397
	ldr	r1, .L397+4
	bl	dprint_vfmw
	mov	r0, #0
.L392:
	sub	sp, fp, #16
	ldmfd	sp, {r4, fp, sp, pc}
.L389:
	ldr	r2, .L397
	mov	r0, #1
	ldr	r1, .L397+8
	bl	dprint_vfmw
	mov	r0, r4
	b	.L392
.L391:
	ldr	r2, .L397
	mov	r0, #1
	ldr	r1, .L397+12
	bl	dprint_vfmw
	mvn	r0, #0
	b	.L392
.L398:
	.align	2
.L397:
	.word	.LANCHOR1+228
	.word	.LC55
	.word	.LC53
	.word	.LC54
	UNWIND(.fnend)
	.size	HEVC_GetUnRefPicWithMinPoc, .-HEVC_GetUnRefPicWithMinPoc
	.align	2
	.global	HEVC_IncreaseDPBSize
	.type	HEVC_IncreaseDPBSize, %function
HEVC_IncreaseDPBSize:
	UNWIND(.fnstart)
	@ args = 0, pretend = 0, frame = 0
	@ frame_needed = 1, uses_anonymous_args = 0
	UNWIND(.movsp ip)
	mov	ip, sp
	stmfd	sp!, {r4, r5, fp, ip, lr, pc}
	UNWIND(.pad #4)
	UNWIND(.save {r4, r5, fp, ip, lr})
	UNWIND(.setfp fp, ip, #-4)
	sub	fp, ip, #4
	UNWIND(.pad #8)
	sub	sp, sp, #8
	ldr	r3, [r0, #2536]
	mov	r4, r0
	cmp	r3, #16
	bhi	.L406
	ldr	r0, [r0, #276]
	bl	FSP_GetTotalValidFsNum
	add	r2, r4, #53248
	ldr	r1, [r2, #384]
	cmp	r1, #1920
	movhi	r2, #1
	bls	.L407
.L402:
	rsb	r2, r2, r0
	bic	r2, r2, r2, asr #31
	cmp	r2, #0
	ble	.L403
	ldr	r3, [r4, #2536]
	add	r3, r3, #1
	cmp	r2, r3
	bcc	.L403
	str	r3, [r4, #2536]
	mov	r0, #13
	ldr	r2, .L408
	ldr	r1, .L408+4
	bl	dprint_vfmw
	mov	r0, #0
.L401:
	sub	sp, fp, #20
	ldmfd	sp, {r4, r5, fp, sp, pc}
.L407:
	ldr	r2, [r2, #388]
	cmp	r2, #1088
	movhi	r2, #1
	movls	r2, #4
	b	.L402
.L403:
	mov	r3, r2
	ldr	r1, .L408+8
	ldr	r2, .L408
	mov	r0, #1
	bl	dprint_vfmw
	mvn	r0, #0
	b	.L401
.L406:
	mov	r5, #17
	ldr	r2, .L408
	mov	r0, #1
	str	r5, [sp]
	ldr	r1, .L408+12
	bl	dprint_vfmw
	str	r5, [r4, #2536]
	mvn	r0, #0
	b	.L401
.L409:
	.align	2
.L408:
	.word	.LANCHOR1+256
	.word	.LC57
	.word	.LC58
	.word	.LC56
	UNWIND(.fnend)
	.size	HEVC_IncreaseDPBSize, .-HEVC_IncreaseDPBSize
	.align	2
	.global	HEVC_PicTypeStatistic
	.type	HEVC_PicTypeStatistic, %function
HEVC_PicTypeStatistic:
	UNWIND(.fnstart)
	@ args = 0, pretend = 0, frame = 0
	@ frame_needed = 1, uses_anonymous_args = 0
	UNWIND(.movsp ip)
	mov	ip, sp
	stmfd	sp!, {fp, ip, lr, pc}
	UNWIND(.pad #4)
	UNWIND(.save {fp, ip, lr})
	UNWIND(.setfp fp, ip, #-4)
	sub	fp, ip, #4
	add	r0, r0, #53248
	ldr	r3, [r0, #1120]
	sub	r2, r3, #16
	cmp	r2, #5
	bls	.L411
	ldr	r3, [r0, #372]
	sub	r3, r3, #16
	cmp	r3, #5
	bls	.L422
	ldr	r3, [r0, #1108]
	cmp	r3, #1
	beq	.L414
	cmp	r3, #2
	beq	.L415
	cmp	r3, #0
	moveq	r3, #2
	streq	r3, [r0, #380]
	ldmfd	sp, {fp, sp, pc}
.L411:
	str	r3, [r0, #372]
	mov	r3, #0
	str	r3, [r0, #380]
	ldmfd	sp, {fp, sp, pc}
.L414:
	ldr	r2, [r0, #380]
	cmp	r2, #2
	beq	.L423
	str	r3, [r0, #380]
	ldmfd	sp, {fp, sp, pc}
.L415:
	ldr	r3, [r0, #380]
	sub	r3, r3, #1
	cmp	r3, #1
	movhi	r3, #0
	strhi	r3, [r0, #380]
	ldmfd	sp, {fp, sp, pc}
.L423:
	ldmfd	sp, {fp, sp, pc}
.L422:
	ldmfd	sp, {fp, sp, pc}
	UNWIND(.fnend)
	.size	HEVC_PicTypeStatistic, .-HEVC_PicTypeStatistic
	.align	2
	.global	HEVC_IsReferenceNalu
	.type	HEVC_IsReferenceNalu, %function
HEVC_IsReferenceNalu:
	UNWIND(.fnstart)
	@ args = 0, pretend = 0, frame = 0
	@ frame_needed = 1, uses_anonymous_args = 0
	UNWIND(.movsp ip)
	mov	ip, sp
	stmfd	sp!, {fp, ip, lr, pc}
	UNWIND(.pad #4)
	UNWIND(.save {fp, ip, lr})
	UNWIND(.setfp fp, ip, #-4)
	sub	fp, ip, #4
	add	r0, r0, #53248
	ldr	r0, [r0, #1120]
	cmp	r0, #15
	bhi	.L425
	tst	r0, #1
	bne	.L427
.L425:
	sub	r0, r0, #16
	cmp	r0, #7
	movhi	r0, #0
	movls	r0, #1
	ldmfd	sp, {fp, sp, pc}
.L427:
	mov	r0, #1
	ldmfd	sp, {fp, sp, pc}
	UNWIND(.fnend)
	.size	HEVC_IsReferenceNalu, .-HEVC_IsReferenceNalu
	.align	2
	.global	HEVC_WriteQmatrix_4x4
	.type	HEVC_WriteQmatrix_4x4, %function
HEVC_WriteQmatrix_4x4:
	UNWIND(.fnstart)
	@ args = 0, pretend = 0, frame = 0
	@ frame_needed = 1, uses_anonymous_args = 0
	UNWIND(.movsp ip)
	mov	ip, sp
	stmfd	sp!, {fp, ip, lr, pc}
	UNWIND(.pad #4)
	UNWIND(.save {fp, ip, lr})
	UNWIND(.setfp fp, ip, #-4)
	sub	fp, ip, #4
	add	r1, r1, r0, lsl #6
	ldr	r0, [r1, #620]
	ldr	r3, [r1, #624]
	ldrb	ip, [r1, #612]	@ zero_extendqisi2
	ldrb	lr, [r1, #616]	@ zero_extendqisi2
	mov	r0, r0, asl #8
	orr	r3, ip, r3, asl #24
	uxth	r0, r0
	orr	r3, r3, lr, asl #16
	orr	r3, r3, r0
	str	r3, [r2]
	ldr	r0, [r1, #620]
	ldrb	lr, [r1, #613]	@ zero_extendqisi2
	ldrb	r3, [r1, #625]	@ zero_extendqisi2
	and	r0, r0, #65280
	ldrb	ip, [r1, #617]	@ zero_extendqisi2
	orr	r0, lr, r0
	orr	r3, r0, r3, asl #24
	orr	r3, r3, ip, asl #16
	str	r3, [r2, #4]
	ldr	r0, [r1, #616]
	ldrb	lr, [r1, #614]	@ zero_extendqisi2
	ldrb	r3, [r1, #626]	@ zero_extendqisi2
	and	r0, r0, #16711680
	ldrb	ip, [r1, #622]	@ zero_extendqisi2
	orr	r0, lr, r0
	orr	r3, r0, r3, asl #24
	orr	r3, r3, ip, asl #8
	str	r3, [r2, #8]
	ldr	r0, [r1, #624]
	ldrb	r3, [r1, #619]	@ zero_extendqisi2
	ldrb	lr, [r1, #615]	@ zero_extendqisi2
	and	r0, r0, #-16777216
	ldrb	ip, [r1, #623]	@ zero_extendqisi2
	orr	r1, lr, r0
	orr	r3, r1, r3, asl #16
	orr	r3, r3, ip, asl #8
	str	r3, [r2, #12]
	ldmfd	sp, {fp, sp, pc}
	UNWIND(.fnend)
	.size	HEVC_WriteQmatrix_4x4, .-HEVC_WriteQmatrix_4x4
	.align	2
	.global	HEVC_WriteQmatrix_32x32
	.type	HEVC_WriteQmatrix_32x32, %function
HEVC_WriteQmatrix_32x32:
	UNWIND(.fnstart)
	@ args = 0, pretend = 0, frame = 0
	@ frame_needed = 1, uses_anonymous_args = 0
	UNWIND(.movsp ip)
	mov	ip, sp
	stmfd	sp!, {r4, fp, ip, lr, pc}
	UNWIND(.pad #4)
	UNWIND(.save {r4, fp, ip, lr})
	UNWIND(.setfp fp, ip, #-4)
	sub	fp, ip, #4
	add	lr, r0, #18
	add	r0, r1, r0, lsl #6
	add	lr, r1, lr, lsl #6
	ldr	r1, [r0, #1772]
	ldr	r3, [r0, #1788]
	ldrb	ip, [lr, #612]	@ zero_extendqisi2
	ldrb	r4, [r0, #1780]	@ zero_extendqisi2
	mov	r1, r1, asl #8
	orr	r3, ip, r3, asl #24
	uxth	r1, r1
	orr	r3, r3, r4, asl #16
	orr	r3, r3, r1
	str	r3, [r2]
	ldr	r1, [r0, #1804]
	ldr	r3, [r0, #1820]
	ldrb	ip, [r0, #1796]	@ zero_extendqisi2
	ldrb	r4, [r0, #1812]	@ zero_extendqisi2
	mov	r1, r1, asl #8
	orr	r3, ip, r3, asl #24
	uxth	r1, r1
	orr	r3, r3, r4, asl #16
	orr	r3, r3, r1
	str	r3, [r2, #4]
	ldr	r1, [r0, #1772]
	ldrb	r4, [lr, #613]	@ zero_extendqisi2
	ldrb	r3, [r0, #1789]	@ zero_extendqisi2
	and	r1, r1, #65280
	ldrb	ip, [r0, #1781]	@ zero_extendqisi2
	orr	r1, r4, r1
	orr	r3, r1, r3, asl #24
	orr	r3, r3, ip, asl #16
	str	r3, [r2, #8]
	ldr	r1, [r0, #1804]
	ldrb	r4, [r0, #1797]	@ zero_extendqisi2
	ldrb	r3, [r0, #1821]	@ zero_extendqisi2
	and	r1, r1, #65280
	ldrb	ip, [r0, #1813]	@ zero_extendqisi2
	orr	r1, r4, r1
	orr	r3, r1, r3, asl #24
	orr	r3, r3, ip, asl #16
	str	r3, [r2, #12]
	ldr	ip, [r0, #1780]
	ldrb	r4, [lr, #614]	@ zero_extendqisi2
	ldrb	r3, [r0, #1790]	@ zero_extendqisi2
	and	ip, ip, #16711680
	ldrb	r1, [r0, #1774]	@ zero_extendqisi2
	orr	ip, r4, ip
	orr	r3, ip, r3, asl #24
	orr	r3, r3, r1, asl #8
	str	r3, [r2, #16]
	ldr	ip, [r0, #1812]
	ldrb	r4, [r0, #1798]	@ zero_extendqisi2
	ldrb	r3, [r0, #1822]	@ zero_extendqisi2
	and	ip, ip, #16711680
	ldrb	r1, [r0, #1806]	@ zero_extendqisi2
	orr	ip, r4, ip
	orr	r3, ip, r3, asl #24
	orr	r3, r3, r1, asl #8
	str	r3, [r2, #20]
	ldr	r1, [r0, #1788]
	ldrb	lr, [lr, #615]	@ zero_extendqisi2
	ldrb	r3, [r0, #1783]	@ zero_extendqisi2
	and	r1, r1, #-16777216
	ldrb	ip, [r0, #1775]	@ zero_extendqisi2
	orr	r1, lr, r1
	orr	r3, r1, r3, asl #16
	orr	r3, r3, ip, asl #8
	str	r3, [r2, #24]
	ldr	r1, [r0, #1820]
	ldrb	lr, [r0, #1799]	@ zero_extendqisi2
	ldrb	r3, [r0, #1815]	@ zero_extendqisi2
	and	r1, r1, #-16777216
	ldrb	ip, [r0, #1807]	@ zero_extendqisi2
	orr	r1, lr, r1
	orr	r3, r1, r3, asl #16
	orr	r3, r3, ip, asl #8
	str	r3, [r2, #28]
	ldr	r1, [r0, #1776]
	ldr	r3, [r0, #1792]
	ldrb	ip, [r0, #1768]	@ zero_extendqisi2
	ldrb	lr, [r0, #1784]	@ zero_extendqisi2
	mov	r1, r1, asl #8
	orr	r3, ip, r3, asl #24
	uxth	r1, r1
	orr	r3, r3, lr, asl #16
	orr	r3, r3, r1
	str	r3, [r2, #32]
	ldr	r1, [r0, #1808]
	ldr	r3, [r0, #1824]
	ldrb	ip, [r0, #1800]	@ zero_extendqisi2
	ldrb	lr, [r0, #1816]	@ zero_extendqisi2
	mov	r1, r1, asl #8
	orr	r3, ip, r3, asl #24
	uxth	r1, r1
	orr	r3, r3, lr, asl #16
	orr	r3, r3, r1
	str	r3, [r2, #36]
	ldr	r1, [r0, #1776]
	ldrb	lr, [r0, #1769]	@ zero_extendqisi2
	ldrb	r3, [r0, #1793]	@ zero_extendqisi2
	and	r1, r1, #65280
	ldrb	ip, [r0, #1785]	@ zero_extendqisi2
	orr	r1, lr, r1
	orr	r3, r1, r3, asl #24
	orr	r3, r3, ip, asl #16
	str	r3, [r2, #40]
	ldr	r1, [r0, #1808]
	ldrb	lr, [r0, #1801]	@ zero_extendqisi2
	ldrb	r3, [r0, #1825]	@ zero_extendqisi2
	and	r1, r1, #65280
	ldrb	ip, [r0, #1817]	@ zero_extendqisi2
	orr	r1, lr, r1
	orr	r3, r1, r3, asl #24
	orr	r3, r3, ip, asl #16
	str	r3, [r2, #44]
	ldr	r1, [r0, #1784]
	ldrb	lr, [r0, #1770]	@ zero_extendqisi2
	ldrb	r3, [r0, #1794]	@ zero_extendqisi2
	and	r1, r1, #16711680
	ldrb	ip, [r0, #1778]	@ zero_extendqisi2
	orr	r1, lr, r1
	orr	r3, r1, r3, asl #24
	orr	r3, r3, ip, asl #8
	str	r3, [r2, #48]
	ldrb	lr, [r0, #1802]	@ zero_extendqisi2
	ldr	r1, [r0, #1816]
	ldrb	r3, [r0, #1826]	@ zero_extendqisi2
	ldrb	ip, [r0, #1810]	@ zero_extendqisi2
	and	r1, r1, #16711680
	orr	r1, lr, r1
	orr	r3, r1, r3, asl #24
	orr	r3, r3, ip, asl #8
	str	r3, [r2, #52]
	ldr	r1, [r0, #1792]
	ldrb	lr, [r0, #1771]	@ zero_extendqisi2
	ldrb	r3, [r0, #1787]	@ zero_extendqisi2
	and	r1, r1, #-16777216
	ldrb	ip, [r0, #1779]	@ zero_extendqisi2
	orr	r1, lr, r1
	orr	r3, r1, r3, asl #16
	orr	r3, r3, ip, asl #8
	str	r3, [r2, #56]
	ldr	r1, [r0, #1824]
	ldrb	ip, [r0, #1803]	@ zero_extendqisi2
	ldrb	r3, [r0, #1819]	@ zero_extendqisi2
	and	r1, r1, #-16777216
	ldrb	r0, [r0, #1811]	@ zero_extendqisi2
	orr	r1, ip, r1
	orr	r3, r1, r3, asl #16
	orr	r3, r3, r0, asl #8
	str	r3, [r2, #60]
	ldmfd	sp, {r4, fp, sp, pc}
	UNWIND(.fnend)
	.size	HEVC_WriteQmatrix_32x32, .-HEVC_WriteQmatrix_32x32
	.align	2
	.global	HEVC_WriteQmatrix_8x8
	.type	HEVC_WriteQmatrix_8x8, %function
HEVC_WriteQmatrix_8x8:
	UNWIND(.fnstart)
	@ args = 0, pretend = 0, frame = 0
	@ frame_needed = 1, uses_anonymous_args = 0
	UNWIND(.movsp ip)
	mov	ip, sp
	stmfd	sp!, {r4, fp, ip, lr, pc}
	UNWIND(.pad #4)
	UNWIND(.save {r4, fp, ip, lr})
	UNWIND(.setfp fp, ip, #-4)
	sub	fp, ip, #4
	add	lr, r0, #6
	add	r0, r1, r0, lsl #6
	add	lr, r1, lr, lsl #6
	ldr	r1, [r0, #1012]
	ldr	r3, [r0, #1044]
	ldrb	ip, [lr, #612]	@ zero_extendqisi2
	ldrb	r4, [r0, #1028]	@ zero_extendqisi2
	mov	r1, r1, asl #8
	orr	r3, ip, r3, asl #24
	uxth	r1, r1
	orr	r3, r3, r4, asl #16
	orr	r3, r3, r1
	str	r3, [r2]
	ldr	r1, [r0, #1020]
	ldr	r3, [r0, #1052]
	ldrb	ip, [r0, #1004]	@ zero_extendqisi2
	ldrb	r4, [r0, #1036]	@ zero_extendqisi2
	mov	r1, r1, asl #8
	orr	r3, ip, r3, asl #24
	uxth	r1, r1
	orr	r3, r3, r4, asl #16
	orr	r3, r3, r1
	str	r3, [r2, #4]
	ldr	r1, [r0, #1012]
	ldrb	r4, [lr, #613]	@ zero_extendqisi2
	ldrb	r3, [r0, #1045]	@ zero_extendqisi2
	and	r1, r1, #65280
	ldrb	ip, [r0, #1029]	@ zero_extendqisi2
	orr	r1, r4, r1
	orr	r3, r1, r3, asl #24
	orr	r3, r3, ip, asl #16
	str	r3, [r2, #8]
	ldr	r1, [r0, #1020]
	ldrb	r4, [r0, #1005]	@ zero_extendqisi2
	ldrb	r3, [r0, #1053]	@ zero_extendqisi2
	and	r1, r1, #65280
	ldrb	ip, [r0, #1037]	@ zero_extendqisi2
	orr	r1, r4, r1
	orr	r3, r1, r3, asl #24
	orr	r3, r3, ip, asl #16
	str	r3, [r2, #12]
	ldr	ip, [r0, #1028]
	ldrb	r4, [lr, #614]	@ zero_extendqisi2
	ldrb	r3, [r0, #1046]	@ zero_extendqisi2
	and	ip, ip, #16711680
	ldrb	r1, [r0, #1014]	@ zero_extendqisi2
	orr	ip, r4, ip
	orr	r3, ip, r3, asl #24
	orr	r3, r3, r1, asl #8
	str	r3, [r2, #16]
	ldr	ip, [r0, #1036]
	ldrb	r4, [r0, #1006]	@ zero_extendqisi2
	ldrb	r3, [r0, #1054]	@ zero_extendqisi2
	and	ip, ip, #16711680
	ldrb	r1, [r0, #1022]	@ zero_extendqisi2
	orr	ip, r4, ip
	orr	r3, ip, r3, asl #24
	orr	r3, r3, r1, asl #8
	str	r3, [r2, #20]
	ldr	r1, [r0, #1044]
	ldrb	lr, [lr, #615]	@ zero_extendqisi2
	ldrb	r3, [r0, #1031]	@ zero_extendqisi2
	and	r1, r1, #-16777216
	ldrb	ip, [r0, #1015]	@ zero_extendqisi2
	orr	r1, lr, r1
	orr	r3, r1, r3, asl #16
	orr	r3, r3, ip, asl #8
	str	r3, [r2, #24]
	ldr	r1, [r0, #1052]
	ldrb	lr, [r0, #1007]	@ zero_extendqisi2
	ldrb	r3, [r0, #1039]	@ zero_extendqisi2
	and	r1, r1, #-16777216
	ldrb	ip, [r0, #1023]	@ zero_extendqisi2
	orr	r1, lr, r1
	orr	r3, r1, r3, asl #16
	orr	r3, r3, ip, asl #8
	str	r3, [r2, #28]
	ldr	r1, [r0, #1016]
	ldr	r3, [r0, #1048]
	ldrb	ip, [r0, #1000]	@ zero_extendqisi2
	ldrb	lr, [r0, #1032]	@ zero_extendqisi2
	mov	r1, r1, asl #8
	orr	r3, ip, r3, asl #24
	uxth	r1, r1
	orr	r3, r3, lr, asl #16
	orr	r3, r3, r1
	str	r3, [r2, #32]
	ldr	r1, [r0, #1024]
	ldr	r3, [r0, #1056]
	ldrb	ip, [r0, #1008]	@ zero_extendqisi2
	ldrb	lr, [r0, #1040]	@ zero_extendqisi2
	mov	r1, r1, asl #8
	orr	r3, ip, r3, asl #24
	uxth	r1, r1
	orr	r3, r3, lr, asl #16
	orr	r3, r3, r1
	str	r3, [r2, #36]
	ldr	r1, [r0, #1016]
	ldrb	lr, [r0, #1001]	@ zero_extendqisi2
	ldrb	r3, [r0, #1049]	@ zero_extendqisi2
	and	r1, r1, #65280
	ldrb	ip, [r0, #1033]	@ zero_extendqisi2
	orr	r1, lr, r1
	orr	r3, r1, r3, asl #24
	orr	r3, r3, ip, asl #16
	str	r3, [r2, #40]
	ldr	r1, [r0, #1024]
	ldrb	lr, [r0, #1009]	@ zero_extendqisi2
	ldrb	r3, [r0, #1057]	@ zero_extendqisi2
	and	r1, r1, #65280
	ldrb	ip, [r0, #1041]	@ zero_extendqisi2
	orr	r1, lr, r1
	orr	r3, r1, r3, asl #24
	orr	r3, r3, ip, asl #16
	str	r3, [r2, #44]
	ldr	r1, [r0, #1032]
	ldrb	lr, [r0, #1002]	@ zero_extendqisi2
	ldrb	r3, [r0, #1050]	@ zero_extendqisi2
	and	r1, r1, #16711680
	ldrb	ip, [r0, #1018]	@ zero_extendqisi2
	orr	r1, lr, r1
	orr	r3, r1, r3, asl #24
	orr	r3, r3, ip, asl #8
	str	r3, [r2, #48]
	ldrb	lr, [r0, #1010]	@ zero_extendqisi2
	ldr	r1, [r0, #1040]
	ldrb	r3, [r0, #1058]	@ zero_extendqisi2
	ldrb	ip, [r0, #1026]	@ zero_extendqisi2
	and	r1, r1, #16711680
	orr	r1, lr, r1
	orr	r3, r1, r3, asl #24
	orr	r3, r3, ip, asl #8
	str	r3, [r2, #52]
	ldr	r1, [r0, #1048]
	ldrb	lr, [r0, #1003]	@ zero_extendqisi2
	ldrb	r3, [r0, #1035]	@ zero_extendqisi2
	and	r1, r1, #-16777216
	ldrb	ip, [r0, #1019]	@ zero_extendqisi2
	orr	r1, lr, r1
	orr	r3, r1, r3, asl #16
	orr	r3, r3, ip, asl #8
	str	r3, [r2, #56]
	ldr	r1, [r0, #1056]
	ldrb	ip, [r0, #1011]	@ zero_extendqisi2
	ldrb	r3, [r0, #1043]	@ zero_extendqisi2
	and	r1, r1, #-16777216
	ldrb	r0, [r0, #1027]	@ zero_extendqisi2
	orr	r1, ip, r1
	orr	r3, r1, r3, asl #16
	orr	r3, r3, r0, asl #8
	str	r3, [r2, #60]
	ldmfd	sp, {r4, fp, sp, pc}
	UNWIND(.fnend)
	.size	HEVC_WriteQmatrix_8x8, .-HEVC_WriteQmatrix_8x8
	.align	2
	.global	HEVC_WriteQmatrix_16x16
	.type	HEVC_WriteQmatrix_16x16, %function
HEVC_WriteQmatrix_16x16:
	UNWIND(.fnstart)
	@ args = 0, pretend = 0, frame = 0
	@ frame_needed = 1, uses_anonymous_args = 0
	UNWIND(.movsp ip)
	mov	ip, sp
	stmfd	sp!, {r4, fp, ip, lr, pc}
	UNWIND(.pad #4)
	UNWIND(.save {r4, fp, ip, lr})
	UNWIND(.setfp fp, ip, #-4)
	sub	fp, ip, #4
	add	lr, r0, #12
	add	r0, r1, r0, lsl #6
	add	lr, r1, lr, lsl #6
	ldr	r1, [r0, #1388]
	ldr	r3, [r0, #1404]
	ldrb	ip, [lr, #612]	@ zero_extendqisi2
	ldrb	r4, [r0, #1396]	@ zero_extendqisi2
	mov	r1, r1, asl #8
	orr	r3, ip, r3, asl #24
	uxth	r1, r1
	orr	r3, r3, r4, asl #16
	orr	r3, r3, r1
	str	r3, [r2]
	ldr	r1, [r0, #1420]
	ldr	r3, [r0, #1436]
	ldrb	ip, [r0, #1412]	@ zero_extendqisi2
	ldrb	r4, [r0, #1428]	@ zero_extendqisi2
	mov	r1, r1, asl #8
	orr	r3, ip, r3, asl #24
	uxth	r1, r1
	orr	r3, r3, r4, asl #16
	orr	r3, r3, r1
	str	r3, [r2, #4]
	ldr	r1, [r0, #1388]
	ldrb	r4, [lr, #613]	@ zero_extendqisi2
	ldrb	r3, [r0, #1405]	@ zero_extendqisi2
	and	r1, r1, #65280
	ldrb	ip, [r0, #1397]	@ zero_extendqisi2
	orr	r1, r4, r1
	orr	r3, r1, r3, asl #24
	orr	r3, r3, ip, asl #16
	str	r3, [r2, #8]
	ldr	r1, [r0, #1420]
	ldrb	r4, [r0, #1413]	@ zero_extendqisi2
	ldrb	r3, [r0, #1437]	@ zero_extendqisi2
	and	r1, r1, #65280
	ldrb	ip, [r0, #1429]	@ zero_extendqisi2
	orr	r1, r4, r1
	orr	r3, r1, r3, asl #24
	orr	r3, r3, ip, asl #16
	str	r3, [r2, #12]
	ldr	ip, [r0, #1396]
	ldrb	r4, [lr, #614]	@ zero_extendqisi2
	ldrb	r3, [r0, #1406]	@ zero_extendqisi2
	and	ip, ip, #16711680
	ldrb	r1, [r0, #1390]	@ zero_extendqisi2
	orr	ip, r4, ip
	orr	r3, ip, r3, asl #24
	orr	r3, r3, r1, asl #8
	str	r3, [r2, #16]
	ldr	ip, [r0, #1428]
	ldrb	r4, [r0, #1414]	@ zero_extendqisi2
	ldrb	r3, [r0, #1438]	@ zero_extendqisi2
	and	ip, ip, #16711680
	ldrb	r1, [r0, #1422]	@ zero_extendqisi2
	orr	ip, r4, ip
	orr	r3, ip, r3, asl #24
	orr	r3, r3, r1, asl #8
	str	r3, [r2, #20]
	ldr	r1, [r0, #1404]
	ldrb	lr, [lr, #615]	@ zero_extendqisi2
	ldrb	r3, [r0, #1399]	@ zero_extendqisi2
	and	r1, r1, #-16777216
	ldrb	ip, [r0, #1391]	@ zero_extendqisi2
	orr	r1, lr, r1
	orr	r3, r1, r3, asl #16
	orr	r3, r3, ip, asl #8
	str	r3, [r2, #24]
	ldr	r1, [r0, #1436]
	ldrb	lr, [r0, #1415]	@ zero_extendqisi2
	ldrb	r3, [r0, #1431]	@ zero_extendqisi2
	and	r1, r1, #-16777216
	ldrb	ip, [r0, #1423]	@ zero_extendqisi2
	orr	r1, lr, r1
	orr	r3, r1, r3, asl #16
	orr	r3, r3, ip, asl #8
	str	r3, [r2, #28]
	ldr	r1, [r0, #1392]
	ldr	r3, [r0, #1408]
	ldrb	ip, [r0, #1384]	@ zero_extendqisi2
	ldrb	lr, [r0, #1400]	@ zero_extendqisi2
	mov	r1, r1, asl #8
	orr	r3, ip, r3, asl #24
	uxth	r1, r1
	orr	r3, r3, lr, asl #16
	orr	r3, r3, r1
	str	r3, [r2, #32]
	ldr	r1, [r0, #1424]
	ldr	r3, [r0, #1440]
	ldrb	ip, [r0, #1416]	@ zero_extendqisi2
	ldrb	lr, [r0, #1432]	@ zero_extendqisi2
	mov	r1, r1, asl #8
	orr	r3, ip, r3, asl #24
	uxth	r1, r1
	orr	r3, r3, lr, asl #16
	orr	r3, r3, r1
	str	r3, [r2, #36]
	ldr	r1, [r0, #1392]
	ldrb	lr, [r0, #1385]	@ zero_extendqisi2
	ldrb	r3, [r0, #1409]	@ zero_extendqisi2
	and	r1, r1, #65280
	ldrb	ip, [r0, #1401]	@ zero_extendqisi2
	orr	r1, lr, r1
	orr	r3, r1, r3, asl #24
	orr	r3, r3, ip, asl #16
	str	r3, [r2, #40]
	ldr	r1, [r0, #1424]
	ldrb	lr, [r0, #1417]	@ zero_extendqisi2
	ldrb	r3, [r0, #1441]	@ zero_extendqisi2
	and	r1, r1, #65280
	ldrb	ip, [r0, #1433]	@ zero_extendqisi2
	orr	r1, lr, r1
	orr	r3, r1, r3, asl #24
	orr	r3, r3, ip, asl #16
	str	r3, [r2, #44]
	ldr	r1, [r0, #1400]
	ldrb	lr, [r0, #1386]	@ zero_extendqisi2
	ldrb	r3, [r0, #1410]	@ zero_extendqisi2
	and	r1, r1, #16711680
	ldrb	ip, [r0, #1394]	@ zero_extendqisi2
	orr	r1, lr, r1
	orr	r3, r1, r3, asl #24
	orr	r3, r3, ip, asl #8
	str	r3, [r2, #48]
	ldrb	lr, [r0, #1418]	@ zero_extendqisi2
	ldr	r1, [r0, #1432]
	ldrb	r3, [r0, #1442]	@ zero_extendqisi2
	ldrb	ip, [r0, #1426]	@ zero_extendqisi2
	and	r1, r1, #16711680
	orr	r1, lr, r1
	orr	r3, r1, r3, asl #24
	orr	r3, r3, ip, asl #8
	str	r3, [r2, #52]
	ldr	r1, [r0, #1408]
	ldrb	lr, [r0, #1387]	@ zero_extendqisi2
	ldrb	r3, [r0, #1403]	@ zero_extendqisi2
	and	r1, r1, #-16777216
	ldrb	ip, [r0, #1395]	@ zero_extendqisi2
	orr	r1, lr, r1
	orr	r3, r1, r3, asl #16
	orr	r3, r3, ip, asl #8
	str	r3, [r2, #56]
	ldr	r1, [r0, #1440]
	ldrb	ip, [r0, #1419]	@ zero_extendqisi2
	ldrb	r3, [r0, #1435]	@ zero_extendqisi2
	and	r1, r1, #-16777216
	ldrb	r0, [r0, #1427]	@ zero_extendqisi2
	orr	r1, ip, r1
	orr	r3, r1, r3, asl #16
	orr	r3, r3, r0, asl #8
	str	r3, [r2, #60]
	ldmfd	sp, {r4, fp, sp, pc}
	UNWIND(.fnend)
	.size	HEVC_WriteQmatrix_16x16, .-HEVC_WriteQmatrix_16x16
	.global	__aeabi_idivmod
	.align	2
	.global	HEVC_CtbRsAddrToTsAddr
	.type	HEVC_CtbRsAddrToTsAddr, %function
HEVC_CtbRsAddrToTsAddr:
	UNWIND(.fnstart)
	@ args = 0, pretend = 0, frame = 200
	@ frame_needed = 1, uses_anonymous_args = 0
	UNWIND(.movsp ip)
	mov	ip, sp
	stmfd	sp!, {r4, r5, r6, r7, r8, r9, r10, fp, ip, lr, pc}
	UNWIND(.pad #4)
	UNWIND(.save {r4, r5, r6, r7, r8, r9, r10, fp, ip, lr})
	UNWIND(.setfp fp, ip, #-4)
	sub	fp, ip, #4
	UNWIND(.pad #204)
	sub	sp, sp, #204
	add	r0, r0, #24576
	mov	r6, r1
	ldr	ip, [r0, #2872]
	ldrb	r3, [ip, #13]	@ zero_extendqisi2
	cmp	r3, #0
	beq	.L467
	ldr	r3, [ip, #72]
	ldr	r7, [ip, #68]
	ldrb	r4, [ip, #15]	@ zero_extendqisi2
	mov	r2, r3
	str	r3, [fp, #-236]
	ldr	r3, [r0, #2868]
	cmp	r2, #0
	sub	r8, r2, #1
	sub	r2, r7, #1
	str	r2, [fp, #-240]
	ldr	r5, [r3, #72]
	ldr	r1, [r3, #148]
	ble	.L438
	ldr	r3, [fp, #-236]
	add	r2, ip, #214
	sub	r0, fp, #216
	add	lr, r3, #107
	add	lr, ip, lr, lsl #1
.L437:
	ldrsh	r3, [r2, #2]!
	cmp	r2, lr
	sub	r3, r3, #1
	str	r3, [r0, #4]!
	bne	.L437
.L438:
	cmp	r7, #0
	ble	.L436
	add	r3, r7, #87
	add	r2, ip, #174
	sub	r0, fp, #128
	add	ip, ip, r3, lsl #1
.L441:
	ldrsh	r3, [r2, #2]!
	cmp	r2, ip
	sub	r3, r3, #1
	str	r3, [r0, #4]!
	bne	.L441
.L436:
	mov	r10, #1
	mov	r0, r5
	mov	r10, r10, asl r1
	mov	r1, r10
	bl	__aeabi_idiv
	mov	r1, r10
	mov	r9, r0
	mov	r0, r5
	bl	__aeabi_idivmod
	mov	r0, r6
	cmp	r1, #0
	addne	r9, r9, #1
	mov	r1, r9
	bl	__aeabi_idivmod
	mov	r0, r6
	mov	r5, r1
	mov	r1, r9
	bl	__aeabi_idiv
	cmp	r4, #0
	beq	.L479
	cmp	r8, #0
	mov	r3, #0
	blt	.L458
	sub	r10, fp, #212
	mov	r4, r3
	mov	r6, r3
	mov	r8, r3
	str	r3, [fp, #-232]
	str	r3, [fp, #-244]
.L444:
	ldr	r2, [fp, #-240]
	cmp	r2, #0
	blt	.L461
	ldr	r8, [r10]
	mov	r2, #0
	ldr	r3, [fp, #-232]
	mov	r1, r2
	add	r8, r8, #1
	sub	lr, fp, #128
	mov	r6, r4
	add	r9, r3, r8
	b	.L447
.L459:
	mov	r6, r4
.L447:
	ldr	r3, [lr, #4]!
	add	r1, r1, #1
	add	r3, r3, #1
	add	ip, r2, r3
	cmp	r5, ip
	mla	r4, r8, r3, r4
	bge	.L445
	cmp	r0, r9
	blt	.L477
.L445:
	cmp	r1, r7
	mov	r2, ip
	bne	.L459
.L450:
	add	r2, ip, r3
	cmp	r5, r2
	bge	.L460
	cmp	r0, r9
	blt	.L480
.L460:
	ldr	r2, [fp, #-244]
	add	r10, r10, #4
	ldr	r1, [fp, #-236]
	add	r2, r2, #1
	str	r9, [fp, #-232]
	cmp	r2, r1
	str	r2, [fp, #-244]
	bne	.L444
	rsb	r0, r9, r0
	mov	r2, ip
	rsb	r2, r2, r5
	mul	r3, r0, r3
	add	r3, r2, r3
	add	r6, r3, r6
.L467:
	mov	r0, r6
	sub	sp, fp, #40
	ldmfd	sp, {r4, r5, r6, r7, r8, r9, r10, fp, sp, pc}
.L479:
	cmp	r8, #0
	mov	r3, r4
	blt	.L458
	sub	r10, fp, #212
	mov	lr, r4
	mov	r6, r4
	mov	r8, r4
	str	r4, [fp, #-232]
	str	r4, [fp, #-244]
.L443:
	ldr	r2, [fp, #-240]
	cmp	r2, #0
	blt	.L464
	ldr	r8, [r10]
	mov	r2, #0
	ldr	r3, [fp, #-232]
	mov	ip, r2
	add	r8, r8, #1
	sub	r4, fp, #128
	mov	r6, lr
	add	r9, r3, r8
	b	.L453
.L462:
	mov	r6, lr
.L453:
	ldr	r3, [r4, #4]!
	add	ip, ip, #1
	add	r3, r3, #1
	add	r1, r2, r3
	cmp	r5, r1
	mla	lr, r8, r3, lr
	bge	.L451
	cmp	r0, r9
	blt	.L452
.L451:
	cmp	ip, r7
	mov	r2, r1
	bne	.L462
.L456:
	add	r2, r1, r3
	cmp	r5, r2
	bge	.L476
	cmp	r0, r9
	blt	.L481
.L476:
	ldr	r2, [fp, #-244]
	add	r10, r10, #4
	ldr	ip, [fp, #-236]
	add	r2, r2, #1
	str	r9, [fp, #-232]
	cmp	r2, ip
	str	r2, [fp, #-244]
	bne	.L443
	rsb	r0, r9, r0
	mov	r2, r1
	mul	r3, r0, r3
	b	.L442
.L477:
	ldr	r1, [fp, #-232]
	rsb	r0, r1, r0
	mul	r3, r0, r3
.L442:
	rsb	r2, r2, r5
	add	r3, r2, r3
	add	r6, r3, r6
	mov	r0, r6
	sub	sp, fp, #40
	ldmfd	sp, {r4, r5, r6, r7, r8, r9, r10, fp, sp, pc}
.L452:
	cmp	r1, r5
	bgt	.L477
	mov	r1, r2
	b	.L476
.L461:
	ldr	r2, [fp, #-232]
	mov	ip, #0
	add	r9, r2, r8
	b	.L450
.L464:
	ldr	r2, [fp, #-232]
	mov	r1, #0
	add	r9, r2, r8
	b	.L456
.L480:
	ldr	r2, [fp, #-232]
	rsb	r0, r2, r0
	mov	r2, ip
	mul	r3, r0, r3
	b	.L442
.L481:
	ldr	r2, [fp, #-232]
	rsb	r0, r2, r0
	mov	r2, r1
	mul	r3, r0, r3
	b	.L442
.L458:
	mov	r2, r3
	mov	r6, r3
	b	.L442
	UNWIND(.fnend)
	.size	HEVC_CtbRsAddrToTsAddr, .-HEVC_CtbRsAddrToTsAddr
	.align	2
	.global	HEVC_CtbTsAddrToRsAddr
	.type	HEVC_CtbTsAddrToRsAddr, %function
HEVC_CtbTsAddrToRsAddr:
	UNWIND(.fnstart)
	@ args = 0, pretend = 0, frame = 200
	@ frame_needed = 1, uses_anonymous_args = 0
	UNWIND(.movsp ip)
	mov	ip, sp
	stmfd	sp!, {r4, r5, r6, r7, r8, r9, r10, fp, ip, lr, pc}
	UNWIND(.pad #4)
	UNWIND(.save {r4, r5, r6, r7, r8, r9, r10, fp, ip, lr})
	UNWIND(.setfp fp, ip, #-4)
	sub	fp, ip, #4
	UNWIND(.pad #204)
	sub	sp, sp, #204
	add	r0, r0, #24576
	mov	r7, r1
	ldr	lr, [r0, #2872]
	ldrb	r3, [lr, #13]	@ zero_extendqisi2
	cmp	r3, #0
	moveq	r0, r1
	beq	.L506
	ldr	r3, [lr, #72]
	ldr	r8, [lr, #68]
	mov	r2, r3
	str	r3, [fp, #-232]
	ldr	r3, [r0, #2868]
	cmp	r2, #0
	ldr	r4, [r3, #72]
	ldr	ip, [r3, #148]
	ble	.L488
	ldr	r3, [fp, #-232]
	add	r2, lr, #214
	sub	r1, fp, #216
	add	r0, r3, #107
	add	r0, lr, r0, lsl #1
.L487:
	ldrsh	r3, [r2, #2]!
	cmp	r2, r0
	sub	r3, r3, #1
	str	r3, [r1, #4]!
	bne	.L487
.L488:
	cmp	r8, #0
	ble	.L486
	add	r0, r8, #87
	add	r2, lr, #174
	sub	r1, fp, #128
	add	r0, lr, r0, lsl #1
.L491:
	ldrsh	r3, [r2, #2]!
	cmp	r2, r0
	sub	r3, r3, #1
	str	r3, [r1, #4]!
	bne	.L491
.L486:
	mov	r5, #1
	mov	r0, r4
	mov	r5, r5, asl ip
	mov	r1, r5
	bl	__aeabi_idiv
	mov	r1, r5
	mov	r6, r0
	mov	r0, r4
	bl	__aeabi_idivmod
	ldr	r3, [fp, #-232]
	cmp	r1, #0
	addne	r6, r6, #1
	cmp	r3, #0
	str	r6, [fp, #-240]
	ble	.L490
	mov	r9, #0
	ldr	r2, [fp, #-124]
	sub	r0, fp, #212
	mov	r10, r9
	mov	r3, r9
	mov	r1, r9
	mov	r6, r9
	mov	r4, r9
	add	r2, r2, #1
	str	r2, [fp, #-236]
.L492:
	cmp	r8, #0
	ble	.L502
	ldr	r6, [r0]
	ldr	r4, [fp, #-236]
	add	r6, r6, #1
	mla	ip, r6, r4, r3
	cmp	r7, ip
	blt	.L503
	mov	r5, #0
	mov	r1, r3
	mov	r2, r5
	mov	r3, ip
	sub	lr, fp, #124
	b	.L497
.L494:
	ldr	r4, [lr, #4]!
	mov	r1, r3
	add	r4, r4, #1
	mla	ip, r6, r4, r3
	cmp	ip, r7
	bgt	.L495
	mov	r3, ip
.L497:
	add	r2, r2, #1
	add	r5, r5, r4
	cmp	r2, r8
	bne	.L494
.L496:
	cmp	r3, r7
	bgt	.L501
	ldr	r2, [fp, #-232]
	add	r10, r10, #1
	add	r9, r9, r6
	add	r0, r0, #4
	cmp	r10, r2
	bne	.L492
.L501:
	mov	r3, r1
.L495:
	cmp	r4, #0
	beq	.L490
	rsb	r7, r3, r7
	mov	r1, r4
	mov	r0, r7
	bl	__aeabi_idiv
	ldr	r3, [fp, #-240]
	mov	r1, r4
	add	r4, r0, r9
	mov	r0, r7
	mul	r4, r4, r3
	bl	__aeabi_idivmod
	add	r1, r1, r5
	add	r0, r4, r1
.L506:
	sub	sp, fp, #40
	ldmfd	sp, {r4, r5, r6, r7, r8, r9, r10, fp, sp, pc}
.L502:
	mov	r5, #0
	b	.L496
.L503:
	ldr	r4, [fp, #-236]
	mov	r5, #0
	b	.L495
.L490:
	ldr	r1, .L508
	mov	r0, #1
	bl	dprint_vfmw
	mvn	r0, #0
	b	.L506
.L509:
	.align	2
.L508:
	.word	.LC59
	UNWIND(.fnend)
	.size	HEVC_CtbTsAddrToRsAddr, .-HEVC_CtbTsAddrToRsAddr
	.align	2
	.global	HEVC_CalcTileMap
	.type	HEVC_CalcTileMap, %function
HEVC_CalcTileMap:
	UNWIND(.fnstart)
	@ args = 0, pretend = 0, frame = 40
	@ frame_needed = 1, uses_anonymous_args = 0
	UNWIND(.movsp ip)
	mov	ip, sp
	stmfd	sp!, {r4, r5, r6, r7, r8, r9, r10, fp, ip, lr, pc}
	UNWIND(.pad #4)
	UNWIND(.save {r4, r5, r6, r7, r8, r9, r10, fp, ip, lr})
	UNWIND(.setfp fp, ip, #-4)
	sub	fp, ip, #4
	UNWIND(.pad #44)
	sub	sp, sp, #44
	ldr	r4, .L533
	mov	r5, r0
	str	r0, [fp, #-60]
	mov	r2, #147456
	mov	r1, #0
	ldr	r3, [r4, #48]
	add	r10, r5, #24576
	ldr	r0, .L533+4
	blx	r3
	ldr	r3, [r4, #48]
	mov	r2, #36864
	mov	r1, #0
	ldr	r0, .L533+8
	blx	r3
	add	r0, r5, #64768
	ldr	r3, [r4, #48]
	mov	r2, #880
	mov	r1, #0
	add	r0, r0, #148
	blx	r3
	add	r2, r5, #61440
	mov	r3, #0
	str	r2, [fp, #-56]
	str	r3, [r2, #3472]
	ldr	r9, [r10, #2872]
	ldr	r1, [r10, #2868]
	ldr	r2, [r9, #72]
	ldr	r8, [r1, #240]
	cmp	r2, r3
	strne	r3, [fp, #-72]
	strne	r3, [fp, #-76]
	beq	.L510
.L518:
	ldr	r2, [r9, #68]
	cmp	r2, #0
	ldr	r2, [fp, #-72]
	add	r2, r2, #108
	streq	r2, [fp, #-80]
	beq	.L519
	mov	r1, r2
	str	r2, [fp, #-80]
	mov	r7, r1, asl #1
	ldr	r1, [fp, #-76]
	mov	r2, #0
	str	r2, [fp, #-48]
	str	r2, [fp, #-52]
	mul	r1, r8, r1
	ldr	r2, [fp, #-56]
	ldr	r2, [r2, #3472]
	str	r1, [fp, #-68]
.L517:
	add	r1, r2, #8064
	ldr	r0, [fp, #-60]
	add	r1, r1, #50
	add	r1, r0, r1, lsl #3
	str	r3, [r1, #4]
	ldrsh	r1, [r9, r7]
	cmp	r1, #0
	ldreq	r1, [fp, #-48]
	addeq	r1, r1, #88
	streq	r1, [fp, #-64]
	beq	.L513
	ldr	r2, [fp, #-48]
	mov	r5, #0
	ldr	r1, [fp, #-52]
	add	r2, r2, #88
	ldr	r0, [fp, #-68]
	str	r2, [fp, #-64]
	add	r6, r1, r0
	mov	ip, r2, asl #1
.L514:
	ldrsh	r2, [r9, ip]
	cmp	r2, #0
	beq	.L516
	ldr	r2, .L533+4
	rsb	lr, r3, r6
	mov	r4, r3
	add	r2, r2, r3, lsl #2
.L515:
	add	r1, lr, r3
	str	r1, [r2], #4
	ldr	r9, [r10, #2872]
	add	r3, r3, #1
	rsb	r1, r4, r3
	ldrsh	r0, [r9, ip]
	cmp	r0, r1
	bhi	.L515
.L516:
	ldrsh	r2, [r9, r7]
	add	r5, r5, #1
	add	r6, r6, r8
	cmp	r2, r5
	bhi	.L514
	ldr	r2, [fp, #-56]
	ldr	r2, [r2, #3472]
.L513:
	ldr	r1, [fp, #-60]
	sub	ip, r3, #1
	ldr	r0, [fp, #-64]
	add	r1, r1, r2, lsl #3
	ldr	lr, [fp, #-48]
	add	r1, r1, #64768
	add	r2, r2, #1
	mov	r0, r0, asl #1
	add	lr, lr, #1
	str	ip, [r1, #152]
	ldr	r1, [fp, #-56]
	str	lr, [fp, #-48]
	str	r2, [r1, #3472]
	ldr	r1, [r9, #68]
	ldrsh	r0, [r9, r0]
	cmp	r1, lr
	ldr	r1, [fp, #-52]
	add	r1, r1, r0
	str	r1, [fp, #-52]
	bhi	.L517
.L519:
	ldr	r2, [fp, #-80]
	ldr	r0, [fp, #-72]
	ldr	r1, [r9, #72]
	mov	r2, r2, asl #1
	add	r0, r0, #1
	cmp	r1, r0
	ldr	r1, [fp, #-76]
	ldrsh	r2, [r9, r2]
	str	r0, [fp, #-72]
	add	r2, r1, r2
	str	r2, [fp, #-76]
	bhi	.L518
.L510:
	sub	sp, fp, #40
	ldmfd	sp, {r4, r5, r6, r7, r8, r9, r10, fp, sp, pc}
.L534:
	.align	2
.L533:
	.word	vfmw_Osal_Func_Ptr_S
	.word	.LANCHOR2+448
	.word	.LANCHOR3+592
	UNWIND(.fnend)
	.size	HEVC_CalcTileMap, .-HEVC_CalcTileMap
	.align	2
	.global	HEVC_WritePicMsg
	.type	HEVC_WritePicMsg, %function
HEVC_WritePicMsg:
	UNWIND(.fnstart)
	@ args = 0, pretend = 0, frame = 0
	@ frame_needed = 1, uses_anonymous_args = 0
	UNWIND(.movsp ip)
	mov	ip, sp
	stmfd	sp!, {r4, r5, r6, r7, r8, r9, fp, ip, lr, pc}
	UNWIND(.pad #4)
	UNWIND(.save {r4, r5, r6, r7, r8, r9, fp, ip, lr})
	UNWIND(.setfp fp, ip, #-4)
	sub	fp, ip, #4
	add	r7, r0, #53248
	mov	r5, r0
	ldr	r1, .L558
	mov	r0, #2
	ldr	r3, [r7, #404]
	add	r4, r5, #61440
	ldr	r2, [r7, #580]
	add	r8, r5, #24576
	bl	dprint_vfmw
	ldr	r1, .L558+4
	mov	r0, #4
	ldr	r6, .L558+8
	bl	dprint_vfmw
	ldr	r3, [r7, #564]
	add	ip, r5, #65536
	mov	lr, #0
	add	r1, r5, #2960
	add	r0, r5, #62208
	str	r3, [r4, #1964]
	add	r1, r1, #8
	ldr	r3, [r7, #468]
	mov	r2, #64
	ldr	r9, [r7, #472]
	add	r0, r0, #28
	rsb	r9, r3, r9
	str	r9, [r4, #1968]
	ldr	r9, [r7, #580]
	str	r9, [r4, #1956]
	ldr	r9, [r7, #404]
	str	r9, [r4, #1960]
	ldr	r9, [r7, #568]
	str	r9, [r4, #1972]
	ldr	r9, [r7, #572]
	str	r9, [r4, #1976]
	ldr	r9, [r7, #576]
	str	r9, [r4, #1980]
	ldr	r9, [r7, #492]
	rsb	r3, r3, r9
	str	r3, [r4, #1984]
	ldr	r3, [r7, #496]
	rsb	r3, r9, r3
	str	r3, [r4, #1988]
	str	lr, [r5, #208]
	ldr	r3, [ip, #1872]
	str	r3, [r4, #3244]
	ldr	r3, [r8, #2868]
	ldrb	ip, [r3, #12]	@ zero_extendqisi2
	strb	ip, [r4, #676]
	ldrb	ip, [r3, #5]	@ zero_extendqisi2
	strb	ip, [r4, #677]
	ldrb	ip, [r3, #9]	@ zero_extendqisi2
	strb	ip, [r4, #678]
	ldrb	ip, [r3, #8]	@ zero_extendqisi2
	strb	ip, [r4, #679]
	ldrb	ip, [r3, #7]	@ zero_extendqisi2
	strb	ip, [r4, #680]
	ldr	ip, [r3, #64]
	str	ip, [r4, #684]
	ldr	ip, [r3, #116]
	strb	ip, [r4, #688]
	ldr	ip, [r3, #244]
	sub	ip, ip, #1
	str	ip, [r4, #692]
	ldr	ip, [r3, #240]
	sub	ip, ip, #1
	str	ip, [r4, #696]
	ldr	ip, [r7, #376]
	str	ip, [r4, #700]
	ldr	ip, [r8, #2872]
	ldr	lr, [ip, #84]
	sub	lr, lr, #2
	str	lr, [r4, #704]
	ldrb	lr, [ip, #11]	@ zero_extendqisi2
	strb	lr, [r4, #708]
	ldrb	ip, [ip, #10]	@ zero_extendqisi2
	strb	ip, [r4, #709]
	ldr	ip, [r3, #200]
	str	ip, [r4, #712]
	ldr	ip, [r3, #208]
	str	ip, [r4, #716]
	ldr	ip, [r3, #188]
	str	ip, [r4, #720]
	ldr	ip, [r3, #196]
	str	ip, [r4, #724]
	ldr	ip, [r3, #172]
	str	ip, [r4, #728]
	ldr	ip, [r3, #180]
	str	ip, [r4, #732]
	ldr	ip, [r3, #216]
	str	ip, [r4, #736]
	ldr	ip, [r3, #140]
	str	ip, [r4, #740]
	ldr	lr, [r3, #148]
	ldr	ip, [r6, #52]
	str	lr, [r4, #744]
	ldr	lr, [r3, #112]
	str	lr, [r4, #748]
	ldr	lr, [r3, #104]
	str	lr, [r4, #752]
	ldr	lr, [r3, #124]
	str	lr, [r4, #756]
	ldr	lr, [r3, #120]
	str	lr, [r4, #760]
	ldr	lr, [r3, #108]
	str	lr, [r4, #764]
	ldr	r3, [r3, #100]
	str	r3, [r4, #768]
	blx	ip
	ldr	ip, [r8, #2868]
	add	r3, r5, #64512
	add	r2, r5, #64256
	add	r1, r5, #63744
	add	r3, r3, #12
	ldr	lr, [ip, #76]
	add	r2, r2, #188
	add	r1, r1, #188
	mov	r0, r5
	str	lr, [r4, #860]
	ldr	ip, [ip, #72]
	str	ip, [r4, #864]
	bl	HEVC_CalcTileInfo
	subs	r6, r0, #0
	bne	.L556
	ldr	r3, [r8, #2872]
	ldrb	r2, [r3, #16]	@ zero_extendqisi2
	strb	r2, [r4, #888]
	ldrb	r2, [r3, #7]	@ zero_extendqisi2
	strb	r2, [r4, #889]
	ldrb	r2, [r3, #3]	@ zero_extendqisi2
	strb	r2, [r4, #890]
	ldrb	r2, [r3, #14]	@ zero_extendqisi2
	strb	r2, [r4, #891]
	ldrb	r2, [r3, #15]	@ zero_extendqisi2
	strb	r2, [r4, #892]
	ldrb	r2, [r3, #13]	@ zero_extendqisi2
	strb	r2, [r4, #893]
	ldr	r2, [r8, #2868]
	ldr	r1, [r3, #56]
	ldr	r2, [r2, #148]
	rsb	r2, r1, r2
	str	r2, [r3, #88]
	ldr	r3, [r8, #2872]
	ldr	r2, [r3, #88]
	str	r2, [r4, #896]
	ldr	r2, [r3, #52]
	str	r2, [r4, #900]
	ldrb	r2, [r3, #8]	@ zero_extendqisi2
	strb	r2, [r4, #904]
	ldrb	r2, [r3, #12]	@ zero_extendqisi2
	strb	r2, [r4, #905]
	ldrb	r2, [r3, #6]	@ zero_extendqisi2
	strb	r2, [r4, #906]
	ldr	r2, [r3, #60]
	str	r2, [r4, #908]
	ldr	r2, [r3, #64]
	str	r2, [r4, #912]
	ldr	r2, [r3, #72]
	sub	r2, r2, #1
	str	r2, [r4, #916]
	ldr	r2, [r3, #68]
	sub	r2, r2, #1
	str	r2, [r4, #920]
	ldrb	r2, [r3, #10]	@ zero_extendqisi2
	strb	r2, [r4, #709]
	ldrb	r3, [r3, #11]	@ zero_extendqisi2
	strb	r3, [r4, #708]
	ldr	r3, [r5, #220]
	str	r6, [r5, #236]
	cmp	r3, #1
	beq	.L547
	ldr	r3, [r7, #420]
	ldr	r0, [r5, #276]
	ldr	r1, [r3, #32]
	bl	FSP_GetLogicFs
	subs	r8, r0, #0
	beq	.L557
	ldr	r2, [r8, #640]
	ldr	r3, [r8, #644]
	cmp	r2, #0
	beq	.L540
	cmp	r3, #0
	beq	.L540
	add	r3, r5, #63488
	add	r2, r5, #63232
	add	r2, r2, #220
	ldr	r0, [r5, #276]
	mov	r1, r3
	add	r3, r3, #184
	add	r1, r1, #92
	bl	FSP_GetDecFsAddrTab
	ldr	r3, [r8, #640]
	add	r2, r5, #63488
	ldr	r3, [r3, #8]
	mov	r1, r2
	add	r2, r2, #96
	add	r1, r1, #176
	str	r3, [r4, #1956]
	ldr	r0, [r5, #276]
	bl	FSP_GetPmvAddrTab
	ldr	r3, [r7, #404]
	str	r3, [r4, #1960]
	ldr	r3, [r8, #656]
	str	r3, [r4, #2228]
	ldr	r3, [r8, #644]
	ldr	r3, [r3, #16]
	str	r3, [r4, #3464]
	ldr	r3, [r8, #644]
	ldr	r3, [r3, #76]
	str	r3, [r4, #3468]
	ldr	ip, [r5, #2832]
	cmp	ip, #0
	str	ip, [r4, #3236]
	beq	.L542
	add	r2, r5, #2896
	add	r3, r5, #64512
	add	r2, r2, #4
	add	r3, r3, #96
	mov	r0, r6
.L543:
	add	r0, r0, #1
	ldr	r1, [r2, #4]!
	cmp	r0, ip
	str	r1, [r3, #4]!
	bne	.L543
.L542:
	add	r8, r5, #62208
	mov	r6, #0
	add	r8, r8, #160
.L544:
	mov	r2, r8
	mov	r0, r6
	mov	r1, r5
	add	r6, r6, #1
	bl	HEVC_WriteQmatrix_8x8
	cmp	r6, #4
	add	r8, r8, #64
	bne	.L544
	add	r2, r5, #62464
	mov	r0, r6
	add	r2, r2, #160
	mov	r1, r5
	bl	HEVC_WriteQmatrix_8x8
	add	r2, r5, #62464
	add	r2, r2, #224
	mov	r1, r5
	mov	r0, #5
	add	r8, r5, #62720
	bl	HEVC_WriteQmatrix_8x8
	add	r2, r8, #32
	mov	r1, r5
	mov	r0, #0
	bl	HEVC_WriteQmatrix_16x16
	add	r2, r5, #62720
	add	r2, r2, #96
	mov	r1, r5
	mov	r0, #1
	add	r8, r8, #160
	mov	r6, #2
	bl	HEVC_WriteQmatrix_16x16
.L545:
	mov	r2, r8
	mov	r0, r6
	mov	r1, r5
	add	r6, r6, #1
	bl	HEVC_WriteQmatrix_16x16
	cmp	r6, #6
	add	r8, r8, #64
	bne	.L545
	add	r2, r5, #62976
	mov	r1, r5
	add	r2, r2, #160
	mov	r0, #0
	bl	HEVC_WriteQmatrix_32x32
	add	r2, r5, #62976
	add	r2, r2, #224
	mov	r1, r5
	mov	r0, #1
	add	r8, r5, #63232
	bl	HEVC_WriteQmatrix_32x32
	add	r8, r8, #32
	mov	r6, #0
.L546:
	mov	r2, r8
	mov	r0, r6
	mov	r1, r5
	add	r6, r6, #1
	bl	HEVC_WriteQmatrix_4x4
	cmp	r6, #6
	add	r8, r8, #16
	bne	.L546
	ldr	r1, [r5, #2300]
	mov	r0, #0
	ldr	r3, [r5, #2304]
	ldr	r2, [r5, #2292]
	ldr	ip, [r5, #2296]
	mov	r1, r1, asl #16
	orr	r3, r1, r3, asl #24
	orr	r3, r3, r2
	orr	r3, r3, ip, asl #8
	str	r3, [r4, #1920]
	ldr	r1, [r5, #2316]
	ldr	r3, [r5, #2320]
	ldr	r2, [r5, #2308]
	ldr	ip, [r5, #2312]
	mov	r1, r1, asl #16
	orr	r3, r1, r3, asl #24
	orr	r3, r3, r2
	orr	r3, r3, ip, asl #8
	str	r3, [r4, #1924]
	ldr	r3, [r7, #404]
	str	r3, [r4, #1952]
	ldmfd	sp, {r4, r5, r6, r7, r8, r9, fp, sp, pc}
.L547:
	mov	r0, r6
	ldmfd	sp, {r4, r5, r6, r7, r8, r9, fp, sp, pc}
.L556:
	ldr	r2, .L558+12
	mov	r0, #1
	ldr	r1, .L558+16
	bl	dprint_vfmw
	mvn	r0, #0
	ldmfd	sp, {r4, r5, r6, r7, r8, r9, fp, sp, pc}
.L540:
	ldr	r1, .L558+20
	mov	r0, #1
	bl	dprint_vfmw
	mvn	r0, #0
	ldmfd	sp, {r4, r5, r6, r7, r8, r9, fp, sp, pc}
.L557:
	ldr	r3, [r7, #420]
	mov	r0, #1
	ldr	r1, .L558+24
	ldr	r2, [r3, #32]
	bl	dprint_vfmw
	mvn	r0, #0
	ldmfd	sp, {r4, r5, r6, r7, r8, r9, fp, sp, pc}
.L559:
	.align	2
.L558:
	.word	.LC60
	.word	.LC61
	.word	vfmw_Osal_Func_Ptr_S
	.word	.LANCHOR1+280
	.word	.LC62
	.word	.LC64
	.word	.LC63
	UNWIND(.fnend)
	.size	HEVC_WritePicMsg, .-HEVC_WritePicMsg
	.align	2
	.global	HEVC_CheckListX
	.type	HEVC_CheckListX, %function
HEVC_CheckListX:
	UNWIND(.fnstart)
	@ args = 0, pretend = 0, frame = 0
	@ frame_needed = 1, uses_anonymous_args = 0
	UNWIND(.movsp ip)
	mov	ip, sp
	stmfd	sp!, {fp, ip, lr, pc}
	UNWIND(.pad #4)
	UNWIND(.save {fp, ip, lr})
	UNWIND(.setfp fp, ip, #-4)
	sub	fp, ip, #4
	add	r3, r0, #53248
	ldrb	r3, [r3, #1051]	@ zero_extendqisi2
	cmp	r3, #0
	addeq	r3, r0, #54272
	addeq	r3, r3, #24
	beq	.L562
	ldrsb	r3, [r0, #9]
	cmp	r3, #0
	addne	r3, r0, #57856
	addne	r3, r3, #172
	beq	.L595
.L562:
	ldr	ip, [r3, #160]
	ldr	lr, [r3, #164]
	cmp	ip, #16
	bhi	.L596
	cmp	lr, #16
	bhi	.L566
	cmp	ip, #0
	beq	.L567
	ldr	r3, [r0, #2368]
	cmp	r3, #0
	beq	.L580
	ldr	r3, [r3, #32]
	cmp	r3, #0
	addne	r1, r0, #2368
	movne	r2, #0
	bne	.L572
	b	.L597
.L573:
	ldr	r3, [r1, #4]!
	cmp	r3, #0
	beq	.L568
	ldr	r3, [r3, #32]
	cmp	r3, #0
	beq	.L569
.L572:
	add	r2, r2, #1
	cmp	r2, ip
	bne	.L573
.L567:
	cmp	lr, #0
	beq	.L592
	ldr	r3, [r0, #2436]
	cmp	r3, #0
	beq	.L583
	ldr	r3, [r3, #32]
	cmp	r3, #0
	addne	r0, r0, #2432
	movne	r2, #0
	addne	r0, r0, #4
	bne	.L578
	b	.L598
.L579:
	ldr	r3, [r0, #4]!
	cmp	r3, #0
	beq	.L574
	ldr	r3, [r3, #32]
	cmp	r3, #0
	beq	.L575
.L578:
	add	r2, r2, #1
	cmp	r2, lr
	bne	.L579
.L592:
	mov	r0, #0
	ldmfd	sp, {fp, sp, pc}
.L580:
	mov	r2, r3
.L568:
	ldr	r1, .L599
	mov	r0, #0
	bl	dprint_vfmw
	mvn	r0, #0
	ldmfd	sp, {fp, sp, pc}
.L597:
	mov	r2, r3
.L569:
	ldr	r1, .L599+4
	mov	r0, #0
	bl	dprint_vfmw
	mvn	r0, #0
	ldmfd	sp, {fp, sp, pc}
.L583:
	mov	r2, r3
.L574:
	ldr	r1, .L599+8
	mov	r0, #0
	bl	dprint_vfmw
	mvn	r0, #0
	ldmfd	sp, {fp, sp, pc}
.L598:
	mov	r2, r3
.L575:
	ldr	r1, .L599+12
	mov	r0, #0
	bl	dprint_vfmw
	mvn	r0, #0
	ldmfd	sp, {fp, sp, pc}
.L595:
	mov	r0, r3
	ldr	r2, .L599+16
	ldr	r1, .L599+20
	bl	dprint_vfmw
	mvn	r0, #0
	ldmfd	sp, {fp, sp, pc}
.L566:
	mov	r2, lr
	mov	r3, #17
	ldr	r1, .L599+24
	mov	r0, #0
	bl	dprint_vfmw
	mvn	r0, #0
	ldmfd	sp, {fp, sp, pc}
.L596:
	mov	r2, ip
	mov	r3, #17
	ldr	r1, .L599+28
	mov	r0, #0
	bl	dprint_vfmw
	mvn	r0, #0
	ldmfd	sp, {fp, sp, pc}
.L600:
	.align	2
.L599:
	.word	.LC68
	.word	.LC69
	.word	.LC70
	.word	.LC71
	.word	.LANCHOR1+300
	.word	.LC65
	.word	.LC67
	.word	.LC66
	UNWIND(.fnend)
	.size	HEVC_CheckListX, .-HEVC_CheckListX
	.align	2
	.global	HEVC_WriteSliceMsg
	.type	HEVC_WriteSliceMsg, %function
HEVC_WriteSliceMsg:
	UNWIND(.fnstart)
	@ args = 0, pretend = 0, frame = 72
	@ frame_needed = 1, uses_anonymous_args = 0
	UNWIND(.movsp ip)
	mov	ip, sp
	stmfd	sp!, {r4, r5, r6, r7, r8, r9, r10, fp, ip, lr, pc}
	UNWIND(.pad #4)
	UNWIND(.save {r4, r5, r6, r7, r8, r9, r10, fp, ip, lr})
	UNWIND(.setfp fp, ip, #-4)
	sub	fp, ip, #4
	UNWIND(.pad #76)
	sub	sp, sp, #76
	mov	r4, r0
	bl	HEVC_CheckListX
	subs	r3, r0, #0
	str	r3, [fp, #-112]
	bne	.L640
	ldr	r0, [r4, #208]
	ldr	r3, [r4, #144]
	cmp	r0, r3
	bcs	.L676
	add	r9, r4, #65536
	mov	r5, #1360
	ldr	r7, [fp, #-112]
	mov	r2, r5
	ldr	r6, [r9, #1872]
	add	r8, r4, #53248
	ldr	r3, .L680
	mov	r1, r7
	mla	r6, r5, r0, r6
	ldr	r3, [r3, #48]
	mov	r0, r6
	blx	r3
	ldr	r3, .L680
	mov	r2, #64
	mov	r1, r7
	sub	r0, fp, #108
	ldr	r3, [r3, #48]
	blx	r3
	ldr	r3, [r4, #208]
	ldr	r2, [r4, #144]
	add	r3, r3, #1
	str	r3, [r4, #208]
	cmp	r3, r2
	ldrcc	r2, [r9, #1872]
	ldrcs	r3, [fp, #-112]
	mlacc	r3, r5, r3, r2
	str	r3, [r6, #1356]
	ldr	r3, [r4, #248]
	ldr	r0, [r8, #1124]
	add	r1, r3, #16640
	add	r2, r3, #1
	add	r1, r1, #214
	str	r0, [r4, r1, asl #2]
	ldr	r3, [r4, #172]
	str	r2, [r4, #248]
	add	r3, r3, #1
	str	r3, [r4, #172]
	ldr	r2, [r9, #2680]
	mov	r0, r3, asl #5
	ldr	r1, [r8, #1108]
	sub	r3, r0, r3, asl #2
	str	r3, [fp, #-116]
	add	r3, r2, r3
	str	r1, [r3, #8]
	ldr	r2, [r4, #2364]
	ldrb	r1, [r2, #1]	@ zero_extendqisi2
	ldr	r3, [r2, #8]
	cmp	r1, #1
	cmpls	r1, r3
	bcs	.L606
	add	r0, r6, r1, lsl #2
.L607:
	mov	r3, r1, asl #5
	sub	r3, r3, r1, asl #2
	add	r1, r1, #1
	add	r2, r2, r3
	ldr	r2, [r2, #60]
	str	r2, [r0, #8]
	ldr	r2, [r4, #2364]
	add	r2, r2, r3
	ldr	r2, [r2, #56]
	str	r2, [r0], #4
	ldr	r2, [r4, #2364]
	add	r3, r2, r3
	ldr	r3, [r3, #64]
	str	r3, [r0, #12]
	ldr	r2, [r4, #2364]
	ldr	r3, [r2, #8]
	cmp	r3, r1
	movhi	ip, #1
	movls	ip, #0
	cmp	r1, #1
	movhi	ip, #0
	cmp	ip, #0
	bne	.L607
.L606:
	cmp	r3, #1
	addls	r3, r6, r3, lsl #2
	addls	r1, r6, #8
	movls	r2, #0
	bhi	.L612
.L611:
	str	r2, [r3, #8]
	str	r2, [r3], #4
	cmp	r3, r1
	str	r2, [r3, #12]
	bne	.L611
.L612:
	ldrb	r3, [r8, #1051]	@ zero_extendqisi2
	cmp	r3, #0
	beq	.L677
.L610:
	add	r5, r4, #57344
	ldr	r3, [r5, #844]
	cmp	r3, #0
	beq	.L613
	add	r0, r4, #2368
	add	r10, r6, #112
	add	lr, r6, #368
	mov	r1, #0
.L614:
	ldr	ip, [r0]
	sub	r7, fp, #44
	add	r1, r1, #1
	ldr	r2, [ip, #32]
	ldr	r3, [r2, #24]
	ldr	r2, [r2, #28]
	add	r3, r3, #15872
	add	r3, r3, #22
	add	r2, r7, r2, lsl #2
	add	r3, r4, r3, lsl #2
	ldr	r3, [r3, #8]
	str	r3, [r2, #-64]
	ldr	r3, [ip, #16]
	str	r3, [r10, #4]!
	ldr	r3, [r0], #4
	ldr	r3, [r3, #32]
	ldr	r3, [r3, #28]
	str	r3, [lr, #4]!
	ldr	r3, [r5, #844]
	cmp	r3, r1
	bhi	.L614
	ldr	r2, [r5, #848]
	cmp	r2, #0
	beq	.L615
.L639:
	add	r1, r4, #2432
	add	r10, r6, #176
	add	r1, r1, #4
	add	lr, r6, #432
	mov	r0, #0
.L616:
	ldr	ip, [r1]
	sub	r7, fp, #44
	add	r0, r0, #1
	ldr	r2, [ip, #32]
	ldr	r3, [r2, #24]
	ldr	r2, [r2, #28]
	add	r3, r3, #15872
	add	r3, r3, #22
	add	r2, r7, r2, lsl #2
	add	r3, r4, r3, lsl #2
	ldr	r3, [r3, #8]
	str	r3, [r2, #-64]
	ldr	r3, [ip, #16]
	str	r3, [r10, #4]!
	ldr	r3, [r1], #4
	ldr	r3, [r3, #32]
	ldr	r3, [r3, #28]
	str	r3, [lr, #4]!
	ldr	r2, [r5, #848]
	cmp	r2, r0
	bhi	.L616
	ldr	r3, [r5, #844]
.L615:
	cmp	r3, #0
	beq	.L617
	ldr	r1, [r6, #372]
	ldr	lr, [r8, #376]
	add	r1, r1, #740
	add	r1, r1, #2
	ldr	r1, [r4, r1, asl #2]
	cmp	lr, r1
	blt	.L646
	add	ip, r6, #372
	mov	r0, #0
	b	.L619
.L620:
	ldr	r1, [ip, #4]!
	add	r1, r1, #740
	add	r1, r1, #2
	ldr	r1, [r4, r1, asl #2]
	cmp	r1, lr
	bgt	.L646
.L619:
	add	r0, r0, #1
	cmp	r0, r3
	bne	.L620
.L617:
	ldr	r1, [r5, #744]
	cmp	r1, #0
	bne	.L674
	cmp	r2, #0
	beq	.L674
	ldr	r3, [r6, #436]
	ldr	ip, [r8, #376]
	add	r3, r3, #740
	add	r3, r3, #2
	ldr	r3, [r4, r3, asl #2]
	cmp	ip, r3
	blt	.L618
	add	r0, r6, #436
	b	.L621
.L622:
	ldr	r3, [r0, #4]!
	add	r3, r3, #740
	add	r3, r3, #2
	ldr	r3, [r4, r3, asl #2]
	cmp	r3, ip
	bgt	.L646
.L621:
	add	r1, r1, #1
	cmp	r1, r2
	bne	.L622
.L674:
	mov	r1, #1
.L618:
	strb	r1, [r6, #24]
	ldrb	r3, [r8, #1051]	@ zero_extendqisi2
	strb	r3, [r6, #25]
	ldr	r3, [r5, #740]
	str	r3, [r6, #28]
	ldrb	r3, [r5, #694]	@ zero_extendqisi2
	strb	r3, [r6, #32]
	ldr	r3, [r5, #764]
	str	r3, [r6, #36]
	ldr	r3, [r5, #744]
	cmp	r3, #0
	bne	.L623
	ldrb	r3, [r5, #695]	@ zero_extendqisi2
	cmp	r3, #0
	bne	.L624
	ldr	r3, [r5, #796]
	add	r3, r6, r3, lsl #2
	ldr	r3, [r3, #436]
	mov	r7, r3
.L625:
	str	r7, [r6, #40]
	add	r10, r4, #24576
	ldr	r3, [r5, #796]
	str	r3, [r6, #48]
	ldrb	r3, [r5, #695]	@ zero_extendqisi2
	strb	r3, [r6, #52]
	ldr	r3, [r5, #800]
	str	r3, [r6, #44]
	ldr	r3, [r5, #852]
	cmp	r3, #0
	subne	r3, r3, #1
	str	r3, [r6, #60]
	ldr	r3, [r5, #856]
	cmp	r3, #0
	subne	r3, r3, #1
	str	r3, [r6, #56]
	ldrb	r2, [r5, #691]	@ zero_extendqisi2
	strb	r2, [r6, #64]
	ldrb	r2, [r5, #693]	@ zero_extendqisi2
	strb	r2, [r6, #65]
	ldr	r2, [r5, #844]
	str	r2, [r6, #68]
	ldr	r2, [r5, #848]
	str	r2, [r6, #72]
	ldr	r2, [r5, #744]
	str	r2, [r6, #76]
	ldr	r2, [r8, #1128]
	str	r2, [r6, #80]
	ldr	r2, [r10, #2868]
	ldr	r0, [r8, #1128]
	ldr	r1, [r2, #240]
	bl	__aeabi_uidivmod
	str	r1, [r6, #84]
	ldr	r2, [r10, #2868]
	ldr	r0, [r8, #1128]
	ldr	r1, [r2, #240]
	bl	__aeabi_uidiv
	str	r0, [r6, #88]
	mov	r0, r4
	ldr	r1, [r8, #1128]
	bl	HEVC_CtbRsAddrToTsAddr
	str	r0, [r6, #92]
	ldr	r2, [r5, #808]
	str	r2, [r6, #96]
	ldr	r2, [r5, #812]
	str	r2, [r6, #100]
	ldr	r2, [r5, #820]
	str	r2, [r6, #104]
	ldr	r2, [r5, #816]
	str	r2, [r6, #108]
	ldrb	r2, [r5, #690]	@ zero_extendqisi2
	strb	r2, [r6, #112]
	ldrb	r2, [r5, #689]	@ zero_extendqisi2
	strb	r2, [r6, #113]
	ldrb	r2, [r5, #697]	@ zero_extendqisi2
	strb	r2, [r6, #114]
	ldrb	r2, [r5, #698]	@ zero_extendqisi2
	strb	r2, [r6, #115]
	ldr	r3, [r10, #2872]
	ldrb	r2, [r3, #10]	@ zero_extendqisi2
	cmp	r2, #0
	beq	.L630
	ldr	r2, [r5, #744]
	cmp	r2, #1
	beq	.L631
.L630:
	ldrb	r3, [r3, #11]	@ zero_extendqisi2
	cmp	r3, #1
	beq	.L678
.L633:
	ldrb	r3, [r5, #691]	@ zero_extendqisi2
	cmp	r3, #0
	subne	r3, fp, #44
	movne	r2, r7
	addne	r10, r3, r2, lsl #2
	ldrne	r3, [r10, #-64]
	strne	r3, [r6, #564]
	ldr	r3, [r4, #220]
	cmp	r3, #0
	bne	.L636
	ldr	r2, [r9, #2680]
	ldr	r0, [fp, #-116]
	ldr	r1, [r4, #2364]
	add	r2, r2, r0
	str	r1, [r2, #24]
	str	r3, [r4, #2364]
.L636:
	add	r1, r4, #61440
	ldrb	r3, [r1, #893]	@ zero_extendqisi2
	cmp	r3, #0
	beq	.L655
	ldr	r3, [r4, #248]
	cmp	r3, #1
	beq	.L679
	add	r0, r4, r3, lsl #3
	ldr	ip, [r6, #92]
	add	r0, r0, #65536
	add	r2, r3, #8192
	add	r2, r2, #31
	sub	ip, ip, #1
	str	ip, [r0, #248]
	sub	r3, r3, #1
	ldr	r0, [r6, #92]
	add	r2, r4, r2, lsl #3
	str	r0, [r2, #4]
.L638:
	ldr	r2, [r1, #692]
	add	r3, r4, r3, lsl #3
	ldr	r1, [r1, #696]
	add	r3, r3, #65536
	mla	r2, r1, r2, r2
	add	r2, r2, r1
	str	r2, [r3, #264]
	ldr	r1, [r6, #92]
	sub	r1, r1, #1
	cmp	r1, #36864
	bcs	.L655
	mov	r0, r4
	bl	HEVC_CtbTsAddrToRsAddr
	str	r0, [r6, #568]
.L655:
	ldr	r0, [fp, #-112]
	sub	sp, fp, #40
	ldmfd	sp, {r4, r5, r6, r7, r8, r9, r10, fp, sp, pc}
.L646:
	mov	r1, #0
	b	.L618
.L623:
	cmp	r3, #1
	movne	r3, #0
	movne	r7, r3
	bne	.L625
.L624:
	ldr	r3, [r5, #796]
	add	r3, r6, r3, lsl #2
	ldr	r3, [r3, #372]
	mov	r7, r3
	b	.L625
.L677:
	ldr	r3, .L680
	add	r1, r4, #54272
	add	r0, r4, #57856
	add	r1, r1, #24
	add	r0, r0, #172
	movw	r2, #3732
	ldr	r3, [r3, #52]
	blx	r3
	mov	r3, #1
	strb	r3, [r4, #9]
	b	.L610
.L678:
	ldr	r3, [r5, #744]
	cmp	r3, #0
	bne	.L633
.L631:
	ldr	ip, [r5, #2276]
	add	r1, r4, #60416
	ldr	r3, .L680
	add	r1, r1, #240
	ldr	r8, .L680
	mov	r2, #64
	str	ip, [r6, #580]
	add	r0, r6, #588
	ldr	ip, [r5, #3308]
	ldr	r3, [r3, #52]
	str	ip, [r6, #584]
	blx	r3
	add	r1, r4, #59648
	add	r1, r1, #172
	ldr	r3, [r8, #52]
	mov	r2, #64
	add	r0, r6, #716
	blx	r3
	add	r1, r4, #60672
	add	r1, r1, #48
	ldr	r3, [r8, #52]
	mov	r2, #128
	add	r0, r6, #844
	blx	r3
	add	r1, r4, #60672
	add	r0, r6, #1088
	ldr	r3, [r8, #52]
	add	r1, r1, #176
	add	r0, r0, #12
	mov	r2, #128
	blx	r3
	ldr	r3, [r5, #744]
	cmp	r3, #0
	bne	.L633
	add	r1, r4, #60928
	ldr	r3, [r8, #52]
	add	r1, r1, #48
	mov	r2, #64
	add	r0, r6, #652
	blx	r3
	add	r1, r4, #60160
	ldr	r3, [r8, #52]
	add	r1, r1, #172
	mov	r2, #64
	add	r0, r6, #780
	blx	r3
	add	r1, r4, #60928
	ldr	r3, [r8, #52]
	add	r1, r1, #112
	mov	r2, #128
	add	r0, r6, #972
	blx	r3
	add	r1, r4, #60928
	add	r0, r6, #1216
	ldr	r3, [r8, #52]
	add	r1, r1, #240
	mov	r2, #128
	add	r0, r0, #12
	blx	r3
	b	.L633
.L679:
	ldr	r2, [r6, #92]
	mov	r3, #0
	str	r2, [r9, #260]
	b	.L638
.L613:
	ldr	r3, [r5, #848]
	cmp	r3, #0
	bne	.L639
	b	.L674
.L640:
	mvn	r3, #0
	str	r3, [fp, #-112]
	b	.L655
.L676:
	mov	r2, r0
	ldr	r1, .L680+4
	mov	r0, #1
	bl	dprint_vfmw
	mvn	r3, #0
	str	r3, [fp, #-112]
	b	.L655
.L681:
	.align	2
.L680:
	.word	vfmw_Osal_Func_Ptr_S
	.word	.LC72
	UNWIND(.fnend)
	.size	HEVC_WriteSliceMsg, .-HEVC_WriteSliceMsg
	.align	2
	.global	HEVC_GetVirAddr
	.type	HEVC_GetVirAddr, %function
HEVC_GetVirAddr:
	UNWIND(.fnstart)
	@ args = 0, pretend = 0, frame = 0
	@ frame_needed = 1, uses_anonymous_args = 0
	UNWIND(.movsp ip)
	mov	ip, sp
	stmfd	sp!, {fp, ip, lr, pc}
	UNWIND(.pad #4)
	UNWIND(.save {fp, ip, lr})
	UNWIND(.setfp fp, ip, #-4)
	sub	fp, ip, #4
	add	r0, r1, r0, lsl #2
	ldmfd	sp, {fp, sp, pc}
	UNWIND(.fnend)
	.size	HEVC_GetVirAddr, .-HEVC_GetVirAddr
	.align	2
	.global	HEVC_GetPhyAddr
	.type	HEVC_GetPhyAddr, %function
HEVC_GetPhyAddr:
	UNWIND(.fnstart)
	@ args = 0, pretend = 0, frame = 0
	@ frame_needed = 1, uses_anonymous_args = 0
	UNWIND(.movsp ip)
	mov	ip, sp
	stmfd	sp!, {fp, ip, lr, pc}
	UNWIND(.pad #4)
	UNWIND(.save {fp, ip, lr})
	UNWIND(.setfp fp, ip, #-4)
	sub	fp, ip, #4
	add	r0, r1, r0, lsl #2
	ldmfd	sp, {fp, sp, pc}
	UNWIND(.fnend)
	.size	HEVC_GetPhyAddr, .-HEVC_GetPhyAddr
	.align	2
	.global	HEVC_CfgVDMReg
	.type	HEVC_CfgVDMReg, %function
HEVC_CfgVDMReg:
	UNWIND(.fnstart)
	@ args = 0, pretend = 0, frame = 0
	@ frame_needed = 1, uses_anonymous_args = 0
	UNWIND(.movsp ip)
	mov	ip, sp
	stmfd	sp!, {fp, ip, lr, pc}
	UNWIND(.pad #4)
	UNWIND(.save {fp, ip, lr})
	UNWIND(.setfp fp, ip, #-4)
	sub	fp, ip, #4
	add	ip, r0, #53248
	add	r2, r0, #61440
	mov	r1, r0
	mov	r0, #0
	ldr	r3, [ip, #396]
	clz	r3, r3
	mov	r3, r3, lsr #5
	str	r3, [r2, #2008]
	ldr	r3, [ip, #400]
	str	r3, [r2, #2000]
	ldr	r3, [r1, #208]
	str	r3, [r2, #3240]
	ldmfd	sp, {fp, sp, pc}
	UNWIND(.fnend)
	.size	HEVC_CfgVDMReg, .-HEVC_CfgVDMReg
	.align	2
	.global	HEVC_IsRefForCurrPic
	.type	HEVC_IsRefForCurrPic, %function
HEVC_IsRefForCurrPic:
	UNWIND(.fnstart)
	@ args = 0, pretend = 0, frame = 24
	@ frame_needed = 1, uses_anonymous_args = 0
	UNWIND(.movsp ip)
	mov	ip, sp
	stmfd	sp!, {r4, r5, r6, r7, r8, r9, r10, fp, ip, lr, pc}
	UNWIND(.pad #4)
	UNWIND(.save {r4, r5, r6, r7, r8, r9, r10, fp, ip, lr})
	UNWIND(.setfp fp, ip, #-4)
	sub	fp, ip, #4
	UNWIND(.pad #44)
	sub	sp, sp, #44
	add	r3, r0, #53248
	str	r3, [fp, #-48]
	mov	r6, r0
	ldr	r3, [r3, #1124]
	ldr	r2, [r0, #156]
	cmp	r3, #0
	blt	.L687
	cmp	r3, r2
	bge	.L687
	ldr	r2, [r0, #2352]
	movw	r1, #2024
	mla	r3, r1, r3, r2
	ldr	r2, [r0, #152]
	ldr	r3, [r3, #32]
	cmp	r3, #0
	blt	.L691
	cmp	r3, r2
	bge	.L691
	ldr	r2, [r0, #2348]
	movw	r1, #26164
	add	r0, r0, #57344
	mov	r9, #1
	str	r0, [fp, #-52]
	mla	r3, r1, r3, r2
	ldr	r2, [r0, #236]
	ldr	r1, [r0, #240]
	ldr	ip, [r0, #244]
	add	r10, r1, r2
	str	r2, [fp, #-60]
	cmp	r10, ip
	str	r1, [fp, #-64]
	ldr	r3, [r3, #128]
	mov	r4, r10
	mov	r9, r9, asl r3
	bcs	.L702
	cmp	r10, #15
	bgt	.L694
	ldr	r3, [fp, #-48]
	add	r5, r10, #14400
	add	r5, r5, #25
	str	r10, [fp, #-68]
	str	r6, [fp, #-56]
	ldr	r3, [r3, #376]
	add	r5, r6, r5, lsl #2
	mov	r6, ip
	mov	r10, r3
	b	.L696
.L714:
	cmp	r6, r4
	bls	.L712
	cmp	r4, #16
	beq	.L713
.L696:
	ldr	r7, [r5, #4]!
	mov	r1, r9
	mov	r0, r10
	mov	r8, r10
	ldr	r2, [r5, #-1884]
	cmp	r2, #0
	bne	.L697
	bl	__aeabi_idivmod
	mov	r0, r7
	mov	r8, r1
	mov	r1, r9
	bl	__aeabi_idivmod
	mov	r7, r1
.L697:
	cmp	r8, r7
	add	r4, r4, #1
	bne	.L714
	ldr	r10, [fp, #-68]
	mov	r4, #1
	ldr	r6, [fp, #-56]
.L693:
	cmp	r10, #0
	beq	.L689
	ldr	r2, [fp, #-48]
	ldr	r3, [fp, #-52]
	ldr	ip, [r2, #1096]
	ldr	r3, [r3, #292]
	ldr	r0, [r2, #376]
	add	r3, ip, r3
	cmp	r0, r3
	beq	.L706
	add	r6, r6, #57600
	mov	r1, #0
	add	r6, r6, #36
	b	.L699
.L700:
	ldr	r3, [r6, #4]!
	add	r3, ip, r3
	cmp	r3, r0
	beq	.L706
.L699:
	add	r1, r1, #1
	cmp	r1, r10
	beq	.L689
	cmp	r1, #17
	bne	.L700
	ldr	r3, [fp, #-64]
	mov	r0, #0
	ldr	r2, [fp, #-60]
	str	r1, [sp]
	str	r3, [sp, #8]
	mov	r3, r1
	str	r2, [sp, #4]
	movw	r2, #6983
	ldr	r1, .L715
	bl	dprint_vfmw
	mov	r0, r4
	sub	sp, fp, #40
	ldmfd	sp, {r4, r5, r6, r7, r8, r9, r10, fp, sp, pc}
.L691:
	str	r2, [sp]
	mov	r0, #0
	movw	r2, #6934
	ldr	r1, .L715+4
	mov	r4, r0
	bl	dprint_vfmw
.L689:
	mov	r0, r4
	sub	sp, fp, #40
	ldmfd	sp, {r4, r5, r6, r7, r8, r9, r10, fp, sp, pc}
.L687:
	str	r2, [sp]
	mov	r0, #0
	movw	r2, #6922
	ldr	r1, .L715+8
	mov	r4, r0
	bl	dprint_vfmw
	mov	r0, r4
	sub	sp, fp, #40
	ldmfd	sp, {r4, r5, r6, r7, r8, r9, r10, fp, sp, pc}
.L713:
	mov	ip, r6
	ldr	r6, [fp, #-56]
.L694:
	mov	r3, r4
	mov	r1, #16
	movw	r2, #6954
	str	r1, [sp]
	mov	r0, #0
	str	ip, [sp, #4]
	ldr	r1, .L715+12
	mov	r4, r0
	bl	dprint_vfmw
	ldr	r3, [fp, #-52]
	ldr	r2, [r3, #236]
	ldr	r3, [r3, #240]
	str	r2, [fp, #-60]
	add	r10, r3, r2
	str	r3, [fp, #-64]
	b	.L693
.L712:
	ldr	r10, [fp, #-68]
	mov	r4, #0
	ldr	r6, [fp, #-56]
	b	.L693
.L706:
	mov	r4, #1
	b	.L689
.L702:
	mov	r4, #0
	b	.L693
.L716:
	.align	2
.L715:
	.word	.LC76
	.word	.LC74
	.word	.LC73
	.word	.LC75
	UNWIND(.fnend)
	.size	HEVC_IsRefForCurrPic, .-HEVC_IsRefForCurrPic
	.align	2
	.global	HEVC_RepairList
	.type	HEVC_RepairList, %function
HEVC_RepairList:
	UNWIND(.fnstart)
	@ args = 0, pretend = 0, frame = 16
	@ frame_needed = 1, uses_anonymous_args = 0
	UNWIND(.movsp ip)
	mov	ip, sp
	stmfd	sp!, {r4, r5, r6, r7, r8, r9, r10, fp, ip, lr, pc}
	UNWIND(.pad #4)
	UNWIND(.save {r4, r5, r6, r7, r8, r9, r10, fp, ip, lr})
	UNWIND(.setfp fp, ip, #-4)
	sub	fp, ip, #4
	UNWIND(.pad #28)
	sub	sp, sp, #28
	add	r3, r0, #53248
	str	r3, [fp, #-56]
	mov	ip, r0
	ldr	r3, [r3, #1108]
	cmp	r3, #1
	beq	.L734
	cmp	r3, #2
	beq	.L735
	cmp	r3, #0
	moveq	r3, #2
	streq	r3, [fp, #-48]
	beq	.L719
	ldr	r2, .L744
	mov	r0, #1
	ldr	r1, .L744+4
	bl	dprint_vfmw
	mvn	r0, #0
	sub	sp, fp, #40
	ldmfd	sp, {r4, r5, r6, r7, r8, r9, r10, fp, sp, pc}
.L734:
	str	r3, [fp, #-48]
.L719:
	add	r8, ip, #54272
	add	r9, ip, #2368
	add	r8, r8, #180
	mov	r10, #0
.L732:
	ldr	r1, [r8, #4]!
	cmp	r1, #0
	beq	.L722
	ldr	r3, [r9]
	cmp	r3, #0
	bne	.L736
	mov	r2, r9
	mov	r4, r3
	b	.L724
.L726:
	ldr	r6, [r2, #4]!
	cmp	r6, #0
	bne	.L742
.L724:
	add	r4, r4, #1
	cmp	r4, r1
	bne	.L726
	mov	r4, #255
.L725:
	ldr	r2, [ip, #2356]
	ldr	r2, [r2, #12]
	cmp	r2, #2
	bne	.L727
	ldr	r2, [fp, #-56]
	ldr	r6, [r2, #420]
	add	r6, r6, #36
.L723:
	mov	r7, r9
	mov	r5, #0
	b	.L733
.L729:
	ldr	r3, [r7, #4]!
.L733:
	cmp	r3, #0
	beq	.L743
.L728:
	ldr	r3, [r8]
	add	r5, r5, #1
	cmp	r3, r5
	bhi	.L729
.L730:
	ldr	r3, [fp, #-48]
	add	r10, r10, #1
	add	r9, r9, #68
	cmp	r10, r3
	bcc	.L732
.L735:
	mov	r0, #0
	sub	sp, fp, #40
	ldmfd	sp, {r4, r5, r6, r7, r8, r9, r10, fp, sp, pc}
.L722:
	ldr	r3, [ip, #2356]
	ldr	r3, [r3, #12]
	cmp	r3, #2
	bne	.L730
	mov	r3, #1
	str	r3, [r8]
	ldr	r3, [fp, #-56]
	ldr	r3, [r3, #420]
	add	r3, r3, #36
	str	r3, [r9]
	b	.L730
.L743:
	sxtb	r2, r4
	str	r5, [sp]
	str	r2, [sp, #4]
	mov	r3, r10
	ldr	r2, .L744
	mov	r0, #1
	ldr	r1, .L744+8
	str	ip, [fp, #-52]
	bl	dprint_vfmw
	str	r6, [r7]
	ldr	ip, [fp, #-52]
	b	.L728
.L742:
	uxtb	r4, r4
	cmp	r4, #255
	bne	.L723
	b	.L725
.L736:
	mov	r6, r3
	mov	r4, #0
	b	.L723
.L727:
	mov	r3, r10
	ldr	r2, .L744
	ldr	r1, .L744+12
	mov	r0, #1
	bl	dprint_vfmw
	mvn	r0, #0
	sub	sp, fp, #40
	ldmfd	sp, {r4, r5, r6, r7, r8, r9, r10, fp, sp, pc}
.L745:
	.align	2
.L744:
	.word	.LANCHOR1+316
	.word	.LC77
	.word	.LC79
	.word	.LC78
	UNWIND(.fnend)
	.size	HEVC_RepairList, .-HEVC_RepairList
	.align	2
	.global	HEVC_InitListX
	.type	HEVC_InitListX, %function
HEVC_InitListX:
	UNWIND(.fnstart)
	@ args = 0, pretend = 0, frame = 152
	@ frame_needed = 1, uses_anonymous_args = 0
	UNWIND(.movsp ip)
	mov	ip, sp
	stmfd	sp!, {r4, r5, r6, r7, r8, r9, r10, fp, ip, lr, pc}
	UNWIND(.pad #4)
	UNWIND(.save {r4, r5, r6, r7, r8, r9, r10, fp, ip, lr})
	UNWIND(.setfp fp, ip, #-4)
	sub	fp, ip, #4
	UNWIND(.pad #156)
	sub	sp, sp, #156
	subs	r7, r0, #0
	beq	.L782
	ldr	r3, .L814
	mov	r2, #136
	mov	r1, #0
	sub	r0, fp, #180
	ldr	r3, [r3, #48]
	blx	r3
	ldr	lr, [r7, #2552]
	cmp	lr, #0
	beq	.L783
	mov	r0, #0
	add	r1, r7, #2624
	mov	r3, r0
	b	.L750
.L749:
	cmp	r3, lr
	beq	.L748
.L750:
	ldr	r2, [r1, #4]!
	add	r3, r3, #1
	ldrb	ip, [r2, #1]	@ zero_extendqisi2
	cmp	ip, #1
	bne	.L749
	ldr	ip, [r2, #52]
	cmp	ip, #0
	bne	.L749
	ldr	ip, [r2, #56]
	cmp	ip, #1
	subeq	ip, fp, #44
	addeq	r2, r2, #36
	addeq	ip, ip, r0, lsl #2
	addeq	r0, r0, #1
	streq	r2, [ip, #-136]
	cmp	r3, lr
	bne	.L750
.L748:
	ldr	r4, [r7, #2556]
	cmp	r4, #0
	beq	.L784
	add	r1, r7, #2688
	mov	ip, r0
	add	r1, r1, #4
	mov	r3, #0
	b	.L753
.L752:
	cmp	r3, r4
	beq	.L810
.L753:
	ldr	r2, [r1, #4]!
	add	r3, r3, #1
	ldrb	lr, [r2, #1]	@ zero_extendqisi2
	cmp	lr, #1
	bne	.L752
	ldr	lr, [r2, #52]
	cmp	lr, #0
	bne	.L752
	ldr	lr, [r2, #56]
	cmp	lr, #1
	subeq	lr, fp, #44
	addeq	r2, r2, #36
	addeq	lr, lr, ip, lsl #2
	addeq	ip, ip, #1
	streq	r2, [lr, #-136]
	cmp	r3, r4
	bne	.L753
.L810:
	rsb	r4, r0, ip
.L751:
	ldr	r5, [r7, #2548]
	cmp	r5, #0
	beq	.L785
	add	lr, r7, #2752
	mov	r9, ip
	add	lr, lr, #8
	mov	r2, #0
	b	.L756
.L755:
	cmp	r2, r5
	beq	.L811
.L756:
	ldr	r3, [lr, #4]!
	add	r2, r2, #1
	ldrb	r1, [r3, #1]	@ zero_extendqisi2
	cmp	r1, #1
	bne	.L755
	ldr	r1, [r3, #52]
	cmp	r1, #1
	bne	.L755
	ldr	r1, [r3, #56]
	sub	r6, fp, #44
	add	r6, r6, r9, lsl #2
	add	r3, r3, #36
	cmp	r1, #0
	addeq	r9, r9, #1
	streq	r3, [r6, #-136]
	cmp	r2, r5
	bne	.L756
.L811:
	rsb	r5, r0, r9
	rsb	r5, r4, r5
.L754:
	cmp	r9, #0
	beq	.L812
	add	r3, r7, #53248
	str	r3, [fp, #-184]
	ldr	r3, [r3, #1108]
	cmp	r3, #0
	str	r3, [fp, #-188]
	beq	.L813
	ldr	r3, [fp, #-184]
	ldr	r4, [r3, #1216]
	ldr	r5, [r3, #1220]
	cmp	r4, #0
	str	r4, [r3, #1208]
	str	r5, [r3, #1212]
	beq	.L775
.L781:
	add	r1, r7, #57344
	add	r2, r7, #2352
	add	r8, r7, #57600
	add	r2, r2, #12
	ldrb	r10, [r1, #424]	@ zero_extendqisi2
	add	r8, r8, #172
	str	r5, [fp, #-192]
	mov	r6, #0
	mov	r5, r10
	mov	r10, r4
	mov	r4, r2
.L768:
	cmp	r5, #0
	mov	r1, r9
	mov	r0, r6
	ldrne	r1, [r8]
	bne	.L767
	bl	__aeabi_uidivmod
.L767:
	sub	r3, fp, #44
	add	r6, r6, #1
	add	r3, r3, r1, lsl #2
	cmp	r10, r6
	add	r8, r8, #4
	ldr	r3, [r3, #-136]
	str	r3, [r4, #4]!
	bhi	.L768
	ldr	r3, [fp, #-188]
	ldr	r5, [fp, #-192]
	cmp	r3, #0
	bne	.L809
.L769:
	cmp	r5, #0
	beq	.L771
	add	r2, r7, #57344
	add	r6, r7, #57856
	add	r6, r6, #44
	add	r8, r7, #2432
	ldrb	r10, [r2, #425]	@ zero_extendqisi2
	mov	r4, #0
.L774:
	cmp	r10, #0
	mov	r1, r9
	mov	r0, r4
	ldrne	r1, [r6]
	bne	.L773
	bl	__aeabi_uidivmod
.L773:
	sub	r3, fp, #44
	add	r4, r4, #1
	add	r3, r3, r1, lsl #2
	cmp	r4, r5
	add	r6, r6, #4
	ldr	r3, [r3, #-68]
	str	r3, [r8, #4]!
	bne	.L774
.L809:
	ldr	r3, [fp, #-184]
	ldr	r4, [r3, #1208]
	ldr	r5, [r3, #1212]
.L770:
	cmp	r4, #16
	bhi	.L779
.L775:
	add	r4, r4, #588
	add	r2, r7, #2432
	add	r4, r4, #3
	add	r4, r7, r4, lsl #2
.L778:
	ldr	r3, [r7, #2368]
	str	r3, [r4, #4]!
	cmp	r4, r2
	bne	.L778
.L779:
	cmp	r5, #16
	bhi	.L777
	add	r5, r5, #608
	add	r2, r7, #2496
	add	r2, r2, #4
	add	r5, r7, r5, lsl #2
.L780:
	ldr	r3, [r7, #2436]
	str	r3, [r5, #4]!
	cmp	r5, r2
	bne	.L780
.L777:
	mov	r0, #0
.L808:
	sub	sp, fp, #40
	ldmfd	sp, {r4, r5, r6, r7, r8, r9, r10, fp, sp, pc}
.L813:
	cmp	r4, #0
	beq	.L760
	sub	r3, fp, #180
	ldr	r2, [fp, #-188]
	add	lr, r3, r0, lsl #2
	sub	r1, fp, #116
.L761:
	add	r2, r2, #1
	ldr	r3, [lr], #4
	cmp	r2, r4
	str	r3, [r1, #4]!
	bne	.L761
.L760:
	cmp	r0, #0
	beq	.L762
	add	r1, r4, #16
	sub	lr, fp, #180
	mov	r2, #0
	add	r1, lr, r1, lsl #2
.L763:
	add	r2, r2, #1
	ldr	r3, [lr], #4
	cmp	r2, r0
	str	r3, [r1, #4]!
	bne	.L763
	add	r4, r4, r2
.L762:
	cmp	r5, #0
	beq	.L764
	add	r4, r4, #16
	sub	r3, fp, #180
	add	ip, r3, ip, lsl #2
	mov	r2, #0
	add	r4, r3, r4, lsl #2
.L765:
	add	r2, r2, #1
	ldr	r3, [ip], #4
	cmp	r2, r5
	str	r3, [r4, #4]!
	bne	.L765
.L764:
	ldr	r3, [fp, #-184]
	ldr	r4, [r3, #1216]
	ldr	r5, [r3, #1220]
	cmp	r4, #0
	str	r4, [r3, #1208]
	str	r5, [r3, #1212]
	bne	.L781
	b	.L769
.L812:
	ldr	r3, .L814
	add	r4, r7, #53248
	mov	r2, #136
	mov	r1, r9
	str	r9, [r4, #1208]
	add	r0, r7, #2368
	ldr	ip, [r3, #48]
	str	r9, [r4, #1212]
	blx	ip
	ldr	r2, [r7, #2356]
	ldr	r2, [r2, #12]
	cmp	r2, #2
	bne	.L777
	ldr	r2, [r4, #420]
	mov	r3, #1
	mov	r0, r9
	str	r3, [r4, #1208]
	add	r3, r2, #36
	str	r3, [r7, #2368]
	b	.L808
.L783:
	mov	r0, lr
	b	.L748
.L784:
	mov	ip, r0
	b	.L751
.L785:
	mov	r9, ip
	b	.L754
.L771:
	ldr	r3, .L814
	add	r0, r7, #2432
	add	r0, r0, #4
	mov	r2, #68
	add	r1, r7, #2368
	ldr	r3, [r3, #52]
	blx	r3
	ldr	r3, [fp, #-184]
	ldr	r4, [r3, #1208]
	str	r4, [r3, #1212]
	mov	r5, r4
	b	.L770
.L782:
	mvn	r0, #0
	b	.L808
.L815:
	.align	2
.L814:
	.word	vfmw_Osal_Func_Ptr_S
	UNWIND(.fnend)
	.size	HEVC_InitListX, .-HEVC_InitListX
	.align	2
	.global	HEVC_DecList
	.type	HEVC_DecList, %function
HEVC_DecList:
	UNWIND(.fnstart)
	@ args = 0, pretend = 0, frame = 0
	@ frame_needed = 1, uses_anonymous_args = 0
	UNWIND(.movsp ip)
	mov	ip, sp
	stmfd	sp!, {r4, r5, fp, ip, lr, pc}
	UNWIND(.pad #4)
	UNWIND(.save {r4, r5, fp, ip, lr})
	UNWIND(.setfp fp, ip, #-4)
	sub	fp, ip, #4
	add	r3, r0, #53248
	mov	r4, r0
	ldr	r2, [r3, #1108]
	cmp	r2, #2
	beq	.L821
	bl	HEVC_InitListX
	cmp	r0, #0
	bne	.L822
	mov	r0, r4
	bl	HEVC_RepairList
	cmp	r0, #0
	ldmeqfd	sp, {r4, r5, fp, sp, pc}
	ldr	r1, .L823
	mov	r0, #1
	bl	dprint_vfmw
	mvn	r0, #0
	ldmfd	sp, {r4, r5, fp, sp, pc}
.L821:
	mov	r0, #0
	str	r0, [r3, #1208]
	str	r0, [r3, #1212]
	ldmfd	sp, {r4, r5, fp, sp, pc}
.L822:
	ldr	r1, .L823+4
	mov	r0, #1
	bl	dprint_vfmw
	mvn	r0, #0
	ldmfd	sp, {r4, r5, fp, sp, pc}
.L824:
	.align	2
.L823:
	.word	.LC81
	.word	.LC80
	UNWIND(.fnend)
	.size	HEVC_DecList, .-HEVC_DecList
	.align	2
	.global	HEVC_RemoveApcStore
	.type	HEVC_RemoveApcStore, %function
HEVC_RemoveApcStore:
	UNWIND(.fnstart)
	@ args = 0, pretend = 0, frame = 0
	@ frame_needed = 1, uses_anonymous_args = 0
	UNWIND(.movsp ip)
	mov	ip, sp
	stmfd	sp!, {r4, r5, fp, ip, lr, pc}
	UNWIND(.pad #4)
	UNWIND(.save {r4, r5, fp, ip, lr})
	UNWIND(.setfp fp, ip, #-4)
	sub	fp, ip, #4
	add	r5, r0, r1, lsl #2
	mov	r4, r0
	ldr	r2, [r5, #2560]
	ldr	r3, [r2, #28]
	cmp	r3, #16
	ldmeqfd	sp, {r4, r5, fp, sp, pc}
	add	r3, r3, #708
	mov	ip, #0
	add	r3, r3, #2
	ldr	r1, .L830
	mov	r0, #13
	str	ip, [r4, r3, asl #2]
	ldr	r3, [r2, #28]
	add	r3, r3, #724
	add	r3, r3, #2
	str	ip, [r4, r3, asl #2]
	ldr	r3, [r2, #28]
	add	r3, r3, #740
	add	r3, r3, #2
	str	ip, [r4, r3, asl #2]
	ldr	r3, [r2, #24]
	add	r3, r3, #536
	add	r3, r4, r3, lsl #2
	str	ip, [r3, #4]
	ldr	r3, [r2, #24]
	ldr	r2, [r2, #28]
	bl	dprint_vfmw
	ldr	r3, [r5, #2560]
	mov	r2, #16
	str	r2, [r3, #28]
	ldr	r3, [r4, #2836]
	sub	r3, r3, #1
	str	r3, [r4, #2836]
	ldmfd	sp, {r4, r5, fp, sp, pc}
.L831:
	.align	2
.L830:
	.word	.LC82
	UNWIND(.fnend)
	.size	HEVC_RemoveApcStore, .-HEVC_RemoveApcStore
	.align	2
	.global	HEVC_RemoveUnusedApcStore
	.type	HEVC_RemoveUnusedApcStore, %function
HEVC_RemoveUnusedApcStore:
	UNWIND(.fnstart)
	@ args = 0, pretend = 0, frame = 0
	@ frame_needed = 1, uses_anonymous_args = 0
	UNWIND(.movsp ip)
	mov	ip, sp
	stmfd	sp!, {r4, r5, r6, r7, fp, ip, lr, pc}
	UNWIND(.pad #4)
	UNWIND(.save {r4, r5, r6, r7, fp, ip, lr})
	UNWIND(.setfp fp, ip, #-4)
	sub	fp, ip, #4
	ldr	r3, [r0, #2540]
	mov	r6, r0
	cmp	r3, #0
	ldmeqfd	sp, {r4, r5, r6, r7, fp, sp, pc}
	add	r5, r0, #2544
	mov	r4, #0
	add	r5, r5, #12
	b	.L835
.L834:
	ldr	r3, [r6, #2540]
	add	r4, r4, #1
	cmp	r4, r3
	bcs	.L838
.L835:
	ldr	r3, [r5, #4]!
	ldrb	r3, [r3, #1]	@ zero_extendqisi2
	cmp	r3, #0
	bne	.L834
	mov	r1, r4
	mov	r0, r6
	bl	HEVC_RemoveApcStore
	ldr	r3, [r6, #2540]
	add	r4, r4, #1
	cmp	r4, r3
	bcc	.L835
.L838:
	ldmfd	sp, {r4, r5, r6, r7, fp, sp, pc}
	UNWIND(.fnend)
	.size	HEVC_RemoveUnusedApcStore, .-HEVC_RemoveUnusedApcStore
	.align	2
	.global	HEVC_ApplyReferencePictureSet
	.type	HEVC_ApplyReferencePictureSet, %function
HEVC_ApplyReferencePictureSet:
	UNWIND(.fnstart)
	@ args = 0, pretend = 0, frame = 32
	@ frame_needed = 1, uses_anonymous_args = 0
	UNWIND(.movsp ip)
	mov	ip, sp
	stmfd	sp!, {r4, r5, r6, r7, r8, r9, r10, fp, ip, lr, pc}
	UNWIND(.pad #4)
	UNWIND(.save {r4, r5, r6, r7, r8, r9, r10, fp, ip, lr})
	UNWIND(.setfp fp, ip, #-4)
	sub	fp, ip, #4
	UNWIND(.pad #36)
	sub	sp, sp, #36
	add	r3, r0, #53248
	ldr	r2, [r0, #2352]
	movw	r4, #2024
	ldr	r1, [r3, #1124]
	movw	ip, #26164
	str	r3, [fp, #-68]
	mov	r9, r0
	ldr	r3, [r0, #2348]
	mov	r0, #1
	mla	r2, r4, r1, r2
	ldr	lr, [r9, #2540]
	cmp	lr, #0
	ldr	r2, [r2, #32]
	mla	r3, ip, r2, r3
	ldr	r8, [r3, #128]
	mov	r3, r0, asl r8
	str	r3, [fp, #-48]
	beq	.L839
	add	r8, r9, #2560
	add	r3, r9, #57600
	add	r7, r9, #57344
	str	r9, [fp, #-56]
	mov	r9, r8
	mov	r2, #0
	add	r3, r3, #36
	str	r2, [fp, #-60]
	str	r3, [fp, #-72]
	str	r0, [fp, #-64]
.L856:
	ldr	r0, [r7, #236]
	ldr	r2, [r7, #240]
	ldr	r1, [r7, #244]
	add	r2, r2, r0
	ldr	r5, [r9]
	cmp	r2, r1
	mov	r8, r2
	movcs	r4, #0
	ldrcs	r0, [r5, #12]
	bcs	.L842
	add	r6, r2, #14400
	ldr	r3, [fp, #-56]
	add	r6, r6, #26
	ldr	r10, [r5, #12]
	mov	r4, #0
	add	r6, r3, r6, lsl #2
.L848:
	ldr	r3, [r6, #-1884]
	cmp	r3, #0
	ldr	r3, [r5, #52]
	beq	.L843
	cmp	r3, #0
	beq	.L844
	ldr	r3, [r6]
	cmp	r3, r10
	beq	.L874
.L844:
	cmp	r4, #0
	bne	.L861
	ldr	r1, [r6]
	mov	r4, r10
	b	.L858
.L843:
	cmp	r3, #0
	beq	.L846
	ldr	r1, [fp, #-48]
	mov	r0, r10
	bl	__aeabi_idivmod
	ldr	r0, [r6]
	str	r1, [fp, #-52]
	ldr	r1, [fp, #-48]
	bl	__aeabi_idivmod
	ldr	r3, [fp, #-52]
	cmp	r3, r1
	beq	.L874
.L846:
	cmp	r4, #0
	bne	.L861
	ldr	r3, [r6]
	mov	r0, r10
	ldr	r1, [fp, #-48]
	str	r3, [fp, #-52]
	bl	__aeabi_idivmod
	ldr	r3, [fp, #-52]
	mov	r0, r3
	mov	r4, r1
	ldr	r1, [fp, #-48]
	bl	__aeabi_idivmod
.L858:
	ldrb	r0, [r5, #1]	@ zero_extendqisi2
	rsb	r4, r1, r4
	clz	r4, r4
	cmp	r0, #0
	mov	r4, r4, lsr #5
	moveq	r4, #0
	cmp	r4, #0
	bne	.L875
.L861:
	mov	r0, r10
.L847:
	ldr	r3, [r7, #244]
	add	r8, r8, #1
	add	r6, r6, #4
	mov	r10, r0
	cmp	r8, r3
	bcc	.L848
	ldr	r2, [r7, #240]
	ldr	r1, [r7, #236]
	add	r2, r2, r1
.L842:
	ldr	r3, [fp, #-68]
	cmp	r2, #0
	ldrne	r8, [fp, #-72]
	movne	r6, #0
	ldr	ip, [r3, #1096]
	beq	.L850
.L852:
	ldr	r3, [r5, #52]
	add	r6, r6, #1
	cmp	r3, #0
	bne	.L851
	ldr	r3, [r8]
	add	r3, ip, r3
	cmp	r3, r0
	beq	.L876
.L851:
	ldr	r3, [r7, #240]
	add	r8, r8, #4
	ldr	r2, [r7, #236]
	add	r3, r3, r2
	cmp	r6, r3
	bcc	.L852
.L850:
	eor	r4, r4, #1
	cmp	r0, ip
	moveq	r0, #0
	andne	r0, r4, #1
	cmp	r0, #0
	beq	.L854
	mov	r3, #0
	strb	r3, [r5, #1]
	ldr	r2, [r9]
	str	r3, [r2, #52]
	ldr	r2, [r9]
	ldr	r1, [r2, #8]
	cmp	r1, #1
	beq	.L854
	ldr	r1, [r2, #32]
	mov	r2, r3
	ldr	r3, [fp, #-56]
	ldr	r0, [r3, #276]
	bl	FSP_SetRef
.L854:
	ldr	r3, [fp, #-56]
	add	r9, r9, #4
	ldr	r2, [r3, #2540]
	ldr	r3, [fp, #-60]
	add	r3, r3, #1
	str	r3, [fp, #-60]
	cmp	r3, r2
	bcc	.L856
.L839:
	sub	sp, fp, #40
	ldmfd	sp, {r4, r5, r6, r7, r8, r9, r10, fp, sp, pc}
.L875:
	ldr	r1, [fp, #-64]
	mov	r2, #1
	mov	r4, r2
	strb	r1, [r5, #1]
	ldr	r3, [r9]
	str	r1, [r3, #52]
	ldr	r3, [r9]
	str	r1, [r3, #4]
	ldr	r1, [fp, #-56]
	ldr	r3, [r9]
	ldr	r0, [r1, #276]
	ldr	r1, [r3, #32]
	bl	FSP_SetRef
	ldr	r5, [r9]
	ldr	r0, [r5, #12]
	b	.L847
.L874:
	ldr	r1, [fp, #-64]
	mov	r2, #1
	mov	r4, #1
	strb	r1, [r5, #1]
	ldr	r3, [r9]
	str	r1, [r3, #4]
	ldr	r1, [fp, #-56]
	ldr	r3, [r9]
	ldr	r0, [r1, #276]
	ldr	r1, [r3, #32]
	bl	FSP_SetRef
	ldr	r5, [r9]
	ldr	r0, [r5, #12]
	b	.L847
.L876:
	ldr	r1, [fp, #-64]
	mov	r2, #1
	mov	r4, r2
	strb	r1, [r5, #1]
	ldr	r3, [r9]
	str	r1, [r3, #4]
	ldr	r1, [fp, #-56]
	ldr	r3, [r9]
	ldr	r0, [r1, #276]
	ldr	r1, [r3, #32]
	bl	FSP_SetRef
	ldr	r5, [r9]
	ldr	r3, [fp, #-68]
	ldr	r0, [r5, #12]
	ldr	ip, [r3, #1096]
	b	.L851
	UNWIND(.fnend)
	.size	HEVC_ApplyReferencePictureSet, .-HEVC_ApplyReferencePictureSet
	.align	2
	.global	HEVC_CheckThatAllRefPicsAreAvailable
	.type	HEVC_CheckThatAllRefPicsAreAvailable, %function
HEVC_CheckThatAllRefPicsAreAvailable:
	UNWIND(.fnstart)
	@ args = 0, pretend = 0, frame = 40
	@ frame_needed = 1, uses_anonymous_args = 0
	UNWIND(.movsp ip)
	mov	ip, sp
	stmfd	sp!, {r4, r5, r6, r7, r8, r9, r10, fp, ip, lr, pc}
	UNWIND(.pad #4)
	UNWIND(.save {r4, r5, r6, r7, r8, r9, r10, fp, ip, lr})
	UNWIND(.setfp fp, ip, #-4)
	sub	fp, ip, #4
	UNWIND(.pad #44)
	sub	sp, sp, #44
	add	r3, r0, #53248
	ldr	ip, [r0, #2352]
	movw	r6, #2024
	ldr	r2, [r3, #1124]
	add	lr, r0, #57344
	str	r1, [fp, #-84]
	movw	r5, #26164
	ldr	r1, [lr, #236]
	mov	r7, r0
	mla	ip, r6, r2, ip
	ldr	r6, [lr, #240]
	ldr	r4, [r0, #2348]
	add	r1, r6, r1
	ldr	r2, [lr, #244]
	str	r1, [fp, #-80]
	mov	lr, r1
	cmp	r1, r2
	ldr	ip, [ip, #32]
	str	r0, [fp, #-60]
	mov	r0, #1
	mla	r1, r5, ip, r4
	ldr	r10, [r1, #128]
	mov	r10, r0, asl r10
	bcs	.L878
	add	r9, lr, #14400
	ldr	r6, [r7, #2540]
	add	r9, r9, #26
	mov	r0, #0
	add	r2, r2, #57600
	add	r1, lr, #57600
	add	r9, r7, r9, lsl #2
	mov	ip, r0
	add	r2, r2, #17
	add	r1, r1, #17
	str	r0, [fp, #-64]
	mov	r0, r7
	add	r2, r7, r2
	str	ip, [fp, #-72]
	str	r2, [fp, #-68]
	add	r2, r7, r1
	str	r3, [fp, #-76]
	str	r2, [fp, #-56]
.L879:
	cmp	r6, #0
	beq	.L885
	ldr	r3, [fp, #-60]
	mov	r2, #0
	ldr	r8, [r9, #-1884]
	mov	r5, r2
	add	r4, r3, #2560
	str	r2, [fp, #-52]
	b	.L882
.L922:
	ldr	r3, [r4]
	ldr	r1, [r3, #52]
	cmp	r1, #0
	beq	.L881
	ldr	r0, [r3, #12]
	ldr	r1, [r9]
	cmp	r0, r1
	ldreqb	r3, [r3, #1]	@ zero_extendqisi2
	beq	.L920
.L881:
	add	r5, r5, #1
	add	r4, r4, #4
	cmp	r5, r6
	beq	.L921
.L882:
	cmp	r8, #0
	bne	.L922
	ldr	r7, [r4]
	mov	r1, r10
	ldr	r3, [r7, #52]
	cmp	r3, #0
	beq	.L881
	ldr	r0, [r7, #12]
	bl	__aeabi_idivmod
	ldr	r0, [r9]
	str	r1, [fp, #-48]
	mov	r1, r10
	bl	__aeabi_idivmod
	ldr	r3, [fp, #-48]
	cmp	r3, r1
	bne	.L881
	ldrb	r3, [r7, #1]	@ zero_extendqisi2
.L920:
	cmp	r3, #0
	add	r5, r5, #1
	ldr	r3, [fp, #-52]
	add	r4, r4, #4
	movne	r3, #1
	cmp	r5, r6
	str	r3, [fp, #-52]
	bne	.L882
.L921:
	ldr	r2, [fp, #-52]
	cmp	r2, #0
	beq	.L885
.L883:
	ldr	r3, [fp, #-56]
	add	r9, r9, #4
	ldr	r2, [fp, #-68]
	add	r3, r3, #1
	str	r3, [fp, #-56]
	cmp	r3, r2
	bne	.L879
	ldr	r2, [fp, #-80]
	ldr	r3, [fp, #-76]
	cmp	r2, #0
	beq	.L887
.L886:
	ldr	r2, [fp, #-60]
	mov	r7, #0
	ldr	r0, [fp, #-72]
	add	r4, r2, #57600
	ldr	r10, [fp, #-80]
	mov	r9, r2
	mov	r8, r4
	add	r4, r4, #36
	add	r8, r8, #17
.L891:
	cmp	r6, #0
	beq	.L892
	add	lr, r9, #2544
	mov	r5, #0
	add	lr, lr, #12
	mov	r2, r5
	str	r0, [fp, #-48]
	b	.L889
.L888:
	cmp	r2, r6
	beq	.L923
.L889:
	ldr	r1, [lr, #4]!
	add	r2, r2, #1
	ldr	r0, [r1, #52]
	cmp	r0, #0
	bne	.L888
	ldr	ip, [r4]
	ldr	r0, [r3, #1096]
	add	r0, r0, ip
	ldr	ip, [r1, #12]
	cmp	ip, r0
	bne	.L888
	ldrb	r1, [r1, #1]	@ zero_extendqisi2
	cmp	r1, #0
	movne	r5, #1
	cmp	r2, r6
	bne	.L889
.L923:
	cmp	r5, #0
	ldr	r0, [fp, #-48]
	beq	.L892
.L890:
	add	r7, r7, #1
	add	r4, r4, #4
	cmp	r7, r10
	add	r8, r8, #1
	bcc	.L891
	str	r0, [fp, #-72]
.L887:
	ldr	r3, [fp, #-72]
	cmp	r3, #0
	ldrne	r3, [fp, #-84]
	movne	r0, #0
	ldrne	r2, [fp, #-64]
	moveq	r0, #1
	strne	r2, [r3]
.L919:
	sub	sp, fp, #40
	ldmfd	sp, {r4, r5, r6, r7, r8, r9, r10, fp, sp, pc}
.L892:
	ldr	r2, [r3, #1096]
	ldr	ip, [r4]
	ldr	r1, [r9, #200]
	add	r2, r2, ip
	cmp	r2, r1
	blt	.L890
	ldrb	r1, [r8]	@ zero_extendqisi2
	cmp	r1, #0
	ldr	r1, [fp, #-64]
	movne	r0, #1
	movne	r1, r2
	str	r1, [fp, #-64]
	b	.L890
.L885:
	ldr	r3, [fp, #-76]
	ldr	r0, [r9, #-68]
	ldr	r2, [r3, #1096]
	ldr	r3, [fp, #-60]
	add	r2, r2, r0
	ldr	r1, [r3, #200]
	cmp	r2, r1
	blt	.L883
	ldr	r3, [fp, #-56]
	ldrb	r1, [r3]	@ zero_extendqisi2
	ldr	r3, [fp, #-64]
	cmp	r1, #0
	movne	r3, r2
	str	r3, [fp, #-64]
	ldr	r3, [fp, #-72]
	movne	r3, #1
	str	r3, [fp, #-72]
	b	.L883
.L878:
	ldr	r2, [fp, #-80]
	cmp	r2, #0
	beq	.L919
	ldr	r1, [fp, #-60]
	mov	r2, #0
	str	r2, [fp, #-64]
	str	r2, [fp, #-72]
	ldr	r6, [r1, #2540]
	b	.L886
	UNWIND(.fnend)
	.size	HEVC_CheckThatAllRefPicsAreAvailable, .-HEVC_CheckThatAllRefPicsAreAvailable
	.align	2
	.global	HEVC_SetFrmRepeatCount
	.type	HEVC_SetFrmRepeatCount, %function
HEVC_SetFrmRepeatCount:
	UNWIND(.fnstart)
	@ args = 0, pretend = 0, frame = 0
	@ frame_needed = 1, uses_anonymous_args = 0
	UNWIND(.movsp ip)
	mov	ip, sp
	stmfd	sp!, {fp, ip, lr, pc}
	UNWIND(.pad #4)
	UNWIND(.save {fp, ip, lr})
	UNWIND(.setfp fp, ip, #-4)
	sub	fp, ip, #4
	ldr	r3, [r0, #2356]
	ldr	r3, [r3, #604]
	add	r3, r3, #2032
	add	r3, r3, #15
	cmp	r3, #4096
	movcc	r3, #0
	strcc	r3, [r1, #24]
	ldmccfd	sp, {fp, sp, pc}
	sub	sp, fp, #12
	ldmia	sp, {fp, sp, lr}
	b	HEVC_SetFrmRepeatCount.part.4
	UNWIND(.fnend)
	.size	HEVC_SetFrmRepeatCount, .-HEVC_SetFrmRepeatCount
	.align	2
	.global	HEVC_GetFreeFrameStoreNum
	.type	HEVC_GetFreeFrameStoreNum, %function
HEVC_GetFreeFrameStoreNum:
	UNWIND(.fnstart)
	@ args = 0, pretend = 0, frame = 0
	@ frame_needed = 1, uses_anonymous_args = 0
	UNWIND(.movsp ip)
	mov	ip, sp
	stmfd	sp!, {r4, r5, fp, ip, lr, pc}
	UNWIND(.pad #4)
	UNWIND(.save {r4, r5, fp, ip, lr})
	UNWIND(.setfp fp, ip, #-4)
	sub	fp, ip, #4
	add	r2, r0, #67584
	add	r4, r0, #81920
	add	r2, r2, #640
	add	r4, r4, #384
	mov	r5, #0
.L931:
	ldr	r3, [r2, #4]
	cmp	r3, #0
	bne	.L927
	cmp	r2, #0
	beq	.L928
	ldr	lr, [r0, #2540]
	cmp	lr, #0
	beq	.L928
	ldr	r1, [r0, #2560]
	cmp	r1, r2
	beq	.L927
	add	r1, r0, #2560
	b	.L929
.L930:
	ldr	ip, [r1, #4]!
	cmp	ip, r2
	beq	.L927
.L929:
	add	r3, r3, #1
	cmp	r3, lr
	bne	.L930
.L928:
	add	r5, r5, #1
.L927:
	add	r2, r2, #704
	cmp	r2, r4
	bne	.L931
	mov	r0, r5
	ldmfd	sp, {r4, r5, fp, sp, pc}
	UNWIND(.fnend)
	.size	HEVC_GetFreeFrameStoreNum, .-HEVC_GetFreeFrameStoreNum
	.align	2
	.global	HEVC_UpdateReflist
	.type	HEVC_UpdateReflist, %function
HEVC_UpdateReflist:
	UNWIND(.fnstart)
	@ args = 0, pretend = 0, frame = 8
	@ frame_needed = 1, uses_anonymous_args = 0
	UNWIND(.movsp ip)
	mov	ip, sp
	stmfd	sp!, {r4, r5, r6, r7, r8, r9, r10, fp, ip, lr, pc}
	UNWIND(.pad #4)
	UNWIND(.save {r4, r5, r6, r7, r8, r9, r10, fp, ip, lr})
	UNWIND(.setfp fp, ip, #-4)
	sub	fp, ip, #4
	UNWIND(.pad #12)
	sub	sp, sp, #12
	add	r10, r0, #57344
	mov	r5, r0
	ldr	r1, [r10, #236]
	cmp	r1, #0
	beq	.L965
	add	r9, r0, #57600
	mov	r7, #0
	add	ip, r0, #53248
	mov	r6, r7
	mov	r8, r9
	add	r9, r9, #16
	add	r8, r8, #36
.L949:
	ldrb	r3, [r9, #1]!	@ zero_extendqisi2
	cmp	r3, #0
	beq	.L943
	ldr	r4, [r5, #2540]
	ldr	lr, [ip, #1096]
	ldr	r3, [r8]
	cmp	r4, #0
	add	lr, lr, r3
	beq	.L943
	ldr	r1, [r5, #2560]
	ldr	r3, [r1, #12]
	cmp	r3, lr
	addne	r2, r5, #2560
	movne	r3, #0
	bne	.L946
	b	.L997
.L948:
	ldr	r1, [r2, #4]!
	ldr	r0, [r1, #12]
	cmp	r0, lr
	beq	.L944
.L946:
	add	r3, r3, #1
	cmp	r3, r4
	bne	.L948
.L943:
	ldr	r1, [r10, #236]
	add	r6, r6, #1
	add	r8, r8, #4
	cmp	r1, r6
	bhi	.L949
.L942:
	ldr	r2, [r5, #2536]
	str	r7, [r5, #2552]
	cmp	r2, r7
	addhi	r3, r7, #656
	movhi	r0, #0
	addhi	r3, r5, r3, lsl #2
	bls	.L954
.L953:
	add	r7, r7, #1
	str	r0, [r3, #4]!
	cmp	r7, r2
	bne	.L953
.L954:
	ldr	r8, [r10, #240]
	add	r8, r1, r8
	cmp	r8, r6
	movls	r7, #0
	bls	.L952
	add	r9, r6, #14400
	add	r10, r6, #57600
	add	r9, r9, #9
	add	r10, r10, #16
	add	r10, r5, r10
	add	ip, r5, #53248
	add	r9, r5, r9, lsl #2
	mov	r7, #0
.L961:
	ldrb	r3, [r10, #1]!	@ zero_extendqisi2
	cmp	r3, #0
	beq	.L955
	ldr	r4, [r5, #2540]
	ldr	lr, [ip, #1096]
	ldr	r3, [r9]
	cmp	r4, #0
	add	lr, lr, r3
	beq	.L955
	ldr	r1, [r5, #2560]
	ldr	r3, [r1, #12]
	cmp	r3, lr
	addne	r2, r5, #2560
	movne	r3, #0
	bne	.L958
	b	.L998
.L960:
	ldr	r1, [r2, #4]!
	ldr	r0, [r1, #12]
	cmp	r0, lr
	beq	.L956
.L958:
	add	r3, r3, #1
	cmp	r3, r4
	bne	.L960
.L955:
	add	r6, r6, #1
	add	r9, r9, #4
	cmp	r8, r6
	bhi	.L961
.L1001:
	ldr	r2, [r5, #2536]
.L952:
	cmp	r2, r7
	str	r7, [r5, #2556]
	bls	.L941
	add	r1, r7, #672
	mov	r3, #0
	add	r1, r1, #1
	add	r5, r5, r1, lsl #2
.L963:
	add	r7, r7, #1
	str	r3, [r5, #4]!
	cmp	r7, r2
	bne	.L963
.L941:
	sub	sp, fp, #40
	ldmfd	sp, {r4, r5, r6, r7, r8, r9, r10, fp, sp, pc}
.L997:
	mov	r3, #0
.L944:
	add	r4, r5, r3, lsl #2
	mov	r2, #1
	strb	r2, [r1, #1]
	ldr	r3, [r4, #2560]
	ldrb	r1, [r3, #1]	@ zero_extendqisi2
	cmp	r1, #0
	bne	.L999
.L947:
	mov	r2, #1
	str	r2, [r3, #56]
	ldr	r2, [r4, #2560]
	mov	r1, #0
	add	r3, r5, r7, lsl #2
	add	r7, r7, #1
	str	r1, [r2, #52]
	ldr	r2, [r4, #2560]
	str	r2, [r3, #2628]
	b	.L943
.L998:
	mov	r3, #0
.L956:
	add	r4, r5, r3, lsl #2
	mov	r2, #1
	strb	r2, [r1, #1]
	ldr	r3, [r4, #2560]
	ldrb	r1, [r3, #1]	@ zero_extendqisi2
	cmp	r1, #0
	bne	.L1000
.L959:
	mov	r2, #1
	str	r2, [r3, #56]
	ldr	r2, [r4, #2560]
	add	r3, r7, #672
	mov	r1, #0
	add	r6, r6, #1
	add	r3, r3, #2
	cmp	r8, r6
	str	r1, [r2, #52]
	add	r7, r7, #1
	ldr	r2, [r4, #2560]
	add	r9, r9, #4
	str	r2, [r5, r3, asl #2]
	bhi	.L961
	b	.L1001
.L999:
	ldr	r1, [r3, #32]
	ldr	r0, [r5, #276]
	str	ip, [fp, #-48]
	bl	FSP_SetRef
	ldr	r3, [r4, #2560]
	ldr	ip, [fp, #-48]
	b	.L947
.L1000:
	ldr	r1, [r3, #32]
	ldr	r0, [r5, #276]
	str	ip, [fp, #-48]
	bl	FSP_SetRef
	ldr	r3, [r4, #2560]
	ldr	ip, [fp, #-48]
	b	.L959
.L965:
	mov	r7, r1
	mov	r6, r1
	b	.L942
	UNWIND(.fnend)
	.size	HEVC_UpdateReflist, .-HEVC_UpdateReflist
	.align	2
	.global	HEVC_UpdateLTReflist
	.type	HEVC_UpdateLTReflist, %function
HEVC_UpdateLTReflist:
	UNWIND(.fnstart)
	@ args = 0, pretend = 0, frame = 8
	@ frame_needed = 1, uses_anonymous_args = 0
	UNWIND(.movsp ip)
	mov	ip, sp
	stmfd	sp!, {r4, r5, r6, r7, r8, r9, r10, fp, ip, lr, pc}
	UNWIND(.pad #4)
	UNWIND(.save {r4, r5, r6, r7, r8, r9, r10, fp, ip, lr})
	UNWIND(.setfp fp, ip, #-4)
	sub	fp, ip, #4
	UNWIND(.pad #12)
	sub	sp, sp, #12
	add	r3, r0, #53248
	ldr	r2, [r0, #2352]
	movw	ip, #2024
	ldr	r3, [r3, #1124]
	add	r10, r0, #57344
	ldr	lr, [r0, #2348]
	movw	r4, #26164
	ldr	r5, [r10, #240]
	mov	r1, #1
	mla	ip, ip, r3, r2
	ldr	r2, [r10, #236]
	ldr	r3, [r10, #244]
	add	r2, r2, r5
	sub	r2, r2, #1
	sub	r9, r3, #1
	cmp	r9, r2
	ldr	ip, [ip, #32]
	mla	r2, r4, ip, lr
	ldr	r8, [r2, #128]
	mov	r8, r1, asl r8
	ble	.L1013
	add	r7, r3, #14400
	add	r3, r3, #57600
	add	r7, r7, #25
	add	r3, r3, #17
	add	r3, r0, r3
	sub	r8, r8, #1
	add	r7, r0, r7, lsl #2
	mov	r6, #0
	str	r6, [fp, #-48]
	mov	r6, r3
	str	r1, [fp, #-52]
.L1009:
	ldrb	r3, [r6, #-1]!	@ zero_extendqisi2
	cmp	r3, #0
	beq	.L1004
	ldrb	r4, [r7, #-1884]	@ zero_extendqisi2
	ldr	lr, [r7]
	ldr	r5, [r0, #2540]
	cmp	r4, #0
	andeq	lr, lr, r8
	cmp	r5, #0
	ble	.L1004
	add	r1, r0, #2544
	mov	r3, #0
	add	r1, r1, #12
	b	.L1008
.L1007:
	add	r3, r3, #1
	cmp	r3, r5
	beq	.L1004
.L1008:
	ldr	ip, [r1, #4]!
	cmp	r4, #0
	ldr	r2, [ip, #12]
	andeq	r2, r2, r8
	cmp	lr, r2
	bne	.L1007
	ldr	r1, [fp, #-48]
	add	r3, r0, r3, lsl #2
	ldr	lr, [fp, #-52]
	add	r2, r0, r1, lsl #2
	add	r1, r1, #1
	strb	lr, [ip, #1]
	mov	ip, #0
	str	r1, [fp, #-48]
	ldr	r1, [r3, #2560]
	str	ip, [r1, #56]
	ldr	r1, [r3, #2560]
	str	lr, [r1, #52]
	ldr	r3, [r3, #2560]
	str	r3, [r2, #2764]
.L1004:
	ldr	r3, [r10, #236]
	sub	r9, r9, #1
	ldr	r2, [r10, #240]
	sub	r7, r7, #4
	add	r3, r3, r2
	sub	r3, r3, #1
	cmp	r3, r9
	blt	.L1009
	ldr	r6, [fp, #-48]
	mov	r2, r6
.L1003:
	ldr	r3, [r0, #2536]
	str	r2, [r0, #2548]
	cmp	r3, r6
	ble	.L1002
	add	r1, r6, #688
	mov	r2, #0
	add	r1, r1, #2
	add	r0, r0, r1, lsl #2
.L1011:
	add	r6, r6, #1
	str	r2, [r0, #4]!
	cmp	r6, r3
	bne	.L1011
.L1002:
	sub	sp, fp, #40
	ldmfd	sp, {r4, r5, r6, r7, r8, r9, r10, fp, sp, pc}
.L1013:
	mov	r2, #0
	mov	r6, r2
	b	.L1003
	UNWIND(.fnend)
	.size	HEVC_UpdateLTReflist, .-HEVC_UpdateLTReflist
	.align	2
	.global	HEVC_GetAPC
	.type	HEVC_GetAPC, %function
HEVC_GetAPC:
	UNWIND(.fnstart)
	@ args = 0, pretend = 0, frame = 0
	@ frame_needed = 1, uses_anonymous_args = 0
	UNWIND(.movsp ip)
	mov	ip, sp
	stmfd	sp!, {r4, r5, r6, fp, ip, lr, pc}
	UNWIND(.pad #4)
	UNWIND(.save {r4, r5, r6, fp, ip, lr})
	UNWIND(.setfp fp, ip, #-4)
	sub	fp, ip, #4
	UNWIND(.pad #20)
	sub	sp, sp, #20
	subs	r6, r1, #0
	mov	r5, r0
	beq	.L1021
	ldr	ip, [r0, #2832]
	cmp	ip, #0
	beq	.L1030
	ldr	r4, [r0, #2840]
	cmp	r4, #0
	addne	r3, r0, #2832
	movne	r4, #0
	addne	r3, r3, #8
	bne	.L1025
	b	.L1023
.L1028:
	ldr	r2, [r3, #4]!
	cmp	r2, #0
	beq	.L1023
.L1025:
	add	r4, r4, #1
	cmp	r4, ip
	bne	.L1028
.L1030:
	mvn	r0, #6
.L1034:
	sub	sp, fp, #24
	ldmfd	sp, {r4, r5, r6, fp, sp, pc}
.L1023:
	ldr	r1, [r6, #32]
	ldr	r0, [r5, #276]
	bl	FSP_GetLogicFs
	subs	ip, r0, #0
	beq	.L1026
	ldr	r3, [ip, #640]
	cmp	r3, #0
	beq	.L1026
	add	r2, r5, r4, lsl #2
	mov	r0, #1
	mov	r3, r4
	ldr	r1, .L1035
	str	r0, [r2, #2840]
	mov	r0, #13
	ldr	ip, [ip, #640]
	ldr	ip, [ip, #8]
	str	ip, [r2, #2904]
	ldr	ip, [r6, #12]
	str	ip, [r2, #2968]
	ldr	r2, [r5, #2836]
	add	r2, r2, #1
	str	r2, [r5, #2836]
	ldr	r2, [r6, #228]
	bl	dprint_vfmw
	mov	r0, #0
	str	r4, [r6, #28]
	sub	sp, fp, #24
	ldmfd	sp, {r4, r5, r6, fp, sp, pc}
.L1026:
	ldrb	r1, [r6, #1]	@ zero_extendqisi2
	mov	r0, #0
	ldr	r2, [r6, #32]
	ldr	r3, [r6, #12]
	stmia	sp, {r1, ip}
	str	r0, [sp, #8]
	ldr	r1, .L1035+4
	bl	dprint_vfmw
	mvn	r0, #6
	b	.L1034
.L1021:
	mov	r0, r6
	movw	r3, #9276
	ldr	r2, .L1035+8
	ldr	r1, .L1035+12
	bl	dprint_vfmw
	mvn	r0, #6
	b	.L1034
.L1036:
	.align	2
.L1035:
	.word	.LC83
	.word	.LC84
	.word	.LC45
	.word	.LC46
	UNWIND(.fnend)
	.size	HEVC_GetAPC, .-HEVC_GetAPC
	.align	2
	.global	HEVC_CheckFrameStore
	.type	HEVC_CheckFrameStore, %function
HEVC_CheckFrameStore:
	UNWIND(.fnstart)
	@ args = 0, pretend = 0, frame = 0
	@ frame_needed = 1, uses_anonymous_args = 0
	UNWIND(.movsp ip)
	mov	ip, sp
	stmfd	sp!, {r4, fp, ip, lr, pc}
	UNWIND(.pad #4)
	UNWIND(.save {r4, fp, ip, lr})
	UNWIND(.setfp fp, ip, #-4)
	sub	fp, ip, #4
	UNWIND(.pad #12)
	sub	sp, sp, #12
	mov	r4, r1
	ldr	r0, [r0, #276]
	ldr	r1, [r1, #32]
	bl	FSP_GetLogicFs
	cmp	r0, #0
	beq	.L1038
	ldrsb	r2, [r0, #1]
	cmp	r2, #3
	cmpne	r2, #0
	moveq	r0, #1
	movne	r0, #0
	beq	.L1057
	ldr	r3, [r4, #8]
	cmp	r3, #1
	beq	.L1044
	ldr	r2, [r4, #4]
	ldrb	r3, [r4]	@ zero_extendqisi2
	cmp	r2, #0
	beq	.L1043
	cmp	r3, #1
	beq	.L1043
.L1054:
	sub	sp, fp, #16
	ldmfd	sp, {r4, fp, sp, pc}
.L1057:
	ldr	r3, [r4, #32]
	mov	r0, #13
	str	r2, [sp]
	ldr	r1, .L1058
	ldr	r2, .L1058+4
	bl	dprint_vfmw
.L1040:
	ldr	r3, [r4, #8]
	cmp	r3, #1
	beq	.L1044
	ldr	r3, [r4, #12]
	mov	r0, #1
	ldr	r2, .L1058+4
	ldr	r1, .L1058+8
	bl	dprint_vfmw
	mvn	r0, #2
	b	.L1054
.L1038:
	ldr	lr, [r4, #32]
	mov	r2, r4
	ldr	ip, [r4, #8]
	mov	r0, #1
	ldr	r3, [r4, #12]
	ldr	r1, .L1058+12
	stmia	sp, {ip, lr}
	bl	dprint_vfmw
	b	.L1040
.L1043:
	str	r3, [sp, #4]
	mov	r0, #1
	str	r2, [sp]
	mov	r3, r4
	ldr	r2, .L1058+4
	ldr	r1, .L1058+16
	bl	dprint_vfmw
	mvn	r0, #0
	b	.L1054
.L1044:
	mov	r2, #1
	mov	r3, #2
	strb	r2, [r4, #2]
	mvn	r0, #2
	str	r3, [r4, #8]
	b	.L1054
.L1059:
	.align	2
.L1058:
	.word	.LC85
	.word	.LANCHOR1+332
	.word	.LC87
	.word	.LC86
	.word	.LC88
	UNWIND(.fnend)
	.size	HEVC_CheckFrameStore, .-HEVC_CheckFrameStore
	.align	2
	.global	HEVC_GetImagePara
	.type	HEVC_GetImagePara, %function
HEVC_GetImagePara:
	UNWIND(.fnstart)
	@ args = 0, pretend = 0, frame = 0
	@ frame_needed = 1, uses_anonymous_args = 0
	UNWIND(.movsp ip)
	mov	ip, sp
	stmfd	sp!, {r4, r5, fp, ip, lr, pc}
	UNWIND(.pad #4)
	UNWIND(.save {r4, r5, fp, ip, lr})
	UNWIND(.setfp fp, ip, #-4)
	sub	fp, ip, #4
	mov	r4, r1
	ldr	r1, [r1, #180]
	add	r5, r0, #24576
	mov	r3, #25600
	bic	r1, r1, #16128
	str	r3, [r4, #208]
	bic	r1, r1, #3
	str	r1, [r4, #180]
	ldr	r3, [r5, #2864]
	ldr	lr, [r4, #16]
	add	r3, r3, #12288
	ldr	r2, [r3, #180]
	bic	r2, r2, #-16777216
	bic	r2, r2, #255
	cmp	r2, #256
	moveq	ip, #0
	beq	.L1061
	mov	r3, #256
	movt	r3, 1
	cmp	r2, r3
	movne	ip, #1
	bne	.L1061
	add	r3, r0, #4096
	ldr	ip, [r3, #480]
	subs	ip, ip, #1
	movne	ip, #1
.L1061:
	ldr	r3, [r5, #2868]
	ldrb	r3, [r3, #2633]	@ zero_extendqisi2
	cmp	r3, #0
	moveq	r2, #3072
	beq	.L1062
	ldr	r3, [r4, #696]
	cmp	r3, #1
	cmpne	r3, #11
	moveq	r2, #1024
	bne	.L1084
.L1063:
	ldr	r3, [r4, #700]
	clz	ip, r3
	mov	ip, ip, lsr #5
.L1062:
	and	r3, lr, #3
	add	lr, r0, #53248
	orr	r1, r3, r1
	orr	r3, r1, r2
	orr	r3, r3, ip, asl #8
	orr	r2, r3, #8192
	str	r2, [r4, #180]
	ldr	r2, [lr, #384]
	cmp	r2, #1920
	bichi	r3, r3, #131072
	orrls	r3, r3, #139264
	orrhi	r3, r3, #8192
	str	r3, [r4, #180]
	ldr	r2, [r0, #2356]
	ldr	r2, [r2, #592]
	cmp	r2, #1
	movne	r1, #0
	beq	.L1085
.L1066:
	ldr	r2, [r4, #4]
	orr	r3, r1, r3
	str	r3, [r4, #180]
	cmp	r2, #0
	ldr	r1, [r4, #32]
	ldrne	r3, [r4, #20]
	strne	r3, [r4, #232]
	ldr	r0, [r0, #276]
	bl	FSP_GetFsImagePtr
	subs	r5, r0, #0
	ldmeqfd	sp, {r4, r5, fp, sp, pc}
	ldr	r3, .L1086
	mov	r2, #624
	add	r1, r4, #72
	ldr	r3, [r3, #52]
	blx	r3
	mov	r3, #16
	str	r3, [r5, #376]
	mov	r3, #1
	ldr	r2, [r4, #48]
	strb	r3, [r5, #371]
	cmp	r2, #0
	strb	r3, [r5, #369]
	moveq	r3, #0
	movne	r3, #4
	strb	r3, [r5, #364]
	ldmfd	sp, {r4, r5, fp, sp, pc}
.L1084:
	bic	r3, r3, #8
	cmp	r3, #2
	moveq	r2, #2048
	movne	r2, #3072
	b	.L1063
.L1085:
	tst	r3, #131072
	movne	r1, #0
	moveq	r1, #262144
	b	.L1066
.L1087:
	.align	2
.L1086:
	.word	vfmw_Osal_Func_Ptr_S
	UNWIND(.fnend)
	.size	HEVC_GetImagePara, .-HEVC_GetImagePara
	.align	2
	.global	HEVC_OutputCurrPic
	.type	HEVC_OutputCurrPic, %function
HEVC_OutputCurrPic:
	UNWIND(.fnstart)
	@ args = 0, pretend = 0, frame = 0
	@ frame_needed = 1, uses_anonymous_args = 0
	UNWIND(.movsp ip)
	mov	ip, sp
	stmfd	sp!, {r4, r5, r6, r7, r8, fp, ip, lr, pc}
	UNWIND(.pad #4)
	UNWIND(.save {r4, r5, r6, r7, r8, fp, ip, lr})
	UNWIND(.setfp fp, ip, #-4)
	sub	fp, ip, #4
	UNWIND(.pad #12)
	sub	sp, sp, #12
	add	r6, r0, #53248
	mov	r4, r0
	mov	r2, #624
	ldr	r5, [r6, #420]
	add	r1, r6, #424
	ldr	r3, [r6, #408]
	add	r0, r5, #72
	str	r3, [r5, #20]
	bl	memcpy
	mov	r1, r5
	mov	r0, r4
	bl	HEVC_GetImagePara
	ldr	r1, [r5, #32]
	ldr	r0, [r4, #276]
	bl	FSP_GetFsImagePtr
	subs	r7, r0, #0
	beq	.L1110
	ldr	r2, [r5, #20]
	cmp	r2, #0
	str	r2, [r7, #160]
	bne	.L1091
.L1096:
	ldrb	r3, [r6, #368]	@ zero_extendqisi2
	cmp	r3, #0
	bne	.L1111
.L1093:
	mov	r2, #1
	ldr	r1, [r5, #32]
	ldr	r0, [r4, #276]
	bl	FSP_SetDisplay
	add	r3, r4, #61696
	ldr	r0, [r4, #276]
	add	r3, r3, #64
	str	r7, [sp]
	mov	r2, r4
	mov	r1, #16
	bl	InsertImgToVoQueue
	cmp	r0, #1
	bne	.L1112
	ldr	r3, [r4, #2356]
	ldr	r3, [r3, #604]
	add	r3, r3, #2032
	add	r3, r3, #15
	cmp	r3, #4096
	movcc	r3, #0
	strcc	r3, [r7, #24]
	bcs	.L1113
.L1100:
	ldr	r2, [r4, #316]
	mov	r0, #0
	ldr	r3, [r4, #308]
	add	r2, r2, #1
	str	r2, [r4, #316]
	add	r3, r3, #1
	str	r3, [r4, #308]
.L1090:
	sub	sp, fp, #32
	ldmfd	sp, {r4, r5, r6, r7, r8, fp, sp, pc}
.L1091:
	ldr	r8, [r6, #380]
	cmp	r8, #0
	beq	.L1114
.L1094:
	ldr	r3, [r4, #2356]
	ldr	r3, [r3, #4]
	cmp	r3, r2
	bcs	.L1096
	ldr	r1, [r5, #32]
	mov	r2, #0
	ldr	r0, [r4, #276]
	bl	FSP_SetDisplay
	ldr	r1, [r4, #2356]
	ldr	r3, [r7, #160]
	mov	r0, #1
	ldr	r2, .L1115
	ldr	ip, [r1, #4]
	ldr	r1, .L1115+4
	str	ip, [sp]
	bl	dprint_vfmw
	mvn	r0, #0
	b	.L1090
.L1111:
	mov	r2, #1
	ldr	r1, [r5, #32]
	ldr	r0, [r4, #276]
	bl	FSP_SetRef
	b	.L1093
.L1113:
	mov	r1, r7
	mov	r0, r4
	bl	HEVC_SetFrmRepeatCount.part.4
	b	.L1100
.L1114:
	ldr	r2, .L1115
	mov	r0, #1
	ldr	r1, .L1115+8
	bl	dprint_vfmw
	ldr	r3, .L1115+12
	ldr	ip, [r3]
	cmp	ip, #0
	beq	.L1095
	mov	r3, r8
	mov	r2, r8
	mov	r1, #111
	ldr	r0, [r4, #276]
	blx	ip
.L1095:
	ldr	r2, [r7, #160]
	cmp	r2, #0
	bne	.L1094
	b	.L1096
.L1112:
	ldr	r2, .L1115
	mov	r0, #1
	ldr	r1, .L1115+16
	bl	dprint_vfmw
	ldr	r0, [r4, #276]
	ldr	r1, [r5, #32]
	mov	r2, #0
	bl	FSP_SetDisplay
	mvn	r0, #0
	b	.L1090
.L1110:
	ldr	r2, .L1115
	ldr	r1, .L1115+20
	bl	dprint_vfmw
	mvn	r0, #0
	b	.L1090
.L1116:
	.align	2
.L1115:
	.word	.LANCHOR1+356
	.word	.LC92
	.word	.LC90
	.word	g_event_report
	.word	.LC91
	.word	.LC89
	UNWIND(.fnend)
	.size	HEVC_OutputCurrPic, .-HEVC_OutputCurrPic
	.align	2
	.global	HEVC_FirstFrameFastOut
	.type	HEVC_FirstFrameFastOut, %function
HEVC_FirstFrameFastOut:
	UNWIND(.fnstart)
	@ args = 0, pretend = 0, frame = 0
	@ frame_needed = 1, uses_anonymous_args = 0
	UNWIND(.movsp ip)
	mov	ip, sp
	stmfd	sp!, {r4, r5, fp, ip, lr, pc}
	UNWIND(.pad #4)
	UNWIND(.save {r4, r5, fp, ip, lr})
	UNWIND(.setfp fp, ip, #-4)
	sub	fp, ip, #4
	mov	r4, r0
	bl	HEVC_OutputCurrPic
	subs	r5, r0, #0
	bne	.L1120
	add	r3, r4, #53248
	add	r1, r4, #61440
	mov	r2, #1
	mov	ip, #2
	ldr	r0, [r3, #420]
	str	ip, [r0, #8]
	mov	r0, r5
	str	r2, [r1, #672]
	ldr	r1, [r3, #376]
	str	r1, [r4, #244]
	ldr	r3, [r3, #420]
	strb	r2, [r3, #2]
	ldmfd	sp, {r4, r5, fp, sp, pc}
.L1120:
	ldr	r2, .L1121
	mov	r0, #1
	ldr	r1, .L1121+4
	bl	dprint_vfmw
	mov	r0, r5
	ldmfd	sp, {r4, r5, fp, sp, pc}
.L1122:
	.align	2
.L1121:
	.word	.LANCHOR1+376
	.word	.LC93
	UNWIND(.fnend)
	.size	HEVC_FirstFrameFastOut, .-HEVC_FirstFrameFastOut
	.align	2
	.global	HEVC_CheckOutputImage
	.type	HEVC_CheckOutputImage, %function
HEVC_CheckOutputImage:
	UNWIND(.fnstart)
	@ args = 0, pretend = 0, frame = 0
	@ frame_needed = 1, uses_anonymous_args = 0
	UNWIND(.movsp ip)
	mov	ip, sp
	stmfd	sp!, {fp, ip, lr, pc}
	UNWIND(.pad #4)
	UNWIND(.save {fp, ip, lr})
	UNWIND(.setfp fp, ip, #-4)
	sub	fp, ip, #4
	cmp	r1, #19
	bhi	.L1125
	mov	r3, #704
	mla	r1, r3, r1, r0
	add	r1, r1, #67584
	ldrb	r0, [r1, #641]	@ zero_extendqisi2
	adds	r0, r0, #0
	movne	r0, #1
	ldmfd	sp, {fp, sp, pc}
.L1125:
	mvn	r0, #0
	ldmfd	sp, {fp, sp, pc}
	UNWIND(.fnend)
	.size	HEVC_CheckOutputImage, .-HEVC_CheckOutputImage
	.align	2
	.global	HEVC_DECRecycleImage
	.type	HEVC_DECRecycleImage, %function
HEVC_DECRecycleImage:
	UNWIND(.fnstart)
	@ args = 0, pretend = 0, frame = 0
	@ frame_needed = 1, uses_anonymous_args = 0
	UNWIND(.movsp ip)
	mov	ip, sp
	stmfd	sp!, {r4, r5, r6, r7, r8, r9, fp, ip, lr, pc}
	UNWIND(.pad #4)
	UNWIND(.save {r4, r5, r6, r7, r8, r9, fp, ip, lr})
	UNWIND(.setfp fp, ip, #-4)
	sub	fp, ip, #4
	mov	r5, r0
	ldr	r0, [r0, #276]
	mov	r8, r1
	bl	FSP_GetLogicFs
	cmp	r0, #0
	beq	.L1131
	ldrsb	r3, [r0, #1]
	cmp	r3, #0
	addne	r4, r0, #560
	addne	r9, r0, #592
	movne	r6, #0
	movne	r7, #0
	beq	.L1136
.L1130:
	ldrd	r2, [r4, #8]!
	orrs	r1, r2, r3
	bne	.L1137
.L1129:
	cmp	r4, r9
	bne	.L1130
	ldr	r0, [r5, #276]
	mov	r1, r8
	mov	r2, #0
	bl	FSP_SetDisplay
	mov	r0, #0
	ldmfd	sp, {r4, r5, r6, r7, r8, r9, fp, sp, pc}
.L1137:
	mov	r1, r2
	ldr	r0, [r5, #276]
	bl	FreeUsdByDec
	strd	r6, [r4]
	b	.L1129
.L1136:
	ldr	r1, .L1138
	mov	r0, #1
	bl	dprint_vfmw
	mvn	r0, #0
	ldmfd	sp, {r4, r5, r6, r7, r8, r9, fp, sp, pc}
.L1131:
	mvn	r0, #0
	ldmfd	sp, {r4, r5, r6, r7, r8, r9, fp, sp, pc}
.L1139:
	.align	2
.L1138:
	.word	.LC94
	UNWIND(.fnend)
	.size	HEVC_DECRecycleImage, .-HEVC_DECRecycleImage
	.align	2
	.global	HEVC_ArrangeVahbMem
	.type	HEVC_ArrangeVahbMem, %function
HEVC_ArrangeVahbMem:
	UNWIND(.fnstart)
	@ args = 12, pretend = 0, frame = 40
	@ frame_needed = 1, uses_anonymous_args = 0
	UNWIND(.movsp ip)
	mov	ip, sp
	stmfd	sp!, {r4, r5, r6, fp, ip, lr, pc}
	UNWIND(.pad #4)
	UNWIND(.save {r4, r5, r6, fp, ip, lr})
	UNWIND(.setfp fp, ip, #-4)
	sub	fp, ip, #4
	UNWIND(.pad #44)
	sub	sp, sp, #44
	ldr	r3, .L1150
	mov	r5, r1
	mov	r6, r2
	mov	r4, r0
	mov	r2, #32
	ldr	r3, [r3, #48]
	sub	r0, fp, #60
	mov	r1, #0
	blx	r3
	ldr	r3, [r4, #2356]
	str	r6, [fp, #-32]
	mov	r0, #0
	str	r5, [fp, #-52]
	ldr	r3, [r3, #28]
	str	r6, [fp, #-48]
	cmp	r3, #24
	str	r5, [fp, #-44]
	str	r6, [fp, #-40]
	str	r5, [fp, #-36]
	strb	r0, [fp, #-60]
	strb	r0, [fp, #-59]
	beq	.L1141
	ldr	r2, [r4, #2536]
	mov	r1, #5
	ldrb	r3, [fp, #12]	@ zero_extendqisi2
	strb	r0, [fp, #-56]
	strb	r1, [fp, #-55]
	strb	r2, [fp, #-57]
.L1146:
	sub	r1, fp, #60
	ldr	r0, [r4, #276]
	strb	r3, [fp, #-54]
	mov	r3, #0
	strb	r3, [fp, #-58]
	bl	FSP_ConfigInstance
	cmp	r0, #0
	bne	.L1142
	ldr	r1, [r4, #2356]
	sub	r3, fp, #64
	ldr	r0, [r4, #276]
	ldr	r2, [r1, #24]
	ldr	r1, [r1, #20]
	bl	FSP_ConfigFrameBuf
	cmp	r0, #2
	beq	.L1149
	cmp	r0, #0
	moveq	r0, #1
	bne	.L1144
.L1148:
	sub	sp, fp, #24
	ldmfd	sp, {r4, r5, r6, fp, sp, pc}
.L1141:
	mov	r3, #1
	mov	r2, #5
	strb	r0, [fp, #-56]
	strb	r3, [fp, #-57]
	strb	r2, [fp, #-55]
	b	.L1146
.L1149:
	add	r0, r4, #61696
	add	r0, r0, #64
	bl	ResetVoQueue
.L1144:
	ldr	r1, .L1150+4
	mov	r0, #1
	bl	dprint_vfmw
	mvn	r0, #19
	b	.L1148
.L1142:
	ldr	r1, .L1150+8
	mov	r0, #1
	bl	dprint_vfmw
	mvn	r0, #19
	b	.L1148
.L1151:
	.align	2
.L1150:
	.word	vfmw_Osal_Func_Ptr_S
	.word	.LC95
	.word	.LC96
	UNWIND(.fnend)
	.size	HEVC_ArrangeVahbMem, .-HEVC_ArrangeVahbMem
	.align	2
	.global	HEVC_ConvertHDRInfo
	.type	HEVC_ConvertHDRInfo, %function
HEVC_ConvertHDRInfo:
	UNWIND(.fnstart)
	@ args = 0, pretend = 0, frame = 0
	@ frame_needed = 1, uses_anonymous_args = 0
	UNWIND(.movsp ip)
	mov	ip, sp
	stmfd	sp!, {r4, r5, fp, ip, lr, pc}
	UNWIND(.pad #4)
	UNWIND(.save {r4, r5, fp, ip, lr})
	UNWIND(.setfp fp, ip, #-4)
	sub	fp, ip, #4
	ldrb	ip, [r1, #4]	@ zero_extendqisi2
	mov	r3, r0
	add	lr, r0, #256
	add	r4, r0, #264
	add	lr, lr, #2
	mov	r0, r2
	strb	ip, [r3, #256]
	mov	ip, #0
	ldr	r5, [r1, #40]
	strb	r5, [r3, #257]
	ldr	r5, [r1, #48]
	strb	r5, [r3, #258]
	ldr	r1, [r1, #44]
	str	r1, [r3, #252]
	ldrb	r1, [r2, #3432]	@ zero_extendqisi2
	strb	r1, [r3, #248]
.L1153:
	ldr	r1, [r0, #3436]
	add	ip, ip, #1
	cmp	ip, #3
	add	r0, r0, #4
	strh	r1, [lr, #2]!	@ movhi
	ldr	r1, [r0, #3444]
	strh	r1, [r4, #2]!	@ movhi
	bne	.L1153
	ldr	r4, [r2, #3460]
	add	r1, r3, #272
	movw	lr, #274
	movw	ip, #3478
	movw	r0, #3480
	strh	r4, [r1]	@ movhi
	ldr	r1, [r2, #3464]
	strh	r1, [r3, lr]	@ movhi
	ldr	r1, [r2, #3468]
	str	r1, [r3, #276]
	ldr	r1, [r2, #3472]
	str	r1, [r3, #280]
	ldrb	r1, [r2, #3476]	@ zero_extendqisi2
	strb	r1, [r3, #249]
	ldrh	r1, [r2, ip]
	str	r1, [r3, #284]
	ldrh	r1, [r2, r0]
	str	r1, [r3, #288]
	ldrb	r1, [r2, #3482]	@ zero_extendqisi2
	strb	r1, [r3, #292]
	ldrb	r1, [r2, #3224]	@ zero_extendqisi2
	cmp	r1, #1
	ldmnefd	sp, {r4, r5, fp, sp, pc}
	strb	r1, [r3, #296]
	add	r1, r2, #3216
	ldr	lr, [r2, #3264]
	add	r0, r3, #296
	ldr	ip, .L1156
	add	r1, r1, #12
	mov	r2, #36
	str	lr, [r3, #336]
	ldr	r3, [ip, #52]
	sub	sp, fp, #20
	ldmfd	sp, {r4, r5, fp, sp, lr}
	bx	r3
.L1157:
	.align	2
.L1156:
	.word	vfmw_Osal_Func_Ptr_S
	UNWIND(.fnend)
	.size	HEVC_ConvertHDRInfo, .-HEVC_ConvertHDRInfo
	.align	2
	.global	HEVC_AllocFrameStore
	.type	HEVC_AllocFrameStore, %function
HEVC_AllocFrameStore:
	UNWIND(.fnstart)
	@ args = 0, pretend = 0, frame = 0
	@ frame_needed = 1, uses_anonymous_args = 0
	UNWIND(.movsp ip)
	mov	ip, sp
	stmfd	sp!, {r4, r5, r6, r7, r8, r9, fp, ip, lr, pc}
	UNWIND(.pad #4)
	UNWIND(.save {r4, r5, r6, r7, r8, r9, fp, ip, lr})
	UNWIND(.setfp fp, ip, #-4)
	sub	fp, ip, #4
	add	r6, r0, #53248
	ldr	r3, [r0, #2352]
	mov	r7, r0
	movw	r0, #2024
	ldr	r2, [r6, #1124]
	movw	r5, #26164
	ldr	ip, [r7, #2348]
	add	lr, r7, #67584
	mov	r1, #0
	add	lr, lr, #640
	mla	r3, r0, r2, r3
	mov	r0, r1
	ldr	r3, [r3, #32]
	strb	r1, [r6, #369]
	mla	r5, r5, r3, ip
.L1163:
	ldr	r3, [lr, #4]
	cmp	r3, #0
	bne	.L1159
	cmp	lr, #0
	beq	.L1170
	ldr	r1, [r7, #2540]
	cmp	r1, #0
	beq	.L1170
	ldr	r2, [r7, #2560]
	cmp	r2, lr
	beq	.L1159
	add	r2, r7, #2560
	b	.L1161
.L1162:
	ldr	ip, [r2, #4]!
	cmp	ip, lr
	beq	.L1159
.L1161:
	add	r3, r3, #1
	cmp	r3, r1
	bne	.L1162
.L1170:
	mov	r8, #704
	mov	r4, lr
	mla	r8, r8, r0, r7
	mov	r3, #101
	mov	r2, #624
	str	r3, [r6, #408]
	add	r0, r6, #424
	mov	r3, #1
	add	r8, r8, #67584
	strb	r3, [r6, #369]
	add	r1, r8, #712
	mov	r9, #0
	bl	memcpy
	str	r4, [r6, #420]
	str	r9, [r6, #584]
	str	r9, [r8, #660]
	strb	r9, [r8, #642]
	strb	r9, [r4]
	ldr	r3, [r6, #420]
	str	r9, [r3, #52]
	ldr	r3, [r6, #420]
	str	r9, [r3, #56]
	ldr	r3, [r6, #420]
	str	r9, [r3, #8]
	ldrb	r1, [r6, #369]	@ zero_extendqisi2
	cmp	r1, #1
	bne	.L1167
	ldr	r0, [r7, #276]
	bl	FSP_NewLogicFs
	mov	r8, r0
	mov	r1, r0
	ldr	r0, [r7, #276]
	bl	FSP_GetLogicFs
	mvn	r3, r8
	mov	r3, r3, lsr #31
	cmp	r0, #0
	mov	r4, r0
	moveq	r3, #0
	cmp	r3, #0
	beq	.L1165
	add	r2, r7, #3472
	add	r1, r5, #2624
	add	r2, r2, #8
	bl	HEVC_ConvertHDRInfo
	ldr	r3, [r7, #2356]
	ldr	r3, [r3, #28]
	cmp	r3, #25
	beq	.L1174
.L1166:
	ldr	r5, .L1175
	add	r1, r4, #8
	ldr	r0, [r6, #420]
	mov	r2, #624
	ldr	r3, [r5, #52]
	add	r0, r0, #72
	blx	r3
	ldr	r1, [r6, #420]
	add	r0, r7, #53504
	ldr	r3, [r5, #52]
	add	r1, r1, #72
	mov	r2, #624
	add	r0, r0, #168
	blx	r3
	ldr	r3, [r6, #420]
	mov	r0, #0
	str	r8, [r3, #32]
	ldrsb	r3, [r4, #4]
	str	r3, [r6, #404]
	ldmfd	sp, {r4, r5, r6, r7, r8, r9, fp, sp, pc}
.L1159:
	add	r0, r0, #1
	add	lr, lr, #704
	cmp	r0, #20
	bne	.L1163
.L1167:
	ldr	r1, .L1175+4
	mov	r0, #0
	bl	dprint_vfmw
	mvn	r0, #3
	ldmfd	sp, {r4, r5, r6, r7, r8, r9, fp, sp, pc}
.L1174:
	add	r3, r7, #24576
	ldr	r5, [r4, #148]
	ldr	r0, [r4, #52]
	ldr	r2, [r3, #2868]
	ldr	r3, [r2, #76]
	ldr	r2, [r2, #72]
	mul	r5, r5, r3
	str	r2, [r4, #120]
	str	r3, [r4, #124]
	add	r0, r5, r0
	str	r0, [r4, #56]
	bl	MEM_Phy2Vir
	ldr	r2, [r4, #36]
	ldr	r3, [r4, #148]
	str	r9, [r4, #524]
	str	r0, [r4, #520]
	ldr	r0, [r4, #68]
	add	r0, r5, r0
	add	r5, r5, r2
	str	r0, [r4, #72]
	str	r5, [r4, #40]
	add	r5, r5, r3
	str	r5, [r4, #48]
	bl	MEM_Phy2Vir
	str	r9, [r4, #540]
	str	r0, [r4, #536]
	b	.L1166
.L1165:
	strb	r3, [r6, #369]
	mov	r0, r3
	ldr	r1, .L1175+8
	bl	dprint_vfmw
	mvn	r0, #3
	ldmfd	sp, {r4, r5, r6, r7, r8, r9, fp, sp, pc}
.L1176:
	.align	2
.L1175:
	.word	vfmw_Osal_Func_Ptr_S
	.word	.LC97
	.word	.LC98
	UNWIND(.fnend)
	.size	HEVC_AllocFrameStore, .-HEVC_AllocFrameStore
	.align	2
	.global	HEVC_IsVoFinish
	.type	HEVC_IsVoFinish, %function
HEVC_IsVoFinish:
	UNWIND(.fnstart)
	@ args = 0, pretend = 0, frame = 0
	@ frame_needed = 1, uses_anonymous_args = 0
	UNWIND(.movsp ip)
	mov	ip, sp
	stmfd	sp!, {r4, r5, fp, ip, lr, pc}
	UNWIND(.pad #4)
	UNWIND(.save {r4, r5, fp, ip, lr})
	UNWIND(.setfp fp, ip, #-4)
	sub	fp, ip, #4
	mov	r5, r0
	ldr	r0, [r0, #276]
	bl	FSP_GetFspType
	cmn	r0, #1
	mov	r4, r0
	movne	r4, #0
	bne	.L1181
	b	.L1184
.L1180:
	ldrsb	r3, [r0, #1]
	cmp	r3, #3
	beq	.L1182
	cmp	r4, #32
	beq	.L1185
.L1181:
	mov	r1, r4
	ldr	r0, [r5, #276]
	bl	FSP_GetLogicFs
	add	r4, r4, #1
	cmp	r0, #0
	bne	.L1180
	ldr	r1, .L1186
	mov	r0, #1
	bl	dprint_vfmw
	mvn	r0, #0
	ldmfd	sp, {r4, r5, fp, sp, pc}
.L1184:
	ldr	r1, .L1186+4
	mov	r0, #1
	bl	dprint_vfmw
	mov	r0, r4
	ldmfd	sp, {r4, r5, fp, sp, pc}
.L1182:
	mov	r0, #0
	ldmfd	sp, {r4, r5, fp, sp, pc}
.L1185:
	mov	r0, #1
	ldmfd	sp, {r4, r5, fp, sp, pc}
.L1187:
	.align	2
.L1186:
	.word	.LC100
	.word	.LC99
	UNWIND(.fnend)
	.size	HEVC_IsVoFinish, .-HEVC_IsVoFinish
	.align	2
	.global	HEVC_GetBackPicFromVOQueue
	.type	HEVC_GetBackPicFromVOQueue, %function
HEVC_GetBackPicFromVOQueue:
	UNWIND(.fnstart)
	@ args = 0, pretend = 0, frame = 0
	@ frame_needed = 1, uses_anonymous_args = 0
	UNWIND(.movsp ip)
	mov	ip, sp
	stmfd	sp!, {r4, r5, r6, r7, r8, r9, fp, ip, lr, pc}
	UNWIND(.pad #4)
	UNWIND(.save {r4, r5, r6, r7, r8, r9, fp, ip, lr})
	UNWIND(.setfp fp, ip, #-4)
	sub	fp, ip, #4
	mov	r5, r0
	ldr	r0, [r0, #276]
	bl	FSP_GetFspType
	cmp	r0, #0
	beq	.L1202
.L1189:
	add	r9, r5, #68608
	add	r8, r5, #82944
	add	r9, r9, #272
	add	r8, r8, #16
	mov	r6, #0
	mov	r7, #0
.L1192:
	sub	r4, r9, #32
	mov	r3, #0
	strb	r3, [r9, #-655]
	str	r3, [r9, #-652]
.L1191:
	ldrd	r2, [r4, #8]!
	orrs	r1, r2, r3
	bne	.L1203
.L1190:
	cmp	r4, r9
	bne	.L1191
	add	r9, r4, #704
	cmp	r9, r8
	bne	.L1192
	ldr	r2, [r5, #180]
	cmp	r2, #0
	ldmeqfd	sp, {r4, r5, r6, r7, r8, r9, fp, sp, pc}
	mov	r3, #0
	add	r5, r5, #2144
	mov	r1, r3
.L1194:
	add	r3, r3, #1
	str	r1, [r5, #4]!
	cmp	r3, r2
	bne	.L1194
	ldmfd	sp, {r4, r5, r6, r7, r8, r9, fp, sp, pc}
.L1203:
	mov	r1, r2
	ldr	r0, [r5, #276]
	bl	FreeUsdByDec
	strd	r6, [r4]
	b	.L1190
.L1202:
	add	r0, r5, #61696
	add	r0, r0, #64
	bl	ResetVoQueue
	b	.L1189
	UNWIND(.fnend)
	.size	HEVC_GetBackPicFromVOQueue, .-HEVC_GetBackPicFromVOQueue
	.align	2
	.global	HEVC_RemoveFrameStoreOutDPB
	.type	HEVC_RemoveFrameStoreOutDPB, %function
HEVC_RemoveFrameStoreOutDPB:
	UNWIND(.fnstart)
	@ args = 0, pretend = 0, frame = 0
	@ frame_needed = 1, uses_anonymous_args = 0
	UNWIND(.movsp ip)
	mov	ip, sp
	stmfd	sp!, {r4, r5, r6, r7, fp, ip, lr, pc}
	UNWIND(.pad #4)
	UNWIND(.save {r4, r5, r6, r7, fp, ip, lr})
	UNWIND(.setfp fp, ip, #-4)
	sub	fp, ip, #4
	add	r6, r0, r1, lsl #2
	mov	r7, #0
	mov	r4, r1
	mov	r5, r0
	ldr	r3, [r6, #2560]
	str	r7, [r3, #4]
	ldr	r3, [r6, #2560]
	ldr	r0, [r0, #276]
	ldr	r1, [r3, #32]
	bl	FSP_GetLogicFs
	cmp	r0, #0
	beq	.L1205
	ldrsb	r3, [r0, #1]
	cmp	r3, #3
	beq	.L1206
	ldr	r3, [r6, #2560]
	mov	r2, r7
	ldr	r0, [r5, #276]
	ldr	r1, [r3, #32]
	bl	FSP_SetDisplay
.L1206:
	ldr	r3, [r6, #2560]
	mov	r2, #0
	ldr	r0, [r5, #276]
	ldr	r1, [r3, #32]
	bl	FSP_SetRef
.L1205:
	ldr	r1, [r5, #2540]
	sub	r1, r1, #1
	cmp	r4, r1
	addls	r3, r4, #640
	addls	r3, r5, r3, lsl #2
	bhi	.L1209
.L1208:
	add	r4, r4, #1
	ldr	r2, [r3, #4]!
	cmp	r4, r1
	str	r2, [r3, #-4]
	bls	.L1208
.L1209:
	add	r3, r1, #640
	mov	r2, #0
	str	r2, [r5, r3, asl #2]
	str	r1, [r5, #2540]
	ldmfd	sp, {r4, r5, r6, r7, fp, sp, pc}
	UNWIND(.fnend)
	.size	HEVC_RemoveFrameStoreOutDPB, .-HEVC_RemoveFrameStoreOutDPB
	.align	2
	.global	HEVC_RemoveDummyFrame
	.type	HEVC_RemoveDummyFrame, %function
HEVC_RemoveDummyFrame:
	UNWIND(.fnstart)
	@ args = 0, pretend = 0, frame = 0
	@ frame_needed = 1, uses_anonymous_args = 0
	UNWIND(.movsp ip)
	mov	ip, sp
	stmfd	sp!, {r4, r5, r6, r7, fp, ip, lr, pc}
	UNWIND(.pad #4)
	UNWIND(.save {r4, r5, r6, r7, fp, ip, lr})
	UNWIND(.setfp fp, ip, #-4)
	sub	fp, ip, #4
	ldr	r3, [r0, #2540]
	mov	r5, r0
	cmp	r3, #0
	ldmeqfd	sp, {r4, r5, r6, r7, fp, sp, pc}
	mov	r7, #0
	mov	r4, r7
	mov	r6, r7
	b	.L1221
.L1220:
	ldr	r3, [r5, #2540]
	add	r4, r4, #1
	cmp	r4, r3
	mov	r7, r4
	bcs	.L1227
.L1221:
	add	r3, r4, #640
	ldr	r3, [r5, r3, asl #2]
	ldrb	r2, [r3]	@ zero_extendqisi2
	cmp	r2, #0
	beq	.L1220
	mov	r1, r7
	mov	r0, r5
	strb	r6, [r3]
	sub	r4, r4, #1
	bl	HEVC_RemoveApcStore
	mov	r1, r7
	mov	r0, r5
	bl	HEVC_RemoveFrameStoreOutDPB
	b	.L1220
.L1227:
	ldmfd	sp, {r4, r5, r6, r7, fp, sp, pc}
	UNWIND(.fnend)
	.size	HEVC_RemoveDummyFrame, .-HEVC_RemoveDummyFrame
	.align	2
	.global	HEVC_RemoveUnUsedFrameStore
	.type	HEVC_RemoveUnUsedFrameStore, %function
HEVC_RemoveUnUsedFrameStore:
	UNWIND(.fnstart)
	@ args = 0, pretend = 0, frame = 0
	@ frame_needed = 1, uses_anonymous_args = 0
	UNWIND(.movsp ip)
	mov	ip, sp
	stmfd	sp!, {r3, r4, r5, r6, r7, r8, r9, r10, fp, ip, lr, pc}
	UNWIND(.pad #4)
	UNWIND(.save {r3, r4, r5, r6, r7, r8, r9, r10, fp, ip, lr})
	UNWIND(.setfp fp, ip, #-4)
	sub	fp, ip, #4
	ldr	r5, [r0, #2540]
	mov	r7, r0
	cmp	r5, #0
	beq	.L1237
	mov	r6, #0
	mvn	r8, #0
	mov	r10, r6
	mov	r9, r6
	b	.L1236
.L1247:
	ldrsb	r3, [r0, #1]
	cmp	r3, #0
	cmpne	r3, #3
	ldr	r3, [r4, #2560]
	bne	.L1232
	ldr	r0, [r3, #8]
	cmp	r0, #1
	beq	.L1232
	str	r8, [r3, #32]
	mov	r2, #1
	ldr	r3, [r4, #2560]
	strb	r1, [r3, #1]
	ldr	r3, [r4, #2560]
	strb	r2, [r3, #2]
	ldr	r3, [r4, #2560]
.L1232:
	ldr	r3, [r3]
	bic	r3, r3, #-16777216
	bic	r3, r3, #255
	cmp	r3, #65536
	addne	r10, r10, #1
	beq	.L1246
	add	r9, r9, #1
	cmp	r9, r5
	beq	.L1229
.L1236:
	add	r4, r7, r10, lsl #2
	ldr	r0, [r7, #276]
	ldr	r3, [r4, #2560]
	ldr	r1, [r3, #32]
	bl	FSP_GetLogicFs
	cmp	r0, #0
	beq	.L1230
	ldrsb	r1, [r0]
	cmp	r1, #0
	beq	.L1247
	ldr	r3, [r4, #2560]
	b	.L1232
.L1230:
	ldr	r3, [r4, #2560]
	ldr	r1, [r3, #8]
	cmp	r1, #1
	beq	.L1232
	str	r8, [r3, #32]
	mov	r2, #1
	ldr	r3, [r4, #2560]
	strb	r0, [r3, #1]
	ldr	r3, [r4, #2560]
	strb	r2, [r3, #2]
	ldr	r3, [r4, #2560]
	b	.L1232
.L1246:
	mov	r1, r10
	mov	r0, r7
	add	r9, r9, #1
	bl	HEVC_RemoveFrameStoreOutDPB
	cmp	r9, r5
	mov	r6, #1
	bne	.L1236
.L1229:
	mov	r0, r6
	ldmfd	sp, {r3, r4, r5, r6, r7, r8, r9, r10, fp, sp, pc}
.L1237:
	mov	r6, r5
	b	.L1229
	UNWIND(.fnend)
	.size	HEVC_RemoveUnUsedFrameStore, .-HEVC_RemoveUnUsedFrameStore
	.align	2
	.global	HEVC_SimpleSlideDPB
	.type	HEVC_SimpleSlideDPB, %function
HEVC_SimpleSlideDPB:
	UNWIND(.fnstart)
	@ args = 0, pretend = 0, frame = 0
	@ frame_needed = 1, uses_anonymous_args = 0
	UNWIND(.movsp ip)
	mov	ip, sp
	stmfd	sp!, {r4, r5, fp, ip, lr, pc}
	UNWIND(.pad #4)
	UNWIND(.save {r4, r5, fp, ip, lr})
	UNWIND(.setfp fp, ip, #-4)
	sub	fp, ip, #4
	ldr	r3, [r0, #2536]
	mov	r4, r0
	ldr	r2, [r0, #2540]
	cmp	r2, r3
	ldmccfd	sp, {r4, r5, fp, sp, pc}
	cmp	r3, #15
	bls	.L1251
.L1252:
	ldr	r3, [r4, #2560]
	mov	r5, #0
	mov	r2, r5
	strb	r5, [r3, #1]
	ldr	r1, [r3, #32]
	ldr	r0, [r4, #276]
	bl	FSP_SetRef
	mov	r1, r5
	mov	r0, r4
	bl	HEVC_RemoveApcStore
	mov	r1, r5
	mov	r0, r4
	sub	sp, fp, #20
	ldmfd	sp, {r4, r5, fp, sp, lr}
	b	HEVC_RemoveFrameStoreOutDPB
.L1251:
	bl	HEVC_IncreaseDPBSize
	cmp	r0, #0
	bne	.L1252
	ldmfd	sp, {r4, r5, fp, sp, pc}
	UNWIND(.fnend)
	.size	HEVC_SimpleSlideDPB, .-HEVC_SimpleSlideDPB
	.align	2
	.global	HEVC_GetMinPOC
	.type	HEVC_GetMinPOC, %function
HEVC_GetMinPOC:
	UNWIND(.fnstart)
	@ args = 0, pretend = 0, frame = 0
	@ frame_needed = 1, uses_anonymous_args = 0
	UNWIND(.movsp ip)
	mov	ip, sp
	stmfd	sp!, {r4, r5, r6, r7, fp, ip, lr, pc}
	UNWIND(.pad #4)
	UNWIND(.save {r4, r5, r6, r7, fp, ip, lr})
	UNWIND(.setfp fp, ip, #-4)
	sub	fp, ip, #4
	mov	r7, r2
	mvn	r3, #-2147483648
	mov	r2, #0
	str	r2, [r7]
	str	r3, [r1]
	mov	r5, r1
	ldr	r2, [r0, #2540]
	mov	r6, r0
	ldr	r3, [r0, #2536]
	cmp	r2, r3
	bhi	.L1261
	cmp	r2, #0
	ldmeqfd	sp, {r4, r5, r6, r7, fp, sp, pc}
.L1262:
	add	lr, r6, #2544
	mov	r3, #0
	add	lr, lr, #12
.L1258:
	ldr	r2, [lr, #4]!
	ldr	r4, [r5]
	ldr	ip, [r2, #12]
	cmp	r4, ip
	strgt	ip, [r5]
	strgt	r3, [r7]
	add	r3, r3, #1
	ldr	ip, [r6, #2540]
	cmp	ip, r3
	bhi	.L1258
	ldmfd	sp, {r4, r5, r6, r7, fp, sp, pc}
.L1261:
	ldr	r1, .L1263
	mov	r0, #1
	bl	dprint_vfmw
	ldr	r2, [r6, #2536]
	cmp	r2, #0
	str	r2, [r6, #2540]
	bne	.L1262
	ldmfd	sp, {r4, r5, r6, r7, fp, sp, pc}
.L1264:
	.align	2
.L1263:
	.word	.LC101
	UNWIND(.fnend)
	.size	HEVC_GetMinPOC, .-HEVC_GetMinPOC
	.align	2
	.global	HEVC_GetReRangeFlag
	.type	HEVC_GetReRangeFlag, %function
HEVC_GetReRangeFlag:
	UNWIND(.fnstart)
	@ args = 4, pretend = 0, frame = 0
	@ frame_needed = 1, uses_anonymous_args = 0
	UNWIND(.movsp ip)
	mov	ip, sp
	stmfd	sp!, {r4, r5, r6, fp, ip, lr, pc}
	UNWIND(.pad #4)
	UNWIND(.save {r4, r5, r6, fp, ip, lr})
	UNWIND(.setfp fp, ip, #-4)
	sub	fp, ip, #4
	add	r3, r0, #53248
	ldr	r5, [r0, #2352]
	movw	r6, #2024
	movw	r4, #26164
	ldr	ip, [r3, #1124]
	ldr	r3, [r0, #2348]
	ldr	lr, [fp, #4]
	mla	ip, r6, ip, r5
	ldr	ip, [ip, #32]
	mla	r3, r4, ip, r3
	ldr	ip, [r3, #72]
	ldr	r3, [r3, #76]
	cmp	r1, ip
	cmpeq	lr, #0
	bne	.L1269
	cmp	r2, r3
	beq	.L1270
.L1269:
	mov	r0, #1
	ldmfd	sp, {r4, r5, r6, fp, sp, pc}
.L1270:
	ldr	r3, [r0, #168]
	cmp	r3, #0
	beq	.L1269
	ldr	r3, [r0, #2356]
	ldr	r0, [r3, #888]
	adds	r0, r0, #0
	movne	r0, #1
	ldmfd	sp, {r4, r5, r6, fp, sp, pc}
	UNWIND(.fnend)
	.size	HEVC_GetReRangeFlag, .-HEVC_GetReRangeFlag
	.align	2
	.global	HEVC_CalcStreamBits
	.type	HEVC_CalcStreamBits, %function
HEVC_CalcStreamBits:
	UNWIND(.fnstart)
	@ args = 0, pretend = 0, frame = 0
	@ frame_needed = 1, uses_anonymous_args = 0
	UNWIND(.movsp ip)
	mov	ip, sp
	stmfd	sp!, {r4, fp, ip, lr, pc}
	UNWIND(.pad #4)
	UNWIND(.save {r4, fp, ip, lr})
	UNWIND(.setfp fp, ip, #-4)
	sub	fp, ip, #4
	ldr	r4, [r0, #2364]
	ldrb	lr, [r4, #1]	@ zero_extendqisi2
	cmp	lr, #0
	beq	.L1282
	mov	r3, #0
	mov	r2, r4
	mov	r1, r3
.L1273:
	add	r3, r3, #1
	ldr	ip, [r2, #48]
	cmp	r3, lr
	add	r2, r2, #28
	add	r1, r1, ip
	bne	.L1273
.L1272:
	ldr	r2, [r0, #2340]
	mov	r3, lr, asl #5
	sub	lr, r3, lr, asl #2
	add	r4, r4, lr
	ldr	r3, [r2, #24]
	and	r3, r3, #7
	str	r3, [r4, #60]
	ldr	r2, [r0, #2364]
	ldr	r3, [r0, #2340]
	ldrb	ip, [r2, #1]	@ zero_extendqisi2
	ldr	lr, [r3, #24]
	mov	r3, ip, asl #5
	sub	r3, r3, ip, asl #2
	add	r3, r2, r3
	ldr	r2, [r3, #52]
	add	r2, r2, lr, lsr #3
	rsb	r2, r1, r2
	str	r2, [r3, #64]
	ldr	ip, [r0, #2364]
	ldr	r3, [r0, #2340]
	ldrb	r2, [ip, #1]	@ zero_extendqisi2
	ldr	lr, [r3, #24]
	mov	r3, r2, asl #5
	sub	r2, r3, r2, asl #2
	add	r2, ip, r2
	ldr	r3, [r2, #48]
	add	r3, r1, r3
	rsb	r3, lr, r3, lsl #3
	str	r3, [r2, #56]
	ldr	r2, [r0, #2364]
	ldrb	r1, [r2, #1]	@ zero_extendqisi2
	mov	r3, r1, asl #5
	sub	r3, r3, r1, asl #2
	add	r3, r2, r3
	ldr	r2, [r3, #64]
	ldr	r1, [r3, #60]
	and	r2, r2, #3
	add	r2, r1, r2, lsl #3
	str	r2, [r3, #60]
	ldr	r2, [r0, #2364]
	ldrb	r1, [r2, #1]	@ zero_extendqisi2
	mov	r3, r1, asl #5
	sub	r3, r3, r1, asl #2
	add	r3, r2, r3
	ldr	r2, [r3, #64]
	bic	r2, r2, #3
	str	r2, [r3, #64]
	ldr	r3, [r0, #2364]
	ldr	r2, [r3, #8]
	sub	ip, r2, #1
	cmp	ip, #1
	bhi	.L1289
	ldrb	r1, [r3, #1]	@ zero_extendqisi2
	add	lr, r1, #1
	cmp	r2, lr
	movhi	r2, #1
	movls	r2, #0
	cmp	lr, #1
	movhi	r2, #0
	cmp	r2, #0
	beq	.L1275
	add	r1, r1, #2
	mov	ip, #0
.L1276:
	sub	r2, r1, #1
	mov	lr, r2, asl #5
	sub	lr, lr, r2, asl #2
	add	r3, r3, lr
	str	ip, [r3, #60]
	ldr	r2, [r0, #2364]
	add	r2, r2, lr
	ldr	r3, [r2, #52]
	str	r3, [r2, #64]
	ldr	r2, [r0, #2364]
	add	r2, r2, lr
	ldr	r3, [r2, #48]
	mov	r3, r3, asl #3
	str	r3, [r2, #56]
	ldr	r3, [r0, #2364]
	add	r3, r3, lr
	ldr	r2, [r3, #64]
	ldr	r4, [r3, #60]
	and	r2, r2, #15
	add	r2, r4, r2, lsl #3
	str	r2, [r3, #60]
	ldr	r2, [r0, #2364]
	add	r3, r2, lr
	ldr	r2, [r3, #64]
	bic	r2, r2, #15
	str	r2, [r3, #64]
	ldr	r3, [r0, #2364]
	ldr	r2, [r3, #8]
	cmp	r1, #1
	cmpls	r1, r2
	add	r1, r1, #1
	movcc	lr, #1
	movcs	lr, #0
	cmp	lr, #0
	bne	.L1276
	sub	ip, r2, #1
.L1275:
	mov	r1, ip, asl #5
	ldr	lr, [r3, #12]
	sub	ip, r1, ip, asl #2
	add	r3, r3, ip
	ldr	r2, [r3, #56]
	rsb	r2, lr, r2
	str	r2, [r3, #56]
	ldr	lr, [r0, #2364]
	ldrb	r1, [lr, #1]	@ zero_extendqisi2
	ldr	r3, [lr, #8]
	cmp	r1, r3
	ldmcsfd	sp, {r4, fp, sp, pc}
	sxth	r3, r1
	add	r0, r0, #53248
	mov	r2, r3, asl #5
	sub	r3, r2, r3, asl #2
	add	r3, lr, r3
.L1280:
	ldr	r2, [r3, #64]
	add	r1, r1, #1
	ldr	ip, [r0, #400]
	add	r3, r3, #28
	cmp	r2, ip
	strcc	r2, [r0, #400]
	ldr	r2, [lr, #8]
	cmp	r2, r1
	bhi	.L1280
	ldmfd	sp, {r4, fp, sp, pc}
.L1289:
	ldr	r1, .L1290
	mov	r0, #0
	sub	sp, fp, #16
	ldmia	sp, {r4, fp, sp, lr}
	b	dprint_vfmw
.L1282:
	mov	r1, lr
	b	.L1272
.L1291:
	.align	2
.L1290:
	.word	.LC102
	UNWIND(.fnend)
	.size	HEVC_CalcStreamBits, .-HEVC_CalcStreamBits
	.align	2
	.global	HEVC_VpsSpsPpsCheck
	.type	HEVC_VpsSpsPpsCheck, %function
HEVC_VpsSpsPpsCheck:
	UNWIND(.fnstart)
	@ args = 0, pretend = 0, frame = 0
	@ frame_needed = 1, uses_anonymous_args = 0
	UNWIND(.movsp ip)
	mov	ip, sp
	stmfd	sp!, {fp, ip, lr, pc}
	UNWIND(.pad #4)
	UNWIND(.save {fp, ip, lr})
	UNWIND(.setfp fp, ip, #-4)
	sub	fp, ip, #4
	add	r2, r0, #53248
	ldr	r3, [r0, #156]
	ldr	r2, [r2, #1124]
	cmp	r2, r3
	bge	.L1300
	movw	r3, #2024
	ldr	r1, [r0, #2352]
	mul	r3, r3, r2
	add	ip, r1, r3
	ldrb	r3, [r1, r3]	@ zero_extendqisi2
	cmp	r3, #0
	beq	.L1301
	ldr	r2, [ip, #32]
	ldr	r3, [r0, #152]
	cmp	r2, r3
	bge	.L1302
	ldr	r1, [r0, #2348]
	movw	r3, #26164
	mla	r3, r3, r2, r1
	ldrb	r1, [r3, #1]	@ zero_extendqisi2
	cmp	r1, #0
	beq	.L1303
	ldr	r2, [r3, #52]
	ldr	r3, [r0, #148]
	cmp	r2, r3
	bcs	.L1304
	movw	r3, #23196
	ldr	r1, [r0, #2344]
	mul	r3, r3, r2
	ldrb	r3, [r1, r3]	@ zero_extendqisi2
	cmp	r3, #0
	beq	.L1305
	mov	r0, #0
	ldmfd	sp, {fp, sp, pc}
.L1300:
	ldr	r1, .L1306
	mov	r0, #1
	bl	dprint_vfmw
	mvn	r0, #0
	ldmfd	sp, {fp, sp, pc}
.L1301:
	ldr	r1, .L1306+4
	mov	r0, #1
	bl	dprint_vfmw
	mvn	r0, #0
	ldmfd	sp, {fp, sp, pc}
.L1302:
	ldr	r1, .L1306+8
	mov	r0, #1
	bl	dprint_vfmw
	mvn	r0, #0
	ldmfd	sp, {fp, sp, pc}
.L1303:
	ldr	r1, .L1306+12
	mov	r0, #1
	bl	dprint_vfmw
	mvn	r0, #0
	ldmfd	sp, {fp, sp, pc}
.L1304:
	ldr	r1, .L1306+16
	mov	r0, #1
	bl	dprint_vfmw
	mvn	r0, #0
	ldmfd	sp, {fp, sp, pc}
.L1305:
	ldr	r1, .L1306+20
	mov	r0, #1
	bl	dprint_vfmw
	mvn	r0, #0
	ldmfd	sp, {fp, sp, pc}
.L1307:
	.align	2
.L1306:
	.word	.LC103
	.word	.LC104
	.word	.LC105
	.word	.LC106
	.word	.LC107
	.word	.LC108
	UNWIND(.fnend)
	.size	HEVC_VpsSpsPpsCheck, .-HEVC_VpsSpsPpsCheck
	.align	2
	.global	HEVC_IsNewPic
	.type	HEVC_IsNewPic, %function
HEVC_IsNewPic:
	UNWIND(.fnstart)
	@ args = 0, pretend = 0, frame = 0
	@ frame_needed = 1, uses_anonymous_args = 0
	UNWIND(.movsp ip)
	mov	ip, sp
	stmfd	sp!, {r4, r5, fp, ip, lr, pc}
	UNWIND(.pad #4)
	UNWIND(.save {r4, r5, fp, ip, lr})
	UNWIND(.setfp fp, ip, #-4)
	sub	fp, ip, #4
	UNWIND(.pad #16)
	sub	sp, sp, #16
	ldr	r2, [r0, #2364]
	ldr	r1, [r0, #200]
	ldr	r3, [r2, #16]
	cmn	r1, #-2147483647
	sub	ip, r3, #16
	beq	.L1340
	cmp	r3, #21
	cmpne	ip, #2
	addls	ip, r0, #53248
	ldrls	lr, [ip, #1096]
	bls	.L1314
.L1322:
	sub	r3, r3, #19
	add	ip, r0, #53248
	cmp	r3, #1
	movls	r1, #-2147483647
	strls	r1, [r0, #200]
	ldr	lr, [ip, #1096]
.L1314:
	cmp	lr, r1
	bge	.L1312
	ldr	r3, [r2, #16]
	sub	r4, r3, #8
	cmp	r4, #1
	bls	.L1341
.L1315:
	ldrb	r1, [r0, #8]	@ zero_extendqisi2
	cmp	r1, #0
	beq	.L1316
	ldr	r4, [r0, #204]
	cmp	lr, r4
	bge	.L1316
	ldr	r3, [r2, #16]
	sub	r5, r3, #8
	cmp	r5, #1
	bls	.L1342
.L1316:
	ldrb	r3, [ip, #1051]	@ zero_extendqisi2
	cmp	r3, #0
	bne	.L1317
	ldr	r2, [r2, #16]
	sub	r1, r2, #19
	cmp	r1, #1
	bls	.L1337
	cmp	r2, #21
	beq	.L1337
	sub	r2, r2, #16
	cmp	r2, #2
	strls	lr, [r0, #204]
	movls	r3, #1
	strlsb	r3, [r0, #8]
.L1317:
	ldr	r2, [r0, #248]
	ldrb	r3, [ip, #1049]	@ zero_extendqisi2
	cmp	r2, #0
	ldreq	r1, [ip, #1124]
	bne	.L1343
	ldr	r2, [r0, #320]
	cmp	r2, r1
	movne	r0, #1
	beq	.L1344
.L1335:
	sub	sp, fp, #20
	ldmfd	sp, {r4, r5, fp, sp, pc}
.L1340:
	cmp	ip, #5
	bhi	.L1338
	cmp	r3, #21
	cmpne	ip, #2
	bhi	.L1322
	add	ip, r0, #53248
	ldr	lr, [ip, #1096]
	str	lr, [r0, #200]
.L1312:
	ldrb	r1, [r0, #3]	@ zero_extendqisi2
	cmp	r1, #0
	beq	.L1315
	ldr	r3, [r2, #16]
	sub	r4, r3, #8
	cmp	r4, #1
	bhi	.L1315
	str	r3, [sp, #8]
	mov	r0, #1
	str	r1, [sp, #4]
	movw	r3, #10448
	str	lr, [sp]
	ldr	r2, .L1345
	ldr	r1, .L1345+4
	bl	dprint_vfmw
	mov	r0, #2
	b	.L1335
.L1343:
	add	r2, r2, #16640
	ldr	r1, [ip, #1124]
	add	r2, r2, #213
	ldr	r2, [r0, r2, asl #2]
	cmp	r1, r2
	ldr	r2, [r0, #320]
	movne	r3, #1
	cmp	r2, r1
	movne	r0, #1
	bne	.L1335
	b	.L1344
.L1342:
	str	r3, [sp, #12]
	mov	r0, #1
	stmia	sp, {r1, lr}
	movw	r3, #10458
	str	r4, [sp, #8]
	ldr	r2, .L1345
	ldr	r1, .L1345+8
	bl	dprint_vfmw
.L1338:
	mov	r0, #2
	sub	sp, fp, #20
	ldmfd	sp, {r4, r5, fp, sp, pc}
.L1344:
	ldr	r0, [r0, #284]
	cmp	r0, lr
	moveq	r0, r3
	movne	r0, #1
	sub	sp, fp, #20
	ldmfd	sp, {r4, r5, fp, sp, pc}
.L1341:
	str	r3, [sp, #8]
	mov	r0, #1
	str	r1, [sp, #4]
	movw	r3, #10440
	str	lr, [sp]
	ldr	r2, .L1345
	ldr	r1, .L1345+12
	bl	dprint_vfmw
	mov	r0, #2
	b	.L1335
.L1337:
	str	lr, [r0, #204]
	strb	r3, [r0, #8]
	b	.L1317
.L1346:
	.align	2
.L1345:
	.word	.LANCHOR1+400
	.word	.LC110
	.word	.LC111
	.word	.LC109
	UNWIND(.fnend)
	.size	HEVC_IsNewPic, .-HEVC_IsNewPic
	.align	2
	.global	HEVC_ReadByteAlignment
	.type	HEVC_ReadByteAlignment, %function
HEVC_ReadByteAlignment:
	UNWIND(.fnstart)
	@ args = 0, pretend = 0, frame = 0
	@ frame_needed = 1, uses_anonymous_args = 0
	UNWIND(.movsp ip)
	mov	ip, sp
	stmfd	sp!, {r4, r5, fp, ip, lr, pc}
	UNWIND(.pad #4)
	UNWIND(.save {r4, r5, fp, ip, lr})
	UNWIND(.setfp fp, ip, #-4)
	sub	fp, ip, #4
	mov	r1, #1
	mov	r4, r0
	ldr	r0, [r0, #2340]
	bl	BsGet
	cmp	r0, #0
	beq	.L1352
	ldr	r0, [r4, #2340]
	bl	BsBitsToNextByte
	subs	r1, r0, #0
	beq	.L1351
	ldr	r0, [r4, #2340]
	bl	BsGet
	ldr	r1, .L1353
	mov	r2, r0
	mov	r0, #19
	bl	dprint_vfmw
.L1351:
	mov	r0, #0
	ldmfd	sp, {r4, r5, fp, sp, pc}
.L1352:
	ldr	r1, .L1353+4
	mov	r0, #1
	bl	dprint_vfmw
	mvn	r0, #0
	ldmfd	sp, {r4, r5, fp, sp, pc}
.L1354:
	.align	2
.L1353:
	.word	.LC113
	.word	.LC112
	UNWIND(.fnend)
	.size	HEVC_ReadByteAlignment, .-HEVC_ReadByteAlignment
	.align	2
	.global	HEVC_GetRapPicFlag
	.type	HEVC_GetRapPicFlag, %function
HEVC_GetRapPicFlag:
	UNWIND(.fnstart)
	@ args = 0, pretend = 0, frame = 0
	@ frame_needed = 1, uses_anonymous_args = 0
	UNWIND(.movsp ip)
	mov	ip, sp
	stmfd	sp!, {fp, ip, lr, pc}
	UNWIND(.pad #4)
	UNWIND(.save {fp, ip, lr})
	UNWIND(.setfp fp, ip, #-4)
	sub	fp, ip, #4
	add	r0, r0, #53248
	ldr	r0, [r0, #1120]
	sub	r0, r0, #16
	cmp	r0, #5
	movhi	r0, #0
	movls	r0, #1
	ldmfd	sp, {fp, sp, pc}
	UNWIND(.fnend)
	.size	HEVC_GetRapPicFlag, .-HEVC_GetRapPicFlag
	.align	2
	.global	HEVC_GetIdrPicFlag
	.type	HEVC_GetIdrPicFlag, %function
HEVC_GetIdrPicFlag:
	UNWIND(.fnstart)
	@ args = 0, pretend = 0, frame = 0
	@ frame_needed = 1, uses_anonymous_args = 0
	UNWIND(.movsp ip)
	mov	ip, sp
	stmfd	sp!, {fp, ip, lr, pc}
	UNWIND(.pad #4)
	UNWIND(.save {fp, ip, lr})
	UNWIND(.setfp fp, ip, #-4)
	sub	fp, ip, #4
	add	r0, r0, #53248
	ldr	r0, [r0, #1120]
	sub	r0, r0, #19
	cmp	r0, #1
	movhi	r0, #0
	movls	r0, #1
	ldmfd	sp, {fp, sp, pc}
	UNWIND(.fnend)
	.size	HEVC_GetIdrPicFlag, .-HEVC_GetIdrPicFlag
	.align	2
	.global	HEVC_DecPTL
	.type	HEVC_DecPTL, %function
HEVC_DecPTL:
	UNWIND(.fnstart)
	@ args = 0, pretend = 0, frame = 112
	@ frame_needed = 1, uses_anonymous_args = 0
	UNWIND(.movsp ip)
	mov	ip, sp
	stmfd	sp!, {r4, r5, r6, r7, r8, r9, r10, fp, ip, lr, pc}
	UNWIND(.pad #4)
	UNWIND(.save {r4, r5, r6, r7, r8, r9, r10, fp, ip, lr})
	UNWIND(.setfp fp, ip, #-4)
	sub	fp, ip, #4
	UNWIND(.pad #116)
	sub	sp, sp, #116
	subs	r8, r2, #0
	mov	r5, r1
	mov	r4, r0
	str	r3, [fp, #-152]
	moveq	r1, #8
	bne	.L1396
.L1393:
	ldr	r0, [r4, #2340]
	bl	BsGet
	ldr	r3, [fp, #-152]
	cmp	r3, #0
	str	r0, [r5, #284]
	ble	.L1360
	ldr	r3, [fp, #-152]
	add	r6, r5, #42
	add	r9, r3, #42
	mov	r7, r6
	add	r9, r5, r9
	b	.L1362
.L1361:
	mov	r1, #1
	ldr	r0, [r4, #2340]
	bl	BsGet
	strb	r0, [r7, #1]!
	cmp	r7, r9
	beq	.L1397
.L1362:
	cmp	r8, #0
	beq	.L1361
	mov	r1, #1
	ldr	r0, [r4, #2340]
	bl	BsGet
	strb	r0, [r7, #-5]
	b	.L1361
.L1397:
	ldr	r3, [fp, #-152]
	cmp	r3, #7
	ldrle	r7, [fp, #-152]
	ble	.L1366
	b	.L1372
.L1365:
	cmp	r7, #8
	beq	.L1372
.L1366:
	mov	r1, #2
	ldr	r0, [r4, #2340]
	bl	BsGet
	add	r7, r7, #1
	cmp	r0, #0
	beq	.L1365
	ldr	r1, .L1398
	mov	r0, #1
	bl	dprint_vfmw
	mvn	r0, #0
	sub	sp, fp, #40
	ldmfd	sp, {r4, r5, r6, r7, r8, r9, r10, fp, sp, pc}
.L1360:
	mov	r0, #0
	sub	sp, fp, #40
	ldmfd	sp, {r4, r5, r6, r7, r8, r9, r10, fp, sp, pc}
.L1372:
	add	r9, r5, #360
	add	r3, r5, #48
	mov	r7, #0
	b	.L1370
.L1369:
	ldr	r3, [fp, #-152]
	add	r7, r7, #1
	add	r9, r9, #4
	cmp	r3, r7
	mov	r3, r5
	ble	.L1360
.L1370:
	cmp	r8, #0
	beq	.L1394
	ldrb	r2, [r6, #-5]	@ zero_extendqisi2
	cmp	r2, #0
	bne	.L1392
.L1394:
	add	r5, r3, #32
.L1367:
	ldrb	r3, [r6, #1]!	@ zero_extendqisi2
	cmp	r3, #0
	beq	.L1369
	mov	r1, #8
	ldr	r0, [r4, #2340]
	bl	BsGet
	str	r0, [r9]
	b	.L1369
.L1392:
	mov	r1, #2
	ldr	r0, [r4, #2340]
	str	r3, [fp, #-156]
	bl	BsGet
	ldr	r3, [fp, #-156]
	mov	r1, #1
	add	r5, r3, #32
	mov	r10, r3
	str	r0, [r9, #-72]
	ldr	r0, [r4, #2340]
	bl	BsGet
	mov	r1, #5
	strb	r0, [r6, #199]
	ldr	r0, [r4, #2340]
	bl	BsGet
	str	r0, [r9, #-48]
.L1368:
	mov	r1, #1
	ldr	r0, [r4, #2340]
	bl	BsGet
	strb	r0, [r10, #1]!
	cmp	r10, r5
	bne	.L1368
	mov	r1, #1
	ldr	r0, [r4, #2340]
	bl	BsGet
	mov	r1, #1
	strb	r0, [r6, #205]
	ldr	r0, [r4, #2340]
	bl	BsGet
	mov	r1, #1
	strb	r0, [r6, #211]
	ldr	r0, [r4, #2340]
	bl	BsGet
	mov	r1, #1
	strb	r0, [r6, #217]
	ldr	r0, [r4, #2340]
	bl	BsGet
	mov	r1, #16
	strb	r0, [r6, #223]
	ldr	r0, [r4, #2340]
	bl	BsGet
	mov	r1, #16
	ldr	r0, [r4, #2340]
	bl	BsGet
	mov	r1, #12
	ldr	r0, [r4, #2340]
	bl	BsGet
	b	.L1367
.L1396:
	mov	r1, #2
	ldr	r0, [r0, #2340]
	bl	BsGet
	mov	r1, #1
	ldr	r9, .L1398+4
	mov	r7, r5
	mov	r6, #0
	str	r0, [r5, #276]
	ldr	r0, [r4, #2340]
	bl	BsGet
	mov	r1, #5
	strb	r0, [r5]
	ldr	r0, [r4, #2340]
	bl	BsGet
	str	r0, [r5, #272]
.L1359:
	mov	r3, r6
	ldr	ip, [r9, #68]
	ldr	r2, .L1398+8
	mov	r1, #100
	sub	r0, fp, #144
	add	r6, r6, #1
	blx	ip
	mov	r1, #1
	ldr	r0, [r4, #2340]
	bl	BsGet
	cmp	r6, #32
	strb	r0, [r7, #1]!
	bne	.L1359
	mov	r1, #1
	ldr	r0, [r4, #2340]
	bl	BsGet
	mov	r1, #1
	strb	r0, [r5, #33]
	ldr	r0, [r4, #2340]
	bl	BsGet
	mov	r1, #1
	strb	r0, [r5, #34]
	ldr	r0, [r4, #2340]
	bl	BsGet
	mov	r1, #1
	strb	r0, [r5, #35]
	ldr	r0, [r4, #2340]
	bl	BsGet
	mov	r1, #16
	strb	r0, [r5, #36]
	ldr	r0, [r4, #2340]
	bl	BsGet
	mov	r1, #16
	ldr	r0, [r4, #2340]
	bl	BsGet
	mov	r1, #12
	ldr	r0, [r4, #2340]
	bl	BsGet
	ldr	r2, [r5, #272]
	add	r3, r4, #81920
	mov	r1, #8
	str	r2, [r3, #3848]
	ldrb	r2, [r5, #2]	@ zero_extendqisi2
	str	r2, [r3, #3852]
	ldrb	r2, [r5, #3]	@ zero_extendqisi2
	str	r2, [r3, #3856]
	b	.L1393
.L1399:
	.align	2
.L1398:
	.word	.LC115
	.word	vfmw_Osal_Func_Ptr_S
	.word	.LC114
	UNWIND(.fnend)
	.size	HEVC_DecPTL, .-HEVC_DecPTL
	.align	2
	.global	HEVC_SetDefaultScalingList
	.type	HEVC_SetDefaultScalingList, %function
HEVC_SetDefaultScalingList:
	UNWIND(.fnstart)
	@ args = 0, pretend = 0, frame = 8
	@ frame_needed = 1, uses_anonymous_args = 0
	UNWIND(.movsp ip)
	mov	ip, sp
	stmfd	sp!, {r4, r5, r6, r7, r8, r9, r10, fp, ip, lr, pc}
	UNWIND(.pad #4)
	UNWIND(.save {r4, r5, r6, r7, r8, r9, r10, fp, ip, lr})
	UNWIND(.setfp fp, ip, #-4)
	sub	fp, ip, #4
	UNWIND(.pad #12)
	sub	sp, sp, #12
	ldr	r9, .L1418
	add	r10, r0, #2224
	mov	r6, #0
	add	r3, r0, #2240
	str	r0, [fp, #-52]
	str	r3, [fp, #-48]
.L1401:
	ldr	r3, [r10, #4]!
	cmp	r3, #0
	beq	.L1409
	ldr	r3, [fp, #-52]
	mov	r8, r6, asl #9
	ldr	r7, [fp, #-48]
	sub	r8, r8, r6, asl #7
	add	r5, r3, #612
	mov	r4, #0
.L1407:
	cmp	r6, #0
	add	r0, r5, r8
	mov	r2, #64
	ldr	r3, [r9, #52]
	beq	.L1416
	cmp	r6, #3
	beq	.L1417
	ldr	ip, .L1418+4
	cmp	r4, #2
	ldr	r1, .L1418+8
	movhi	r1, ip
	blx	r3
.L1403:
	mov	r3, #16
	str	r3, [r7, #4]!
	ldr	r3, [r10]
	add	r4, r4, #1
	add	r5, r5, #64
	cmp	r3, r4
	bhi	.L1407
.L1409:
	add	r6, r6, #1
	ldr	r3, [fp, #-48]
	cmp	r6, #4
	add	r3, r3, #24
	str	r3, [fp, #-48]
	bne	.L1401
	sub	sp, fp, #40
	ldmfd	sp, {r4, r5, r6, r7, r8, r9, r10, fp, sp, pc}
.L1416:
	mov	r2, #16
	ldr	r1, .L1418+12
	mov	r0, r5
	blx	r3
	b	.L1403
.L1417:
	ldr	r0, .L1418+4
	cmp	r4, #0
	ldr	r1, .L1418+8
	mov	r2, #64
	movne	r1, r0
	add	r0, r5, #1152
	blx	r3
	b	.L1403
.L1419:
	.align	2
.L1418:
	.word	vfmw_Osal_Func_Ptr_S
	.word	.LANCHOR1+416
	.word	.LANCHOR4
	.word	.LANCHOR1+480
	UNWIND(.fnend)
	.size	HEVC_SetDefaultScalingList, .-HEVC_SetDefaultScalingList
	.align	2
	.global	HEVC_CalScalingList
	.type	HEVC_CalScalingList, %function
HEVC_CalScalingList:
	UNWIND(.fnstart)
	@ args = 0, pretend = 0, frame = 0
	@ frame_needed = 1, uses_anonymous_args = 0
	UNWIND(.movsp ip)
	mov	ip, sp
	stmfd	sp!, {r4, r5, r6, r7, r8, r9, fp, ip, lr, pc}
	UNWIND(.pad #4)
	UNWIND(.save {r4, r5, r6, r7, r8, r9, fp, ip, lr})
	UNWIND(.setfp fp, ip, #-4)
	sub	fp, ip, #4
	add	lr, r0, r2, lsl #2
	mov	ip, r2, asl #3
	sub	r2, ip, r2, asl #1
	mov	r5, #0
	ldr	r7, [lr, #324]
	add	r3, r3, r2
	cmp	r7, #64
	mov	r6, r3, asl #4
	movcs	r7, #64
	mov	r8, r7, lsr #2
.L1421:
	cmp	r5, r8
	ldmcsfd	sp, {r4, r5, r6, r7, r8, r9, fp, sp, pc}
	cmp	r7, #0
	beq	.L1421
	add	r3, r5, r6
	ldrb	ip, [r1]	@ zero_extendqisi2
	mov	r4, r1
	mov	r2, #0
	add	r3, r0, r3, lsl #2
	ldr	lr, [r3, #612]
	orr	ip, lr, ip
	str	ip, [r3, #612]
.L1427:
	add	r2, r2, #1
	add	r3, r5, r6
	and	lr, r2, #3
	cmp	r2, r7
	add	r3, r0, r3, lsl #2
	mov	ip, lr, asl #3
	beq	.L1421
	ldrb	r9, [r4, #1]!	@ zero_extendqisi2
	cmp	lr, #3
	ldr	lr, [r3, #612]
	addeq	r5, r5, #1
	orr	ip, lr, r9, asl ip
	str	ip, [r3, #612]
	b	.L1427
	UNWIND(.fnend)
	.size	HEVC_CalScalingList, .-HEVC_CalScalingList
	.align	2
	.global	HEVC_SetScalingList
	.type	HEVC_SetScalingList, %function
HEVC_SetScalingList:
	UNWIND(.fnstart)
	@ args = 0, pretend = 0, frame = 0
	@ frame_needed = 1, uses_anonymous_args = 0
	UNWIND(.movsp ip)
	mov	ip, sp
	stmfd	sp!, {r3, r4, r5, r6, r7, r8, r9, r10, fp, ip, lr, pc}
	UNWIND(.pad #4)
	UNWIND(.save {r3, r4, r5, r6, r7, r8, r9, r10, fp, ip, lr})
	UNWIND(.setfp fp, ip, #-4)
	sub	fp, ip, #4
	add	r6, r0, #24576
	mov	r5, r0
	ldr	r3, [r6, #2868]
	ldrb	r2, [r3, #5]	@ zero_extendqisi2
	cmp	r2, #0
	beq	.L1429
	ldrb	r3, [r3, #6]	@ zero_extendqisi2
	cmp	r3, #0
	ldr	r3, [r6, #2872]
	bne	.L1430
	ldrb	r3, [r3, #21]	@ zero_extendqisi2
	cmp	r3, #0
	beq	.L1448
.L1431:
	ldr	r8, .L1449
	mov	r1, #0
	mov	r2, #1536
	add	r0, r5, #612
	add	r10, r5, #2224
	mov	r7, r1
	ldr	r3, [r8, #48]
	blx	r3
.L1433:
	ldr	r3, [r10, #4]!
	cmp	r3, #0
	movne	r9, r7, asl #3
	movne	r4, #0
	subne	r9, r9, r7, asl #1
	beq	.L1437
.L1434:
	add	r0, r9, r4
	ldr	r1, [r6, #2872]
	mov	r3, r4
	mov	r2, r7
	add	r1, r1, r0, lsl #6
	mov	r0, r5
	add	r1, r1, #308
	add	r4, r4, #1
	add	r1, r1, #1
	bl	HEVC_CalScalingList
	ldr	r3, [r10]
	cmp	r4, r3
	bcc	.L1434
.L1437:
	add	r7, r7, #1
	cmp	r7, #4
	bne	.L1433
	ldr	r1, [r6, #2872]
	add	r0, r5, #2240
	add	r0, r0, #4
	ldr	r3, [r8, #52]
	add	r1, r1, #1920
	mov	r2, #96
	add	r1, r1, #8
	blx	r3
.L1429:
	mov	r0, #0
	ldmfd	sp, {r3, r4, r5, r6, r7, r8, r9, r10, fp, sp, pc}
.L1430:
	ldrb	r1, [r3, #21]	@ zero_extendqisi2
	cmp	r1, #0
	bne	.L1431
	ldr	r8, .L1449
	mov	r2, #1536
	add	r0, r0, #612
	mov	r7, r1
	add	r10, r5, #2224
	ldr	r3, [r8, #48]
	blx	r3
.L1438:
	ldr	r3, [r10, #4]!
	cmp	r3, #0
	movne	r9, r7, asl #3
	movne	r4, #0
	subne	r9, r9, r7, asl #1
	beq	.L1442
.L1439:
	add	r0, r9, r4
	ldr	r1, [r6, #2868]
	mov	r3, r4
	mov	r2, r7
	add	r1, r1, r0, lsl #6
	mov	r0, r5
	add	r1, r1, #908
	add	r4, r4, #1
	add	r1, r1, #1
	bl	HEVC_CalScalingList
	ldr	r3, [r10]
	cmp	r4, r3
	bcc	.L1439
.L1442:
	add	r7, r7, #1
	cmp	r7, #4
	bne	.L1438
	ldr	r1, [r6, #2868]
	add	r0, r5, #2240
	ldr	r3, [r8, #52]
	mov	r2, #96
	add	r1, r1, #2528
	add	r0, r0, #4
	blx	r3
	mov	r0, #0
	ldmfd	sp, {r3, r4, r5, r6, r7, r8, r9, r10, fp, sp, pc}
.L1448:
	bl	HEVC_SetDefaultScalingList
	b	.L1429
.L1450:
	.align	2
.L1449:
	.word	vfmw_Osal_Func_Ptr_S
	UNWIND(.fnend)
	.size	HEVC_SetScalingList, .-HEVC_SetScalingList
	.align	2
	.global	HEVC_GetScalingListDefaultAddress
	.type	HEVC_GetScalingListDefaultAddress, %function
HEVC_GetScalingListDefaultAddress:
	UNWIND(.fnstart)
	@ args = 0, pretend = 0, frame = 0
	@ frame_needed = 1, uses_anonymous_args = 0
	UNWIND(.movsp ip)
	mov	ip, sp
	stmfd	sp!, {fp, ip, lr, pc}
	UNWIND(.pad #4)
	UNWIND(.save {fp, ip, lr})
	UNWIND(.setfp fp, ip, #-4)
	sub	fp, ip, #4
	cmp	r0, #3
	ldrls	pc, [pc, r0, asl #2]
	b	.L1452
.L1454:
	.word	.L1458
	.word	.L1456
	.word	.L1456
	.word	.L1457
.L1456:
	ldr	r3, .L1462
	cmp	r1, #2
	add	r0, r3, #64
	movhi	r0, r3
	ldmfd	sp, {fp, sp, pc}
.L1458:
	ldr	r0, .L1462+4
	ldmfd	sp, {fp, sp, pc}
.L1457:
	ldr	r3, .L1462
	cmp	r1, #0
	add	r0, r3, #64
	movne	r0, r3
	ldmfd	sp, {fp, sp, pc}
.L1452:
	ldr	r1, .L1462+8
	mov	r0, #1
	bl	dprint_vfmw
	mov	r0, #0
	ldmfd	sp, {fp, sp, pc}
.L1463:
	.align	2
.L1462:
	.word	.LANCHOR4+80
	.word	.LANCHOR4+64
	.word	.LC116
	UNWIND(.fnend)
	.size	HEVC_GetScalingListDefaultAddress, .-HEVC_GetScalingListDefaultAddress
	.align	2
	.global	HEVC_DecRefPicListsModification
	.type	HEVC_DecRefPicListsModification, %function
HEVC_DecRefPicListsModification:
	UNWIND(.fnstart)
	@ args = 0, pretend = 0, frame = 0
	@ frame_needed = 1, uses_anonymous_args = 0
	UNWIND(.movsp ip)
	mov	ip, sp
	stmfd	sp!, {r3, r4, r5, r6, r7, r8, r9, r10, fp, ip, lr, pc}
	UNWIND(.pad #4)
	UNWIND(.save {r3, r4, r5, r6, r7, r8, r9, r10, fp, ip, lr})
	UNWIND(.setfp fp, ip, #-4)
	sub	fp, ip, #4
	cmp	r2, #0
	cmpne	r1, #0
	mov	r5, r3
	mov	r7, r1
	mov	r8, r2
	moveq	ip, #1
	movne	ip, #0
	cmp	r0, #0
	orreq	ip, ip, #1
	mov	r6, r0
	cmp	ip, #0
	bne	.L1474
	sub	ip, r3, #1
	mov	r4, #1
	movs	ip, ip, asr #1
	beq	.L1466
.L1467:
	movs	ip, ip, asr #1
	add	r4, r4, #1
	bne	.L1467
.L1466:
	mov	r1, #1
	ldr	r0, [r6, #2340]
	bl	BsGet
	cmp	r5, #1
	movls	r10, #0
	movhi	r10, #1
	uxtb	r0, r0
	strb	r0, [r8]
	cmp	r0, #0
	cmpne	r5, #1
	bls	.L1471
	ldr	r3, [r7, #168]
	cmp	r3, #0
	beq	.L1471
	mov	r9, r8
	mov	r5, #0
.L1472:
	mov	r1, r4
	ldr	r0, [r6, #2340]
	bl	BsGet
	add	r5, r5, #1
	str	r0, [r9, #4]!
	ldr	r3, [r7, #168]
	cmp	r3, r5
	bhi	.L1472
.L1471:
	ldr	r5, [r7, #60]
	cmp	r5, #0
	beq	.L1489
.L1470:
	mov	r0, #0
	ldmfd	sp, {r3, r4, r5, r6, r7, r8, r9, r10, fp, sp, pc}
.L1489:
	mov	r1, #1
	ldr	r0, [r6, #2340]
	bl	BsGet
	uxtb	r0, r0
	strb	r0, [r8, #1]
	cmp	r0, #0
	moveq	r10, #0
	andne	r10, r10, #1
	cmp	r10, #0
	beq	.L1470
	ldr	r3, [r7, #172]
	cmp	r3, #0
	beq	.L1470
	add	r8, r8, #128
.L1473:
	mov	r1, r4
	ldr	r0, [r6, #2340]
	bl	BsGet
	add	r5, r5, #1
	str	r0, [r8, #4]!
	ldr	r3, [r7, #172]
	cmp	r3, r5
	bhi	.L1473
	mov	r0, #0
	ldmfd	sp, {r3, r4, r5, r6, r7, r8, r9, r10, fp, sp, pc}
.L1474:
	mvn	r0, #0
	ldmfd	sp, {r3, r4, r5, r6, r7, r8, r9, r10, fp, sp, pc}
	UNWIND(.fnend)
	.size	HEVC_DecRefPicListsModification, .-HEVC_DecRefPicListsModification
	.align	2
	.global	HEVC_MoreRbspData
	.type	HEVC_MoreRbspData, %function
HEVC_MoreRbspData:
	UNWIND(.fnstart)
	@ args = 0, pretend = 0, frame = 0
	@ frame_needed = 1, uses_anonymous_args = 0
	UNWIND(.movsp ip)
	mov	ip, sp
	stmfd	sp!, {r4, r5, fp, ip, lr, pc}
	UNWIND(.pad #4)
	UNWIND(.save {r4, r5, fp, ip, lr})
	UNWIND(.setfp fp, ip, #-4)
	sub	fp, ip, #4
	mov	r4, r0
	ldr	r0, [r0, #2340]
	bl	BsResidBits
	subs	r3, r0, #0
	ble	.L1492
	ldr	r2, [r4, #2364]
	ldr	r0, [r2, #12]
	add	r0, r0, #3
	cmp	r3, r0
	movls	r0, #0
	movhi	r0, #1
	ldmfd	sp, {r4, r5, fp, sp, pc}
.L1492:
	mov	r0, #0
	ldmfd	sp, {r4, r5, fp, sp, pc}
	UNWIND(.fnend)
	.size	HEVC_MoreRbspData, .-HEVC_MoreRbspData
	.align	2
	.global	HEVC_More_Rbsp_Data
	.type	HEVC_More_Rbsp_Data, %function
HEVC_More_Rbsp_Data:
	UNWIND(.fnstart)
	@ args = 0, pretend = 0, frame = 0
	@ frame_needed = 1, uses_anonymous_args = 0
	UNWIND(.movsp ip)
	mov	ip, sp
	stmfd	sp!, {fp, ip, lr, pc}
	UNWIND(.pad #4)
	UNWIND(.save {fp, ip, lr})
	UNWIND(.setfp fp, ip, #-4)
	sub	fp, ip, #4
	ldr	r0, [r0, #2340]
	ldr	r2, [r0, #16]
	ldr	r3, [r0, #24]
	mov	r2, r2, asl #3
	cmp	r2, r3
	bls	.L1496
	mov	r1, #8
	bl	BsShow
	subs	r0, r0, #128
	movne	r0, #1
	ldmfd	sp, {fp, sp, pc}
.L1496:
	ldr	r1, .L1497
	mov	r0, #1
	bl	dprint_vfmw
	mov	r0, #0
	ldmfd	sp, {fp, sp, pc}
.L1498:
	.align	2
.L1497:
	.word	.LC117
	UNWIND(.fnend)
	.size	HEVC_More_Rbsp_Data, .-HEVC_More_Rbsp_Data
	.align	2
	.global	HEVC_FindTrailZeros
	.type	HEVC_FindTrailZeros, %function
HEVC_FindTrailZeros:
	UNWIND(.fnstart)
	@ args = 0, pretend = 0, frame = 0
	@ frame_needed = 1, uses_anonymous_args = 0
	UNWIND(.movsp ip)
	mov	ip, sp
	stmfd	sp!, {r4, r5, r6, r7, fp, ip, lr, pc}
	UNWIND(.pad #4)
	UNWIND(.save {r4, r5, r6, r7, fp, ip, lr})
	UNWIND(.setfp fp, ip, #-4)
	sub	fp, ip, #4
	mov	r1, #0
	mov	r6, r0
.L1511:
	ldr	r3, [r6, #2364]
	ldr	ip, [r3, #8]
	sub	ip, ip, #1
	mov	r0, ip, asl #2
	mov	ip, ip, asl #5
	rsb	r2, r0, ip
	add	r2, r3, r2
	add	r2, r2, #40
	ldr	r3, [r2, #8]
	ldr	r2, [r2, #4]
	sub	r3, r3, #1
	add	r3, r2, r3
.L1500:
	ldrb	r4, [r3]	@ zero_extendqisi2
	rsb	r5, r0, ip
	cmp	r4, #0
	bne	.L1512
	ldr	r2, [r6, #2364]
	add	r1, r1, #1
	add	lr, r2, r5
	ldr	r2, [r2, #44]
	cmp	r2, r3
	beq	.L1513
	ldr	r2, [lr, #44]
	cmp	r2, r3
	sub	r3, r3, #1
	bne	.L1500
	ldr	r1, [lr, #68]
	ldr	r0, [r6, #276]
	bl	SM_ReleaseStreamSeg
	ldr	r3, [r6, #2364]
	mov	r1, r4
	add	r5, r3, r5
	str	r4, [r5, #44]
	ldr	r2, [r6, #2364]
	ldr	r3, [r2, #8]
	sub	r3, r3, #1
	str	r3, [r2, #8]
	b	.L1511
.L1512:
	tst	r4, #1
	mov	r3, #1
	moveq	r2, r3
	bne	.L1507
.L1508:
	ands	r0, r4, r2, asl r3
	add	r3, r3, #1
	bne	.L1507
	cmp	r3, #8
	bne	.L1508
	ldr	r1, .L1514
	mov	r0, #1
	bl	dprint_vfmw
	mvn	r0, #0
	ldmfd	sp, {r4, r5, r6, r7, fp, sp, pc}
.L1513:
	ldr	r1, .L1514+4
	mov	r0, #1
	bl	dprint_vfmw
	mvn	r0, #0
	ldmfd	sp, {r4, r5, r6, r7, fp, sp, pc}
.L1507:
	ldr	ip, [r6, #2364]
	mov	r2, #0
	add	r1, r3, r1, lsl #3
	mov	r0, r2
	str	r2, [ip, #4]
	ldr	r3, [r6, #2364]
	str	r1, [r3, #12]
	ldmfd	sp, {r4, r5, r6, r7, fp, sp, pc}
.L1515:
	.align	2
.L1514:
	.word	.LC119
	.word	.LC118
	UNWIND(.fnend)
	.size	HEVC_FindTrailZeros, .-HEVC_FindTrailZeros
	.align	2
	.global	HEVC_FindNaluArraySlot
	.type	HEVC_FindNaluArraySlot, %function
HEVC_FindNaluArraySlot:
	UNWIND(.fnstart)
	@ args = 0, pretend = 0, frame = 0
	@ frame_needed = 1, uses_anonymous_args = 0
	UNWIND(.movsp ip)
	mov	ip, sp
	stmfd	sp!, {r4, r5, r6, r7, r8, r9, fp, ip, lr, pc}
	UNWIND(.pad #4)
	UNWIND(.save {r4, r5, r6, r7, r8, r9, fp, ip, lr})
	UNWIND(.setfp fp, ip, #-4)
	sub	fp, ip, #4
	ldr	r6, [r0, #160]
	mov	r9, r0
	ldr	r3, [r0, #140]
	cmp	r6, #0
	blt	.L1517
	add	r7, r6, #1
	mov	r0, r3
	mov	r5, #100
	mov	r1, r7
	bl	__aeabi_uidivmod
	add	r2, r9, #65536
	ldr	r8, [r2, #1876]
	mla	r2, r5, r1, r8
	mov	r3, r1
	ldr	r2, [r2, #36]
	cmp	r2, #0
	beq	.L1518
	mov	r4, #0
	b	.L1520
.L1521:
	bl	__aeabi_uidivmod
	mla	r2, r5, r1, r8
	mov	r3, r1
	ldr	r2, [r2, #36]
	cmp	r2, #0
	beq	.L1518
.L1520:
	add	r4, r4, #1
	mov	r1, r7
	cmp	r4, r6
	add	r0, r3, r4
	ble	.L1521
.L1517:
	mvn	r0, #0
	str	r3, [r9, #140]
	ldmfd	sp, {r4, r5, r6, r7, r8, r9, fp, sp, pc}
.L1518:
	cmp	r3, r7
	mov	r0, r3
	str	r3, [r9, #140]
	bcs	.L1531
	mov	r3, #100
	mov	r2, #1
	mla	r8, r3, r0, r8
	str	r2, [r8, #36]
	ldmfd	sp, {r4, r5, r6, r7, r8, r9, fp, sp, pc}
.L1531:
	mvn	r0, #0
	ldmfd	sp, {r4, r5, r6, r7, r8, r9, fp, sp, pc}
	UNWIND(.fnend)
	.size	HEVC_FindNaluArraySlot, .-HEVC_FindNaluArraySlot
	.align	2
	.global	HEVC_ReleaseNAL
	.type	HEVC_ReleaseNAL, %function
HEVC_ReleaseNAL:
	UNWIND(.fnstart)
	@ args = 0, pretend = 0, frame = 0
	@ frame_needed = 1, uses_anonymous_args = 0
	UNWIND(.movsp ip)
	mov	ip, sp
	stmfd	sp!, {r4, r5, r6, r7, fp, ip, lr, pc}
	UNWIND(.pad #4)
	UNWIND(.save {r4, r5, r6, r7, fp, ip, lr})
	UNWIND(.setfp fp, ip, #-4)
	sub	fp, ip, #4
	UNWIND(.pad #8)
	sub	sp, sp, #8
	subs	r5, r1, #0
	mov	r6, r0
	beq	.L1540
	add	r7, r5, #56
	mov	r4, r5
	mov	r3, #0
	str	r3, [r5, #36]
	str	r3, [r5, #40]
.L1535:
	ldr	r3, [r4, #44]
	mov	r0, r6
	cmp	r3, #0
	beq	.L1534
	ldr	r1, [r4, #68]
	bl	SM_ReleaseStreamSeg
	ldr	ip, [r4, #48]
	ldr	r3, [r4, #44]
	mov	r0, #7
	ldr	r2, .L1541
	ldr	r1, .L1541+4
	str	ip, [sp]
	bl	dprint_vfmw
	mov	r3, #0
	str	r3, [r4, #44]
	str	r3, [r4, #60]
	str	r3, [r4, #48]
.L1534:
	add	r4, r4, #28
	cmp	r4, r7
	bne	.L1535
	ldr	r3, .L1541+8
	mov	r0, r5
	mov	r2, #100
	mov	r1, #0
	ldr	r3, [r3, #48]
	sub	sp, fp, #28
	ldmfd	sp, {r4, r5, r6, r7, fp, sp, lr}
	bx	r3
.L1540:
	mov	r0, r5
	movw	r3, #11740
	ldr	r2, .L1541+12
	ldr	r1, .L1541+16
	sub	sp, fp, #28
	ldmfd	sp, {r4, r5, r6, r7, fp, sp, lr}
	b	dprint_vfmw
.L1542:
	.align	2
.L1541:
	.word	.LANCHOR1+496
	.word	.LC120
	.word	vfmw_Osal_Func_Ptr_S
	.word	.LC45
	.word	.LC46
	UNWIND(.fnend)
	.size	HEVC_ReleaseNAL, .-HEVC_ReleaseNAL
	.align	2
	.global	Hevc_InitDecBuffers
	.type	Hevc_InitDecBuffers, %function
Hevc_InitDecBuffers:
	UNWIND(.fnstart)
	@ args = 0, pretend = 0, frame = 0
	@ frame_needed = 1, uses_anonymous_args = 0
	UNWIND(.movsp ip)
	mov	ip, sp
	stmfd	sp!, {r3, r4, r5, r6, r7, r8, r9, r10, fp, ip, lr, pc}
	UNWIND(.pad #4)
	UNWIND(.save {r3, r4, r5, r6, r7, r8, r9, r10, fp, ip, lr})
	UNWIND(.setfp fp, ip, #-4)
	sub	fp, ip, #4
	add	r3, r0, #24576
	mov	r7, r0
	add	r0, r0, #2752
	add	r1, r7, #2688
	ldr	r3, [r3, #2868]
	add	r2, r7, #2544
	mov	lr, #0
	add	r1, r1, #4
	add	r2, r2, #12
	add	ip, r7, #2624
	ldr	r3, [r3, #236]
	mov	r6, #17
	add	r3, r3, #1
	cmp	r3, #17
	movhi	r3, #17
	str	r3, [r0, #-216]
	add	r0, r0, #8
	mov	r3, lr
	str	lr, [r7, #2540]
	str	lr, [r7, #2552]
	str	lr, [r7, #2556]
	str	lr, [r7, #2548]
	str	lr, [r7, #2544]
.L1546:
	subs	r6, r6, #1
	str	r3, [r0, #4]!
	str	r3, [ip, #4]!
	str	r3, [r1, #4]!
	str	r3, [r2, #4]!
	bne	.L1546
	add	r4, r7, #67584
	ldr	r10, .L1579
	add	r4, r4, #712
	mov	r8, r6
.L1547:
	ldr	r3, [r10, #48]
	mov	r2, #624
	mov	r0, r4
	mov	r1, #0
	blx	r3
	str	r8, [r4, #156]
	add	r8, r8, #1
	mov	r5, #0
	cmp	r8, #20
	sub	r3, r4, #72
	strb	r5, [r4, #-72]
	mov	r2, #20
	str	r3, [r4, #-4]
	mov	r9, #16
	str	r5, [r4, #-68]
	add	r4, r4, #704
	strb	r5, [r4, #-775]
	str	r5, [r4, #-764]
	strb	r5, [r4, #-774]
	str	r5, [r4, #-728]
	str	r2, [r4, #-752]
	str	r9, [r4, #-748]
	ldr	r3, .L1579
	bne	.L1547
	ldr	r3, [r3, #48]
	mov	r2, #200
	mov	r1, r5
	add	r0, r7, #2832
	blx	r3
	add	r2, r7, #2352
	add	r2, r2, #12
	add	r3, r7, #2432
	mov	r1, r5
	str	r9, [r7, #2832]
	str	r5, [r7, #2836]
.L1548:
	str	r1, [r2, #4]!
	cmp	r2, r3
	mov	r0, #0
	bne	.L1548
	add	r1, r7, #2496
	add	lr, r7, #53248
	add	r1, r1, #4
	mov	ip, r0
	str	r0, [lr, #1208]
.L1549:
	str	ip, [r3, #4]!
	cmp	r3, r1
	mov	r2, #0
	bne	.L1549
	str	r2, [lr, #1212]
	ldr	r1, [r7, #180]
	cmp	r1, r2
	movne	r3, r2
	addne	r2, r7, #2144
	movne	r0, r3
	beq	.L1554
.L1553:
	add	r3, r3, #1
	str	r0, [r2, #4]!
	cmp	r3, r1
	bne	.L1553
.L1554:
	ldr	r3, [r7, #160]
	cmp	r3, #0
	beq	.L1578
	mov	r4, #0
	add	r8, r7, #65536
	mov	r5, r4
.L1559:
	ldr	r3, [r8, #2680]
	add	r3, r3, r6
	ldr	r1, [r3, #24]
	cmp	r1, #0
	beq	.L1555
	ldr	r3, [r7, #2364]
	cmp	r1, r3
	beq	.L1555
	ldr	r0, [r7, #276]
	bl	HEVC_ReleaseNAL
	ldr	r3, [r8, #2680]
	add	r3, r3, r6
	str	r5, [r3, #24]
	ldr	r3, [r7, #208]
	ldr	r2, [r7, #248]
	cmp	r3, #0
	subne	r3, r3, #1
	str	r3, [r7, #208]
	ldr	r3, [r7, #172]
	cmp	r2, #0
	subne	r2, r2, #1
	str	r2, [r7, #248]
	cmp	r3, #2
	subhi	r3, r3, #1
	movls	r3, #2
	str	r3, [r7, #172]
.L1555:
	ldr	r3, [r7, #160]
	add	r4, r4, #1
	add	r6, r6, #28
	cmp	r3, r4
	bhi	.L1559
	ldmfd	sp, {r3, r4, r5, r6, r7, r8, r9, r10, fp, sp, pc}
.L1578:
	ldmfd	sp, {r3, r4, r5, r6, r7, r8, r9, r10, fp, sp, pc}
.L1580:
	.align	2
.L1579:
	.word	vfmw_Osal_Func_Ptr_S
	UNWIND(.fnend)
	.size	Hevc_InitDecBuffers, .-Hevc_InitDecBuffers
	.align	2
	.global	HEVC_EmptyFrmFromDPB
	.type	HEVC_EmptyFrmFromDPB, %function
HEVC_EmptyFrmFromDPB:
	UNWIND(.fnstart)
	@ args = 0, pretend = 0, frame = 0
	@ frame_needed = 1, uses_anonymous_args = 0
	UNWIND(.movsp ip)
	mov	ip, sp
	stmfd	sp!, {r4, r5, r6, r7, r8, r9, fp, ip, lr, pc}
	UNWIND(.pad #4)
	UNWIND(.save {r4, r5, r6, r7, r8, r9, fp, ip, lr})
	UNWIND(.setfp fp, ip, #-4)
	sub	fp, ip, #4
	subs	r6, r0, #0
	beq	.L1592
	ldr	r3, [r6, #2540]
	add	r8, r6, #2544
	cmp	r3, #0
	addne	r8, r8, #12
	movne	r3, #0
	movne	ip, #1
	movne	r1, r8
	beq	.L1607
.L1586:
	ldr	r2, [r1, #4]!
	add	r3, r3, #1
	ldrb	r0, [r2, #2]	@ zero_extendqisi2
	cmp	r0, #0
	streqb	ip, [r2, #2]
	ldr	r2, [r6, #2540]
	cmp	r2, r3
	bhi	.L1586
.L1587:
	mov	r4, r6
	mov	r7, #17
	mov	r5, #0
	mov	r3, #-2147483647
	str	r3, [r6, #244]
.L1584:
	ldr	r3, [r8, #4]!
	mov	r2, #1
	cmp	r3, #0
	beq	.L1588
	ldr	r1, [r3, #32]
	ldr	r0, [r6, #276]
	bl	FSP_ClearLogicFs
.L1588:
	ldr	r3, [r4, #2628]
	mov	r2, #1
	cmp	r3, #0
	beq	.L1589
	ldr	r1, [r3, #32]
	ldr	r0, [r6, #276]
	bl	FSP_ClearLogicFs
.L1589:
	ldr	r3, [r4, #2696]
	mov	r2, #1
	cmp	r3, #0
	beq	.L1590
	ldr	r1, [r3, #32]
	ldr	r0, [r6, #276]
	bl	FSP_ClearLogicFs
.L1590:
	ldr	r3, [r4, #2764]
	mov	r2, #1
	cmp	r3, #0
	beq	.L1591
	ldr	r1, [r3, #32]
	ldr	r0, [r6, #276]
	bl	FSP_ClearLogicFs
.L1591:
	subs	r7, r7, #1
	str	r5, [r4, #2764]
	str	r5, [r4, #2696]
	add	r4, r4, #4
	str	r5, [r4, #2624]
	str	r5, [r4, #2556]
	bne	.L1584
	mov	r0, r6
	bl	Hevc_InitDecBuffers
	mov	r0, r7
	ldmfd	sp, {r4, r5, r6, r7, r8, r9, fp, sp, pc}
.L1607:
	add	r8, r8, #12
	b	.L1587
.L1592:
	mvn	r0, #0
	ldmfd	sp, {r4, r5, r6, r7, r8, r9, fp, sp, pc}
	UNWIND(.fnend)
	.size	HEVC_EmptyFrmFromDPB, .-HEVC_EmptyFrmFromDPB
	.align	2
	.global	HEVC_CombinePacket
	.type	HEVC_CombinePacket, %function
HEVC_CombinePacket:
	UNWIND(.fnstart)
	@ args = 0, pretend = 0, frame = 0
	@ frame_needed = 1, uses_anonymous_args = 0
	UNWIND(.movsp ip)
	mov	ip, sp
	stmfd	sp!, {r4, r5, fp, ip, lr, pc}
	UNWIND(.pad #4)
	UNWIND(.save {r4, r5, fp, ip, lr})
	UNWIND(.setfp fp, ip, #-4)
	sub	fp, ip, #4
	mov	r4, r0
	ldr	r0, [r0, #2364]
	cmp	r0, #0
	beq	.L1611
	ldr	r3, [r0, #48]
	cmp	r3, #4096
	ldmcsfd	sp, {r4, r5, fp, sp, pc}
	ldr	r1, .L1612
	mov	r0, #7
	bl	dprint_vfmw
	ldr	r3, [r4, #2364]
	ldr	ip, .L1612+4
	mov	r5, #0
	ldr	r2, [r3, #48]
	ldr	r0, [r3, #72]
	ldr	r1, [r3, #44]
	rsb	r0, r2, r0
	ldr	r3, [ip, #52]
	blx	r3
	ldr	r3, [r4, #2364]
	mov	r0, #1
	ldr	r2, [r3, #96]
	ldr	r1, [r3, #68]
	str	r2, [r3, #68]
	ldr	r3, [r4, #2364]
	str	r5, [r3, #60]
	ldr	r3, [r4, #2364]
	ldr	ip, [r3, #48]
	ldr	r2, [r3, #72]
	rsb	r2, ip, r2
	str	r2, [r3, #44]
	ldr	r3, [r4, #2364]
	ldr	ip, [r3, #48]
	ldr	r2, [r3, #80]
	rsb	r2, ip, r2
	str	r2, [r3, #52]
	ldr	r3, [r4, #2364]
	ldr	r2, [r3, #48]
	ldr	ip, [r3, #76]
	add	r2, r2, ip
	str	r2, [r3, #48]
	ldr	r3, [r4, #2364]
	str	r0, [r3, #8]
	ldr	r0, [r4, #276]
	bl	SM_ReleaseStreamSeg
	ldr	r3, [r4, #2364]
	str	r5, [r3, #72]
	ldr	r3, [r4, #2364]
	str	r5, [r3, #88]
	ldr	r3, [r4, #2364]
	str	r5, [r3, #76]
	ldmfd	sp, {r4, r5, fp, sp, pc}
.L1611:
	ldr	r1, .L1612+8
	sub	sp, fp, #20
	ldmfd	sp, {r4, r5, fp, sp, lr}
	b	dprint_vfmw
.L1613:
	.align	2
.L1612:
	.word	.LC122
	.word	vfmw_Osal_Func_Ptr_S
	.word	.LC121
	UNWIND(.fnend)
	.size	HEVC_CombinePacket, .-HEVC_CombinePacket
	.align	2
	.global	HEVC_IsOutDPB
	.type	HEVC_IsOutDPB, %function
HEVC_IsOutDPB:
	UNWIND(.fnstart)
	@ args = 0, pretend = 0, frame = 0
	@ frame_needed = 1, uses_anonymous_args = 0
	UNWIND(.movsp ip)
	mov	ip, sp
	stmfd	sp!, {fp, ip, lr, pc}
	UNWIND(.pad #4)
	UNWIND(.save {fp, ip, lr})
	UNWIND(.setfp fp, ip, #-4)
	sub	fp, ip, #4
	cmp	r1, #0
	beq	.L1619
	ldr	ip, [r0, #2540]
	cmp	ip, #0
	beq	.L1619
	ldr	r3, [r0, #2560]
	cmp	r3, r1
	beq	.L1621
	add	r0, r0, #2560
	mov	r3, #0
	b	.L1616
.L1617:
	ldr	r2, [r0, #4]!
	cmp	r2, r1
	beq	.L1621
.L1616:
	add	r3, r3, #1
	cmp	r3, ip
	bne	.L1617
.L1619:
	mov	r0, #1
	ldmfd	sp, {fp, sp, pc}
.L1621:
	mov	r0, #0
	ldmfd	sp, {fp, sp, pc}
	UNWIND(.fnend)
	.size	HEVC_IsOutDPB, .-HEVC_IsOutDPB
	.align	2
	.global	HEVC_IsNewPicNal
	.type	HEVC_IsNewPicNal, %function
HEVC_IsNewPicNal:
	UNWIND(.fnstart)
	@ args = 0, pretend = 0, frame = 0
	@ frame_needed = 1, uses_anonymous_args = 0
	UNWIND(.movsp ip)
	mov	ip, sp
	stmfd	sp!, {fp, ip, lr, pc}
	UNWIND(.pad #4)
	UNWIND(.save {fp, ip, lr})
	UNWIND(.setfp fp, ip, #-4)
	sub	fp, ip, #4
	mov	r0, #0
	ldmfd	sp, {fp, sp, pc}
	UNWIND(.fnend)
	.size	HEVC_IsNewPicNal, .-HEVC_IsNewPicNal
	.align	2
	.global	HEVC_u_v
	.type	HEVC_u_v, %function
HEVC_u_v:
	UNWIND(.fnstart)
	@ args = 0, pretend = 0, frame = 0
	@ frame_needed = 1, uses_anonymous_args = 0
	UNWIND(.movsp ip)
	mov	ip, sp
	stmfd	sp!, {fp, ip, lr, pc}
	UNWIND(.pad #4)
	UNWIND(.save {fp, ip, lr})
	UNWIND(.setfp fp, ip, #-4)
	sub	fp, ip, #4
	sub	sp, fp, #12
	ldmia	sp, {fp, sp, lr}
	b	BsGet
	UNWIND(.fnend)
	.size	HEVC_u_v, .-HEVC_u_v
	.align	2
	.global	HEVC_f_v
	.type	HEVC_f_v, %function
HEVC_f_v:
	UNWIND(.fnstart)
	@ args = 0, pretend = 0, frame = 0
	@ frame_needed = 1, uses_anonymous_args = 0
	UNWIND(.movsp ip)
	mov	ip, sp
	stmfd	sp!, {fp, ip, lr, pc}
	UNWIND(.pad #4)
	UNWIND(.save {fp, ip, lr})
	UNWIND(.setfp fp, ip, #-4)
	sub	fp, ip, #4
	sub	sp, fp, #12
	ldmia	sp, {fp, sp, lr}
	b	BsGet
	UNWIND(.fnend)
	.size	HEVC_f_v, .-HEVC_f_v
	.align	2
	.global	HEVC_ue_v
	.type	HEVC_ue_v, %function
HEVC_ue_v:
	UNWIND(.fnstart)
	@ args = 0, pretend = 0, frame = 0
	@ frame_needed = 1, uses_anonymous_args = 0
	UNWIND(.movsp ip)
	mov	ip, sp
	stmfd	sp!, {r4, r5, fp, ip, lr, pc}
	UNWIND(.pad #4)
	UNWIND(.save {r4, r5, fp, ip, lr})
	UNWIND(.setfp fp, ip, #-4)
	sub	fp, ip, #4
	mov	r1, #32
	mov	r5, r0
	bl	BsShow
	bl	ZerosMS_32
	cmp	r0, #31
	bls	.L1628
	movw	r3, #61166
	mov	r2, r0
	movt	r3, 65535
	ldr	r1, .L1629
	mov	r0, #1
	bl	dprint_vfmw
	movw	r0, #61166
	movt	r0, 65535
	ldmfd	sp, {r4, r5, fp, sp, pc}
.L1628:
	add	r4, r0, #1
	mov	r1, r0
	mov	r0, r5
	bl	BsSkip
	mov	r1, r4
	mov	r0, r5
	bl	BsShow
	mov	r1, r4
	sub	r4, r0, #1
	mov	r0, r5
	bl	BsSkip
	mov	r0, r4
	ldmfd	sp, {r4, r5, fp, sp, pc}
.L1630:
	.align	2
.L1629:
	.word	.LC123
	UNWIND(.fnend)
	.size	HEVC_ue_v, .-HEVC_ue_v
	.align	2
	.global	HEVC_Sei_Tone_Mapping_Info
	.type	HEVC_Sei_Tone_Mapping_Info, %function
HEVC_Sei_Tone_Mapping_Info:
	UNWIND(.fnstart)
	@ args = 0, pretend = 0, frame = 0
	@ frame_needed = 1, uses_anonymous_args = 0
	UNWIND(.movsp ip)
	mov	ip, sp
	stmfd	sp!, {r4, r5, r6, r7, r8, r9, fp, ip, lr, pc}
	UNWIND(.pad #4)
	UNWIND(.save {r4, r5, r6, r7, r8, r9, fp, ip, lr})
	UNWIND(.setfp fp, ip, #-4)
	sub	fp, ip, #4
	mov	r4, r1
	mov	r5, r0
	ldr	r1, .L1655
	ldr	r0, [r0, #2340]
	bl	HEVC_ue_v
	mov	r1, #1
	str	r0, [r4, #4]
	ldr	r0, [r5, #2340]
	bl	BsGet
	uxtb	r0, r0
	strb	r0, [r4]
	cmp	r0, #0
	beq	.L1632
	ldr	r3, [r4, #16]
.L1633:
	cmp	r3, #4
	ldrls	pc, [pc, r3, asl #2]
	b	.L1650
.L1637:
	.word	.L1636
	.word	.L1638
	.word	.L1639
	.word	.L1640
	.word	.L1641
.L1632:
	mov	r1, #1
	ldr	r0, [r5, #2340]
	bl	BsGet
	mov	r1, #8
	strb	r0, [r4, #1]
	ldr	r0, [r5, #2340]
	bl	BsGet
	mov	r1, #8
	str	r0, [r4, #8]
	ldr	r0, [r5, #2340]
	bl	BsGet
	cmp	r0, #8
	str	r0, [r4, #12]
	bhi	.L1653
	mov	r1, #8
	ldr	r0, [r5, #2340]
	bl	BsGet
	mov	r3, r0
	str	r0, [r4, #16]
	b	.L1633
.L1641:
	mov	r1, #8
	ldr	r0, [r5, #2340]
	bl	BsGet
	cmp	r0, #255
	str	r0, [r4, #36]
	beq	.L1654
.L1649:
	mov	r1, #1
	ldr	r0, [r5, #2340]
	bl	BsGet
	mov	r1, #16
	strb	r0, [r4, #2]
	ldr	r0, [r5, #2340]
	bl	BsGet
	mov	r1, #16
	str	r0, [r4, #52]
	ldr	r0, [r5, #2340]
	bl	BsGet
	mov	r1, #32
	str	r0, [r4, #56]
	ldr	r0, [r5, #2340]
	bl	BsGet
	mov	r1, #32
	str	r0, [r4, #60]
	ldr	r0, [r5, #2340]
	bl	BsGet
	mov	r1, #16
	str	r0, [r4, #64]
	ldr	r0, [r5, #2340]
	bl	BsGet
	mov	r1, #16
	str	r0, [r4, #68]
	ldr	r0, [r5, #2340]
	bl	BsGet
	mov	r1, #16
	str	r0, [r4, #72]
	ldr	r0, [r5, #2340]
	bl	BsGet
	mov	r1, #16
	str	r0, [r4, #52]
	ldr	r0, [r5, #2340]
	bl	BsGet
	mov	r3, #0
	str	r0, [r4, #76]
.L1635:
	mov	r0, r3
	ldmfd	sp, {r4, r5, r6, r7, r8, r9, fp, sp, pc}
.L1636:
	mov	r1, #32
	ldr	r0, [r5, #2340]
	bl	BsGet
	mov	r1, #32
	str	r0, [r4, #20]
	ldr	r0, [r5, #2340]
	bl	BsGet
	mov	r3, #0
	str	r0, [r4, #24]
	mov	r0, r3
	ldmfd	sp, {r4, r5, r6, r7, r8, r9, fp, sp, pc}
.L1638:
	mov	r1, #32
	ldr	r0, [r5, #2340]
	bl	BsGet
	mov	r1, #32
	str	r0, [r4, #28]
	ldr	r0, [r5, #2340]
	bl	BsGet
	mov	r3, #0
	str	r0, [r4, #32]
	mov	r0, r3
	ldmfd	sp, {r4, r5, r6, r7, r8, r9, fp, sp, pc}
.L1639:
	ldr	r8, [r4, #12]
	mov	r3, #1
	movs	r8, r3, asl r8
	addne	r7, r4, #2128
	movne	r6, #0
	beq	.L1644
.L1643:
	ldr	r1, [r4, #8]
	add	r6, r6, #1
	ldr	r0, [r5, #2340]
	add	r1, r1, #7
	bic	r1, r1, #7
	bl	BsGet
	cmp	r8, r6
	str	r0, [r7, #4]!
	bne	.L1643
.L1644:
	ldr	r1, [r4, #8]
	add	r8, r4, r8, lsl #2
	mov	r3, #0
	mov	r2, #1
	mov	r2, r2, asl r1
	mov	r0, r3
	str	r2, [r8, #2132]
	ldmfd	sp, {r4, r5, r6, r7, r8, r9, fp, sp, pc}
.L1640:
	mov	r1, #16
	ldr	r0, [r5, #2340]
	bl	BsGet
	cmp	r0, #256
	str	r0, [r4, #80]
	bhi	.L1645
	cmp	r0, #0
	addne	r6, r4, #80
	movne	r7, #0
	beq	.L1650
.L1647:
	ldr	r1, [r4, #8]
	add	r7, r7, #1
	ldr	r0, [r5, #2340]
	add	r1, r1, #7
	bic	r1, r1, #7
	bl	BsGet
	str	r0, [r6, #4]!
	ldr	r1, [r4, #12]
	ldr	r0, [r5, #2340]
	add	r1, r1, #7
	bic	r1, r1, #7
	bl	BsGet
	str	r0, [r6, #1024]
	ldr	r3, [r4, #80]
	cmp	r3, r7
	bhi	.L1647
.L1650:
	mov	r3, #0
	mov	r0, r3
	ldmfd	sp, {r4, r5, r6, r7, r8, r9, fp, sp, pc}
.L1654:
	mov	r1, #32
	ldr	r0, [r5, #2340]
	bl	BsGet
	str	r0, [r4, #40]
	b	.L1649
.L1653:
	mov	r2, r0
	ldr	r1, .L1655+4
	mov	r0, #1
	bl	dprint_vfmw
	mvn	r3, #0
	b	.L1635
.L1645:
	ldr	r1, .L1655+8
	mov	r0, #1
	bl	dprint_vfmw
	mvn	r3, #0
	b	.L1635
.L1656:
	.align	2
.L1655:
	.word	.LC124
	.word	.LC125
	.word	.LC126
	UNWIND(.fnend)
	.size	HEVC_Sei_Tone_Mapping_Info, .-HEVC_Sei_Tone_Mapping_Info
	.align	2
	.global	HEVC_Sei_Frame_Packing_Arrangement
	.type	HEVC_Sei_Frame_Packing_Arrangement, %function
HEVC_Sei_Frame_Packing_Arrangement:
	UNWIND(.fnstart)
	@ args = 0, pretend = 0, frame = 0
	@ frame_needed = 1, uses_anonymous_args = 0
	UNWIND(.movsp ip)
	mov	ip, sp
	stmfd	sp!, {r4, r5, fp, ip, lr, pc}
	UNWIND(.pad #4)
	UNWIND(.save {r4, r5, fp, ip, lr})
	UNWIND(.setfp fp, ip, #-4)
	sub	fp, ip, #4
	mov	r5, r1
	mov	r4, r0
	ldr	r1, .L1666
	ldr	r0, [r0, #2340]
	bl	HEVC_ue_v
	mov	r1, #1
	str	r0, [r5, #12]
	ldr	r0, [r4, #2340]
	bl	BsGet
	uxtb	r0, r0
	strb	r0, [r5]
	cmp	r0, #0
	bne	.L1658
	mov	r1, #7
	ldr	r0, [r4, #2340]
	bl	BsGet
	sub	r3, r0, #3
	str	r0, [r5, #16]
	cmp	r3, #2
	bhi	.L1665
	mov	r1, #1
	ldr	r0, [r4, #2340]
	bl	BsGet
	mov	r1, #6
	strb	r0, [r5, #1]
	ldr	r0, [r4, #2340]
	bl	BsGet
	mov	r1, #1
	str	r0, [r5, #20]
	ldr	r0, [r4, #2340]
	bl	BsGet
	mov	r1, #1
	strb	r0, [r5, #2]
	ldr	r0, [r4, #2340]
	bl	BsGet
	mov	r1, #1
	strb	r0, [r5, #3]
	ldr	r0, [r4, #2340]
	bl	BsGet
	mov	r1, #1
	strb	r0, [r5, #4]
	ldr	r0, [r4, #2340]
	bl	BsGet
	mov	r1, #1
	strb	r0, [r5, #5]
	ldr	r0, [r4, #2340]
	bl	BsGet
	mov	r1, #1
	strb	r0, [r5, #6]
	ldr	r0, [r4, #2340]
	bl	BsGet
	ldrb	r3, [r5, #1]	@ zero_extendqisi2
	cmp	r3, #0
	strb	r0, [r5, #7]
	bne	.L1661
	ldr	r3, [r5, #16]
	cmp	r3, #5
	beq	.L1661
	mov	r1, #4
	ldr	r0, [r4, #2340]
	bl	BsGet
	mov	r1, #4
	str	r0, [r5, #24]
	ldr	r0, [r4, #2340]
	bl	BsGet
	mov	r1, #4
	str	r0, [r5, #28]
	ldr	r0, [r4, #2340]
	bl	BsGet
	mov	r1, #4
	str	r0, [r5, #32]
	ldr	r0, [r4, #2340]
	bl	BsGet
	str	r0, [r5, #36]
.L1661:
	mov	r1, #8
	ldr	r0, [r4, #2340]
	bl	BsGet
	mov	r1, #1
	str	r0, [r5, #40]
	ldr	r0, [r4, #2340]
	bl	BsGet
	strb	r0, [r5, #8]
.L1658:
	mov	r1, #1
	ldr	r0, [r4, #2340]
	bl	BsGet
	strb	r0, [r5, #9]
	ldr	r0, [r4, #2340]
	bl	BsToNextByte
	mov	r0, #0
	ldmfd	sp, {r4, r5, fp, sp, pc}
.L1665:
	mov	r2, r0
	ldr	r1, .L1666+4
	mov	r0, #1
	bl	dprint_vfmw
	mvn	r0, #0
	ldmfd	sp, {r4, r5, fp, sp, pc}
.L1667:
	.align	2
.L1666:
	.word	.LC127
	.word	.LC128
	UNWIND(.fnend)
	.size	HEVC_Sei_Frame_Packing_Arrangement, .-HEVC_Sei_Frame_Packing_Arrangement
	.align	2
	.global	HEVC_Sei_Dec_Unit_Info
	.type	HEVC_Sei_Dec_Unit_Info, %function
HEVC_Sei_Dec_Unit_Info:
	UNWIND(.fnstart)
	@ args = 0, pretend = 0, frame = 0
	@ frame_needed = 1, uses_anonymous_args = 0
	UNWIND(.movsp ip)
	mov	ip, sp
	stmfd	sp!, {r4, r5, r6, r7, fp, ip, lr, pc}
	UNWIND(.pad #4)
	UNWIND(.save {r4, r5, r6, r7, fp, ip, lr})
	UNWIND(.setfp fp, ip, #-4)
	sub	fp, ip, #4
	cmp	r2, #0
	cmpne	r1, #0
	mov	r5, r1
	mov	r6, r2
	mov	r4, r0
	moveq	r3, #1
	movne	r3, #0
	cmp	r0, #0
	orreq	r3, r3, #1
	cmp	r3, #0
	bne	.L1673
	ldr	r1, .L1679
	ldr	r0, [r0, #2340]
	bl	HEVC_ue_v
	str	r0, [r5, #4]
	ldrb	r3, [r6, #3]	@ zero_extendqisi2
	cmp	r3, #0
	streq	r3, [r5, #8]
	bne	.L1677
.L1671:
	mov	r1, #1
	ldr	r0, [r4, #2340]
	bl	BsGet
	uxtb	r0, r0
	strb	r0, [r5]
	cmp	r0, #0
	bne	.L1678
.L1672:
	ldr	r0, [r4, #2340]
	bl	BsToNextByte
	mov	r0, #0
	ldmfd	sp, {r4, r5, r6, r7, fp, sp, pc}
.L1677:
	ldr	r1, [r6, #8]
	ldr	r0, [r4, #2340]
	add	r1, r1, #1
	bl	BsGet
	str	r0, [r5, #8]
	b	.L1671
.L1678:
	ldr	r1, [r6, #12]
	ldr	r0, [r4, #2340]
	add	r1, r1, #1
	bl	BsGet
	str	r0, [r5, #12]
	b	.L1672
.L1673:
	mvn	r0, #0
	ldmfd	sp, {r4, r5, r6, r7, fp, sp, pc}
.L1680:
	.align	2
.L1679:
	.word	.LC129
	UNWIND(.fnend)
	.size	HEVC_Sei_Dec_Unit_Info, .-HEVC_Sei_Dec_Unit_Info
	.align	2
	.global	HEVC_Sei_Active_Param_sets
	.type	HEVC_Sei_Active_Param_sets, %function
HEVC_Sei_Active_Param_sets:
	UNWIND(.fnstart)
	@ args = 0, pretend = 0, frame = 0
	@ frame_needed = 1, uses_anonymous_args = 0
	UNWIND(.movsp ip)
	mov	ip, sp
	stmfd	sp!, {r4, r5, r6, r7, fp, ip, lr, pc}
	UNWIND(.pad #4)
	UNWIND(.save {r4, r5, r6, r7, fp, ip, lr})
	UNWIND(.setfp fp, ip, #-4)
	sub	fp, ip, #4
	mov	r7, r1
	mov	r6, r0
	mov	r1, #4
	ldr	r0, [r0, #2340]
	bl	BsGet
	mov	r1, #1
	str	r0, [r7, #4]
	ldr	r0, [r6, #2340]
	bl	BsGet
	mov	r1, #1
	strb	r0, [r7]
	ldr	r0, [r6, #2340]
	bl	BsGet
	ldr	r1, .L1688
	strb	r0, [r7, #1]
	ldr	r0, [r6, #2340]
	bl	HEVC_ue_v
	cmp	r0, #15
	str	r0, [r7, #8]
	bgt	.L1682
	cmp	r0, #0
	addge	r5, r7, #8
	movge	r4, #0
	blt	.L1686
.L1685:
	ldr	r1, .L1688+4
	add	r4, r4, #1
	ldr	r0, [r6, #2340]
	bl	HEVC_ue_v
	str	r0, [r5, #4]!
	ldr	r3, [r7, #8]
	cmp	r3, r4
	bge	.L1685
.L1686:
	ldr	r0, [r6, #2340]
	bl	BsToNextByte
	mov	r0, #0
	ldmfd	sp, {r4, r5, r6, r7, fp, sp, pc}
.L1682:
	ldr	r1, .L1688+8
	mov	r0, #1
	bl	dprint_vfmw
	mvn	r0, #0
	ldmfd	sp, {r4, r5, r6, r7, fp, sp, pc}
.L1689:
	.align	2
.L1688:
	.word	.LC130
	.word	.LC132
	.word	.LC131
	UNWIND(.fnend)
	.size	HEVC_Sei_Active_Param_sets, .-HEVC_Sei_Active_Param_sets
	.align	2
	.global	HEVC_Sei_Buf_Period
	.type	HEVC_Sei_Buf_Period, %function
HEVC_Sei_Buf_Period:
	UNWIND(.fnstart)
	@ args = 0, pretend = 0, frame = 8
	@ frame_needed = 1, uses_anonymous_args = 0
	UNWIND(.movsp ip)
	mov	ip, sp
	stmfd	sp!, {r4, r5, r6, r7, r8, r9, r10, fp, ip, lr, pc}
	UNWIND(.pad #4)
	UNWIND(.save {r4, r5, r6, r7, r8, r9, r10, fp, ip, lr})
	UNWIND(.setfp fp, ip, #-4)
	sub	fp, ip, #4
	UNWIND(.pad #12)
	sub	sp, sp, #12
	add	r4, r0, #24576
	mov	r5, r1
	mov	r6, r0
	ldr	r1, [r4, #2792]
	mov	r0, #0
	ldr	r3, [r4, #2784]
	mov	r8, r2
	str	r0, [r4, #2792]
	str	r1, [r4, #2804]
	add	r3, r3, #1
	ldr	r1, .L1723
	str	r3, [r4, #2784]
	ldr	r0, [r6, #2340]
	bl	HEVC_ue_v
	cmp	r0, #15
	str	r0, [r5, #4]
	bhi	.L1718
	mov	r1, #1
	strb	r1, [r4, #2857]
	ldrb	r3, [r8, #2]	@ zero_extendqisi2
	cmp	r3, #0
	beq	.L1693
	ldrb	r0, [r5]	@ zero_extendqisi2
.L1694:
	cmp	r0, #0
	bne	.L1719
.L1695:
	mov	r1, #1
	ldr	r0, [r6, #2340]
	bl	BsGet
	strb	r0, [r5, #1]
	ldr	r1, [r8, #32]
	ldr	r0, [r6, #2340]
	add	r1, r1, #1
	bl	BsGet
	add	r0, r0, #1
	str	r0, [r5, #16]
	ldr	r2, [r8, #48]
	cmp	r2, #31
	bhi	.L1720
.L1696:
	mov	r4, #0
	cmp	r4, #0
	mov	r9, r5
	mov	r7, #1
	beq	.L1721
.L1697:
	cmp	r4, #1
	beq	.L1722
.L1701:
	cmp	r7, #1
	bhi	.L1700
.L1699:
	add	r4, r4, #1
	add	r7, r7, #1
	cmp	r4, #0
	add	r9, r9, #16
	bne	.L1697
.L1721:
	ldrb	r3, [r8]	@ zero_extendqisi2
	cmp	r3, #0
	beq	.L1701
	ldr	r3, [r8, #48]
	cmn	r3, #1
	movne	r10, r9
	movne	r3, r4
	beq	.L1699
.L1713:
	ldr	r1, [r8, #28]
	add	r3, r3, #1
	ldr	r0, [r6, #2340]
	add	r1, r1, #1
	str	r3, [fp, #-48]
	str	r3, [fp, #-52]
	bl	BsGet
	str	r0, [r10, #20]
	ldr	r1, [r8, #28]
	ldr	r0, [r6, #2340]
	add	r1, r1, #1
	bl	BsGet
	ldr	r3, [fp, #-48]
	str	r0, [r10, #24]
	ldrb	r2, [r8, #2]	@ zero_extendqisi2
	cmp	r2, #0
	bne	.L1703
	ldrb	r2, [r5]	@ zero_extendqisi2
	cmp	r2, #0
	beq	.L1704
.L1703:
	ldr	r1, [r8, #28]
	ldr	r0, [r6, #2340]
	add	r1, r1, #1
	str	r3, [fp, #-48]
	bl	BsGet
	str	r0, [r10, #28]
	ldr	r1, [r8, #28]
	ldr	r0, [r6, #2340]
	add	r1, r1, #1
	bl	BsGet
	ldr	r3, [fp, #-48]
	str	r0, [r10, #32]
.L1704:
	ldr	r2, [r8, #48]
	add	r10, r10, #32
	add	r2, r2, #1
	cmp	r2, r3
	bhi	.L1713
	b	.L1701
.L1700:
	ldr	r0, [r6, #2340]
	bl	BsToNextByte
	mov	r0, #0
.L1717:
	sub	sp, fp, #40
	ldmfd	sp, {r4, r5, r6, r7, r8, r9, r10, fp, sp, pc}
.L1720:
	ldr	r1, .L1723+4
	mov	r0, #1
	bl	dprint_vfmw
	mov	r3, #0
	str	r3, [r8, #48]
	b	.L1696
.L1719:
	ldr	r1, [r8, #32]
	ldr	r0, [r6, #2340]
	add	r1, r1, #1
	bl	BsGet
	str	r0, [r5, #8]
	ldr	r1, [r8, #36]
	ldr	r0, [r6, #2340]
	add	r1, r1, #1
	bl	BsGet
	str	r0, [r5, #12]
	b	.L1695
.L1693:
	ldr	r0, [r6, #2340]
	bl	BsGet
	uxtb	r0, r0
	strb	r0, [r5]
	b	.L1694
.L1718:
	mov	r2, r0
	ldr	r1, .L1723+8
	mov	r0, #1
	bl	dprint_vfmw
	mvn	r0, #0
	b	.L1717
.L1722:
	ldrb	r3, [r8, #1]	@ zero_extendqisi2
	cmp	r3, #0
	beq	.L1700
	ldr	r3, [r8, #48]
	cmn	r3, #1
	beq	.L1700
	mov	r10, r9
	mov	r3, #0
	b	.L1713
.L1724:
	.align	2
.L1723:
	.word	.LC133
	.word	.LC135
	.word	.LC134
	UNWIND(.fnend)
	.size	HEVC_Sei_Buf_Period, .-HEVC_Sei_Buf_Period
	.align	2
	.global	HEVC_Sei_Pic_Timming
	.type	HEVC_Sei_Pic_Timming, %function
HEVC_Sei_Pic_Timming:
	UNWIND(.fnstart)
	@ args = 0, pretend = 0, frame = 0
	@ frame_needed = 1, uses_anonymous_args = 0
	UNWIND(.movsp ip)
	mov	ip, sp
	stmfd	sp!, {r4, r5, r6, r7, r8, r9, fp, ip, lr, pc}
	UNWIND(.pad #4)
	UNWIND(.save {r4, r5, r6, r7, r8, r9, fp, ip, lr})
	UNWIND(.setfp fp, ip, #-4)
	sub	fp, ip, #4
	add	r3, r0, #24576
	mov	r5, r2
	mov	r6, r1
	mov	r4, r0
	ldr	r1, [r3, #2788]
	ldr	r2, [r3, #2792]
	add	r1, r1, #1
	str	r1, [r3, #2788]
	add	r2, r2, #1
	str	r2, [r3, #2792]
	ldrb	r3, [r5, #9]	@ zero_extendqisi2
	cmp	r3, #0
	bne	.L1751
.L1726:
	ldrh	r3, [r5, #108]
	cmp	r3, #0
	beq	.L1729
	ldr	r1, [r5, #140]
	ldr	r0, [r4, #2340]
	add	r1, r1, #1
	bl	BsGet
	add	r0, r0, #1
	str	r0, [r6, #12]
	ldr	r1, [r5, #144]
	ldr	r0, [r4, #2340]
	add	r1, r1, #1
	bl	BsGet
	str	r0, [r6, #16]
	ldrb	r3, [r5, #110]	@ zero_extendqisi2
	cmp	r3, #0
	bne	.L1752
.L1729:
	ldr	r0, [r4, #2340]
	bl	BsToNextByte
	mov	r0, #0
	ldmfd	sp, {r4, r5, r6, r7, r8, r9, fp, sp, pc}
.L1751:
	mov	r1, #4
	ldr	r0, [r0, #2340]
	bl	BsGet
	mov	r1, #2
	str	r0, [r6, #4]
	ldr	r0, [r4, #2340]
	bl	BsGet
	mov	r1, #1
	str	r0, [r6, #8]
	ldr	r0, [r4, #2340]
	bl	BsGet
	strb	r0, [r6]
	b	.L1726
.L1752:
	ldr	r1, [r5, #120]
	ldr	r0, [r4, #2340]
	add	r1, r1, #1
	bl	BsGet
	str	r0, [r6, #20]
	ldrb	r3, [r5, #110]	@ zero_extendqisi2
	cmp	r3, #0
	beq	.L1729
	ldrb	r3, [r5, #111]	@ zero_extendqisi2
	cmp	r3, #0
	beq	.L1729
	ldr	r1, .L1754
	ldr	r0, [r4, #2340]
	bl	HEVC_ue_v
	mov	r1, #1
	str	r0, [r6, #24]
	ldr	r0, [r4, #2340]
	bl	BsGet
	uxtb	r0, r0
	strb	r0, [r6, #1]
	cmp	r0, #0
	bne	.L1753
.L1730:
	ldr	r3, [r6, #24]
	cmp	r3, #255
	bhi	.L1733
	add	r8, r6, #28
	mov	r7, #0
	b	.L1732
.L1731:
	ldr	r3, [r6, #24]
	cmp	r3, r7
	bcc	.L1729
.L1732:
	ldr	r1, .L1754+4
	add	r7, r7, #1
	ldr	r0, [r4, #2340]
	bl	HEVC_ue_v
	str	r0, [r8, #4]!
	ldrb	r3, [r6, #1]	@ zero_extendqisi2
	cmp	r3, #0
	bne	.L1731
	ldr	r1, [r5, #116]
	ldr	r0, [r4, #2340]
	add	r1, r1, #1
	bl	BsGet
	str	r0, [r8, #1024]
	b	.L1731
.L1753:
	ldr	r1, [r5, #116]
	ldr	r0, [r4, #2340]
	add	r1, r1, #1
	bl	BsGet
	str	r0, [r6, #28]
	b	.L1730
.L1733:
	ldr	r1, .L1754+8
	mov	r0, #1
	bl	dprint_vfmw
	mvn	r0, #0
	ldmfd	sp, {r4, r5, r6, r7, r8, r9, fp, sp, pc}
.L1755:
	.align	2
.L1754:
	.word	.LC136
	.word	.LC138
	.word	.LC137
	UNWIND(.fnend)
	.size	HEVC_Sei_Pic_Timming, .-HEVC_Sei_Pic_Timming
	.align	2
	.global	HEVC_DecShortTermRefPicSet
	.type	HEVC_DecShortTermRefPicSet, %function
HEVC_DecShortTermRefPicSet:
	UNWIND(.fnstart)
	@ args = 0, pretend = 0, frame = 16
	@ frame_needed = 1, uses_anonymous_args = 0
	UNWIND(.movsp ip)
	mov	ip, sp
	stmfd	sp!, {r4, r5, r6, r7, r8, r9, r10, fp, ip, lr, pc}
	UNWIND(.pad #4)
	UNWIND(.save {r4, r5, r6, r7, r8, r9, r10, fp, ip, lr})
	UNWIND(.setfp fp, ip, #-4)
	sub	fp, ip, #4
	UNWIND(.pad #20)
	sub	sp, sp, #20
	subs	r7, r3, #0
	mov	r5, r0
	mov	r6, r1
	mov	r4, r2
	streq	r7, [r2]
	bne	.L1798
.L1759:
	ldr	r1, .L1807
	ldr	r0, [r5, #2340]
	bl	HEVC_ue_v
	cmp	r0, #16
	str	r0, [r4, #16]
	bhi	.L1799
	ldr	r1, .L1807+4
	ldr	r0, [r5, #2340]
	bl	HEVC_ue_v
	cmp	r0, #16
	str	r0, [r4, #20]
	bhi	.L1800
	ldr	r6, [r4, #16]
	add	r2, r0, r6
	str	r2, [r4, #24]
	cmp	r2, #16
	bhi	.L1784
	cmp	r6, #0
	addne	r10, r4, #68
	addne	r9, r4, #52
	movne	r7, #0
	movne	r8, r7
	bne	.L1788
	b	.L1786
.L1787:
	str	r8, [r10, #4]!
	ldr	r0, [r5, #2340]
	bl	BsGet
	strb	r0, [r9, #1]!
	ldr	r6, [r4, #16]
	cmp	r6, r7
	bls	.L1801
.L1788:
	ldr	r1, .L1807+8
	add	r7, r7, #1
	ldr	r0, [r5, #2340]
	bl	HEVC_ue_v
	mov	r1, #1
	cmp	r0, #32768
	mvn	r3, r0
	add	r8, r8, r3
	bcc	.L1787
	mov	r2, r0
	ldr	r1, .L1807+12
	mov	r0, #1
	bl	dprint_vfmw
	mvn	r0, #0
	sub	sp, fp, #40
	ldmfd	sp, {r4, r5, r6, r7, r8, r9, r10, fp, sp, pc}
.L1798:
	mov	r1, #1
	ldr	r0, [r0, #2340]
	bl	BsGet
	cmp	r0, #0
	str	r0, [r4]
	beq	.L1759
	ldr	r8, [r6, #228]
	cmp	r8, r7
	movne	r0, #0
	strne	r0, [r4, #4]
	beq	.L1802
.L1762:
	sub	r3, r7, #1
	rsb	r7, r0, r3
	cmp	r7, r3
	bhi	.L1803
	mov	r1, #1
	ldr	r0, [r5, #2340]
	bl	BsGet
	ldr	r1, .L1807+16
	str	r0, [r4, #8]
	ldr	r0, [r5, #2340]
	bl	HEVC_ue_v
	mov	r3, #204
	mul	r3, r3, r7
	ldr	r1, [r4, #8]
	mov	r1, r1, asl #1
	add	r9, r6, r3
	rsb	r1, r1, #1
	add	r9, r9, #13120
	add	r9, r9, #8
	add	r0, r0, #1
	str	r0, [r4, #12]
	ldr	r2, [r9, #4]
	mul	r1, r1, r0
	cmp	r2, #16
	str	r1, [fp, #-56]
	bhi	.L1804
	add	r2, r3, #13120
	mov	r10, #0
	add	r2, r2, #60
	add	r8, r4, #35
	add	r6, r6, r2
	str	r10, [fp, #-48]
	str	r10, [fp, #-52]
	mov	r7, r10
	b	.L1771
.L1766:
	sub	r2, r0, #1
	cmp	r2, #1
	bls	.L1805
.L1767:
	strb	r0, [r8, #1]!
	add	r10, r10, #1
	ldr	r2, [r9, #4]
	add	r6, r6, #4
	cmp	r2, r10
	bcc	.L1806
.L1771:
	mov	r1, #1
	ldr	r0, [r5, #2340]
	bl	BsGet
	cmp	r0, #0
	bne	.L1766
	mov	r1, #1
	ldr	r0, [r5, #2340]
	bl	BsGet
	mov	r0, r0, asl #1
	sub	r2, r0, #1
	cmp	r2, #1
	bhi	.L1767
.L1805:
	ldr	r2, [r9, #4]
	add	r1, r7, #18
	ldr	r3, [fp, #-56]
	sub	ip, r0, #1
	cmp	r2, r10
	clz	ip, ip
	ldrhi	r2, [r6]
	movls	r2, #0
	mov	ip, ip, lsr #5
	add	r2, r2, r3
	str	r2, [r4, r1, asl #2]
	cmp	r2, #0
	add	r2, r4, r7
	add	r7, r7, #1
	ldrlt	r3, [fp, #-52]
	ldrge	r3, [fp, #-48]
	addlt	r3, r3, #1
	strb	ip, [r2, #53]
	addge	r3, r3, #1
	strlt	r3, [fp, #-52]
	strge	r3, [fp, #-48]
	b	.L1767
.L1806:
	add	r2, r2, #1
	ldr	r3, [fp, #-52]
	str	r2, [r4, #28]
	cmp	r7, #16
	ldr	r2, [fp, #-48]
	str	r7, [r4, #24]
	str	r3, [r4, #16]
	str	r2, [r4, #20]
	bhi	.L1772
	cmp	r3, #16
	bhi	.L1772
	cmp	r2, #16
	bhi	.L1772
	cmp	r7, #1
	subhi	r7, r7, #1
	addhi	r8, r4, #72
	addhi	r6, r4, #53
	movhi	r5, #0
	bls	.L1778
.L1777:
	ldr	ip, [r8, #4]!
	cmp	r5, #0
	ldrb	lr, [r6, #1]!	@ zero_extendqisi2
	mov	r2, r5
	movge	r1, r8
	movge	r3, r6
	blt	.L1780
.L1776:
	ldr	r0, [r1, #-4]!
	sub	r3, r3, #1
	cmp	ip, r0
	strlt	r0, [r1, #4]
	ldrltb	r0, [r3]	@ zero_extendqisi2
	strltb	r0, [r3, #1]
	strlt	ip, [r1]
	strltb	lr, [r3]
	subs	r2, r2, #1
	bpl	.L1776
.L1780:
	add	r5, r5, #1
	cmp	r5, r7
	bne	.L1777
.L1778:
	ldr	r3, [fp, #-52]
	movs	r6, r3, lsr #1
	beq	.L1775
	ldr	r3, [fp, #-52]
	add	r0, r4, #72
	mov	r1, #0
	add	r2, r3, #17
	add	r3, r3, #52
	add	r3, r4, r3
	add	r2, r4, r2, lsl #2
	add	r4, r4, #53
.L1781:
	ldr	r5, [r2]
	add	r1, r1, #1
	ldr	lr, [r0]
	cmp	r1, r6
	ldrb	ip, [r4]	@ zero_extendqisi2
	str	r5, [r0], #4
	ldrb	r5, [r3]	@ zero_extendqisi2
	strb	r5, [r4], #1
	str	lr, [r2], #-4
	strb	ip, [r3], #-1
	bne	.L1781
.L1775:
	mov	r0, #0
.L1763:
	sub	sp, fp, #40
	ldmfd	sp, {r4, r5, r6, r7, r8, r9, r10, fp, sp, pc}
.L1801:
	ldr	r2, [r4, #24]
.L1786:
	cmp	r2, r6
	bls	.L1775
	add	r8, r6, #17
	add	r9, r6, #52
	add	r9, r4, r9
	mov	r7, #0
	add	r8, r4, r8, lsl #2
.L1789:
	ldr	r1, .L1807+20
	add	r6, r6, #1
	ldr	r0, [r5, #2340]
	bl	HEVC_ue_v
	mov	r1, #1
	add	r0, r0, r1
	add	r7, r7, r0
	str	r7, [r8, #4]!
	ldr	r0, [r5, #2340]
	bl	BsGet
	strb	r0, [r9, #1]!
	ldr	r3, [r4, #24]
	cmp	r3, r6
	bhi	.L1789
	b	.L1775
.L1802:
	ldr	r1, .L1807+24
	ldr	r0, [r5, #2340]
	bl	HEVC_ue_v
	add	r2, r0, #1
	str	r2, [r4, #4]
	cmp	r8, r2
	bcs	.L1762
	mov	r3, r8
	ldr	r1, .L1807+28
	mov	r0, #1
	bl	dprint_vfmw
	mvn	r0, #0
	b	.L1763
.L1772:
	ldr	r1, .L1807+32
	mov	r0, #1
	bl	dprint_vfmw
	mvn	r0, #0
	b	.L1763
.L1799:
	mov	r2, r0
	ldr	r1, .L1807+36
	mov	r0, #1
	bl	dprint_vfmw
	mvn	r0, #0
	b	.L1763
.L1803:
	mov	r2, r7
	ldr	r1, .L1807+40
	mov	r0, #1
	bl	dprint_vfmw
	mvn	r0, #0
	b	.L1763
.L1804:
	ldr	r1, .L1807+44
	mov	r0, #1
	bl	dprint_vfmw
	mvn	r0, #0
	b	.L1763
.L1800:
	ldr	r2, [r4, #16]
	mov	r0, #1
	ldr	r1, .L1807+48
	bl	dprint_vfmw
	mvn	r0, #0
	b	.L1763
.L1784:
	mov	r3, #16
	ldr	r1, .L1807+52
	mov	r0, #1
	bl	dprint_vfmw
	mvn	r0, #0
	b	.L1763
.L1808:
	.align	2
.L1807:
	.word	.LC145
	.word	.LC147
	.word	.LC150
	.word	.LC151
	.word	.LC142
	.word	.LC152
	.word	.LC139
	.word	.LC140
	.word	.LC144
	.word	.LC146
	.word	.LC141
	.word	.LC143
	.word	.LC148
	.word	.LC149
	UNWIND(.fnend)
	.size	HEVC_DecShortTermRefPicSet, .-HEVC_DecShortTermRefPicSet
	.align	2
	.global	HEVC_DecHrdParam
	.type	HEVC_DecHrdParam, %function
HEVC_DecHrdParam:
	UNWIND(.fnstart)
	@ args = 0, pretend = 0, frame = 8
	@ frame_needed = 1, uses_anonymous_args = 0
	UNWIND(.movsp ip)
	mov	ip, sp
	stmfd	sp!, {r4, r5, r6, r7, r8, r9, r10, fp, ip, lr, pc}
	UNWIND(.pad #4)
	UNWIND(.save {r4, r5, r6, r7, r8, r9, r10, fp, ip, lr})
	UNWIND(.setfp fp, ip, #-4)
	sub	fp, ip, #4
	UNWIND(.pad #12)
	sub	sp, sp, #12
	cmp	r1, #0
	cmpne	r0, #0
	mov	r7, r3
	mov	r5, r0
	mov	r8, r1
	beq	.L1831
	cmp	r2, #0
	bne	.L1856
.L1814:
	mov	r4, r8
	mov	r6, #0
.L1828:
	mov	r1, #1
	ldr	r0, [r5, #2340]
	bl	BsGet
	uxtb	r0, r0
	strb	r0, [r4, #40]
	cmp	r0, #0
	movne	r3, #1
	strneb	r3, [r4, #41]
	beq	.L1857
.L1816:
	ldrb	r2, [r4, #41]	@ zero_extendqisi2
	mov	r3, #0
	strb	r3, [r4, #42]
	cmp	r2, r3
	str	r3, [r4, #48]
	beq	.L1817
	ldr	r1, .L1864
	ldr	r0, [r5, #2340]
	bl	HEVC_ue_v
	ldrb	r3, [r4, #42]	@ zero_extendqisi2
	cmp	r3, #0
	str	r0, [r4, #44]
	beq	.L1819
.L1860:
	ldr	r2, [r4, #48]
	cmp	r2, #31
	bhi	.L1858
.L1821:
	mov	r2, r4
	mov	r10, #0
.L1830:
	cmp	r10, #0
	beq	.L1859
	cmp	r10, #1
	beq	.L1854
.L1827:
	add	r10, r10, #1
	add	r2, r2, #4
	cmp	r10, #2
	bne	.L1830
.L1826:
	add	r6, r6, #1
	add	r4, r4, #1280
	cmp	r7, r6
	add	r4, r4, #12
	bcs	.L1828
	mov	r0, #0
.L1853:
	sub	sp, fp, #40
	ldmfd	sp, {r4, r5, r6, r7, r8, r9, r10, fp, sp, pc}
.L1817:
	mov	r1, #1
	ldr	r0, [r5, #2340]
	bl	BsGet
	uxtb	r3, r0
	strb	r3, [r4, #42]
	cmp	r3, #0
	bne	.L1860
.L1819:
	ldr	r1, .L1864+4
	ldr	r0, [r5, #2340]
	bl	HEVC_ue_v
	mov	r2, r0
	cmp	r2, #31
	str	r0, [r4, #48]
	bls	.L1821
.L1858:
	ldr	r1, .L1864+8
	mov	r0, #1
	bl	dprint_vfmw
	mov	r3, #0
	str	r3, [r4, #48]
	b	.L1821
.L1857:
	mov	r1, #1
	ldr	r0, [r5, #2340]
	bl	BsGet
	strb	r0, [r4, #41]
	b	.L1816
.L1856:
	mov	r1, #1
	ldr	r0, [r0, #2340]
	bl	BsGet
	mov	r1, #1
	strb	r0, [r8]
	ldr	r0, [r5, #2340]
	bl	BsGet
	strb	r0, [r8, #1]
	ldrh	r3, [r8]
	cmp	r3, #0
	beq	.L1814
	mov	r1, #1
	ldr	r0, [r5, #2340]
	bl	BsGet
	uxtb	r0, r0
	strb	r0, [r8, #2]
	cmp	r0, #0
	bne	.L1861
.L1812:
	mov	r1, #4
	ldr	r0, [r5, #2340]
	bl	BsGet
	mov	r1, #4
	str	r0, [r8, #16]
	ldr	r0, [r5, #2340]
	bl	BsGet
	ldrb	r3, [r8, #2]	@ zero_extendqisi2
	cmp	r3, #0
	str	r0, [r8, #20]
	bne	.L1862
.L1813:
	mov	r1, #5
	ldr	r0, [r5, #2340]
	bl	BsGet
	mov	r1, #5
	str	r0, [r8, #28]
	ldr	r0, [r5, #2340]
	bl	BsGet
	mov	r1, #5
	str	r0, [r8, #32]
	ldr	r0, [r5, #2340]
	bl	BsGet
	str	r0, [r8, #36]
	b	.L1814
.L1831:
	mvn	r0, #0
	b	.L1853
.L1862:
	mov	r1, #4
	ldr	r0, [r5, #2340]
	bl	BsGet
	str	r0, [r8, #24]
	b	.L1813
.L1861:
	mov	r1, #8
	ldr	r0, [r5, #2340]
	bl	BsGet
	mov	r1, #5
	str	r0, [r8, #4]
	ldr	r0, [r5, #2340]
	bl	BsGet
	mov	r1, #1
	str	r0, [r8, #8]
	ldr	r0, [r5, #2340]
	bl	BsGet
	mov	r1, #5
	strb	r0, [r8, #3]
	ldr	r0, [r5, #2340]
	bl	BsGet
	str	r0, [r8, #36]
	b	.L1812
.L1859:
	ldrb	r1, [r8]	@ zero_extendqisi2
	cmp	r1, #0
	beq	.L1863
	mov	r9, r2
	str	r10, [fp, #-48]
	b	.L1844
.L1829:
	mov	r1, #1
	ldr	r0, [r5, #2340]
	str	r2, [fp, #-52]
	bl	BsGet
	ldr	r3, [fp, #-48]
	add	r9, r9, #8
	ldr	r2, [fp, #-52]
	str	r0, [r9, #1068]
	ldr	r1, [r4, #48]
	cmp	r1, r3
	bcc	.L1827
.L1844:
	ldr	r3, [fp, #-48]
	ldr	r1, .L1864+12
	ldr	r0, [r5, #2340]
	add	r3, r3, #1
	str	r2, [fp, #-52]
	str	r3, [fp, #-48]
	bl	HEVC_ue_v
	ldr	r1, .L1864+16
	str	r0, [r9, #52]
	ldr	r0, [r5, #2340]
	bl	HEVC_ue_v
	ldr	r2, [fp, #-52]
	str	r0, [r9, #308]
	ldrb	r1, [r8, #2]	@ zero_extendqisi2
	cmp	r1, #0
	beq	.L1829
	ldr	r1, .L1864+20
	ldr	r0, [r5, #2340]
	bl	HEVC_ue_v
	ldr	r1, .L1864+24
	str	r0, [r9, #564]
	ldr	r0, [r5, #2340]
	bl	HEVC_ue_v
	ldr	r2, [fp, #-52]
	str	r0, [r9, #820]
	b	.L1829
.L1863:
	add	r2, r2, #4
	mov	r10, #1
.L1854:
	ldrb	r1, [r8, #1]	@ zero_extendqisi2
	cmp	r1, #0
	beq	.L1826
	mov	r3, #0
	mov	r9, r2
	str	r3, [fp, #-48]
	b	.L1844
.L1865:
	.align	2
.L1864:
	.word	.LC153
	.word	.LC154
	.word	.LC155
	.word	.LC156
	.word	.LC157
	.word	.LC158
	.word	.LC159
	UNWIND(.fnend)
	.size	HEVC_DecHrdParam, .-HEVC_DecHrdParam
	.align	2
	.global	HEVC_ProcessVPS
	.type	HEVC_ProcessVPS, %function
HEVC_ProcessVPS:
	UNWIND(.fnstart)
	@ args = 0, pretend = 0, frame = 112
	@ frame_needed = 1, uses_anonymous_args = 0
	UNWIND(.movsp ip)
	mov	ip, sp
	stmfd	sp!, {r4, r5, r6, r7, r8, r9, r10, fp, ip, lr, pc}
	UNWIND(.pad #4)
	UNWIND(.save {r4, r5, r6, r7, r8, r9, r10, fp, ip, lr})
	UNWIND(.setfp fp, ip, #-4)
	sub	fp, ip, #4
	UNWIND(.pad #124)
	sub	sp, sp, #124
	mov	r6, r1
	mov	r7, r0
	mov	r1, #2
	ldr	r0, [r0, #2340]
	bl	BsGet
	cmp	r0, #3
	str	r0, [r6, #12]
	beq	.L1867
	mov	r2, r0
	ldr	r1, .L1919
	mov	r0, #1
	bl	dprint_vfmw
.L1867:
	mov	r1, #6
	ldr	r0, [r7, #2340]
	bl	BsGet
	cmp	r0, #63
	str	r0, [r6, #16]
	bhi	.L1911
	mov	r1, #3
	ldr	r0, [r7, #2340]
	bl	BsGet
	cmp	r0, #7
	str	r0, [fp, #-152]
	bhi	.L1912
	ldr	r3, [fp, #-152]
	mov	r1, #1
	add	r5, r3, #1
	str	r5, [r6, #20]
	ldr	r0, [r7, #2340]
	bl	BsGet
	mov	r1, #16
	strb	r0, [r6, #1]
	ldr	r0, [r7, #2340]
	bl	BsGet
	movw	r3, #65535
	cmp	r0, r3
	str	r0, [r6, #24]
	bne	.L1913
	add	r1, r6, #12416
	ldr	r3, [fp, #-152]
	add	r1, r1, #20
	mov	r2, #1
	mov	r0, r7
	bl	HEVC_DecPTL
	subs	r4, r0, #0
	bne	.L1914
	mov	r1, #1
	ldr	r0, [r7, #2340]
	bl	BsGet
	ldr	r3, [fp, #-152]
	cmp	r3, #0
	addge	r8, r6, #48
	strb	r0, [r6, #7]
	bge	.L1879
	b	.L1877
.L1876:
	add	r4, r4, #1
	cmp	r4, r5
	beq	.L1877
.L1879:
	ldr	r1, .L1919+4
	ldr	r0, [r7, #2340]
	bl	HEVC_ue_v
	ldr	r1, .L1919+8
	add	r0, r0, #1
	str	r0, [r8, #4]!
	ldr	r0, [r7, #2340]
	bl	HEVC_ue_v
	ldr	r1, .L1919+12
	str	r0, [r8, #32]
	ldr	r0, [r7, #2340]
	bl	HEVC_ue_v
	str	r0, [r8, #64]
	ldrb	r3, [r6, #7]	@ zero_extendqisi2
	cmp	r3, #0
	bne	.L1876
	ldr	r3, [fp, #-152]
	add	r2, r4, #1
	cmp	r3, r2
	blt	.L1877
	add	r3, r4, #13
	add	r3, r6, r3, lsl #2
.L1878:
	ldr	r1, [r6, #52]
	add	r2, r2, #1
	cmp	r2, r5
	str	r1, [r3, #4]!
	ldr	r1, [r6, #84]
	str	r1, [r3, #32]
	ldr	r1, [r6, #116]
	str	r1, [r3, #64]
	bne	.L1878
.L1877:
	mov	r1, #6
	ldr	r0, [r7, #2340]
	bl	BsGet
	ldr	r1, .L1919+16
	str	r0, [r6, #28]
	ldr	r0, [r7, #2340]
	bl	HEVC_ue_v
	cmp	r0, #1024
	str	r0, [r6, #32]
	bhi	.L1915
	cmp	r0, #1
	ble	.L1880
	ldr	r10, .L1919+20
	add	r9, r6, #148
	mov	r8, #1
.L1881:
	ldr	r3, [r6, #28]
	cmp	r3, #0
	movgt	r5, r9
	movgt	r4, #0
	ble	.L1883
.L1882:
	ldr	r2, .L1919+24
	mov	r3, r8
	str	r4, [sp]
	mov	r1, #100
	ldr	ip, [r10, #68]
	sub	r0, fp, #144
	blx	ip
	mov	r1, #1
	ldr	r0, [r7, #2340]
	add	r4, r4, r1
	bl	BsGet
	str	r0, [r5, #4]!
	ldr	r2, [r6, #28]
	cmp	r2, r4
	bgt	.L1882
.L1883:
	ldr	r3, [r6, #32]
	add	r8, r8, #1
	add	r9, r9, #4
	cmp	r3, r8
	bgt	.L1881
.L1880:
	mov	r1, #1
	ldr	r0, [r7, #2340]
	bl	BsGet
	uxtb	r0, r0
	strb	r0, [r6, #6]
	cmp	r0, #0
	beq	.L1889
	mov	r1, #32
	ldr	r0, [r7, #2340]
	bl	BsGet
	mov	r1, #32
	str	r0, [r6, #36]
	ldr	r0, [r7, #2340]
	bl	BsGet
	mov	r1, #1
	str	r0, [r6, #40]
	ldr	r0, [r7, #2340]
	bl	BsGet
	uxtb	r0, r0
	strb	r0, [r6, #5]
	cmp	r0, #0
	bne	.L1916
.L1887:
	ldr	r1, .L1919+28
	ldr	r0, [r7, #2340]
	bl	HEVC_ue_v
	cmp	r0, #1024
	str	r0, [r6, #48]
	bcs	.L1917
	cmp	r0, #0
	ble	.L1889
	add	r9, r6, #8192
	mov	r3, #1
	ldr	r1, .L1919+32
	add	r8, r6, #12800
	str	r3, [r9, #148]
	add	r5, r6, #4224
	ldr	r0, [r7, #2340]
	add	r8, r8, #20
	bl	HEVC_ue_v
	add	r3, r6, #4096
	add	r5, r5, #24
	mov	r4, #0
	str	r0, [r3, #148]
	ldr	r0, [r9, #148]
	ldr	r9, [fp, #-152]
.L1890:
	uxtb	r2, r0
	mov	r1, r8
	mov	r3, r9
	mov	r0, r7
	bl	HEVC_DecHrdParam
	add	r4, r4, #1
	ldr	r1, .L1919+32
	cmp	r0, #0
	bne	.L1918
	ldr	r3, [r6, #48]
	cmp	r3, r4
	ble	.L1889
	ldr	r0, [r7, #2340]
	bl	HEVC_ue_v
	cmp	r4, #0
	mov	r1, #1
	str	r0, [r5], #4
	ldrle	r0, [r5, #4092]
	ble	.L1890
	ldr	r0, [r7, #2340]
	bl	BsGet
	str	r0, [r5, #4092]
	b	.L1890
.L1889:
	mov	r1, #1
	ldr	r0, [r7, #2340]
	bl	BsGet
	uxtb	r0, r0
	strb	r0, [r6, #3]
	cmp	r0, #0
	bne	.L1906
.L1886:
	mov	r0, #0
.L1869:
	sub	sp, fp, #40
	ldmfd	sp, {r4, r5, r6, r7, r8, r9, r10, fp, sp, pc}
.L1895:
	ldr	r0, [r7, #2340]
	bl	BsGet
	strb	r0, [r6, #4]
.L1906:
	mov	r0, r7
	bl	HEVC_MoreRbspData
	mov	r1, #1
	cmp	r0, #0
	bne	.L1895
	b	.L1886
.L1918:
	ldr	r1, .L1919+36
	mov	r0, #1
	bl	dprint_vfmw
	mvn	r0, #0
	sub	sp, fp, #40
	ldmfd	sp, {r4, r5, r6, r7, r8, r9, r10, fp, sp, pc}
.L1916:
	ldr	r1, .L1919+40
	ldr	r0, [r7, #2340]
	bl	HEVC_ue_v
	str	r0, [r6, #44]
	b	.L1887
.L1913:
	ldr	r1, .L1919+44
	mov	r0, #1
	bl	dprint_vfmw
	mvn	r0, #0
	b	.L1869
.L1911:
	ldr	r1, .L1919+48
	mov	r0, #1
	bl	dprint_vfmw
	mvn	r0, #0
	b	.L1869
.L1914:
	ldr	r1, .L1919+52
	mov	r0, #1
	bl	dprint_vfmw
	mvn	r0, #0
	b	.L1869
.L1912:
	mov	r2, r0
	ldr	r1, .L1919+56
	mov	r0, #1
	bl	dprint_vfmw
	mvn	r0, #0
	b	.L1869
.L1915:
	mov	r2, r0
	mov	r3, #1024
	ldr	r1, .L1919+60
	mov	r0, #1
	bl	dprint_vfmw
	mvn	r0, #0
	b	.L1869
.L1917:
	mov	r2, r0
	mov	r3, #1024
	ldr	r1, .L1919+64
	mov	r0, #1
	bl	dprint_vfmw
	mvn	r0, #0
	b	.L1869
.L1920:
	.align	2
.L1919:
	.word	.LC160
	.word	.LC166
	.word	.LC167
	.word	.LC168
	.word	.LC165
	.word	vfmw_Osal_Func_Ptr_S
	.word	.LC170
	.word	.LC172
	.word	.LC174
	.word	.LC175
	.word	.LC171
	.word	.LC163
	.word	.LC161
	.word	.LC164
	.word	.LC162
	.word	.LC169
	.word	.LC173
	UNWIND(.fnend)
	.size	HEVC_ProcessVPS, .-HEVC_ProcessVPS
	.align	2
	.global	HEVC_DecVPS
	.type	HEVC_DecVPS, %function
HEVC_DecVPS:
	UNWIND(.fnstart)
	@ args = 0, pretend = 0, frame = 0
	@ frame_needed = 1, uses_anonymous_args = 0
	UNWIND(.movsp ip)
	mov	ip, sp
	stmfd	sp!, {r4, r5, r6, r7, r8, r9, fp, ip, lr, pc}
	UNWIND(.pad #4)
	UNWIND(.save {r4, r5, r6, r7, r8, r9, fp, ip, lr})
	UNWIND(.setfp fp, ip, #-4)
	sub	fp, ip, #4
	mov	r1, #4
	mov	r4, r0
	ldr	r0, [r0, #2340]
	bl	BsGet
	cmp	r0, #15
	mov	r6, r0
	bhi	.L1927
	movw	r7, #23196
	ldr	r3, [r4, #2344]
	mul	r5, r7, r0
	add	r2, r3, r5
	ldrb	r9, [r3, r5]	@ zero_extendqisi2
	cmp	r9, #0
	bne	.L1928
	str	r0, [r2, #8]
	mov	r0, r4
	ldr	r1, [r4, #2344]
	add	r1, r1, r5
	bl	HEVC_ProcessVPS
	subs	r8, r0, #0
	bne	.L1929
	ldr	r3, [r4, #2344]
	mov	r2, #1
	add	r3, r3, r5
	strb	r2, [r3, #2]
	ldr	r3, [r4, #2344]
	strb	r2, [r3, r5]
.L1923:
	mov	r0, r8
	ldmfd	sp, {r4, r5, r6, r7, r8, r9, fp, sp, pc}
.L1928:
	ldr	r9, .L1931
	mov	r0, r4
	ldr	r1, .L1931+4
	str	r6, [r9, #-3456]
	bl	HEVC_ProcessVPS
	subs	r8, r0, #0
	bne	.L1930
	ldr	ip, .L1931+8
	mov	r3, #1
	ldr	r0, [r4, #2344]
	mov	r2, r7
	ldr	r1, .L1931+4
	add	r0, r0, r5
	ldr	ip, [ip, #56]
	strb	r3, [r9, #-3462]
	strb	r3, [r9, #-3464]
	blx	ip
	mov	r0, r8
	ldmfd	sp, {r4, r5, r6, r7, r8, r9, fp, sp, pc}
.L1930:
	mov	r2, r6
	ldr	r1, .L1931+12
	mov	r0, #1
	mvn	r8, #0
	bl	dprint_vfmw
	b	.L1923
.L1927:
	ldr	r1, .L1931+16
	mov	r0, #1
	bl	dprint_vfmw
	mvn	r8, #0
	b	.L1923
.L1929:
	mov	r2, r6
	ldr	r1, .L1931+20
	mov	r0, #1
	mvn	r8, #0
	bl	dprint_vfmw
	ldr	r3, [r4, #2344]
	mov	r2, #1
	add	r3, r3, r5
	strb	r2, [r3, #2]
	ldr	r3, [r4, #2344]
	strb	r9, [r3, r5]
	b	.L1923
.L1932:
	.align	2
.L1931:
	.word	.LANCHOR5
	.word	.LANCHOR5-3464
	.word	vfmw_Osal_Func_Ptr_S
	.word	.LC177
	.word	.LC176
	.word	.LC178
	UNWIND(.fnend)
	.size	HEVC_DecVPS, .-HEVC_DecVPS
	.align	2
	.global	HEVC_DecVuiParam
	.type	HEVC_DecVuiParam, %function
HEVC_DecVuiParam:
	UNWIND(.fnstart)
	@ args = 0, pretend = 0, frame = 32
	@ frame_needed = 1, uses_anonymous_args = 0
	UNWIND(.movsp ip)
	mov	ip, sp
	stmfd	sp!, {r4, r5, r6, fp, ip, lr, pc}
	UNWIND(.pad #4)
	UNWIND(.save {r4, r5, r6, fp, ip, lr})
	UNWIND(.setfp fp, ip, #-4)
	sub	fp, ip, #4
	UNWIND(.pad #36)
	sub	sp, sp, #36
	ldr	r3, .L1982
	mov	r5, r0
	mov	r4, r1
	add	ip, r3, #16
	mov	r6, r2
	ldmia	r3, {r0, r1, r2, r3}
	sub	lr, fp, #60
	stmia	lr, {r0, r1, r2, r3}
	ldmia	ip, {r0, r1, r2, r3}
	sub	ip, fp, #28
	stmdb	ip, {r0, r1, r2, r3}
	mov	r1, #1
	ldr	r0, [r5, #2340]
	bl	BsGet
	uxtb	r0, r0
	strb	r0, [r4]
	cmp	r0, #0
	bne	.L1973
.L1935:
	mov	r1, #1
	ldr	r0, [r5, #2340]
	bl	BsGet
	uxtb	r0, r0
	strb	r0, [r4, #1]
	cmp	r0, #0
	bne	.L1974
.L1937:
	mov	r1, #1
	ldr	r0, [r5, #2340]
	bl	BsGet
	uxtb	r0, r0
	strb	r0, [r4, #3]
	cmp	r0, #0
	bne	.L1975
.L1939:
	mov	r1, #1
	ldr	r0, [r5, #2340]
	bl	BsGet
	uxtb	r0, r0
	strb	r0, [r4, #6]
	cmp	r0, #0
	bne	.L1976
.L1941:
	mov	r1, #1
	ldr	r0, [r5, #2340]
	bl	BsGet
	mov	r1, #1
	strb	r0, [r4, #7]
	ldr	r0, [r5, #2340]
	bl	BsGet
	mov	r1, #1
	strb	r0, [r4, #8]
	ldr	r0, [r5, #2340]
	bl	BsGet
	mov	r1, #1
	strb	r0, [r4, #9]
	ldr	r0, [r5, #2340]
	bl	BsGet
	uxtb	r0, r0
	strb	r0, [r4, #10]
	cmp	r0, #0
	beq	.L1942
	ldr	r1, .L1982+4
	ldr	r0, [r5, #2340]
	bl	HEVC_ue_v
	str	r0, [r4, #60]
	ldr	r3, [r6, #64]
	cmp	r3, #3
	bhi	.L1977
	sub	r2, fp, #28
	ldr	r1, .L1982+8
	add	r3, r2, r3, lsl #2
	ldr	r3, [r3, #-32]
	mul	r0, r3, r0
	str	r0, [r4, #60]
	ldr	r0, [r5, #2340]
	bl	HEVC_ue_v
	sub	r2, fp, #28
	ldr	r1, .L1982+12
	str	r0, [r4, #64]
	ldr	r3, [r6, #64]
	add	r3, r2, r3, lsl #2
	ldr	r3, [r3, #-32]
	mul	r0, r3, r0
	str	r0, [r4, #64]
	ldr	r0, [r5, #2340]
	bl	HEVC_ue_v
	sub	r2, fp, #28
	ldr	r1, .L1982+16
	str	r0, [r4, #68]
	ldr	r3, [r6, #64]
	add	r3, r2, r3, lsl #2
	ldr	r3, [r3, #-16]
	mul	r0, r3, r0
	str	r0, [r4, #68]
	ldr	r0, [r5, #2340]
	bl	HEVC_ue_v
	sub	r2, fp, #28
	str	r0, [r4, #72]
	ldr	r3, [r6, #64]
	add	r3, r2, r3, lsl #2
	ldr	r3, [r3, #-16]
	mul	r0, r3, r0
	str	r0, [r4, #72]
.L1942:
	mov	r1, #1
	ldr	r0, [r5, #2340]
	bl	BsGet
	uxtb	r0, r0
	strb	r0, [r4, #11]
	cmp	r0, #0
	beq	.L1945
	mov	r1, #32
	ldr	r0, [r5, #2340]
	bl	BsGet
	mov	r1, #32
	str	r0, [r4, #76]
	ldr	r0, [r5, #2340]
	bl	BsGet
	mov	r1, #1
	str	r0, [r4, #80]
	ldr	r0, [r5, #2340]
	bl	BsGet
	uxtb	r0, r0
	strb	r0, [r4, #12]
	cmp	r0, #0
	bne	.L1978
.L1946:
	mov	r1, #1
	ldr	r0, [r5, #2340]
	bl	BsGet
	uxtb	r0, r0
	strb	r0, [r4, #13]
	cmp	r0, #0
	bne	.L1979
.L1945:
	mov	r1, #1
	ldr	r0, [r5, #2340]
	bl	BsGet
	uxtb	r0, r0
	strb	r0, [r4, #14]
	cmp	r0, #0
	moveq	r3, r0
	bne	.L1980
.L1944:
	mov	r0, r3
	sub	sp, fp, #24
	ldmfd	sp, {r4, r5, r6, fp, sp, pc}
.L1980:
	mov	r1, #1
	ldr	r0, [r5, #2340]
	bl	BsGet
	mov	r1, #1
	strb	r0, [r4, #15]
	ldr	r0, [r5, #2340]
	bl	BsGet
	mov	r1, #1
	strb	r0, [r4, #16]
	ldr	r0, [r5, #2340]
	bl	BsGet
	ldr	r1, .L1982+20
	strb	r0, [r4, #17]
	ldr	r0, [r5, #2340]
	bl	HEVC_ue_v
	cmp	r0, #4096
	str	r0, [r4, #88]
	bcs	.L1981
.L1947:
	ldr	r1, .L1982+24
	ldr	r0, [r5, #2340]
	bl	HEVC_ue_v
	ldr	r1, .L1982+28
	str	r0, [r4, #92]
	ldr	r0, [r5, #2340]
	bl	HEVC_ue_v
	ldr	r1, .L1982+32
	str	r0, [r4, #96]
	ldr	r0, [r5, #2340]
	bl	HEVC_ue_v
	ldr	r1, .L1982+36
	str	r0, [r4, #100]
	ldr	r0, [r5, #2340]
	bl	HEVC_ue_v
	mov	r3, #0
	str	r0, [r4, #104]
	mov	r0, r3
	sub	sp, fp, #24
	ldmfd	sp, {r4, r5, r6, fp, sp, pc}
.L1976:
	ldr	r1, .L1982+40
	ldr	r0, [r5, #2340]
	bl	HEVC_ue_v
	ldr	r1, .L1982+44
	str	r0, [r4, #52]
	ldr	r0, [r5, #2340]
	bl	HEVC_ue_v
	str	r0, [r4, #56]
	b	.L1941
.L1973:
	mov	r1, #8
	ldr	r0, [r5, #2340]
	bl	BsGet
	cmp	r0, #255
	str	r0, [r4, #24]
	bne	.L1935
	mov	r1, #16
	ldr	r0, [r5, #2340]
	bl	BsGet
	mov	r1, #16
	str	r0, [r4, #28]
	ldr	r0, [r5, #2340]
	bl	BsGet
	str	r0, [r4, #32]
	b	.L1935
.L1975:
	mov	r1, #3
	ldr	r0, [r5, #2340]
	bl	BsGet
	mov	r1, #1
	str	r0, [r4, #36]
	ldr	r0, [r5, #2340]
	bl	BsGet
	mov	r1, #1
	strb	r0, [r4, #4]
	ldr	r0, [r5, #2340]
	bl	BsGet
	uxtb	r0, r0
	strb	r0, [r4, #5]
	cmp	r0, #0
	beq	.L1939
	mov	r1, #8
	ldr	r0, [r5, #2340]
	bl	BsGet
	mov	r1, #8
	str	r0, [r4, #40]
	ldr	r0, [r5, #2340]
	bl	BsGet
	mov	r1, #8
	str	r0, [r4, #44]
	ldr	r0, [r5, #2340]
	bl	BsGet
	str	r0, [r4, #48]
	b	.L1939
.L1974:
	mov	r1, #1
	ldr	r0, [r5, #2340]
	bl	BsGet
	strb	r0, [r4, #2]
	b	.L1937
.L1979:
	ldr	r3, [r6, #56]
	mov	r2, #1
	add	r1, r4, #108
	mov	r0, r5
	bl	HEVC_DecHrdParam
	cmp	r0, #0
	beq	.L1945
	ldr	r1, .L1982+48
	mov	r0, #1
	bl	dprint_vfmw
	mvn	r3, #0
	b	.L1944
.L1978:
	ldr	r1, .L1982+52
	ldr	r0, [r5, #2340]
	bl	HEVC_ue_v
	str	r0, [r4, #84]
	b	.L1946
.L1981:
	ldr	r1, .L1982+56
	mov	r0, #1
	bl	dprint_vfmw
	b	.L1947
.L1977:
	ldr	r1, .L1982+60
	mov	r0, #1
	bl	dprint_vfmw
	mvn	r3, #0
	b	.L1944
.L1983:
	.align	2
.L1982:
	.word	.LANCHOR1+512
	.word	.LC181
	.word	.LC183
	.word	.LC184
	.word	.LC185
	.word	.LC188
	.word	.LC190
	.word	.LC191
	.word	.LC192
	.word	.LC193
	.word	.LC179
	.word	.LC180
	.word	.LC187
	.word	.LC186
	.word	.LC189
	.word	.LC182
	UNWIND(.fnend)
	.size	HEVC_DecVuiParam, .-HEVC_DecVuiParam
	.align	2
	.global	HEVC_se_v
	.type	HEVC_se_v, %function
HEVC_se_v:
	UNWIND(.fnstart)
	@ args = 0, pretend = 0, frame = 0
	@ frame_needed = 1, uses_anonymous_args = 0
	UNWIND(.movsp ip)
	mov	ip, sp
	stmfd	sp!, {r4, r5, r6, r7, fp, ip, lr, pc}
	UNWIND(.pad #4)
	UNWIND(.save {r4, r5, r6, r7, fp, ip, lr})
	UNWIND(.setfp fp, ip, #-4)
	sub	fp, ip, #4
	mov	r1, #32
	mov	r5, r0
	bl	BsShow
	bl	ZerosMS_32
	cmp	r0, #31
	bls	.L1989
	mvn	r0, #-2147483648
	ldmfd	sp, {r4, r5, r6, r7, fp, sp, pc}
.L1989:
	add	r6, r0, #1
	mov	r1, r0
	mov	r0, r5
	bl	BsSkip
	mov	r1, r6
	mov	r0, r5
	bl	BsShow
	mov	r1, r6
	sub	r0, r0, #1
	tst	r0, #1
	mov	r3, r0, asr #1
	mov	r0, r5
	addne	r4, r3, #1
	rsbeq	r4, r3, #0
	bl	BsSkip
	mov	r0, r4
	ldmfd	sp, {r4, r5, r6, r7, fp, sp, pc}
	UNWIND(.fnend)
	.size	HEVC_se_v, .-HEVC_se_v
	.align	2
	.global	HEVC_Sei_Structure_Of_Pictures_Info
	.type	HEVC_Sei_Structure_Of_Pictures_Info, %function
HEVC_Sei_Structure_Of_Pictures_Info:
	UNWIND(.fnstart)
	@ args = 0, pretend = 0, frame = 0
	@ frame_needed = 1, uses_anonymous_args = 0
	UNWIND(.movsp ip)
	mov	ip, sp
	stmfd	sp!, {r4, r5, r6, r7, r8, r9, fp, ip, lr, pc}
	UNWIND(.pad #4)
	UNWIND(.save {r4, r5, r6, r7, r8, r9, fp, ip, lr})
	UNWIND(.setfp fp, ip, #-4)
	sub	fp, ip, #4
	mov	r9, r1
	mov	r5, r0
	ldr	r1, .L2002
	ldr	r0, [r0, #2340]
	bl	HEVC_ue_v
	ldr	r1, .L2002+4
	str	r0, [r9]
	ldr	r0, [r5, #2340]
	bl	HEVC_ue_v
	cmp	r0, #1024
	str	r0, [r9, #4]
	bhi	.L1991
	cmp	r0, #0
	beq	.L1997
	add	r7, r9, #4096
	add	r8, r9, #12288
	add	r7, r7, #8
	add	r8, r8, #8
	add	r6, r9, #4
	mov	r4, #0
	b	.L1996
.L1995:
	ldr	r3, [r9, #4]
	add	r8, r8, #4
	cmp	r3, r4
	bls	.L1997
.L1996:
	mov	r1, #6
	ldr	r0, [r5, #2340]
	bl	BsGet
	mov	r1, #3
	str	r0, [r6, #4]!
	ldr	r0, [r5, #2340]
	bl	BsGet
	ldr	r1, .L2002+8
	str	r0, [r7], #4
	ldr	r3, [r6]
	sub	r3, r3, #19
	cmp	r3, #1
	bls	.L1994
	ldr	r0, [r5, #2340]
	bl	HEVC_ue_v
	str	r0, [r7, #4092]
.L1994:
	cmp	r4, #0
	add	r4, r4, #1
	beq	.L1995
	ldr	r1, .L2002+12
	add	r8, r8, #4
	ldr	r0, [r5, #2340]
	bl	HEVC_se_v
	str	r0, [r8, #-4]
	ldr	r3, [r9, #4]
	cmp	r3, r4
	bhi	.L1996
.L1997:
	ldr	r0, [r5, #2340]
	bl	BsToNextByte
	mov	r0, #0
	ldmfd	sp, {r4, r5, r6, r7, r8, r9, fp, sp, pc}
.L1991:
	ldr	r1, .L2002+16
	mov	r0, #1
	bl	dprint_vfmw
	mvn	r0, #0
	ldmfd	sp, {r4, r5, r6, r7, r8, r9, fp, sp, pc}
.L2003:
	.align	2
.L2002:
	.word	.LC194
	.word	.LC195
	.word	.LC197
	.word	.LC198
	.word	.LC196
	UNWIND(.fnend)
	.size	HEVC_Sei_Structure_Of_Pictures_Info, .-HEVC_Sei_Structure_Of_Pictures_Info
	.align	2
	.global	HEVC_Sei_Recovery_Point
	.type	HEVC_Sei_Recovery_Point, %function
HEVC_Sei_Recovery_Point:
	UNWIND(.fnstart)
	@ args = 0, pretend = 0, frame = 0
	@ frame_needed = 1, uses_anonymous_args = 0
	UNWIND(.movsp ip)
	mov	ip, sp
	stmfd	sp!, {r4, r5, r6, r7, fp, ip, lr, pc}
	UNWIND(.pad #4)
	UNWIND(.save {r4, r5, r6, r7, fp, ip, lr})
	UNWIND(.setfp fp, ip, #-4)
	sub	fp, ip, #4
	cmp	r1, #0
	cmpne	r0, #0
	mov	r4, r0
	mov	r6, r1
	moveq	r5, #1
	movne	r5, #0
	beq	.L2006
	ldr	r1, .L2007
	ldr	r0, [r0, #2340]
	bl	HEVC_se_v
	mov	r1, #1
	str	r0, [r6, #4]
	ldr	r0, [r4, #2340]
	bl	BsGet
	mov	r1, #1
	strb	r0, [r6]
	ldr	r0, [r4, #2340]
	bl	BsGet
	strb	r0, [r6, #1]
	ldr	r0, [r4, #2340]
	bl	BsToNextByte
	mov	r0, r5
	ldmfd	sp, {r4, r5, r6, r7, fp, sp, pc}
.L2006:
	mvn	r0, #0
	ldmfd	sp, {r4, r5, r6, r7, fp, sp, pc}
.L2008:
	.align	2
.L2007:
	.word	.LC199
	UNWIND(.fnend)
	.size	HEVC_Sei_Recovery_Point, .-HEVC_Sei_Recovery_Point
	.align	2
	.global	HEVC_Sei_Payload
	.type	HEVC_Sei_Payload, %function
HEVC_Sei_Payload:
	UNWIND(.fnstart)
	@ args = 4, pretend = 0, frame = 0
	@ frame_needed = 1, uses_anonymous_args = 0
	UNWIND(.movsp ip)
	mov	ip, sp
	stmfd	sp!, {r4, r5, r6, r7, fp, ip, lr, pc}
	UNWIND(.pad #4)
	UNWIND(.save {r4, r5, r6, r7, fp, ip, lr})
	UNWIND(.setfp fp, ip, #-4)
	sub	fp, ip, #4
	mov	r6, r1
	ldr	r1, [r0, #2364]
	mov	r4, r0
	ldr	r7, [fp, #4]
	ldr	r1, [r1, #16]
	cmp	r1, #39
	beq	.L2053
	cmp	r3, #5
	beq	.L2037
	cmp	r3, #132
	beq	.L2038
	cmp	r7, #0
	movne	r5, #0
	beq	.L2032
.L2040:
	add	r5, r5, #1
	mov	r1, #8
	ldr	r0, [r4, #2340]
	bl	BsGet
	cmp	r5, r7
	bne	.L2040
	b	.L2032
.L2037:
	mov	r2, r7
	add	r1, r6, #3200
	bl	HEVC_Sei_User_Data_Unregistered
	cmp	r0, #0
	bne	.L2034
.L2032:
	mov	r1, r7
	mov	r0, r4
	bl	HEVC_Sei_More_Data_In_Payload
	cmp	r0, #0
	bne	.L2054
	mov	r0, #0
	ldmfd	sp, {r4, r5, r6, r7, fp, sp, pc}
.L2054:
	mov	r1, r7
	mov	r0, r4
	bl	HEVC_Sei_Payload_Extension_Present
	cmp	r0, #0
	bne	.L2055
.L2041:
	mov	r1, #1
	ldr	r0, [r4, #2340]
	bl	BsGet
	str	r0, [r6, #12]
	b	.L2042
.L2043:
	ldr	r0, [r4, #2340]
	bl	BsGet
	str	r0, [r6, #16]
.L2042:
	ldr	r0, [r4, #2340]
	bl	BsIsByteAligned
	mov	r1, #1
	cmp	r0, #0
	beq	.L2043
	mov	r0, #0
	ldmfd	sp, {r4, r5, r6, r7, fp, sp, pc}
.L2053:
	cmp	r3, #147
	ldrls	pc, [pc, r3, asl #2]
	b	.L2011
.L2013:
	.word	.L2012
	.word	.L2014
	.word	.L2011
	.word	.L2011
	.word	.L2011
	.word	.L2015
	.word	.L2016
	.word	.L2011
	.word	.L2011
	.word	.L2011
	.word	.L2011
	.word	.L2011
	.word	.L2011
	.word	.L2011
	.word	.L2011
	.word	.L2011
	.word	.L2011
	.word	.L2011
	.word	.L2011
	.word	.L2011
	.word	.L2011
	.word	.L2011
	.word	.L2011
	.word	.L2017
	.word	.L2011
	.word	.L2011
	.word	.L2011
	.word	.L2011
	.word	.L2011
	.word	.L2011
	.word	.L2011
	.word	.L2011
	.word	.L2011
	.word	.L2011
	.word	.L2011
	.word	.L2011
	.word	.L2011
	.word	.L2011
	.word	.L2011
	.word	.L2011
	.word	.L2011
	.word	.L2011
	.word	.L2011
	.word	.L2011
	.word	.L2011
	.word	.L2018
	.word	.L2011
	.word	.L2019
	.word	.L2011
	.word	.L2011
	.word	.L2011
	.word	.L2011
	.word	.L2011
	.word	.L2011
	.word	.L2011
	.word	.L2011
	.word	.L2011
	.word	.L2011
	.word	.L2011
	.word	.L2011
	.word	.L2011
	.word	.L2011
	.word	.L2011
	.word	.L2011
	.word	.L2011
	.word	.L2011
	.word	.L2011
	.word	.L2011
	.word	.L2011
	.word	.L2011
	.word	.L2011
	.word	.L2011
	.word	.L2011
	.word	.L2011
	.word	.L2011
	.word	.L2011
	.word	.L2011
	.word	.L2011
	.word	.L2011
	.word	.L2011
	.word	.L2011
	.word	.L2011
	.word	.L2011
	.word	.L2011
	.word	.L2011
	.word	.L2011
	.word	.L2011
	.word	.L2011
	.word	.L2011
	.word	.L2011
	.word	.L2011
	.word	.L2011
	.word	.L2011
	.word	.L2011
	.word	.L2011
	.word	.L2011
	.word	.L2011
	.word	.L2011
	.word	.L2011
	.word	.L2011
	.word	.L2011
	.word	.L2011
	.word	.L2011
	.word	.L2011
	.word	.L2011
	.word	.L2011
	.word	.L2011
	.word	.L2011
	.word	.L2011
	.word	.L2011
	.word	.L2011
	.word	.L2011
	.word	.L2011
	.word	.L2011
	.word	.L2011
	.word	.L2011
	.word	.L2011
	.word	.L2011
	.word	.L2011
	.word	.L2011
	.word	.L2011
	.word	.L2011
	.word	.L2011
	.word	.L2011
	.word	.L2011
	.word	.L2011
	.word	.L2011
	.word	.L2011
	.word	.L2020
	.word	.L2021
	.word	.L2022
	.word	.L2023
	.word	.L2011
	.word	.L2024
	.word	.L2025
	.word	.L2011
	.word	.L2011
	.word	.L2026
	.word	.L2011
	.word	.L2011
	.word	.L2011
	.word	.L2011
	.word	.L2011
	.word	.L2011
	.word	.L2027
	.word	.L2011
	.word	.L2011
	.word	.L2028
.L2038:
	add	r1, r6, #23808
	add	r1, r1, #16
	bl	HEVC_Sei_Decoded_Picture_Hash
	cmp	r0, #0
	beq	.L2032
	b	.L2034
.L2055:
	ldr	r1, .L2056
	ldr	r0, [r4, #2340]
	bl	HEVC_ue_v
	str	r0, [r6, #8]
	b	.L2041
.L2028:
	add	r1, r6, #3472
	add	r1, r1, #10
	bl	HEVC_Sei_HLGHDR_Comapitibility_Info
	cmp	r0, #0
	beq	.L2032
.L2034:
	mvn	r0, #0
	ldmfd	sp, {r4, r5, r6, r7, fp, sp, pc}
.L2012:
	add	r2, r2, #2720
	add	r1, r6, #24
	add	r2, r2, #12
	bl	HEVC_Sei_Buf_Period
	cmp	r0, #0
	beq	.L2032
	b	.L2034
.L2014:
	add	r2, r2, #2624
	add	r1, r6, #1088
	bl	HEVC_Sei_Pic_Timming
	cmp	r0, #0
	beq	.L2032
	b	.L2034
.L2015:
	mov	r2, r7
	add	r1, r6, #3200
	bl	HEVC_Sei_User_Data_Unregistered
	cmp	r0, #0
	beq	.L2032
	b	.L2034
.L2016:
	add	r1, r6, #3360
	bl	HEVC_Sei_Recovery_Point
	cmp	r0, #0
	beq	.L2032
	b	.L2034
.L2017:
	add	r1, r6, #3472
	add	r1, r1, #12
	bl	HEVC_Sei_Tone_Mapping_Info
	cmp	r0, #0
	beq	.L2032
	b	.L2034
.L2018:
	add	r1, r6, #3360
	add	r1, r1, #8
	bl	HEVC_Sei_Frame_Packing_Arrangement
	cmp	r0, #0
	beq	.L2032
	b	.L2034
.L2019:
	add	r1, r6, #3408
	add	r1, r1, #4
	bl	HEVC_Sei_Display_Orientation
	cmp	r0, #0
	beq	.L2032
	b	.L2034
.L2020:
	add	r1, r6, #6592
	mov	r2, r7
	add	r1, r1, #52
	bl	HEVC_Sei_Structure_Of_Pictures_Info
	cmp	r0, #0
	beq	.L2032
	b	.L2034
.L2021:
	add	r1, r6, #3264
	add	r1, r1, #4
	bl	HEVC_Sei_Active_Param_sets
	cmp	r0, #0
	beq	.L2032
	b	.L2034
.L2022:
	add	r2, r2, #2720
	add	r1, r6, #3344
	add	r2, r2, #12
	bl	HEVC_Sei_Dec_Unit_Info
	cmp	r0, #0
	beq	.L2032
	b	.L2034
.L2023:
	add	r1, r6, #3408
	add	r1, r1, #12
	bl	HEVC_Sei_Temporal_Sub_Layer_Zero_Index
	cmp	r0, #0
	beq	.L2032
	b	.L2034
.L2024:
	mov	r3, r7
	mov	r1, r6
	bl	HEVC_Sei_Scalable_Nesting
	cmp	r0, #0
	beq	.L2032
	b	.L2034
.L2025:
	add	r1, r6, #3424
	add	r1, r1, #4
	bl	HEVC_Sei_Region_Refresh_Info
	cmp	r0, #0
	beq	.L2032
	b	.L2034
.L2026:
	add	r1, r6, #3424
	add	r1, r1, #8
	bl	HEVC_Sei_Mastering_Display_Colour_Volume
	cmp	r0, #0
	beq	.L2032
	b	.L2034
.L2027:
	add	r1, r6, #3472
	add	r1, r1, #4
	bl	HEVC_Sei_Content_Light_Level_Information
	cmp	r0, #0
	beq	.L2032
	b	.L2034
.L2011:
	cmp	r7, #0
	movne	r5, #0
	beq	.L2032
.L2035:
	add	r5, r5, #1
	mov	r1, #8
	ldr	r0, [r4, #2340]
	bl	BsGet
	cmp	r5, r7
	bne	.L2035
	b	.L2032
.L2057:
	.align	2
.L2056:
	.word	.LC200
	UNWIND(.fnend)
	.size	HEVC_Sei_Payload, .-HEVC_Sei_Payload
	.align	2
	.global	HEVC_SeiMessage
	.type	HEVC_SeiMessage, %function
HEVC_SeiMessage:
	UNWIND(.fnstart)
	@ args = 0, pretend = 0, frame = 0
	@ frame_needed = 1, uses_anonymous_args = 0
	UNWIND(.movsp ip)
	mov	ip, sp
	stmfd	sp!, {r4, r5, r6, r7, r8, r9, fp, ip, lr, pc}
	UNWIND(.pad #4)
	UNWIND(.save {r4, r5, r6, r7, r8, r9, fp, ip, lr})
	UNWIND(.setfp fp, ip, #-4)
	sub	fp, ip, #4
	UNWIND(.pad #8)
	sub	sp, sp, #8
	mov	r5, #0
	mov	r4, r0
	mov	r6, r1
	mov	r7, r2
	ldr	r0, [r0, #2340]
	b	.L2059
.L2061:
	bl	BsSkip
	ldr	r0, [r4, #2340]
	add	r5, r5, #255
	ldr	r3, [r0, #24]
	ldr	r2, [r0, #16]
	add	r1, r3, #8
	cmp	r1, r2
	bhi	.L2067
.L2059:
	mov	r1, #8
	bl	BsShow
	mov	r1, #8
	cmp	r0, #255
	ldr	r0, [r4, #2340]
	beq	.L2061
	bl	BsGet
	mov	r8, #0
	mov	r9, r0
	str	r0, [r6]
	ldr	r0, [r4, #2340]
	b	.L2062
.L2063:
	bl	BsSkip
	ldr	r0, [r4, #2340]
	add	r8, r8, #255
	ldr	r3, [r0, #24]
	ldr	r2, [r0, #16]
	add	r1, r3, #8
	cmp	r1, r2
	bhi	.L2068
.L2062:
	mov	r1, #8
	bl	BsShow
	mov	r1, #8
	cmp	r0, #255
	ldr	r0, [r4, #2340]
	beq	.L2063
	bl	BsGet
	add	r3, r9, r5
	mov	r2, r7
	mov	r1, r6
	str	r0, [r6, #4]
	add	r8, r0, r8
	mov	r0, r4
	str	r8, [sp]
	bl	HEVC_Sei_Payload
	cmp	r0, #0
	bne	.L2069
.L2060:
	sub	sp, fp, #36
	ldmfd	sp, {r4, r5, r6, r7, r8, r9, fp, sp, pc}
.L2067:
	str	r2, [sp]
	mov	r0, #1
	movw	r2, #3041
	ldr	r1, .L2070
	bl	dprint_vfmw
	mvn	r0, #0
	sub	sp, fp, #36
	ldmfd	sp, {r4, r5, r6, r7, r8, r9, fp, sp, pc}
.L2068:
	str	r2, [sp]
	mov	r0, #1
	movw	r2, #3063
	ldr	r1, .L2070
	bl	dprint_vfmw
	mvn	r0, #0
	sub	sp, fp, #36
	ldmfd	sp, {r4, r5, r6, r7, r8, r9, fp, sp, pc}
.L2069:
	ldr	r1, .L2070+4
	mov	r0, #1
	bl	dprint_vfmw
	mvn	r0, #0
	b	.L2060
.L2071:
	.align	2
.L2070:
	.word	.LC201
	.word	.LC202
	UNWIND(.fnend)
	.size	HEVC_SeiMessage, .-HEVC_SeiMessage
	.align	2
	.global	HEVC_DecSEI
	.type	HEVC_DecSEI, %function
HEVC_DecSEI:
	UNWIND(.fnstart)
	@ args = 0, pretend = 0, frame = 0
	@ frame_needed = 1, uses_anonymous_args = 0
	UNWIND(.movsp ip)
	mov	ip, sp
	stmfd	sp!, {r4, r5, r6, r7, fp, ip, lr, pc}
	UNWIND(.pad #4)
	UNWIND(.save {r4, r5, r6, r7, fp, ip, lr})
	UNWIND(.setfp fp, ip, #-4)
	sub	fp, ip, #4
	add	r6, r0, #3472
	add	r5, r0, #27392
	mov	r4, r0
	add	r6, r6, #8
	add	r5, r5, #60
	b	.L2076
.L2073:
	ldr	r0, [r4, #2340]
	bl	BsIsByteAligned
	cmp	r0, #0
	mov	r0, r4
	beq	.L2081
	bl	HEVC_More_Rbsp_Data
	subs	r7, r0, #0
	beq	.L2082
.L2076:
	mov	r2, r5
	mov	r1, r6
	mov	r0, r4
	bl	HEVC_SeiMessage
	cmp	r0, #0
	beq	.L2073
	ldr	r1, .L2083
	mov	r0, #1
	bl	dprint_vfmw
	mvn	r7, #0
.L2074:
	mov	r0, r7
	ldmfd	sp, {r4, r5, r6, r7, fp, sp, pc}
.L2081:
	ldr	r1, .L2083+4
	mvn	r7, #0
	mov	r0, #1
	bl	dprint_vfmw
	mov	r0, r7
	ldmfd	sp, {r4, r5, r6, r7, fp, sp, pc}
.L2082:
	ldr	r0, [r4, #2340]
	mov	r1, #8
	bl	BsGet
	cmp	r0, #128
	beq	.L2074
	mov	r2, r0
	ldr	r1, .L2083+8
	mov	r0, #1
	mvn	r7, #0
	bl	dprint_vfmw
	b	.L2074
.L2084:
	.align	2
.L2083:
	.word	.LC203
	.word	.LC204
	.word	.LC205
	UNWIND(.fnend)
	.size	HEVC_DecSEI, .-HEVC_DecSEI
	.align	2
	.global	HEVC_Sei_Scalable_Nesting
	.type	HEVC_Sei_Scalable_Nesting, %function
HEVC_Sei_Scalable_Nesting:
	UNWIND(.fnstart)
	@ args = 0, pretend = 0, frame = 0
	@ frame_needed = 1, uses_anonymous_args = 0
	UNWIND(.movsp ip)
	mov	ip, sp
	stmfd	sp!, {r4, r5, r6, r7, r8, r9, fp, ip, lr, pc}
	UNWIND(.pad #4)
	UNWIND(.save {r4, r5, r6, r7, r8, r9, fp, ip, lr})
	UNWIND(.setfp fp, ip, #-4)
	sub	fp, ip, #4
	mov	r4, r0
	mov	r7, r1
	ldr	r0, [r0, #2340]
	mov	r1, #1
	mov	r9, r2
	bl	BsGet
	add	r8, r7, #20480
	mov	r1, #1
	strb	r0, [r8, #2556]
	ldr	r0, [r4, #2340]
	bl	BsGet
	mov	r1, #1
	uxtb	r0, r0
	strb	r0, [r8, #2557]
	cmp	r0, #0
	ldr	r0, [r4, #2340]
	beq	.L2086
	bl	BsGet
	ldr	r1, .L2102
	strb	r0, [r8, #2558]
	ldr	r0, [r4, #2340]
	bl	HEVC_ue_v
	cmp	r0, #63
	str	r0, [r8, #2564]
	bhi	.L2099
	ldrb	r6, [r8, #2558]	@ zero_extendqisi2
	cmp	r0, r6
	addcs	r5, r6, #5760
	addcs	r5, r5, #1
	addcs	r5, r7, r5, lsl #2
	bcc	.L2092
.L2091:
	mov	r1, #3
	ldr	r0, [r4, #2340]
	bl	BsGet
	ldr	r1, .L2102+4
	add	r6, r6, #1
	str	r0, [r5, #4]!
	ldr	r0, [r4, #2340]
	bl	HEVC_ue_v
	str	r0, [r5, #256]
	ldr	r3, [r8, #2564]
	cmp	r3, r6
	bcs	.L2091
.L2092:
	ldr	r0, [r4, #2340]
	bl	BsToNextByte
	mov	r3, #0
	strb	r3, [r8, #2560]
	b	.L2090
.L2095:
	bl	HEVC_MoreRbspData
	cmp	r0, #0
	beq	.L2100
.L2090:
	mov	r2, r9
	mov	r1, r7
	mov	r0, r4
	bl	HEVC_SeiMessage
	cmp	r0, #0
	mov	r0, r4
	beq	.L2095
	ldr	r1, .L2102+8
	mov	r0, #1
	bl	dprint_vfmw
	mvn	r0, #0
	ldmfd	sp, {r4, r5, r6, r7, r8, r9, fp, sp, pc}
.L2086:
	bl	BsGet
	uxtb	r5, r0
	strb	r5, [r8, #2559]
	cmp	r5, #0
	bne	.L2092
	mov	r1, #3
	ldr	r0, [r4, #2340]
	bl	BsGet
	ldr	r1, .L2102+12
	str	r0, [r8, #3080]
	ldr	r0, [r4, #2340]
	bl	HEVC_ue_v
	cmp	r0, #63
	str	r0, [r8, #3084]
	addls	r6, r7, #23552
	addls	r6, r6, #12
	bhi	.L2101
.L2094:
	mov	r1, #6
	ldr	r0, [r4, #2340]
	bl	BsGet
	add	r5, r5, #1
	str	r0, [r6, #4]!
	ldr	r3, [r8, #3084]
	cmp	r3, r5
	bcs	.L2094
	b	.L2092
.L2100:
	ldmfd	sp, {r4, r5, r6, r7, r8, r9, fp, sp, pc}
.L2099:
	mov	r2, #64
	ldr	r1, .L2102+16
	mov	r0, #1
	bl	dprint_vfmw
	mvn	r0, #0
	ldmfd	sp, {r4, r5, r6, r7, r8, r9, fp, sp, pc}
.L2101:
	ldr	r1, .L2102+20
	mov	r0, #1
	bl	dprint_vfmw
	mvn	r0, #0
	ldmfd	sp, {r4, r5, r6, r7, r8, r9, fp, sp, pc}
.L2103:
	.align	2
.L2102:
	.word	.LC206
	.word	.LC208
	.word	.LC203
	.word	.LC209
	.word	.LC207
	.word	.LC210
	UNWIND(.fnend)
	.size	HEVC_Sei_Scalable_Nesting, .-HEVC_Sei_Scalable_Nesting
	.align	2
	.global	HEVC_DecScalingListData
	.type	HEVC_DecScalingListData, %function
HEVC_DecScalingListData:
	UNWIND(.fnstart)
	@ args = 0, pretend = 0, frame = 32
	@ frame_needed = 1, uses_anonymous_args = 0
	UNWIND(.movsp ip)
	mov	ip, sp
	stmfd	sp!, {r4, r5, r6, r7, r8, r9, r10, fp, ip, lr, pc}
	UNWIND(.pad #4)
	UNWIND(.save {r4, r5, r6, r7, r8, r9, r10, fp, ip, lr})
	UNWIND(.setfp fp, ip, #-4)
	sub	fp, ip, #4
	UNWIND(.pad #36)
	sub	sp, sp, #36
	ldr	r3, .L2141
	mov	r9, r1
	mov	r6, r0
	add	ip, r9, #1664
	add	r1, r1, #1264
	add	r0, r9, #1392
	ldr	r3, [r3, #52]
	add	r1, r1, #1
	add	r0, r0, #1
	mov	r2, #64
	mov	r4, ip
	blx	r3
	add	r3, r4, #4
	str	r3, [fp, #-76]
	add	r3, r6, #2224
	str	r3, [fp, #-48]
	add	r3, r9, #24
	str	r3, [fp, #-68]
	add	r3, r9, #49
	str	r3, [fp, #-72]
	mov	r3, #0
	str	r3, [fp, #-52]
.L2105:
	ldr	r2, [fp, #-48]
	ldr	r3, [r2, #4]!
	cmp	r3, #0
	str	r2, [fp, #-48]
	beq	.L2124
	ldr	r3, [fp, #-76]
	ldr	r7, [fp, #-72]
	str	r3, [fp, #-64]
	ldr	r3, [fp, #-68]
	str	r3, [fp, #-56]
	mov	r3, #0
	str	r3, [fp, #-60]
.L2123:
	mov	r1, #1
	ldr	r0, [r6, #2340]
	bl	BsGet
	ldr	r3, [fp, #-56]
	uxtb	r0, r0
	strb	r0, [r3, #1]!
	str	r3, [fp, #-56]
	ldr	r3, [fp, #-48]
	ldr	r5, [r3, #-1904]
	ldr	r3, [fp, #-52]
	cmp	r5, #64
	movge	r5, #64
	cmp	r3, #0
	beq	.L2106
	cmp	r0, #0
	add	r4, r6, #356
	beq	.L2137
	ldr	r3, [fp, #-52]
	cmp	r3, #1
	bls	.L2130
	ldr	r1, .L2141+4
	ldr	r0, [r6, #2340]
	bl	HEVC_se_v
	add	r3, r0, #7
	str	r0, [r9, #1660]
	cmp	r3, #254
	bhi	.L2138
	ldr	r3, [fp, #-64]
	add	r8, r0, #8
	str	r8, [r3]
.L2117:
	cmp	r5, #0
	ble	.L2116
	sub	r4, r4, #4
	mov	r10, #0
	b	.L2121
.L2120:
	mov	r8, r8, lsr #24
	ldr	r2, [r4, #4]!
	add	r3, r3, r8
	cmp	r10, r5
	uxtb	r3, r3
	rsb	r8, r8, r3
	strb	r8, [r7, r2]
	beq	.L2116
.L2121:
	ldr	r1, .L2141+8
	add	r10, r10, #1
	ldr	r0, [r6, #2340]
	bl	HEVC_se_v
	add	r3, r8, r0
	add	r2, r0, #128
	add	r3, r3, #256
	cmp	r2, #255
	str	r0, [r9, #1664]
	mov	r8, r3, asr #31
	bls	.L2120
	ldr	r1, .L2141+12
	mov	r0, #1
	bl	dprint_vfmw
	mvn	r0, #0
.L2135:
	sub	sp, fp, #40
	ldmfd	sp, {r4, r5, r6, r7, r8, r9, r10, fp, sp, pc}
.L2125:
	ldr	r1, .L2141+16
	ldr	r0, [r6, #2340]
	bl	HEVC_ue_v
	ldr	r3, [fp, #-60]
	cmp	r0, r3
	bhi	.L2127
	ldr	r2, [fp, #-60]
	uxtb	r0, r0
	ldr	r3, [fp, #-56]
	rsb	r1, r0, r2
	strb	r0, [r3, #1560]
	uxtb	r1, r1
	strb	r1, [r3, #1584]
.L2111:
	ldr	r3, [fp, #-60]
	cmp	r1, r3
	beq	.L2139
	ldr	r2, [fp, #-52]
	mov	r3, r2, asl #3
	sub	r3, r3, r2, asl #1
	add	r1, r3, r1
	add	r1, r9, r1, lsl #6
	add	r1, r1, #49
.L2114:
	cmp	r1, #0
	beq	.L2140
	ldr	r3, .L2141
	mov	r2, r5
	mov	r0, r7
	ldr	r3, [r3, #52]
	blx	r3
.L2116:
	ldr	r3, [fp, #-48]
	add	r7, r7, #64
	ldr	r2, [fp, #-60]
	ldr	r1, [fp, #-64]
	ldr	r3, [r3]
	add	r2, r2, #1
	add	r1, r1, #4
	str	r2, [fp, #-60]
	cmp	r3, r2
	str	r1, [fp, #-64]
	bhi	.L2123
.L2124:
	ldr	r3, [fp, #-52]
	ldr	r2, [fp, #-68]
	add	r3, r3, #1
	str	r3, [fp, #-52]
	cmp	r3, #4
	ldr	r3, [fp, #-72]
	add	r2, r2, #6
	str	r2, [fp, #-68]
	add	r3, r3, #384
	str	r3, [fp, #-72]
	ldr	r3, [fp, #-76]
	add	r3, r3, #24
	str	r3, [fp, #-76]
	bne	.L2105
	mov	r0, #0
	b	.L2135
.L2130:
	mov	r8, #8
	b	.L2117
.L2137:
	ldr	r1, .L2141+16
	ldr	r0, [r6, #2340]
	bl	HEVC_ue_v
	ldr	r3, [fp, #-60]
	cmp	r0, r3
	bhi	.L2127
	ldr	r3, [fp, #-52]
	uxtb	r0, r0
	ldr	ip, [fp, #-60]
	ldr	r2, [fp, #-56]
	cmp	r3, #1
	rsb	r1, r0, ip
	strb	r0, [r2, #1560]
	uxtb	r1, r1
	strb	r1, [r2, #1584]
	bls	.L2111
	cmp	ip, r1
	mov	r2, ip
	movne	r2, r3
	movne	r3, r3, asl #3
	subne	r3, r3, r2, asl #1
	ldr	r2, [fp, #-64]
	addne	r3, r3, r1
	moveq	r3, #16
	addne	r3, r9, r3, lsl #2
	ldrne	r3, [r3, #1668]
	str	r3, [r2]
	b	.L2111
.L2139:
	mov	r1, r3
	ldr	r0, [fp, #-52]
	bl	HEVC_GetScalingListDefaultAddress
	mov	r1, r0
	b	.L2114
.L2138:
	ldr	r1, .L2141+20
	mov	r0, #1
	bl	dprint_vfmw
	mvn	r0, #0
	b	.L2135
.L2140:
	ldr	r1, .L2141+24
	mov	r0, #1
	bl	dprint_vfmw
	mvn	r0, #0
	b	.L2135
.L2127:
	ldr	r1, .L2141+28
	mov	r0, #1
	bl	dprint_vfmw
	mvn	r0, #0
	b	.L2135
.L2106:
	cmp	r0, #0
	beq	.L2125
	ldr	r4, .L2141+32
	mov	r8, #8
	b	.L2117
.L2142:
	.align	2
.L2141:
	.word	vfmw_Osal_Func_Ptr_S
	.word	.LC214
	.word	.LC216
	.word	.LC217
	.word	.LC211
	.word	.LC215
	.word	.LC213
	.word	.LC212
	.word	.LANCHOR0+65536
	UNWIND(.fnend)
	.size	HEVC_DecScalingListData, .-HEVC_DecScalingListData
	.align	2
	.global	HEVC_ProcessSPS
	.type	HEVC_ProcessSPS, %function
HEVC_ProcessSPS:
	UNWIND(.fnstart)
	@ args = 0, pretend = 0, frame = 0
	@ frame_needed = 1, uses_anonymous_args = 0
	UNWIND(.movsp ip)
	mov	ip, sp
	stmfd	sp!, {r4, r5, r6, r7, r8, r9, r10, fp, ip, lr, pc}
	UNWIND(.pad #4)
	UNWIND(.save {r4, r5, r6, r7, r8, r9, r10, fp, ip, lr})
	UNWIND(.setfp fp, ip, #-4)
	sub	fp, ip, #4
	UNWIND(.pad #12)
	sub	sp, sp, #12
	mov	r4, r1
	mov	r5, r0
	ldr	r1, .L2297
	ldr	r0, [r0, #2340]
	bl	HEVC_ue_v
	cmp	r0, #1
	mov	r8, r0
	str	r0, [r4, #64]
	beq	.L2144
	cmp	r0, #3
	bhi	.L2274
	mov	r2, r0
	ldr	r1, .L2297+4
	mov	r0, #1
	bl	dprint_vfmw
	mvn	r0, #0
.L2146:
	sub	sp, fp, #40
	ldmfd	sp, {r4, r5, r6, r7, r8, r9, r10, fp, sp, pc}
.L2274:
	ldr	r1, .L2297+8
	mov	r0, #1
	bl	dprint_vfmw
	mvn	r0, #0
	sub	sp, fp, #40
	ldmfd	sp, {r4, r5, r6, r7, r8, r9, r10, fp, sp, pc}
.L2144:
	ldr	r1, .L2297+12
	ldr	r0, [r5, #2340]
	bl	HEVC_ue_v
	cmp	r0, #8192
	str	r0, [r4, #72]
	bhi	.L2275
	ldr	r1, .L2297+16
	ldr	r0, [r5, #2340]
	bl	HEVC_ue_v
	cmp	r0, #4096
	str	r0, [r4, #76]
	bhi	.L2276
	ldr	r2, [r4, #760]
	ldr	r3, [r4, #72]
	cmp	r2, #120
	mul	r0, r3, r0
	beq	.L2150
	bgt	.L2151
	cmp	r2, #60
	beq	.L2152
	ble	.L2277
	cmp	r2, #90
	beq	.L2155
	cmp	r2, #93
	beq	.L2156
	cmp	r2, #63
	bne	.L2149
	mov	r2, #61440
	mov	r3, #245760
	b	.L2157
.L2151:
	cmp	r2, #156
	beq	.L2158
	bgt	.L2159
	cmp	r2, #150
	beq	.L2158
	cmp	r2, #153
	beq	.L2158
	cmp	r2, #123
	beq	.L2150
.L2149:
	ldr	r1, .L2297+20
	mov	r0, #1
	bl	dprint_vfmw
	mvn	r0, #0
	b	.L2146
.L2159:
	cmp	r2, #183
	beq	.L2160
	cmp	r2, #186
	beq	.L2160
	cmp	r2, #180
	bne	.L2149
.L2160:
	mov	r2, #8912896
	mov	r3, #35651584
.L2157:
	cmp	r0, r2
	movls	r3, #16
	strls	r3, [r4, #236]
	bls	.L2162
	cmp	r0, r3, lsr #1
	movls	r3, #12
	strls	r3, [r4, #236]
	bls	.L2162
	add	r3, r3, r3, lsl #1
	cmp	r0, r3, lsr #2
	movls	r3, #8
	movhi	r3, #6
	str	r3, [r4, #236]
.L2162:
	mov	r1, #1
	ldr	r0, [r5, #2340]
	bl	BsGet
	cmp	r0, #0
	str	r0, [r4, #80]
	beq	.L2165
	ldr	r1, .L2297+24
	ldr	r0, [r5, #2340]
	bl	HEVC_ue_v
	ldr	r3, [r4, #64]
	ldr	r6, .L2297+28
	ldr	r1, .L2297+32
	add	r3, r6, r3, lsl #2
	ldr	r3, [r3, #544]
	mul	r0, r3, r0
	str	r0, [r4, #84]
	ldr	r0, [r5, #2340]
	bl	HEVC_ue_v
	ldr	r2, [r4, #64]
	ldr	r3, [r4, #72]
	ldr	r1, [r4, #84]
	add	r2, r6, r2, lsl #2
	rsb	r3, r1, r3
	ldr	r2, [r2, #544]
	mul	r0, r2, r0
	rsb	r3, r0, r3
	cmp	r3, #0
	str	r0, [r4, #88]
	blt	.L2278
	ldr	r1, .L2297+36
	ldr	r0, [r5, #2340]
	bl	HEVC_ue_v
	ldr	r3, [r4, #64]
	ldr	r1, .L2297+40
	add	r3, r6, r3, lsl #2
	ldr	r3, [r3, #560]
	mul	r0, r3, r0
	str	r0, [r4, #92]
	ldr	r0, [r5, #2340]
	bl	HEVC_ue_v
	ldr	r1, [r4, #64]
	ldr	r2, [r4, #92]
	ldr	r3, [r4, #76]
	add	r6, r6, r1, lsl #2
	rsb	r3, r2, r3
	ldr	r2, [r6, #560]
	mul	r0, r2, r0
	rsb	r3, r0, r3
	cmp	r3, #0
	str	r0, [r4, #96]
	blt	.L2279
.L2165:
	ldr	r1, .L2297+44
	ldr	r0, [r5, #2340]
	bl	HEVC_ue_v
	cmp	r0, #6
	add	r2, r0, #8
	str	r2, [r4, #100]
	bhi	.L2280
	ldr	r1, .L2297+48
	ldr	r0, [r5, #2340]
	bl	HEVC_ue_v
	cmp	r0, #6
	add	r2, r0, #8
	str	r2, [r4, #108]
	bhi	.L2281
	ldr	r3, [r4, #100]
	ldr	r1, .L2297+52
	str	r3, [r5, #192]
	ldr	r3, [r4, #108]
	str	r3, [r5, #196]
	ldr	r0, [r4, #108]
	ldr	ip, [r4, #100]
	mov	r3, r0, asl #3
	mov	r2, ip, asl #3
	sub	r3, r3, r0, asl #1
	sub	r2, r2, ip, asl #1
	sub	r3, r3, #48
	sub	r2, r2, #48
	str	r3, [r4, #112]
	str	r2, [r4, #104]
	ldr	r0, [r5, #2340]
	bl	HEVC_ue_v
	cmp	r0, #12
	bhi	.L2282
	add	r0, r0, #4
	mov	r1, #1
	str	r0, [r4, #128]
	mov	r6, r4
	str	r0, [r4, #132]
	mov	r7, #0
	ldr	r0, [r5, #2340]
	bl	BsGet
	strb	r0, [r4, #3]
	b	.L2176
.L2170:
	ldr	r3, [r4, #56]
	add	r7, r7, #1
	cmp	r7, r3
	bhi	.L2175
.L2176:
	ldr	r1, .L2297+56
	add	r6, r6, #4
	ldr	r0, [r5, #2340]
	bl	HEVC_ue_v
	ldr	r1, .L2297+60
	add	r0, r0, #1
	str	r0, [r6, #376]
	ldr	r0, [r5, #2340]
	bl	HEVC_ue_v
	ldr	r1, .L2297+64
	ldr	r9, [r6, #376]
	str	r0, [r6, #408]
	ldr	r0, [r5, #2340]
	ldr	r10, [r4, #380]
	bl	HEVC_ue_v
	str	r0, [r6, #440]
	ldrb	r3, [r4, #3]	@ zero_extendqisi2
	cmp	r3, #0
	bne	.L2170
	ldr	r1, [r4, #56]
	add	r3, r7, #1
	cmp	r3, r1
	addls	r7, r7, #95
	addls	r7, r4, r7, lsl #2
	bhi	.L2175
.L2174:
	ldr	r2, [r4, #380]
	add	r3, r3, #1
	cmp	r3, r1
	str	r2, [r7, #4]!
	ldr	r2, [r4, #412]
	str	r2, [r7, #32]
	ldr	r2, [r4, #444]
	str	r2, [r7, #64]
	bls	.L2174
.L2175:
	ldr	r3, [r4, #236]
	cmp	r9, r10
	ldr	r1, .L2297+68
	movcc	r9, r10
	cmp	r3, r9
	movcs	r3, r9
	str	r3, [r4, #236]
	ldr	r0, [r5, #2340]
	bl	HEVC_ue_v
	cmp	r0, #3
	str	r0, [r4, #136]
	bhi	.L2283
	ldr	r1, .L2297+72
	ldr	r0, [r5, #2340]
	bl	HEVC_ue_v
	cmp	r0, #3
	str	r0, [r4, #144]
	bhi	.L2284
	ldr	r3, [r4, #136]
	add	r3, r3, #3
	str	r3, [r4, #140]
	add	r6, r0, r3
	str	r6, [r4, #148]
	sub	r2, r6, #4
	cmp	r2, #2
	bhi	.L2285
	mov	r2, #1
	ldr	r7, [r4, #72]
	mov	r6, r2, asl r6
	mov	r3, r2, asl r3
	str	r6, [r4, #156]
	str	r6, [r4, #160]
	mov	r1, r6
	str	r6, [r4, #164]
	mov	r0, r7
	str	r3, [r4, #152]
	bl	__aeabi_uidivmod
	mov	r0, r7
	cmp	r1, #0
	mov	r1, r6
	beq	.L2179
	bl	__aeabi_uidiv
	add	r0, r0, #1
.L2180:
	ldr	r7, [r4, #76]
	mov	r1, r6
	str	r0, [r4, #240]
	mov	r0, r7
	bl	__aeabi_uidivmod
	mov	r0, r7
	cmp	r1, #0
	mov	r1, r6
	beq	.L2181
	bl	__aeabi_uidiv
	add	r0, r0, #1
.L2182:
	str	r0, [r4, #244]
	ldr	r1, .L2297+76
	ldr	r0, [r5, #2340]
	bl	HEVC_ue_v
	cmp	r0, #3
	str	r0, [r4, #168]
	bhi	.L2286
	ldr	r1, .L2297+80
	ldr	r0, [r5, #2340]
	bl	HEVC_ue_v
	cmp	r0, #3
	str	r0, [r4, #176]
	bhi	.L2287
	ldr	r3, [r4, #168]
	ldr	r2, [r4, #140]
	add	r3, r3, #2
	str	r3, [r4, #172]
	cmp	r3, r2
	bcs	.L2288
	add	r0, r0, r3
	str	r0, [r4, #180]
	cmp	r0, #5
	bhi	.L2186
	ldr	r3, [r4, #148]
	cmp	r0, r3
	bhi	.L2186
	ldr	r1, .L2297+84
	ldr	r0, [r5, #2340]
	bl	HEVC_ue_v
	ldr	r3, [r4, #148]
	ldr	r2, [r4, #172]
	rsb	r3, r2, r3
	cmp	r0, r3
	str	r0, [r4, #200]
	bhi	.L2289
	ldr	r1, .L2297+88
	ldr	r0, [r5, #2340]
	bl	HEVC_ue_v
	ldr	r3, [r4, #148]
	ldr	r2, [r4, #172]
	rsb	r3, r2, r3
	cmp	r0, r3
	str	r0, [r4, #208]
	bhi	.L2290
	ldr	r3, [r4, #200]
	add	r0, r0, #1
	mov	r1, #0
	str	r0, [r4, #212]
	add	r3, r3, #1
	str	r3, [r4, #204]
	str	r1, [r5, #260]
	mov	ip, #1
	ldr	r3, [r4, #172]
	ldr	r0, [r4, #160]
	ldr	r2, [r4, #144]
	mov	r3, ip, asl r3
	cmp	r3, r0, lsr r2
	bcc	.L2191
	b	.L2291
.L2216:
	mov	r8, r0
.L2191:
	str	r8, [r5, #260]
	add	r0, r8, #1
	ldr	r3, [r4, #172]
	ldr	r1, [r4, #160]
	add	r3, r8, r3
	ldr	r2, [r4, #144]
	mov	r3, ip, asl r3
	cmp	r3, r1, lsr r2
	bcc	.L2216
.L2190:
	mov	r6, #1
	add	r8, r2, r8
	str	r6, [r4, #224]
	mov	r3, #0
	str	r8, [r4, #216]
	mov	r1, r6
	str	r3, [r4, #220]
	ldr	r0, [r5, #2340]
	bl	BsGet
	uxtb	r0, r0
	strb	r0, [r4, #5]
	cmp	r0, #0
	beq	.L2192
	mov	r1, r6
	ldr	r0, [r5, #2340]
	bl	BsGet
	uxtb	r0, r0
	strb	r0, [r4, #6]
	cmp	r0, #0
	bne	.L2292
.L2192:
	mov	r1, #1
	ldr	r0, [r5, #2340]
	bl	BsGet
	mov	r1, #1
	strb	r0, [r4, #7]
	ldr	r0, [r5, #2340]
	bl	BsGet
	uxtb	r6, r0
	strb	r6, [r4, #8]
	cmp	r6, #0
	bne	.L2193
	ldr	r2, [r4, #76]
	cmp	r2, #64
	bls	.L2293
.L2193:
	mov	r1, #1
	ldr	r0, [r5, #2340]
	bl	BsGet
	cmp	r0, #0
	str	r0, [r4, #116]
	beq	.L2194
	mov	r1, #4
	ldr	r0, [r5, #2340]
	bl	BsGet
	mov	r1, #4
	add	r0, r0, #1
	str	r0, [r4, #120]
	ldr	r0, [r5, #2340]
	bl	BsGet
	ldr	r1, .L2297+92
	add	r0, r0, #1
	str	r0, [r4, #124]
	ldr	r0, [r5, #2340]
	bl	HEVC_ue_v
	cmp	r0, #2
	str	r0, [r4, #184]
	bhi	.L2294
.L2195:
	ldr	r1, .L2297+96
	ldr	r0, [r5, #2340]
