#include "hi_asm_define.h"
	.arch armv7-a
	.fpu softvfp
	.eabi_attribute 20, 1
	.eabi_attribute 21, 1
	.eabi_attribute 23, 3
	.eabi_attribute 24, 1
	.eabi_attribute 25, 1
	.eabi_attribute 26, 2
	.eabi_attribute 30, 2
	.eabi_attribute 34, 0
	.eabi_attribute 18, 4
	.file	"mvc.c"
	.text
	.align	2
	.global	MVC_IsSTRefFlg
	.type	MVC_IsSTRefFlg, %function
MVC_IsSTRefFlg:
	UNWIND(.fnstart)
	@ args = 0, pretend = 0, frame = 0
	@ frame_needed = 1, uses_anonymous_args = 0
	UNWIND(.movsp ip)
	mov	ip, sp
	stmfd	sp!, {fp, ip, lr, pc}
	UNWIND(.pad #4)
	UNWIND(.save {fp, ip, lr})
	UNWIND(.setfp fp, ip, #-4)
	sub	fp, ip, #4
	ldr	r0, [r0]
	bic	r0, r0, #-16777216
	bic	r0, r0, #255
	sub	r0, r0, #65536
	clz	r0, r0
	mov	r0, r0, lsr #5
	ldmfd	sp, {fp, sp, pc}
	UNWIND(.fnend)
	.size	MVC_IsSTRefFlg, .-MVC_IsSTRefFlg
	.align	2
	.global	MVC_IsLTRefFlg
	.type	MVC_IsLTRefFlg, %function
MVC_IsLTRefFlg:
	UNWIND(.fnstart)
	@ args = 0, pretend = 0, frame = 0
	@ frame_needed = 1, uses_anonymous_args = 0
	UNWIND(.movsp ip)
	mov	ip, sp
	stmfd	sp!, {fp, ip, lr, pc}
	UNWIND(.pad #4)
	UNWIND(.save {fp, ip, lr})
	UNWIND(.setfp fp, ip, #-4)
	sub	fp, ip, #4
	ldr	r0, [r0]
	bic	r0, r0, #-16777216
	bic	r0, r0, #255
	sub	r0, r0, #256
	clz	r0, r0
	mov	r0, r0, lsr #5
	ldmfd	sp, {fp, sp, pc}
	UNWIND(.fnend)
	.size	MVC_IsLTRefFlg, .-MVC_IsLTRefFlg
	.align	2
	.global	MVC_compare_pic_by_pic_num_desc
	.type	MVC_compare_pic_by_pic_num_desc, %function
MVC_compare_pic_by_pic_num_desc:
	UNWIND(.fnstart)
	@ args = 0, pretend = 0, frame = 0
	@ frame_needed = 1, uses_anonymous_args = 0
	UNWIND(.movsp ip)
	mov	ip, sp
	stmfd	sp!, {fp, ip, lr, pc}
	UNWIND(.pad #4)
	UNWIND(.save {fp, ip, lr})
	UNWIND(.setfp fp, ip, #-4)
	sub	fp, ip, #4
	ldr	r2, [r0]
	ldr	r3, [r1]
	ldr	r2, [r2, #12]
	ldr	r3, [r3, #12]
	cmp	r2, r3
	blt	.L5
	mvngt	r0, #0
	movle	r0, #0
	ldmfd	sp, {fp, sp, pc}
.L5:
	mov	r0, #1
	ldmfd	sp, {fp, sp, pc}
	UNWIND(.fnend)
	.size	MVC_compare_pic_by_pic_num_desc, .-MVC_compare_pic_by_pic_num_desc
	.align	2
	.global	MVC_compare_pic_by_lt_pic_num_asc
	.type	MVC_compare_pic_by_lt_pic_num_asc, %function
MVC_compare_pic_by_lt_pic_num_asc:
	UNWIND(.fnstart)
	@ args = 0, pretend = 0, frame = 0
	@ frame_needed = 1, uses_anonymous_args = 0
	UNWIND(.movsp ip)
	mov	ip, sp
	stmfd	sp!, {fp, ip, lr, pc}
	UNWIND(.pad #4)
	UNWIND(.save {fp, ip, lr})
	UNWIND(.setfp fp, ip, #-4)
	sub	fp, ip, #4
	ldr	r2, [r0]
	ldr	r3, [r1]
	ldr	r2, [r2, #8]
	ldr	r3, [r3, #8]
	cmp	r2, r3
	blt	.L9
	movgt	r0, #1
	movle	r0, #0
	ldmfd	sp, {fp, sp, pc}
.L9:
	mvn	r0, #0
	ldmfd	sp, {fp, sp, pc}
	UNWIND(.fnend)
	.size	MVC_compare_pic_by_lt_pic_num_asc, .-MVC_compare_pic_by_lt_pic_num_asc
	.align	2
	.global	MVC_compare_fs_by_frame_num_desc
	.type	MVC_compare_fs_by_frame_num_desc, %function
MVC_compare_fs_by_frame_num_desc:
	UNWIND(.fnstart)
	@ args = 0, pretend = 0, frame = 0
	@ frame_needed = 1, uses_anonymous_args = 0
	UNWIND(.movsp ip)
	mov	ip, sp
	stmfd	sp!, {fp, ip, lr, pc}
	UNWIND(.pad #4)
	UNWIND(.save {fp, ip, lr})
	UNWIND(.setfp fp, ip, #-4)
	sub	fp, ip, #4
	ldr	r2, [r0]
	ldr	r3, [r1]
	ldr	r2, [r2, #24]
	ldr	r3, [r3, #24]
	cmp	r2, r3
	blt	.L12
	mvngt	r0, #0
	movle	r0, #0
	ldmfd	sp, {fp, sp, pc}
.L12:
	mov	r0, #1
	ldmfd	sp, {fp, sp, pc}
	UNWIND(.fnend)
	.size	MVC_compare_fs_by_frame_num_desc, .-MVC_compare_fs_by_frame_num_desc
	.align	2
	.global	MVC_compare_fs_by_lt_pic_idx_asc
	.type	MVC_compare_fs_by_lt_pic_idx_asc, %function
MVC_compare_fs_by_lt_pic_idx_asc:
	UNWIND(.fnstart)
	@ args = 0, pretend = 0, frame = 0
	@ frame_needed = 1, uses_anonymous_args = 0
	UNWIND(.movsp ip)
	mov	ip, sp
	stmfd	sp!, {fp, ip, lr, pc}
	UNWIND(.pad #4)
	UNWIND(.save {fp, ip, lr})
	UNWIND(.setfp fp, ip, #-4)
	sub	fp, ip, #4
	ldr	r2, [r0]
	ldr	r3, [r1]
	ldr	r2, [r2, #28]
	ldr	r3, [r3, #28]
	cmp	r2, r3
	bcc	.L15
	movhi	r0, #1
	movls	r0, #0
	ldmfd	sp, {fp, sp, pc}
.L15:
	mvn	r0, #0
	ldmfd	sp, {fp, sp, pc}
	UNWIND(.fnend)
	.size	MVC_compare_fs_by_lt_pic_idx_asc, .-MVC_compare_fs_by_lt_pic_idx_asc
	.align	2
	.global	MVC_compare_pic_by_poc_asc
	.type	MVC_compare_pic_by_poc_asc, %function
MVC_compare_pic_by_poc_asc:
	UNWIND(.fnstart)
	@ args = 0, pretend = 0, frame = 0
	@ frame_needed = 1, uses_anonymous_args = 0
	UNWIND(.movsp ip)
	mov	ip, sp
	stmfd	sp!, {fp, ip, lr, pc}
	UNWIND(.pad #4)
	UNWIND(.save {fp, ip, lr})
	UNWIND(.setfp fp, ip, #-4)
	sub	fp, ip, #4
	ldr	r2, [r0]
	ldr	r3, [r1]
	ldr	r2, [r2, #16]
	ldr	r3, [r3, #16]
	cmp	r2, r3
	blt	.L18
	movgt	r0, #1
	movle	r0, #0
	ldmfd	sp, {fp, sp, pc}
.L18:
	mvn	r0, #0
	ldmfd	sp, {fp, sp, pc}
	UNWIND(.fnend)
	.size	MVC_compare_pic_by_poc_asc, .-MVC_compare_pic_by_poc_asc
	.align	2
	.global	MVC_compare_pic_by_poc_desc
	.type	MVC_compare_pic_by_poc_desc, %function
MVC_compare_pic_by_poc_desc:
	UNWIND(.fnstart)
	@ args = 0, pretend = 0, frame = 0
	@ frame_needed = 1, uses_anonymous_args = 0
	UNWIND(.movsp ip)
	mov	ip, sp
	stmfd	sp!, {fp, ip, lr, pc}
	UNWIND(.pad #4)
	UNWIND(.save {fp, ip, lr})
	UNWIND(.setfp fp, ip, #-4)
	sub	fp, ip, #4
	ldr	r2, [r0]
	ldr	r3, [r1]
	ldr	r2, [r2, #16]
	ldr	r3, [r3, #16]
	cmp	r2, r3
	blt	.L21
	mvngt	r0, #0
	movle	r0, #0
	ldmfd	sp, {fp, sp, pc}
.L21:
	mov	r0, #1
	ldmfd	sp, {fp, sp, pc}
	UNWIND(.fnend)
	.size	MVC_compare_pic_by_poc_desc, .-MVC_compare_pic_by_poc_desc
	.align	2
	.global	MVC_compare_fs_by_poc_asc
	.type	MVC_compare_fs_by_poc_asc, %function
MVC_compare_fs_by_poc_asc:
	UNWIND(.fnstart)
	@ args = 0, pretend = 0, frame = 0
	@ frame_needed = 1, uses_anonymous_args = 0
	UNWIND(.movsp ip)
	mov	ip, sp
	stmfd	sp!, {fp, ip, lr, pc}
	UNWIND(.pad #4)
	UNWIND(.save {fp, ip, lr})
	UNWIND(.setfp fp, ip, #-4)
	sub	fp, ip, #4
	ldr	r2, [r0]
	ldr	r3, [r1]
	ldr	r2, [r2, #32]
	ldr	r3, [r3, #32]
	cmp	r2, r3
	blt	.L24
	movgt	r0, #1
	movle	r0, #0
	ldmfd	sp, {fp, sp, pc}
.L24:
	mvn	r0, #0
	ldmfd	sp, {fp, sp, pc}
	UNWIND(.fnend)
	.size	MVC_compare_fs_by_poc_asc, .-MVC_compare_fs_by_poc_asc
	.align	2
	.global	MVC_compare_fs_by_poc_desc
	.type	MVC_compare_fs_by_poc_desc, %function
MVC_compare_fs_by_poc_desc:
	UNWIND(.fnstart)
	@ args = 0, pretend = 0, frame = 0
	@ frame_needed = 1, uses_anonymous_args = 0
	UNWIND(.movsp ip)
	mov	ip, sp
	stmfd	sp!, {fp, ip, lr, pc}
	UNWIND(.pad #4)
	UNWIND(.save {fp, ip, lr})
	UNWIND(.setfp fp, ip, #-4)
	sub	fp, ip, #4
	ldr	r2, [r0]
	ldr	r3, [r1]
	ldr	r2, [r2, #32]
	ldr	r3, [r3, #32]
	cmp	r2, r3
	blt	.L27
	mvngt	r0, #0
	movle	r0, #0
	ldmfd	sp, {fp, sp, pc}
.L27:
	mov	r0, #1
	ldmfd	sp, {fp, sp, pc}
	UNWIND(.fnend)
	.size	MVC_compare_fs_by_poc_desc, .-MVC_compare_fs_by_poc_desc
	.align	2
	.type	MVC_SetFrmRepeatCount.part.1, %function
MVC_SetFrmRepeatCount.part.1:
	UNWIND(.fnstart)
	@ args = 0, pretend = 0, frame = 0
	@ frame_needed = 1, uses_anonymous_args = 0
	UNWIND(.movsp ip)
	mov	ip, sp
	stmfd	sp!, {fp, ip, lr, pc}
	UNWIND(.pad #4)
	UNWIND(.save {fp, ip, lr})
	UNWIND(.setfp fp, ip, #-4)
	sub	fp, ip, #4
	add	ip, r0, #11075584
	ldr	lr, [r0, #136]
	add	ip, ip, #45056
	ldr	r3, [r0, #132]
	ldr	r2, [ip, #2376]
	mov	r3, r3, lsr #1
	add	r2, r2, lr, lsr #1
	add	ip, r2, #1
	cmp	r3, ip
	movcc	r3, #0
	strcc	r3, [r1, #84]
	ldmccfd	sp, {fp, sp, pc}
	sub	r3, r3, #1
	rsb	r3, r2, r3
	cmp	r3, #1
	movhi	r3, #2
	movls	r3, #1
	strhi	r3, [r1, #84]
	strls	r3, [r1, #84]
	ldrhi	r3, [r0, #136]
	ldrls	r3, [r0, #136]
	addhi	r3, r3, #4
	addls	r3, r3, #2
	str	r3, [r0, #136]
	ldmfd	sp, {fp, sp, pc}
	UNWIND(.fnend)
	.size	MVC_SetFrmRepeatCount.part.1, .-MVC_SetFrmRepeatCount.part.1
	.align	2
	.type	MVC_CombinePacket.part.10, %function
MVC_CombinePacket.part.10:
	UNWIND(.fnstart)
	@ args = 0, pretend = 0, frame = 0
	@ frame_needed = 1, uses_anonymous_args = 0
	UNWIND(.movsp ip)
	mov	ip, sp
	stmfd	sp!, {r4, r5, r6, r7, fp, ip, lr, pc}
	UNWIND(.pad #4)
	UNWIND(.save {r4, r5, r6, r7, fp, ip, lr})
	UNWIND(.setfp fp, ip, #-4)
	sub	fp, ip, #4
	UNWIND(.pad #8)
	sub	sp, sp, #8
	ldr	r6, .L33
	mov	r4, r0
	ldr	r1, .L33+4
	mov	r0, #7
	mov	r5, #0
	ldr	r3, [r6, #68]
	blx	r3
	ldr	ip, [r4, #232]
	ldr	r7, [r6, #68]
	mov	r0, #7
	ldr	r1, .L33+8
	ldr	lr, [ip, #40]
	ldr	r3, [ip, #44]
	ldr	r2, [ip, #16]
	str	lr, [sp, #4]
	ldr	ip, [ip, #12]
	str	ip, [sp]
	blx	r7
	ldr	r3, [r4, #232]
	ldr	ip, [r6, #52]
	ldr	r2, [r3, #12]
	ldr	r0, [r3, #36]
	ldr	r1, [r3, #8]
	rsb	r0, r2, r0
	blx	ip
	ldr	r3, [r4, #232]
	mov	ip, #1
	ldr	r1, .L33+12
	mov	r0, #7
	ldr	r2, [r3, #60]
	ldr	r7, [r3, #32]
	str	r2, [r3, #32]
	ldr	r3, [r4, #232]
	str	r5, [r3, #24]
	ldr	r3, [r4, #232]
	ldr	lr, [r3, #12]
	ldr	r2, [r3, #36]
	rsb	r2, lr, r2
	str	r2, [r3, #8]
	ldr	r3, [r4, #232]
	ldr	lr, [r3, #12]
	ldr	r2, [r3, #44]
	rsb	r2, lr, r2
	str	r2, [r3, #16]
	ldr	r3, [r4, #232]
	ldr	lr, [r3, #40]
	ldr	r2, [r3, #12]
	add	r2, r2, lr
	str	r2, [r3, #12]
	ldr	r3, [r4, #232]
	str	ip, [r3, #68]
	ldr	r2, [r4, #232]
	ldr	ip, [r6, #68]
	ldr	r3, [r2, #12]
	ldr	r2, [r2, #16]
	blx	ip
	mov	r1, r7
	ldr	r0, [r4, #120]
	bl	SM_ReleaseStreamSeg
	ldr	r3, [r4, #232]
	str	r5, [r3, #36]
	ldr	r3, [r4, #232]
	str	r5, [r3, #52]
	ldr	r3, [r4, #232]
	str	r5, [r3, #40]
	sub	sp, fp, #28
	ldmfd	sp, {r4, r5, r6, r7, fp, sp, pc}
.L34:
	.align	2
.L33:
	.word	vfmw_Osal_Func_Ptr_S
	.word	.LC0
	.word	.LC1
	.word	.LC2
	UNWIND(.fnend)
	.size	MVC_CombinePacket.part.10, .-MVC_CombinePacket.part.10
	.align	2
	.global	mvc_ue_v
	.type	mvc_ue_v, %function
mvc_ue_v:
	UNWIND(.fnstart)
	@ args = 0, pretend = 0, frame = 0
	@ frame_needed = 1, uses_anonymous_args = 0
	UNWIND(.movsp ip)
	mov	ip, sp
	stmfd	sp!, {r4, r5, r6, r7, r8, r9, fp, ip, lr, pc}
	UNWIND(.pad #4)
	UNWIND(.save {r4, r5, r6, r7, r8, r9, fp, ip, lr})
	UNWIND(.setfp fp, ip, #-4)
	sub	fp, ip, #4
	add	r8, r0, #548
	mov	r6, r0
	mov	r7, r1
	mov	r1, #32
	mov	r0, r8
	bl	BsShow
	mov	r5, r0
	bl	ZerosMS_32
	cmp	r0, #15
	mov	r4, r0
	bls	.L39
	cmp	r0, #31
	bls	.L40
	mvn	r5, #0
	mov	r8, #32
	mov	r3, #1
	strb	r3, [r6, #10]
.L37:
	ldr	r6, [r6, #232]
	mov	r2, r7
	ldr	ip, .L41
	mov	r3, r5
	ldr	r1, .L41+4
	mov	r0, #21
	ldr	lr, [r6, #64]
	add	r4, lr, r8
	str	r4, [r6, #64]
	ldr	ip, [ip, #68]
	blx	ip
	mov	r0, r5
	ldmfd	sp, {r4, r5, r6, r7, r8, r9, fp, sp, pc}
.L39:
	mov	r4, r0, asl #1
	mov	r0, r8
	add	r8, r4, #1
	rsb	r4, r4, #31
	mov	r4, r5, lsr r4
	mov	r1, r8
	sub	r5, r4, #1
	bl	BsSkip
	b	.L37
.L40:
	add	r5, r0, #1
	mov	r1, r0
	mov	r0, r8
	bl	BsSkip
	mov	r1, r5
	mov	r0, r8
	bl	BsShow
	mov	r1, r5
	sub	r5, r0, #1
	mov	r0, r8
	bl	BsSkip
	mov	ip, r4, asl #1
	add	r8, ip, #1
	b	.L37
.L42:
	.align	2
.L41:
	.word	vfmw_Osal_Func_Ptr_S
	.word	.LC3
	UNWIND(.fnend)
	.size	mvc_ue_v, .-mvc_ue_v
	.align	2
	.global	mvc_se_v
	.type	mvc_se_v, %function
mvc_se_v:
	UNWIND(.fnstart)
	@ args = 0, pretend = 0, frame = 0
	@ frame_needed = 1, uses_anonymous_args = 0
	UNWIND(.movsp ip)
	mov	ip, sp
	stmfd	sp!, {r4, r5, r6, r7, r8, r9, fp, ip, lr, pc}
	UNWIND(.pad #4)
	UNWIND(.save {r4, r5, r6, r7, r8, r9, fp, ip, lr})
	UNWIND(.setfp fp, ip, #-4)
	sub	fp, ip, #4
	add	r8, r0, #548
	mov	r6, r0
	mov	r7, r1
	mov	r1, #32
	mov	r0, r8
	bl	BsShow
	mov	r5, r0
	bl	ZerosMS_32
	cmp	r0, #15
	mov	r4, r0
	bhi	.L44
	mov	r4, r0, asl #1
	mov	r0, r8
	rsb	r3, r4, #31
	add	r4, r4, #1
	mov	r3, r5, lsr r3
	and	r2, r3, #1
	mov	r1, r4
	rsb	r5, r2, #0
	eor	r5, r5, r3, lsr #1
	add	r5, r5, r2
	bl	BsSkip
.L45:
	ldr	lr, [r6, #232]
	mov	r2, r7
	ldr	r6, .L48
	mov	r3, r5
	ldr	r1, .L48+4
	mov	r0, #21
	ldr	ip, [lr, #64]
	add	r4, ip, r4
	str	r4, [lr, #64]
	ldr	ip, [r6, #68]
	blx	ip
	mov	r0, r5
	ldmfd	sp, {r4, r5, r6, r7, r8, r9, fp, sp, pc}
.L44:
	cmp	r0, #31
	bls	.L47
	mov	r3, #1
	mvn	r5, #-2147483648
	mov	r4, #32
	strb	r3, [r6, #10]
	b	.L45
.L47:
	mov	r1, r0
	mov	r0, r8
	bl	BsSkip
	mov	r1, r4
	mov	r0, r8
	mov	r4, r4, asl #1
	bl	BsGet
	mov	r1, #1
	add	r4, r4, #1
	mov	r9, r0
	mov	r0, r8
	bl	BsGet
	and	r0, r0, #1
	rsb	r5, r0, #0
	eor	r9, r9, r5
	add	r5, r9, r0
	b	.L45
.L49:
	.align	2
.L48:
	.word	vfmw_Osal_Func_Ptr_S
	.word	.LC3
	UNWIND(.fnend)
	.size	mvc_se_v, .-mvc_se_v
	.align	2
	.global	mvc_u_v
	.type	mvc_u_v, %function
mvc_u_v:
	UNWIND(.fnstart)
	@ args = 0, pretend = 0, frame = 0
	@ frame_needed = 1, uses_anonymous_args = 0
	UNWIND(.movsp ip)
	mov	ip, sp
	stmfd	sp!, {r4, r5, r6, r7, fp, ip, lr, pc}
	UNWIND(.pad #4)
	UNWIND(.save {r4, r5, r6, r7, fp, ip, lr})
	UNWIND(.setfp fp, ip, #-4)
	sub	fp, ip, #4
	mov	r5, r0
	add	r0, r0, #548
	mov	r6, r1
	mov	r7, r2
	bl	BsGet
	ldr	lr, [r5, #232]
	ldr	r5, .L51
	mov	r2, r7
	ldr	r1, .L51+4
	ldr	ip, [lr, #64]
	add	ip, ip, r6
	str	ip, [lr, #64]
	ldr	ip, [r5, #68]
	mov	r4, r0
	mov	r3, r0
	mov	r0, #21
	blx	ip
	mov	r0, r4
	ldmfd	sp, {r4, r5, r6, r7, fp, sp, pc}
.L52:
	.align	2
.L51:
	.word	vfmw_Osal_Func_Ptr_S
	.word	.LC3
	UNWIND(.fnend)
	.size	mvc_u_v, .-mvc_u_v
	.align	2
	.global	mvc_u_1
	.type	mvc_u_1, %function
mvc_u_1:
	UNWIND(.fnstart)
	@ args = 0, pretend = 0, frame = 0
	@ frame_needed = 1, uses_anonymous_args = 0
	UNWIND(.movsp ip)
	mov	ip, sp
	stmfd	sp!, {r4, r5, r6, r7, fp, ip, lr, pc}
	UNWIND(.pad #4)
	UNWIND(.save {r4, r5, r6, r7, fp, ip, lr})
	UNWIND(.setfp fp, ip, #-4)
	sub	fp, ip, #4
	mov	r5, r0
	mov	r6, r1
	add	r0, r0, #548
	mov	r1, #1
	bl	BsGet
	ldr	lr, [r5, #232]
	ldr	r5, .L54
	mov	r2, r6
	ldr	r1, .L54+4
	ldr	ip, [lr, #64]
	add	ip, ip, #1
	str	ip, [lr, #64]
	ldr	ip, [r5, #68]
	mov	r4, r0
	mov	r3, r0
	mov	r0, #21
	blx	ip
	mov	r0, r4
	ldmfd	sp, {r4, r5, r6, r7, fp, sp, pc}
.L55:
	.align	2
.L54:
	.word	vfmw_Osal_Func_Ptr_S
	.word	.LC3
	UNWIND(.fnend)
	.size	mvc_u_1, .-mvc_u_1
	.align	2
	.global	MVC_GetMinPOC
	.type	MVC_GetMinPOC, %function
MVC_GetMinPOC:
	UNWIND(.fnstart)
	@ args = 0, pretend = 0, frame = 8
	@ frame_needed = 1, uses_anonymous_args = 0
	UNWIND(.movsp ip)
	mov	ip, sp
	stmfd	sp!, {r4, r5, r6, r7, r8, r9, r10, fp, ip, lr, pc}
	UNWIND(.pad #4)
	UNWIND(.save {r4, r5, r6, r7, r8, r9, r10, fp, ip, lr})
	UNWIND(.setfp fp, ip, #-4)
	sub	fp, ip, #4
	UNWIND(.pad #12)
	sub	sp, sp, #12
	add	r10, r0, #11075584
	add	r10, r10, #45056
	mov	r9, r3
	mov	r8, r2
	mvn	r3, #-2147483648
	mvn	r2, #0
	str	r2, [r9]
	str	r3, [r8]
	mov	r6, r0
	ldr	r3, [r10, #2376]
	mov	r7, r1
	ldr	r2, [r10, #2380]
	cmp	r2, r3
	strhi	r3, [r10, #2380]
	cmp	r3, #0
	beq	.L63
	movw	r5, #47236
	mvn	r3, #0
	movt	r5, 169
	str	r3, [fp, #-48]
	add	r5, r0, r5
	mov	r4, #0
	b	.L62
.L60:
	ldr	r1, [r8]
	ldr	r2, [r3, #32]
	cmp	r1, r2
	ble	.L59
	ldrb	r1, [r3, #5]	@ zero_extendqisi2
	cmp	r1, #0
	beq	.L59
	ldrb	r1, [r0, #1]	@ zero_extendqisi2
	sub	r1, r1, #1
	cmp	r1, #1
	bls	.L78
.L59:
	ldr	r3, [r10, #2376]
	add	r4, r4, #1
	cmp	r3, r4
	bls	.L63
.L62:
	ldr	r3, [r5, #4]!
	cmp	r3, #0
	beq	.L59
	ldrsb	r1, [r3, #6]
	ldr	r0, [r6, #120]
	bl	FSP_GetLogicFs
	cmp	r0, #0
	beq	.L59
	cmn	r7, #1
	ldr	r3, [r5]
	bne	.L60
	ldrb	r2, [r3, #5]	@ zero_extendqisi2
	cmp	r2, #0
	beq	.L59
	ldrb	r2, [r0, #1]	@ zero_extendqisi2
	sub	r2, r2, #1
	cmp	r2, #1
	bhi	.L59
	ldr	r1, [r8]
	ldr	r2, [r3, #32]
	cmp	r1, r2
	ble	.L61
	str	r2, [r8]
	str	r4, [r9]
	add	r4, r4, #1
	ldr	r3, [r5]
	ldr	r3, [r3, #56]
	str	r3, [fp, #-48]
	ldr	r3, [r10, #2376]
	cmp	r3, r4
	bhi	.L62
.L63:
	ldr	r0, [r9]
	sub	sp, fp, #40
	ldmfd	sp, {r4, r5, r6, r7, r8, r9, r10, fp, sp, pc}
.L78:
	ldr	r3, [r3, #56]
	cmp	r7, r3
	streq	r2, [r8]
	streq	r4, [r9]
	b	.L59
.L61:
	bne	.L59
	ldr	r3, [r3, #56]
	ldr	r2, [fp, #-48]
	cmp	r3, r2
	strlt	r4, [r9]
	ldrlt	r3, [r5]
	ldrlt	r3, [r3, #56]
	strlt	r3, [fp, #-48]
	b	.L59
	UNWIND(.fnend)
	.size	MVC_GetMinPOC, .-MVC_GetMinPOC
	.align	2
	.global	MVC_FrameStoreRefFlg
	.type	MVC_FrameStoreRefFlg, %function
MVC_FrameStoreRefFlg:
	UNWIND(.fnstart)
	@ args = 0, pretend = 0, frame = 0
	@ frame_needed = 1, uses_anonymous_args = 0
	UNWIND(.movsp ip)
	mov	ip, sp
	stmfd	sp!, {fp, ip, lr, pc}
	UNWIND(.pad #4)
	UNWIND(.save {fp, ip, lr})
	UNWIND(.setfp fp, ip, #-4)
	sub	fp, ip, #4
	ldrb	r0, [r0, #3]	@ zero_extendqisi2
	adds	r0, r0, #0
	movne	r0, #1
	ldmfd	sp, {fp, sp, pc}
	UNWIND(.fnend)
	.size	MVC_FrameStoreRefFlg, .-MVC_FrameStoreRefFlg
	.align	2
	.global	MVC_NonLongTermRefFlg
	.type	MVC_NonLongTermRefFlg, %function
MVC_NonLongTermRefFlg:
	UNWIND(.fnstart)
	@ args = 0, pretend = 0, frame = 0
	@ frame_needed = 1, uses_anonymous_args = 0
	UNWIND(.movsp ip)
	mov	ip, sp
	stmfd	sp!, {fp, ip, lr, pc}
	UNWIND(.pad #4)
	UNWIND(.save {fp, ip, lr})
	UNWIND(.setfp fp, ip, #-4)
	sub	fp, ip, #4
	ldrb	r3, [r0, #3]	@ zero_extendqisi2
	cmp	r3, #3
	beq	.L95
	tst	r3, #1
	bne	.L96
.L84:
	and	r3, r3, #2
	ands	r3, r3, #255
	beq	.L88
.L85:
	ldrb	r0, [r0, #649]	@ zero_extendqisi2
	clz	r0, r0
	mov	r0, r0, lsr #5
	ldmfd	sp, {fp, sp, pc}
.L88:
	mov	r0, r3
	ldmfd	sp, {fp, sp, pc}
.L96:
	ldrb	r2, [r0, #613]	@ zero_extendqisi2
	cmp	r2, #0
	bne	.L84
.L89:
	mov	r0, #1
	ldmfd	sp, {fp, sp, pc}
.L95:
	ldrb	r3, [r0, #577]	@ zero_extendqisi2
	cmp	r3, #0
	beq	.L89
	ldrb	r3, [r0, #613]	@ zero_extendqisi2
	cmp	r3, #0
	bne	.L85
	b	.L89
	UNWIND(.fnend)
	.size	MVC_NonLongTermRefFlg, .-MVC_NonLongTermRefFlg
	.align	2
	.global	MVC_ShortTermRefFlg
	.type	MVC_ShortTermRefFlg, %function
MVC_ShortTermRefFlg:
	UNWIND(.fnstart)
	@ args = 0, pretend = 0, frame = 0
	@ frame_needed = 1, uses_anonymous_args = 0
	UNWIND(.movsp ip)
	mov	ip, sp
	stmfd	sp!, {fp, ip, lr, pc}
	UNWIND(.pad #4)
	UNWIND(.save {fp, ip, lr})
	UNWIND(.setfp fp, ip, #-4)
	sub	fp, ip, #4
	ldrb	r3, [r0, #3]	@ zero_extendqisi2
	cmp	r3, #3
	beq	.L112
	tst	r3, #1
	bne	.L113
.L101:
	and	r3, r3, #2
	ands	r3, r3, #255
	beq	.L105
.L102:
	ldr	r0, [r0, #648]
	bic	r0, r0, #-16777216
	bic	r0, r0, #255
	sub	r0, r0, #65536
	clz	r0, r0
	mov	r0, r0, lsr #5
	ldmfd	sp, {fp, sp, pc}
.L105:
	mov	r0, r3
	ldmfd	sp, {fp, sp, pc}
.L113:
	ldr	r2, [r0, #612]
	bic	r2, r2, #-16777216
	bic	r2, r2, #255
	cmp	r2, #65536
	bne	.L101
.L106:
	mov	r0, #1
	ldmfd	sp, {fp, sp, pc}
.L112:
	ldr	r3, [r0, #576]
	bic	r3, r3, #-16777216
	bic	r3, r3, #255
	cmp	r3, #65536
	beq	.L106
	ldr	r3, [r0, #612]
	bic	r3, r3, #-16777216
	bic	r3, r3, #255
	cmp	r3, #65536
	bne	.L102
	b	.L106
	UNWIND(.fnend)
	.size	MVC_ShortTermRefFlg, .-MVC_ShortTermRefFlg
	.align	2
	.global	MVC_LongTermRefFlg
	.type	MVC_LongTermRefFlg, %function
MVC_LongTermRefFlg:
	UNWIND(.fnstart)
	@ args = 0, pretend = 0, frame = 0
	@ frame_needed = 1, uses_anonymous_args = 0
	UNWIND(.movsp ip)
	mov	ip, sp
	stmfd	sp!, {fp, ip, lr, pc}
	UNWIND(.pad #4)
	UNWIND(.save {fp, ip, lr})
	UNWIND(.setfp fp, ip, #-4)
	sub	fp, ip, #4
	ldrb	r3, [r0, #3]	@ zero_extendqisi2
	cmp	r3, #3
	beq	.L129
	tst	r3, #1
	bne	.L130
.L118:
	and	r3, r3, #2
	ands	r3, r3, #255
	beq	.L122
.L119:
	ldr	r0, [r0, #648]
	bic	r0, r0, #-16777216
	bic	r0, r0, #255
	sub	r0, r0, #256
	clz	r0, r0
	mov	r0, r0, lsr #5
	ldmfd	sp, {fp, sp, pc}
.L122:
	mov	r0, r3
	ldmfd	sp, {fp, sp, pc}
.L130:
	ldr	r2, [r0, #612]
	bic	r2, r2, #-16777216
	bic	r2, r2, #255
	cmp	r2, #256
	bne	.L118
.L123:
	mov	r0, #1
	ldmfd	sp, {fp, sp, pc}
.L129:
	ldr	r3, [r0, #576]
	bic	r3, r3, #-16777216
	bic	r3, r3, #255
	cmp	r3, #256
	beq	.L123
	ldr	r3, [r0, #612]
	bic	r3, r3, #-16777216
	bic	r3, r3, #255
	cmp	r3, #256
	bne	.L119
	b	.L123
	UNWIND(.fnend)
	.size	MVC_LongTermRefFlg, .-MVC_LongTermRefFlg
	.align	2
	.global	MVC_UpdateLTReflist
	.type	MVC_UpdateLTReflist, %function
MVC_UpdateLTReflist:
	UNWIND(.fnstart)
	@ args = 0, pretend = 0, frame = 8
	@ frame_needed = 1, uses_anonymous_args = 0
	UNWIND(.movsp ip)
	mov	ip, sp
	stmfd	sp!, {r4, r5, r6, r7, r8, r9, r10, fp, ip, lr, pc}
	UNWIND(.pad #4)
	UNWIND(.save {r4, r5, r6, r7, r8, r9, r10, fp, ip, lr})
	UNWIND(.setfp fp, ip, #-4)
	sub	fp, ip, #4
	UNWIND(.pad #12)
	sub	sp, sp, #12
	add	r3, r0, #11075584
	add	r3, r3, #45056
	mov	r7, r0
	str	r3, [fp, #-48]
	ldr	r10, [r3, #2376]
	cmp	r10, #0
	beq	.L132
	movw	r8, #47236
	add	r9, r0, #11141120
	movt	r8, 169
	mov	r4, #0
	add	r9, r9, #8192
	add	r8, r0, r8
	mov	r6, r4
.L134:
	ldr	r5, [r8, #4]!
	add	r6, r6, #1
	cmp	r5, #0
	mov	r0, r5
	beq	.L133
	bl	MVC_LongTermRefFlg
	cmp	r0, #0
	beq	.L133
	ldr	r2, [r9, #2192]
	ldr	r1, [r5, #56]
	cmp	r1, r2
	movweq	r2, #28226
	movteq	r2, 42
	addeq	r2, r4, r2
	addeq	r4, r4, #1
	streq	r5, [r7, r2, asl #2]
.L133:
	cmp	r6, r10
	bne	.L134
	ldr	r3, [fp, #-48]
	cmp	r4, r10
	str	r4, [r3, #2388]
	bcs	.L131
	movw	r0, #28225
	mov	r2, #0
	movt	r0, 42
	add	r0, r4, r0
	add	r0, r7, r0, lsl #2
.L137:
	add	r4, r4, #1
	str	r2, [r0, #4]!
	cmp	r4, r10
	bne	.L137
.L131:
	sub	sp, fp, #40
	ldmfd	sp, {r4, r5, r6, r7, r8, r9, r10, fp, sp, pc}
.L132:
	ldr	r3, [fp, #-48]
	str	r10, [r3, #2388]
	b	.L131
	UNWIND(.fnend)
	.size	MVC_UpdateLTReflist, .-MVC_UpdateLTReflist
	.align	2
	.global	MVC_UpdateReflist
	.type	MVC_UpdateReflist, %function
MVC_UpdateReflist:
	UNWIND(.fnstart)
	@ args = 0, pretend = 0, frame = 8
	@ frame_needed = 1, uses_anonymous_args = 0
	UNWIND(.movsp ip)
	mov	ip, sp
	stmfd	sp!, {r4, r5, r6, r7, r8, r9, r10, fp, ip, lr, pc}
	UNWIND(.pad #4)
	UNWIND(.save {r4, r5, r6, r7, r8, r9, r10, fp, ip, lr})
	UNWIND(.setfp fp, ip, #-4)
	sub	fp, ip, #4
	UNWIND(.pad #12)
	sub	sp, sp, #12
	add	r3, r0, #11075584
	add	r3, r3, #45056
	mov	r7, r0
	str	r3, [fp, #-48]
	ldr	r10, [r3, #2376]
	cmp	r10, #0
	beq	.L148
	movw	r8, #47236
	add	r9, r0, #11141120
	movt	r8, 169
	mov	r4, #0
	add	r9, r9, #8192
	add	r8, r0, r8
	mov	r6, r4
.L150:
	ldr	r5, [r8, #4]!
	add	r6, r6, #1
	cmp	r5, #0
	mov	r0, r5
	beq	.L149
	bl	MVC_ShortTermRefFlg
	cmp	r0, #0
	beq	.L149
	ldr	r2, [r9, #2192]
	ldr	r1, [r5, #56]
	cmp	r1, r2
	movweq	r2, #28210
	movteq	r2, 42
	addeq	r2, r4, r2
	addeq	r4, r4, #1
	streq	r5, [r7, r2, asl #2]
.L149:
	cmp	r6, r10
	bne	.L150
	ldr	r3, [fp, #-48]
	cmp	r4, r10
	str	r4, [r3, #2384]
	bcs	.L147
	movw	r0, #28209
	mov	r2, #0
	movt	r0, 42
	add	r0, r4, r0
	add	r0, r7, r0, lsl #2
.L153:
	add	r4, r4, #1
	str	r2, [r0, #4]!
	cmp	r4, r10
	bne	.L153
.L147:
	sub	sp, fp, #40
	ldmfd	sp, {r4, r5, r6, r7, r8, r9, r10, fp, sp, pc}
.L148:
	ldr	r3, [fp, #-48]
	str	r10, [r3, #2384]
	b	.L147
	UNWIND(.fnend)
	.size	MVC_UpdateReflist, .-MVC_UpdateReflist
	.align	2
	.global	MVC_GetPicNumX
	.type	MVC_GetPicNumX, %function
MVC_GetPicNumX:
	UNWIND(.fnstart)
	@ args = 0, pretend = 0, frame = 0
	@ frame_needed = 1, uses_anonymous_args = 0
	UNWIND(.movsp ip)
	mov	ip, sp
	stmfd	sp!, {fp, ip, lr, pc}
	UNWIND(.pad #4)
	UNWIND(.save {fp, ip, lr})
	UNWIND(.setfp fp, ip, #-4)
	sub	fp, ip, #4
	ldrb	r3, [r0, #3]	@ zero_extendqisi2
	cmp	r3, #0
	ldr	r3, [r0, #528]
	mvn	r0, r1
	movne	r3, r3, asl #1
	addne	r3, r3, #1
	add	r0, r0, r3
	ldmfd	sp, {fp, sp, pc}
	UNWIND(.fnend)
	.size	MVC_GetPicNumX, .-MVC_GetPicNumX
	.align	2
	.global	MVC_UnMarkFrameStoreRef
	.type	MVC_UnMarkFrameStoreRef, %function
MVC_UnMarkFrameStoreRef:
	UNWIND(.fnstart)
	@ args = 0, pretend = 0, frame = 0
	@ frame_needed = 1, uses_anonymous_args = 0
	UNWIND(.movsp ip)
	mov	ip, sp
	stmfd	sp!, {fp, ip, lr, pc}
	UNWIND(.pad #4)
	UNWIND(.save {fp, ip, lr})
	UNWIND(.setfp fp, ip, #-4)
	sub	fp, ip, #4
	ldrb	r2, [r1, #2]	@ zero_extendqisi2
	mov	r3, r1
	tst	r2, #1
	beq	.L167
	ldrb	r1, [r1, #3]	@ zero_extendqisi2
	mov	ip, #0
	strb	ip, [r3, #613]
	and	r1, r1, #2
	strb	ip, [r3, #614]
	strb	r1, [r3, #3]
.L167:
	tst	r2, #2
	beq	.L168
	ldrb	r1, [r3, #3]	@ zero_extendqisi2
	mov	ip, #0
	strb	ip, [r3, #649]
	and	r1, r1, #1
	strb	ip, [r3, #650]
	strb	r1, [r3, #3]
.L168:
	cmp	r2, #3
	ldrsb	r1, [r3, #6]
	moveq	r2, #0
	streqb	r2, [r3, #578]
	streqb	r2, [r3, #577]
	mov	r2, #0
	strb	r2, [r3, #3]
	ldr	r0, [r0, #120]
	sub	sp, fp, #12
	ldmia	sp, {fp, sp, lr}
	b	FSP_SetRef
	UNWIND(.fnend)
	.size	MVC_UnMarkFrameStoreRef, .-MVC_UnMarkFrameStoreRef
	.align	2
	.global	MVC_UnMarkLTFrmByFrmIdx
	.type	MVC_UnMarkLTFrmByFrmIdx, %function
MVC_UnMarkLTFrmByFrmIdx:
	UNWIND(.fnstart)
	@ args = 0, pretend = 0, frame = 0
	@ frame_needed = 1, uses_anonymous_args = 0
	UNWIND(.movsp ip)
	mov	ip, sp
	stmfd	sp!, {r4, r5, r6, fp, ip, lr, pc}
	UNWIND(.pad #4)
	UNWIND(.save {r4, r5, r6, fp, ip, lr})
	UNWIND(.setfp fp, ip, #-4)
	sub	fp, ip, #4
	add	r3, r0, #11075584
	add	r3, r3, #45056
	ldr	r4, [r3, #2388]
	cmp	r4, #0
	ldmeqfd	sp, {r4, r5, r6, fp, sp, pc}
	movw	ip, #47364
	add	r6, r0, #11141120
	movt	ip, 169
	add	r6, r6, #8192
	add	ip, r0, ip
	mov	r3, #0
	b	.L179
.L178:
	cmp	r3, r4
	beq	.L184
.L179:
	ldr	r2, [ip, #4]!
	add	r3, r3, #1
	ldr	lr, [r2, #28]
	cmp	lr, r1
	bne	.L178
	ldr	r5, [r2, #56]
	ldr	lr, [r6, #2192]
	cmp	r5, lr
	bne	.L178
	mov	r1, r2
	sub	sp, fp, #24
	ldmfd	sp, {r4, r5, r6, fp, sp, lr}
	b	MVC_UnMarkFrameStoreRef
.L184:
	ldmfd	sp, {r4, r5, r6, fp, sp, pc}
	UNWIND(.fnend)
	.size	MVC_UnMarkLTFrmByFrmIdx, .-MVC_UnMarkLTFrmByFrmIdx
	.align	2
	.global	MVC_UnMarkLTFldByFrmIdx
	.type	MVC_UnMarkLTFldByFrmIdx, %function
MVC_UnMarkLTFldByFrmIdx:
	UNWIND(.fnstart)
	@ args = 0, pretend = 0, frame = 0
	@ frame_needed = 1, uses_anonymous_args = 0
	UNWIND(.movsp ip)
	mov	ip, sp
	stmfd	sp!, {r4, r5, r6, r7, r8, fp, ip, lr, pc}
	UNWIND(.pad #4)
	UNWIND(.save {r4, r5, r6, r7, r8, fp, ip, lr})
	UNWIND(.setfp fp, ip, #-4)
	sub	fp, ip, #4
	add	ip, r0, #11075584
	add	ip, ip, #45056
	ldr	r6, [ip, #2388]
	cmp	r6, #0
	ldmeqfd	sp, {r4, r5, r6, r7, r8, fp, sp, pc}
	movw	r4, #47364
	add	r8, r0, #11141120
	movt	r4, 169
	add	r8, r8, #8192
	add	r4, r0, r4
	mov	ip, #0
	b	.L189
.L187:
	cmp	ip, r6
	beq	.L203
.L189:
	ldr	lr, [r4, #4]!
	add	ip, ip, #1
	ldr	r5, [lr, #28]
	cmp	r5, r3
	bne	.L187
	ldr	r7, [lr, #56]
	ldr	r5, [r8, #2192]
	cmp	r7, r5
	bne	.L187
	cmp	r2, #1
	ldreqb	r5, [lr, #649]	@ zero_extendqisi2
	beq	.L202
	cmp	r2, #2
	bne	.L187
	ldrb	r5, [lr, #613]	@ zero_extendqisi2
.L202:
	clz	r5, r5
	mov	r5, r5, lsr #5
	cmp	lr, r1
	orrne	r5, r5, #1
	cmp	r5, #0
	beq	.L187
	mov	r1, lr
	sub	sp, fp, #32
	ldmfd	sp, {r4, r5, r6, r7, r8, fp, sp, lr}
	b	MVC_UnMarkFrameStoreRef
.L203:
	ldmfd	sp, {r4, r5, r6, r7, r8, fp, sp, pc}
	UNWIND(.fnend)
	.size	MVC_UnMarkLTFldByFrmIdx, .-MVC_UnMarkLTFldByFrmIdx
	.align	2
	.global	MVC_UnMarkSTRef
	.type	MVC_UnMarkSTRef, %function
MVC_UnMarkSTRef:
	UNWIND(.fnstart)
	@ args = 0, pretend = 0, frame = 0
	@ frame_needed = 1, uses_anonymous_args = 0
	UNWIND(.movsp ip)
	mov	ip, sp
	stmfd	sp!, {r4, r5, r6, r7, r8, fp, ip, lr, pc}
	UNWIND(.pad #4)
	UNWIND(.save {r4, r5, r6, r7, r8, fp, ip, lr})
	UNWIND(.setfp fp, ip, #-4)
	sub	fp, ip, #4
	ldrb	r3, [r1, #3]	@ zero_extendqisi2
	cmp	r3, #0
	bne	.L205
	add	ip, r0, #11075584
	ldr	r1, [r1, #528]
	add	ip, ip, #45056
	sub	r1, r1, #1
	ldr	r4, [ip, #2384]
	rsb	r2, r2, r1
	cmp	r4, #0
	beq	.L234
	movw	ip, #47300
	add	r5, r0, #11141120
	movt	ip, 169
	add	r5, r5, #8192
	add	ip, r0, ip
	b	.L211
.L210:
	cmp	r3, r4
	beq	.L235
.L211:
	ldr	r1, [ip, #4]!
	add	r3, r3, #1
	ldr	lr, [r1, #588]
	cmp	lr, r2
	bne	.L210
	ldrb	lr, [r1, #3]	@ zero_extendqisi2
	cmp	lr, #3
	bne	.L210
	ldr	lr, [r1, #576]
	bic	lr, lr, #-16777216
	bic	lr, lr, #255
	cmp	lr, #65536
	bne	.L210
	ldr	r6, [r1, #56]
	ldr	lr, [r5, #2192]
	cmp	r6, lr
	bne	.L210
	sub	sp, fp, #32
	ldmfd	sp, {r4, r5, r6, r7, r8, fp, sp, lr}
	b	MVC_UnMarkFrameStoreRef
.L205:
	add	r3, r0, #11075584
	ldr	r1, [r1, #528]
	add	r3, r3, #45056
	ldr	r5, [r3, #2384]
	rsb	r2, r2, r1, lsl #1
	cmp	r5, #0
	beq	.L236
	movw	r4, #47300
	add	r7, r0, #11141120
	movt	r4, 169
	add	r7, r7, #8192
	add	r4, r0, r4
	mov	ip, #0
	b	.L216
.L212:
	tst	r3, #2
	beq	.L214
	ldr	r3, [r1, #648]
	bic	r3, r3, #-16777216
	bic	r3, r3, #255
	cmp	r3, #65536
	beq	.L237
.L214:
	add	ip, ip, #1
	cmp	ip, r5
	beq	.L238
.L216:
	ldr	r1, [r4, #4]!
	ldrb	r3, [r1, #3]	@ zero_extendqisi2
	ands	r6, r3, #1
	beq	.L212
	ldr	lr, [r1, #612]
	bic	lr, lr, #-16777216
	bic	lr, lr, #255
	cmp	lr, #65536
	bne	.L212
	ldr	r8, [r1, #56]
	ldr	lr, [r7, #2192]
	cmp	r8, lr
	bne	.L212
	ldr	lr, [r1, #624]
	cmp	lr, r2
	bne	.L212
	add	r2, r0, ip, lsl #2
	and	r3, r3, #2
	add	r2, r2, #11075584
	strb	r3, [r1, #3]
	add	r2, r2, #45056
	mov	r1, #0
	ldr	r3, [r2, #2248]
	strb	r1, [r3, #614]
	ldr	r3, [r2, #2248]
	ldrb	ip, [r3, #576]	@ zero_extendqisi2
	cmp	ip, #3
	cmpne	ip, r1
	streqb	r1, [r3, #578]
	ldreq	r3, [r2, #2248]
	streqb	r1, [r3, #577]
	ldreq	r3, [r2, #2248]
	ldrb	ip, [r3, #3]	@ zero_extendqisi2
	cmp	ip, #0
	ldmnefd	sp, {r4, r5, r6, r7, r8, fp, sp, pc}
	ldr	r1, [r3, #48]
	mov	r2, ip
	add	r1, r0, r1, lsl #2
	str	ip, [r1, #148]
	ldrsb	r1, [r3, #6]
	b	.L231
.L237:
	ldr	lr, [r1, #56]
	ldr	r3, [r7, #2192]
	cmp	lr, r3
	bne	.L214
	ldr	r3, [r1, #660]
	cmp	r3, r2
	bne	.L214
	add	r3, r0, ip, lsl #2
	strb	r6, [r1, #3]
	add	r3, r3, #11075584
	mov	r2, #0
	add	r3, r3, #45056
	ldr	r1, [r3, #2248]
	strb	r2, [r1, #650]
	ldr	r1, [r3, #2248]
	ldrb	ip, [r1, #576]	@ zero_extendqisi2
	cmp	ip, #3
	cmpne	ip, r2
	streqb	r2, [r1, #578]
	ldreq	r1, [r3, #2248]
	streqb	r2, [r1, #577]
	ldreq	r1, [r3, #2248]
	ldrb	ip, [r1, #3]	@ zero_extendqisi2
	cmp	ip, #0
	ldmnefd	sp, {r4, r5, r6, r7, r8, fp, sp, pc}
	ldr	r3, [r1, #48]
	mov	r2, ip
	add	r3, r0, r3, lsl #2
	str	ip, [r3, #148]
	ldrsb	r1, [r1, #6]
.L231:
	ldr	r0, [r0, #120]
	sub	sp, fp, #32
	ldmfd	sp, {r4, r5, r6, r7, r8, fp, sp, lr}
	b	FSP_SetRef
.L238:
	ldmfd	sp, {r4, r5, r6, r7, r8, fp, sp, pc}
.L235:
	ldmfd	sp, {r4, r5, r6, r7, r8, fp, sp, pc}
.L234:
	ldmfd	sp, {r4, r5, r6, r7, r8, fp, sp, pc}
.L236:
	ldmfd	sp, {r4, r5, r6, r7, r8, fp, sp, pc}
	UNWIND(.fnend)
	.size	MVC_UnMarkSTRef, .-MVC_UnMarkSTRef
	.align	2
	.global	MVC_UnMarkLTRef
	.type	MVC_UnMarkLTRef, %function
MVC_UnMarkLTRef:
	UNWIND(.fnstart)
	@ args = 0, pretend = 0, frame = 0
	@ frame_needed = 1, uses_anonymous_args = 0
	UNWIND(.movsp ip)
	mov	ip, sp
	stmfd	sp!, {r4, r5, r6, r7, r8, fp, ip, lr, pc}
	UNWIND(.pad #4)
	UNWIND(.save {r4, r5, r6, r7, r8, fp, ip, lr})
	UNWIND(.setfp fp, ip, #-4)
	sub	fp, ip, #4
	ldrb	r3, [r1, #3]	@ zero_extendqisi2
	cmp	r3, #0
	beq	.L240
	add	r3, r0, #11075584
	add	r3, r3, #45056
	ldr	r5, [r3, #2388]
	cmp	r5, #0
	beq	.L269
	movw	r4, #47364
	add	r7, r0, #11141120
	movt	r4, 169
	add	r7, r7, #8192
	add	r4, r0, r4
	mov	ip, #0
	b	.L249
.L245:
	tst	r3, #2
	beq	.L247
	ldr	r3, [r1, #648]
	bic	r3, r3, #-16777216
	bic	r3, r3, #255
	cmp	r3, #256
	beq	.L270
.L247:
	add	ip, ip, #1
	cmp	ip, r5
	beq	.L271
.L249:
	ldr	r1, [r4, #4]!
	ldrb	r3, [r1, #3]	@ zero_extendqisi2
	ands	r6, r3, #1
	beq	.L245
	ldr	lr, [r1, #612]
	bic	lr, lr, #-16777216
	bic	lr, lr, #255
	cmp	lr, #256
	bne	.L245
	ldr	r8, [r1, #56]
	ldr	lr, [r7, #2192]
	cmp	r8, lr
	bne	.L245
	ldr	lr, [r1, #620]
	cmp	r2, lr
	bne	.L245
	add	r2, r0, ip, lsl #2
	and	r3, r3, #2
	add	r2, r2, #11075584
	strb	r3, [r1, #3]
	add	r2, r2, #45056
	mov	r1, #0
	ldr	r3, [r2, #2312]
	strb	r1, [r3, #613]
	ldr	r3, [r2, #2312]
	ldrb	ip, [r3, #576]	@ zero_extendqisi2
	cmp	ip, #3
	cmpne	ip, r1
	streqb	r1, [r3, #578]
	ldreq	r3, [r2, #2312]
	streqb	r1, [r3, #577]
	ldreq	r3, [r2, #2312]
	ldrb	ip, [r3, #3]	@ zero_extendqisi2
	cmp	ip, #0
	ldmnefd	sp, {r4, r5, r6, r7, r8, fp, sp, pc}
	ldr	r1, [r3, #48]
	mov	r2, ip
	add	r1, r0, r1, lsl #2
	str	ip, [r1, #148]
	ldrsb	r1, [r3, #6]
	b	.L266
.L240:
	add	r1, r0, #11075584
	add	r1, r1, #45056
	ldr	r4, [r1, #2388]
	cmp	r4, #0
	beq	.L272
	movw	ip, #47364
	add	r5, r0, #11141120
	movt	ip, 169
	add	r5, r5, #8192
	add	ip, r0, ip
	b	.L251
.L250:
	cmp	r3, r4
	beq	.L273
.L251:
	ldr	r1, [ip, #4]!
	add	r3, r3, #1
	ldr	lr, [r1, #584]
	cmp	lr, r2
	bne	.L250
	ldrb	lr, [r1, #3]	@ zero_extendqisi2
	cmp	lr, #3
	bne	.L250
	ldr	lr, [r1, #576]
	bic	lr, lr, #-16777216
	bic	lr, lr, #255
	cmp	lr, #256
	bne	.L250
	ldr	r6, [r1, #56]
	ldr	lr, [r5, #2192]
	cmp	r6, lr
	bne	.L250
	sub	sp, fp, #32
	ldmfd	sp, {r4, r5, r6, r7, r8, fp, sp, lr}
	b	MVC_UnMarkFrameStoreRef
.L270:
	ldr	lr, [r1, #56]
	ldr	r3, [r7, #2192]
	cmp	lr, r3
	bne	.L247
	ldr	r3, [r1, #656]
	cmp	r2, r3
	bne	.L247
	add	r3, r0, ip, lsl #2
	strb	r6, [r1, #3]
	add	r3, r3, #11075584
	mov	r2, #0
	add	r3, r3, #45056
	ldr	r1, [r3, #2312]
	strb	r2, [r1, #649]
	ldr	r1, [r3, #2312]
	ldrb	ip, [r1, #576]	@ zero_extendqisi2
	cmp	ip, #3
	cmpne	ip, r2
	streqb	r2, [r1, #578]
	ldreq	r1, [r3, #2312]
	streqb	r2, [r1, #577]
	ldreq	r1, [r3, #2312]
	ldrb	ip, [r1, #3]	@ zero_extendqisi2
	cmp	ip, #0
	ldmnefd	sp, {r4, r5, r6, r7, r8, fp, sp, pc}
	ldr	r3, [r1, #48]
	mov	r2, ip
	add	r3, r0, r3, lsl #2
	str	ip, [r3, #148]
	ldrsb	r1, [r1, #6]
.L266:
	ldr	r0, [r0, #120]
	sub	sp, fp, #32
	ldmfd	sp, {r4, r5, r6, r7, r8, fp, sp, lr}
	b	FSP_SetRef
.L273:
	ldmfd	sp, {r4, r5, r6, r7, r8, fp, sp, pc}
.L271:
	ldmfd	sp, {r4, r5, r6, r7, r8, fp, sp, pc}
.L272:
	ldmfd	sp, {r4, r5, r6, r7, r8, fp, sp, pc}
.L269:
	ldmfd	sp, {r4, r5, r6, r7, r8, fp, sp, pc}
	UNWIND(.fnend)
	.size	MVC_UnMarkLTRef, .-MVC_UnMarkLTRef
	.align	2
	.global	MVC_MarkPicLTRef
	.type	MVC_MarkPicLTRef, %function
MVC_MarkPicLTRef:
	UNWIND(.fnstart)
	@ args = 0, pretend = 0, frame = 0
	@ frame_needed = 1, uses_anonymous_args = 0
	UNWIND(.movsp ip)
	mov	ip, sp
	stmfd	sp!, {r4, r5, r6, r7, r8, r9, fp, ip, lr, pc}
	UNWIND(.pad #4)
	UNWIND(.save {r4, r5, r6, r7, r8, r9, fp, ip, lr})
	UNWIND(.setfp fp, ip, #-4)
	sub	fp, ip, #4
	ldrb	r6, [r3, #3]	@ zero_extendqisi2
	add	r3, r0, #11075584
	add	r3, r3, #45056
	cmp	r6, #0
	beq	.L275
	ldr	r7, [r3, #2384]
	cmp	r7, #0
	beq	.L304
	movw	r5, #47300
	add	r8, r0, #11141120
	movt	r5, 169
	add	r8, r8, #8192
	add	r5, r0, r5
	mov	ip, #0
	b	.L289
.L281:
	tst	r4, #2
	beq	.L284
	ldr	lr, [r3, #648]
	bic	lr, lr, #-16777216
	bic	lr, lr, #255
	cmp	lr, #65536
	beq	.L305
.L284:
	add	ip, ip, #1
	cmp	ip, r7
	beq	.L306
.L289:
	ldr	r3, [r5, #4]!
	ldrb	r4, [r3, #3]	@ zero_extendqisi2
	tst	r4, #1
	beq	.L281
	ldr	lr, [r3, #612]
	bic	lr, lr, #-16777216
	bic	lr, lr, #255
	cmp	lr, #65536
	bne	.L281
	ldr	lr, [r3, #624]
	cmp	lr, r2
	bne	.L281
	ldr	r9, [r3, #56]
	ldr	lr, [r8, #2192]
	cmp	r9, lr
	bne	.L281
	ldrb	lr, [r3, #649]	@ zero_extendqisi2
	cmp	lr, #1
	bne	.L285
	ldr	lr, [r3, #28]
	cmp	lr, r1
	bne	.L284
.L285:
	add	r0, r0, ip, lsl #2
	str	r1, [r3, #28]
	add	r3, r0, #11075584
	sub	r6, r6, #1
	add	r3, r3, #45056
	clz	r6, r6
	mov	ip, #1
	mov	r0, #0
	ldr	r2, [r3, #2248]
	mov	r6, r6, lsr #5
	add	r1, r6, r1, lsl #1
	str	r1, [r2, #620]
	ldr	r2, [r3, #2248]
	strb	ip, [r2, #613]
	ldr	r2, [r3, #2248]
	strb	r0, [r2, #614]
	ldr	r2, [r3, #2248]
	ldrb	r1, [r2, #576]	@ zero_extendqisi2
	cmp	r1, #3
	cmpne	r1, r0
	bne	.L307
	ldrb	r1, [r2, #649]	@ zero_extendqisi2
	ldrb	r0, [r2, #613]	@ zero_extendqisi2
	cmp	r1, r0
	streqb	r1, [r2, #577]
	ldreq	r3, [r3, #2248]
	ldreqb	r2, [r3, #614]	@ zero_extendqisi2
	streqb	r2, [r3, #578]
	ldmfd	sp, {r4, r5, r6, r7, r8, r9, fp, sp, pc}
.L275:
	ldr	r4, [r3, #2384]
	cmp	r4, #0
	ldmeqfd	sp, {r4, r5, r6, r7, r8, r9, fp, sp, pc}
	movw	ip, #47300
	add	r5, r0, #11141120
	movt	ip, 169
	add	r5, r5, #8192
	add	ip, r0, ip
	b	.L280
.L279:
	add	r6, r6, #1
	cmp	r6, r4
	beq	.L308
.L280:
	ldr	r3, [ip, #4]!
	ldrb	lr, [r3, #3]	@ zero_extendqisi2
	cmp	lr, #3
	bne	.L279
	ldr	lr, [r3, #576]
	bic	lr, lr, #-16777216
	bic	lr, lr, #255
	cmp	lr, #65536
	bne	.L279
	ldr	lr, [r3, #588]
	cmp	lr, r2
	bne	.L279
	ldr	r7, [r3, #56]
	ldr	lr, [r5, #2192]
	cmp	r7, lr
	bne	.L279
	add	r6, r0, r6, lsl #2
	str	r1, [r3, #28]
	add	r3, r6, #11075584
	mov	r0, #1
	add	r3, r3, #45056
	mov	r2, #0
	ldr	ip, [r3, #2248]
	str	r1, [ip, #584]
	ldr	r1, [r3, #2248]
	strb	r0, [r1, #577]
	ldr	r1, [r3, #2248]
	strb	r0, [r1, #613]
	ldr	r1, [r3, #2248]
	strb	r0, [r1, #649]
	ldr	r1, [r3, #2248]
	strb	r2, [r1, #578]
	ldr	r1, [r3, #2248]
	strb	r2, [r1, #614]
	ldr	r3, [r3, #2248]
	strb	r2, [r3, #650]
	ldmfd	sp, {r4, r5, r6, r7, r8, r9, fp, sp, pc}
.L305:
	ldr	lr, [r3, #660]
	cmp	lr, r2
	bne	.L284
	ldr	r4, [r3, #56]
	ldr	lr, [r8, #2192]
	cmp	r4, lr
	bne	.L284
	ldrb	lr, [r3, #613]	@ zero_extendqisi2
	cmp	lr, #1
	bne	.L288
	ldr	lr, [r3, #28]
	cmp	lr, r1
	bne	.L284
.L288:
	add	r0, r0, ip, lsl #2
	str	r1, [r3, #28]
	add	r3, r0, #11075584
	sub	r6, r6, #2
	add	r3, r3, #45056
	clz	r6, r6
	mov	ip, #1
	mov	r0, #0
	ldr	r2, [r3, #2248]
	mov	r6, r6, lsr #5
	add	r1, r6, r1, lsl #1
	str	r1, [r2, #656]
	ldr	r2, [r3, #2248]
	strb	ip, [r2, #649]
	ldr	r2, [r3, #2248]
	strb	r0, [r2, #650]
	ldr	r2, [r3, #2248]
	ldrb	r1, [r2, #576]	@ zero_extendqisi2
	cmp	r1, #3
	cmpne	r1, r0
	bne	.L309
	ldrb	r1, [r2, #649]	@ zero_extendqisi2
	ldrb	r0, [r2, #613]	@ zero_extendqisi2
	cmp	r1, r0
	streqb	r1, [r2, #577]
	ldreq	r3, [r3, #2248]
	ldreqb	r2, [r3, #650]	@ zero_extendqisi2
	streqb	r2, [r3, #578]
	ldmfd	sp, {r4, r5, r6, r7, r8, r9, fp, sp, pc}
.L306:
	ldmfd	sp, {r4, r5, r6, r7, r8, r9, fp, sp, pc}
.L308:
	ldmfd	sp, {r4, r5, r6, r7, r8, r9, fp, sp, pc}
.L307:
	ldmfd	sp, {r4, r5, r6, r7, r8, r9, fp, sp, pc}
.L309:
	ldmfd	sp, {r4, r5, r6, r7, r8, r9, fp, sp, pc}
.L304:
	ldmfd	sp, {r4, r5, r6, r7, r8, r9, fp, sp, pc}
	UNWIND(.fnend)
	.size	MVC_MarkPicLTRef, .-MVC_MarkPicLTRef
	.align	2
	.global	MVC_MarkSTToLTRef
	.type	MVC_MarkSTToLTRef, %function
MVC_MarkSTToLTRef:
	UNWIND(.fnstart)
	@ args = 0, pretend = 0, frame = 0
	@ frame_needed = 1, uses_anonymous_args = 0
	UNWIND(.movsp ip)
	mov	ip, sp
	stmfd	sp!, {r4, r5, r6, r7, r8, r9, fp, ip, lr, pc}
	UNWIND(.pad #4)
	UNWIND(.save {r4, r5, r6, r7, r8, r9, fp, ip, lr})
	UNWIND(.setfp fp, ip, #-4)
	sub	fp, ip, #4
	mov	r6, r1
	ldrb	r1, [r1, #3]	@ zero_extendqisi2
	mov	r8, r3
	mov	r7, r0
	cmp	r1, #0
	bne	.L311
	ldr	r5, [r6, #528]
	mov	r1, r3
	sub	r5, r5, #1
	rsb	r5, r2, r5
	bl	MVC_UnMarkLTFrmByFrmIdx
.L312:
	mov	r3, r6
	mov	r2, r5
	mov	r1, r8
	mov	r0, r7
	sub	sp, fp, #36
	ldmfd	sp, {r4, r5, r6, r7, r8, r9, fp, sp, lr}
	b	MVC_MarkPicLTRef
.L311:
	add	r3, r0, #11075584
	ldr	r5, [r6, #528]
	add	r3, r3, #45056
	ldr	r1, [r3, #2384]
	rsb	r5, r2, r5, lsl #1
	cmp	r1, #0
	beq	.L312
	movw	r2, #47300
	add	r0, r0, #11141120
	movt	r2, 169
	add	r0, r0, #8192
	add	r2, r7, r2
	mov	lr, #0
	b	.L315
.L313:
	tst	r3, #2
	beq	.L314
	ldr	r3, [ip, #648]
	bic	r3, r3, #-16777216
	bic	r3, r3, #255
	cmp	r3, #65536
	beq	.L326
.L314:
	cmp	lr, r1
	beq	.L312
.L315:
	ldr	ip, [r2, #4]!
	add	lr, lr, #1
	ldrb	r3, [ip, #3]	@ zero_extendqisi2
	tst	r3, #1
	beq	.L313
	ldr	r4, [ip, #612]
	bic	r4, r4, #-16777216
	bic	r4, r4, #255
	cmp	r4, #65536
	bne	.L313
	ldr	r4, [ip, #624]
	cmp	r4, r5
	bne	.L313
	ldr	r9, [ip, #56]
	ldr	r4, [r0, #2192]
	cmp	r9, r4
	bne	.L313
	mov	r1, ip
	mov	r3, r8
	mov	r2, #1
	mov	r0, r7
	bl	MVC_UnMarkLTFldByFrmIdx
	b	.L312
.L326:
	ldr	r3, [ip, #660]
	cmp	r3, r5
	bne	.L314
	ldr	r4, [ip, #56]
	ldr	r3, [r0, #2192]
	cmp	r4, r3
	bne	.L314
	mov	r1, ip
	mov	r3, r8
	mov	r2, #2
	mov	r0, r7
	bl	MVC_UnMarkLTFldByFrmIdx
	b	.L312
	UNWIND(.fnend)
	.size	MVC_MarkSTToLTRef, .-MVC_MarkSTToLTRef
	.align	2
	.global	MVC_UpdateMaxLTFrmIdx
	.type	MVC_UpdateMaxLTFrmIdx, %function
MVC_UpdateMaxLTFrmIdx:
	UNWIND(.fnstart)
	@ args = 0, pretend = 0, frame = 0
	@ frame_needed = 1, uses_anonymous_args = 0
	UNWIND(.movsp ip)
	mov	ip, sp
	stmfd	sp!, {r4, r5, r6, r7, r8, r9, fp, ip, lr, pc}
	UNWIND(.pad #4)
	UNWIND(.save {r4, r5, r6, r7, r8, r9, fp, ip, lr})
	UNWIND(.setfp fp, ip, #-4)
	sub	fp, ip, #4
	add	r5, r0, #11075584
	mov	r8, r0
	add	r5, r5, #45056
	ldr	r3, [r5, #2388]
	str	r1, [r5, #2392]
	cmp	r3, #0
	ldmeqfd	sp, {r4, r5, r6, r7, r8, r9, fp, sp, pc}
	movw	r6, #47364
	add	r7, r0, #11141120
	movt	r6, 169
	add	r7, r7, #8192
	add	r6, r0, r6
	mov	r3, r1
	mov	r4, #0
	b	.L331
.L329:
	ldr	r3, [r5, #2388]
	cmp	r3, r4
	ldmlsfd	sp, {r4, r5, r6, r7, r8, r9, fp, sp, pc}
	ldr	r3, [r5, #2392]
.L331:
	ldr	r1, [r6, #4]!
	add	r4, r4, #1
	ldr	r2, [r1, #28]
	cmp	r2, r3
	bcc	.L329
	ldr	r2, [r1, #56]
	ldr	r3, [r7, #2192]
	cmp	r2, r3
	bne	.L329
	mov	r0, r8
	bl	MVC_UnMarkFrameStoreRef
	b	.L329
	UNWIND(.fnend)
	.size	MVC_UpdateMaxLTFrmIdx, .-MVC_UpdateMaxLTFrmIdx
	.align	2
	.global	MVC_UnMarkAllSTRef
	.type	MVC_UnMarkAllSTRef, %function
MVC_UnMarkAllSTRef:
	UNWIND(.fnstart)
	@ args = 0, pretend = 0, frame = 0
	@ frame_needed = 1, uses_anonymous_args = 0
	UNWIND(.movsp ip)
	mov	ip, sp
	stmfd	sp!, {r4, r5, r6, r7, r8, r9, fp, ip, lr, pc}
	UNWIND(.pad #4)
	UNWIND(.save {r4, r5, r6, r7, r8, r9, fp, ip, lr})
	UNWIND(.setfp fp, ip, #-4)
	sub	fp, ip, #4
	add	r6, r0, #11075584
	mov	r8, r0
	add	r6, r6, #45056
	ldr	r3, [r6, #2384]
	cmp	r3, #0
	ldmeqfd	sp, {r4, r5, r6, r7, r8, r9, fp, sp, pc}
	movw	r5, #47300
	add	r7, r0, #11141120
	movt	r5, 169
	add	r7, r7, #8192
	add	r5, r0, r5
	mov	r4, #0
	b	.L335
.L334:
	ldr	r3, [r6, #2384]
	cmp	r3, r4
	bls	.L338
.L335:
	ldr	r1, [r5, #4]!
	add	r4, r4, #1
	ldr	r3, [r7, #2192]
	ldr	r2, [r1, #56]
	cmp	r2, r3
	bne	.L334
	mov	r0, r8
	bl	MVC_UnMarkFrameStoreRef
	ldr	r3, [r6, #2384]
	cmp	r3, r4
	bhi	.L335
.L338:
	ldmfd	sp, {r4, r5, r6, r7, r8, r9, fp, sp, pc}
	UNWIND(.fnend)
	.size	MVC_UnMarkAllSTRef, .-MVC_UnMarkAllSTRef
	.align	2
	.global	MVC_MarkCurrPicLT
	.type	MVC_MarkCurrPicLT, %function
MVC_MarkCurrPicLT:
	UNWIND(.fnstart)
	@ args = 0, pretend = 0, frame = 0
	@ frame_needed = 1, uses_anonymous_args = 0
	UNWIND(.movsp ip)
	mov	ip, sp
	stmfd	sp!, {r4, r5, fp, ip, lr, pc}
	UNWIND(.pad #4)
	UNWIND(.save {r4, r5, fp, ip, lr})
	UNWIND(.setfp fp, ip, #-4)
	sub	fp, ip, #4
	mov	r5, r2
	ldrb	r2, [r1, #3]	@ zero_extendqisi2
	mov	r4, r1
	cmp	r2, #0
	beq	.L342
	mov	r3, r5
	ldr	r1, [r1, #520]
	bl	MVC_UnMarkLTFldByFrmIdx
.L341:
	mov	r2, #1
	mov	r3, #0
	str	r5, [r4, #532]
	strb	r2, [r4, #4]
	strb	r3, [r4, #5]
	ldmfd	sp, {r4, r5, fp, sp, pc}
.L342:
	mov	r1, r5
	bl	MVC_UnMarkLTFrmByFrmIdx
	b	.L341
	UNWIND(.fnend)
	.size	MVC_MarkCurrPicLT, .-MVC_MarkCurrPicLT
	.align	2
	.global	MVC_RemoveFrameStoreOutDPB
	.type	MVC_RemoveFrameStoreOutDPB, %function
MVC_RemoveFrameStoreOutDPB:
	UNWIND(.fnstart)
	@ args = 0, pretend = 0, frame = 0
	@ frame_needed = 1, uses_anonymous_args = 0
	UNWIND(.movsp ip)
	mov	ip, sp
	stmfd	sp!, {r4, r5, r6, r7, fp, ip, lr, pc}
	UNWIND(.pad #4)
	UNWIND(.save {r4, r5, r6, r7, fp, ip, lr})
	UNWIND(.setfp fp, ip, #-4)
	sub	fp, ip, #4
	add	r1, r0, r1, lsl #2
	mov	r5, r0
	add	r4, r1, #11075584
	add	r7, r4, #45056
	ldr	r2, [r7, #2184]
	cmp	r2, #0
	ldmeqfd	sp, {r4, r5, r6, r7, fp, sp, pc}
	ldr	r1, [r2, #52]
	movw	r3, #47448
	add	r6, r0, #11075584
	movt	r3, 169
	add	r1, r0, r1
	add	r0, r6, #45056
	add	r3, r1, r3
	mov	r1, #0
	strb	r1, [r3, #4]
	ldr	r3, [r0, #2608]
	cmp	r3, r1
	subne	r3, r3, #1
	str	r3, [r0, #2608]
	ldrsb	r1, [r2, #6]
	ldr	r0, [r5, #120]
	bl	FSP_GetLogicFs
	cmp	r0, #0
	beq	.L346
	ldrsb	r3, [r0, #1]
	cmp	r3, #3
	beq	.L347
	ldr	r3, [r7, #2184]
	mov	r2, #0
	ldr	r0, [r5, #120]
	ldrsb	r1, [r3, #6]
	bl	FSP_SetDisplay
.L347:
	ldr	r3, [r7, #2184]
	mov	r2, #0
	ldr	r0, [r5, #120]
	ldrsb	r1, [r3, #6]
	bl	FSP_SetRef
.L346:
	add	r1, r4, #45056
	mov	r3, #0
	add	r6, r6, #45056
	ldr	r2, [r1, #2184]
	strb	r3, [r2, #2]
	ldr	r2, [r1, #2184]
	strb	r3, [r2, #5]
	ldr	r2, [r1, #2184]
	strb	r3, [r2, #3]
	str	r3, [r1, #2184]
	ldr	r3, [r6, #2380]
	sub	r3, r3, #1
	str	r3, [r6, #2380]
	ldmfd	sp, {r4, r5, r6, r7, fp, sp, pc}
	UNWIND(.fnend)
	.size	MVC_RemoveFrameStoreOutDPB, .-MVC_RemoveFrameStoreOutDPB
	.align	2
	.global	MVC_RemoveUnUsedFrameStore
	.type	MVC_RemoveUnUsedFrameStore, %function
MVC_RemoveUnUsedFrameStore:
	UNWIND(.fnstart)
	@ args = 0, pretend = 0, frame = 0
	@ frame_needed = 1, uses_anonymous_args = 0
	UNWIND(.movsp ip)
	mov	ip, sp
	stmfd	sp!, {r4, r5, r6, r7, r8, r9, fp, ip, lr, pc}
	UNWIND(.pad #4)
	UNWIND(.save {r4, r5, r6, r7, r8, r9, fp, ip, lr})
	UNWIND(.setfp fp, ip, #-4)
	sub	fp, ip, #4
	add	r3, r0, #11075584
	mov	r8, r0
	add	r3, r3, #45056
	mov	r7, r1
	ldr	r6, [r3, #2376]
	cmp	r6, #0
	beq	.L375
	movw	r5, #47236
	mov	r4, #0
	movt	r5, 169
	add	r5, r0, r5
.L363:
	ldr	r3, [r5, #4]!
	cmp	r3, #0
	beq	.L362
	ldrb	r2, [r3, #3]	@ zero_extendqisi2
	cmp	r2, #0
	bne	.L362
	ldrb	r2, [r3, #5]	@ zero_extendqisi2
	cmp	r2, #0
	bne	.L362
	ldr	r1, [r3, #56]
	cmn	r7, #1
	cmpne	r1, r7
	beq	.L376
.L362:
	add	r4, r4, #1
	cmp	r4, r6
	bne	.L363
.L375:
	mov	r0, #0
	ldmfd	sp, {r4, r5, r6, r7, r8, r9, fp, sp, pc}
.L376:
	ldr	ip, [r3, #16]
	mov	r1, r4
	mov	r0, r8
	cmp	ip, #1
	beq	.L362
	strb	r2, [r3, #2]
	bl	MVC_RemoveFrameStoreOutDPB
	b	.L362
	UNWIND(.fnend)
	.size	MVC_RemoveUnUsedFrameStore, .-MVC_RemoveUnUsedFrameStore
	.align	2
	.global	MVC_CheckFrameStore
	.type	MVC_CheckFrameStore, %function
MVC_CheckFrameStore:
	UNWIND(.fnstart)
	@ args = 0, pretend = 0, frame = 0
	@ frame_needed = 1, uses_anonymous_args = 0
	UNWIND(.movsp ip)
	mov	ip, sp
	stmfd	sp!, {r4, r5, fp, ip, lr, pc}
	UNWIND(.pad #4)
	UNWIND(.save {r4, r5, fp, ip, lr})
	UNWIND(.setfp fp, ip, #-4)
	sub	fp, ip, #4
	UNWIND(.pad #8)
	sub	sp, sp, #8
	ldrb	r3, [r0, #6]	@ zero_extendqisi2
	mov	r5, r0
	mov	r4, r1
	cmp	r3, #0
	bne	.L378
	ldrsb	r3, [r1, #8]
	cmp	r3, #1
	bne	.L390
	strb	r3, [r0, #6]
.L378:
	ldrsb	r1, [r4, #6]
	ldr	r0, [r5, #120]
	bl	FSP_GetLogicFs
	cmp	r0, #0
	beq	.L380
	ldrsb	r3, [r0, #1]
	cmp	r3, #3
	cmpne	r3, #0
	beq	.L400
	ldrb	r2, [r4, #2]	@ zero_extendqisi2
	ldrb	r3, [r4, #1]	@ zero_extendqisi2
	cmp	r2, #0
	beq	.L389
	cmp	r3, #1
	beq	.L389
	cmp	r2, #3
	beq	.L401
	cmp	r2, #1
	beq	.L402
	cmp	r2, #2
	beq	.L403
.L385:
	ldr	r3, [r5, #224]
	ldr	r2, [r0, #208]
	ldr	r3, [r3, #4]
	cmp	r2, r3
	movls	r0, #0
	bhi	.L404
.L398:
	sub	sp, fp, #20
	ldmfd	sp, {r4, r5, fp, sp, pc}
.L400:
	ldr	ip, .L405
	mov	r0, #1
	ldrsb	r2, [r4, #6]
	ldr	r1, .L405+4
	ldr	ip, [ip, #68]
	blx	ip
.L382:
	ldr	r3, [r4, #16]
	cmp	r3, #1
	mvnne	r0, #2
	moveq	r3, #2
	mvneq	r0, #2
	streq	r3, [r4, #16]
	b	.L398
.L401:
	ldrb	r3, [r4, #4]	@ zero_extendqisi2
	cmp	r3, #3
	bne	.L385
	ldr	ip, .L405
	mov	r2, r3
	ldr	r1, .L405+8
	mov	r0, #1
	ldr	ip, [ip, #68]
	blx	ip
	mvn	r0, #0
	b	.L398
.L402:
	ldrb	r3, [r4, #4]	@ zero_extendqisi2
	tst	r3, #1
	beq	.L385
	ldr	ip, .L405
	mov	r0, r2
	ldr	r1, .L405+12
	ldr	ip, [ip, #68]
	blx	ip
	mvn	r0, #0
	b	.L398
.L403:
	ldrb	r3, [r4, #4]	@ zero_extendqisi2
	tst	r3, #2
	beq	.L385
	ldr	ip, .L405
	mov	r0, #1
	ldr	r1, .L405+16
	ldr	ip, [ip, #68]
	blx	ip
	mvn	r0, #0
	b	.L398
.L390:
	mvn	r0, #0
	b	.L398
.L380:
	ldr	r1, .L405
	mov	r2, r4
	ldrsb	lr, [r4, #6]
	mov	r0, #1
	ldr	r3, [r4, #16]
	ldr	ip, [r1, #68]
	ldr	r1, .L405+20
	str	lr, [sp]
	blx	ip
	b	.L382
.L389:
	ldr	ip, .L405
	mov	r0, #1
	ldr	r1, .L405+24
	ldr	ip, [ip, #68]
	blx	ip
	mvn	r0, #0
	b	.L398
.L404:
	ldr	ip, .L405
	mov	r0, #1
	ldr	r1, .L405+28
	ldr	ip, [ip, #68]
	blx	ip
	mvn	r0, #0
	b	.L398
.L406:
	.align	2
.L405:
	.word	vfmw_Osal_Func_Ptr_S
	.word	.LC4
	.word	.LC7
	.word	.LC8
	.word	.LC9
	.word	.LC5
	.word	.LC6
	.word	.LC10
	UNWIND(.fnend)
	.size	MVC_CheckFrameStore, .-MVC_CheckFrameStore
	.align	2
	.global	MVC_ExchangePts
	.type	MVC_ExchangePts, %function
MVC_ExchangePts:
	UNWIND(.fnstart)
	@ args = 0, pretend = 0, frame = 8
	@ frame_needed = 1, uses_anonymous_args = 0
	UNWIND(.movsp ip)
	mov	ip, sp
	stmfd	sp!, {r4, r5, r6, r7, r8, r9, r10, fp, ip, lr, pc}
	UNWIND(.pad #4)
	UNWIND(.save {r4, r5, r6, r7, r8, r9, r10, fp, ip, lr})
	UNWIND(.setfp fp, ip, #-4)
	sub	fp, ip, #4
	UNWIND(.pad #20)
	sub	sp, sp, #20
	ldrd	r2, [r1, #80]
	mvn	r7, #0
	mvn	r6, #0
	cmp	r3, r7
	mov	r8, r1
	cmpeq	r2, r6
	mov	r5, r0
	beq	.L407
	add	r9, r0, #11075584
	add	r9, r9, #45056
	ldr	r3, [r9, #2376]
	cmp	r3, #0
	beq	.L407
	movw	r10, #47236
	mvn	r6, #1
	movt	r10, 169
	add	r10, r0, r10
	mvn	r7, #0
	mov	r4, #0
	mvn	r3, #0
	str	r3, [fp, #-48]
.L412:
	ldr	r3, [r10, #4]!
	cmp	r3, #0
	beq	.L411
	ldrsb	r1, [r3, #6]
	ldr	r0, [r5, #120]
	bl	FSP_GetLogicFs
	cmp	r0, #0
	beq	.L411
	ldrsb	r3, [r0, #1]
	cmp	r3, #3
	cmpne	r3, #0
	beq	.L411
	ldr	r3, [r10]
	ldrd	r0, [r3, #80]
	cmp	r1, r7
	cmpeq	r0, r6
	strcc	r4, [fp, #-48]
	movcc	r6, r0
	movcc	r7, r1
.L411:
	ldr	r3, [r9, #2376]
	add	r4, r4, #1
	cmp	r4, r3
	bcc	.L412
	ldr	r3, [fp, #-48]
	cmn	r3, #1
	beq	.L407
	ldrd	r2, [r8, #80]
	cmp	r3, r7
	cmpeq	r2, r6
	bhi	.L426
.L407:
	sub	sp, fp, #40
	ldmfd	sp, {r4, r5, r6, r7, r8, r9, r10, fp, sp, pc}
.L426:
	ldr	ip, .L427
	mov	r0, #29
	strd	r6, [sp]
	ldr	r1, .L427+4
	ldr	ip, [ip, #68]
	blx	ip
	ldr	r3, [fp, #-48]
	movw	r1, #28194
	movt	r1, 42
	add	r1, r3, r1
	ldrd	r2, [r8, #80]
	ldr	r1, [r5, r1, asl #2]
	strd	r2, [r1, #80]
	strd	r6, [r8, #80]
	sub	sp, fp, #40
	ldmfd	sp, {r4, r5, r6, r7, r8, r9, r10, fp, sp, pc}
.L428:
	.align	2
.L427:
	.word	vfmw_Osal_Func_Ptr_S
	.word	.LC11
	UNWIND(.fnend)
	.size	MVC_ExchangePts, .-MVC_ExchangePts
	.align	2
	.global	MVC_GetImagePara
	.type	MVC_GetImagePara, %function
MVC_GetImagePara:
	UNWIND(.fnstart)
	@ args = 0, pretend = 0, frame = 0
	@ frame_needed = 1, uses_anonymous_args = 0
	UNWIND(.movsp ip)
	mov	ip, sp
	stmfd	sp!, {r3, r4, r5, r6, r7, r8, r9, r10, fp, ip, lr, pc}
	UNWIND(.pad #4)
	UNWIND(.save {r3, r4, r5, r6, r7, r8, r9, r10, fp, ip, lr})
	UNWIND(.setfp fp, ip, #-4)
	sub	fp, ip, #4
	add	r3, r0, #11075584
	ldr	r2, [r0, #252]
	add	ip, r3, #40960
	mov	r4, r1
	mov	r5, r0
	mov	r0, #2240
	ldr	r1, [ip, #536]
	movw	r8, #3992
	ldr	lr, [r4, #232]
	ldr	r7, [r5, #248]
	mla	r0, r0, r1, r2
	bic	r1, lr, #768
	bic	r1, r1, #3
	ldrb	r6, [r4, #2]	@ zero_extendqisi2
	ldr	r2, [r0, #28]
	str	r1, [r4, #232]
	ldr	r0, [r5, #56]
	mla	r2, r8, r2, r7
	mov	r0, r0, asl #10
	str	r0, [r4, #260]
	cmp	r6, #3
	ldrls	pc, [pc, r6, asl #2]
	b	.L467
.L432:
	.word	.L431
	.word	.L433
	.word	.L434
	.word	.L431
.L434:
	ldrb	r0, [r4]	@ zero_extendqisi2
	add	r3, r5, #11075584
	ldr	lr, [r4, #44]
	add	r3, r3, #45056
	orr	r1, r1, #2816
	and	r0, r0, #3
	orr	r1, r1, r0
	str	r1, [r4, #232]
	str	lr, [r4, #272]
.L430:
	ldrb	r1, [r2, #20]	@ zero_extendqisi2
	str	r1, [r4, #556]
	str	r1, [r4, #560]
	ldrb	r1, [r2, #24]	@ zero_extendqisi2
	cmp	r1, #0
	ldrne	r1, [r2, #68]
	mov	r2, #1
	str	r2, [r4, #564]
	str	r1, [r4, #568]
	ldrb	r2, [ip, #531]	@ zero_extendqisi2
	cmp	r2, #1
	movne	r2, #0
	str	r2, [r4, #328]
	ldr	r2, [r5, #224]
	ldr	r2, [r2, #12]
	cmp	r2, #0
	ble	.L452
	ldrb	r2, [r4, #576]	@ zero_extendqisi2
	cmp	r2, #0
	bne	.L452
	ldrb	r2, [r4, #2]	@ zero_extendqisi2
	cmp	r2, #3
	ldreq	r2, [r4, #232]
	biceq	r2, r2, #768
	streq	r2, [r4, #232]
.L452:
	ldrb	r2, [r3, #2136]	@ zero_extendqisi2
	cmp	r2, #0
	beq	.L453
	ldr	r2, [r3, #2152]
	cmp	r2, #3
	moveq	r3, #1
	streq	r3, [r4, #436]
	beq	.L453
	cmp	r2, #4
	moveq	r3, #2
	streq	r3, [r4, #436]
	beq	.L453
	cmp	r2, #5
	moveq	r3, #3
	streq	r3, [r4, #436]
	beq	.L453
	ldr	ip, .L479
	mov	r2, #0
	mov	r0, r2
	str	r2, [r4, #436]
	ldr	r1, .L479+4
	ldr	r2, [r3, #2152]
	ldr	r3, [ip, #68]
	blx	r3
.L453:
	ldr	r0, [r5, #120]
	ldrsb	r1, [r4, #6]
	bl	FSP_GetFsImagePtr
	subs	r5, r0, #0
	ldmeqfd	sp, {r3, r4, r5, r6, r7, r8, r9, r10, fp, sp, pc}
	ldr	r3, .L479
	mov	r2, #504
	add	r1, r4, #72
	ldr	r3, [r3, #52]
	blx	r3
	mov	r3, #16
	str	r3, [r5, #384]
	mov	r2, #1
	ldrb	r3, [r4, #576]	@ zero_extendqisi2
	strb	r2, [r5, #379]
	cmp	r3, #0
	movne	r3, #4
	strb	r3, [r5, #372]
	ldr	r3, [r4, #604]
	strb	r2, [r5, #377]
	str	r3, [r5, #388]
	str	r3, [r5, #396]
	str	r3, [r5, #392]
	ldmfd	sp, {r3, r4, r5, r6, r7, r8, r9, r10, fp, sp, pc}
.L433:
	ldrb	r0, [r4]	@ zero_extendqisi2
	add	r3, r5, #11075584
	ldr	lr, [r4, #44]
	orr	r1, r1, #1792
	and	r0, r0, #3
	add	r3, r3, #45056
	orr	r1, r1, r0
	str	r1, [r4, #232]
	str	lr, [r4, #272]
	b	.L430
.L431:
	ldrb	r1, [r4, #576]	@ zero_extendqisi2
	cmp	r1, #0
	bne	.L435
	ldr	r1, [r4, #40]
	mov	r7, #3072
	ldr	r0, [r4, #44]
	cmp	r1, #0
	ldrb	r1, [r4]	@ zero_extendqisi2
	moveq	r6, #512
	movne	r6, #768
	str	r0, [r4, #272]
.L436:
	ldr	r8, [r4, #628]
	ldr	r0, [r4, #664]
	cmp	r8, r0
	beq	.L476
	movle	r0, #1
	movgt	r0, #0
.L447:
	add	r3, r3, #45056
	ldrb	r8, [r3, #2172]	@ zero_extendqisi2
	cmp	r8, #3
	moveq	r0, #4096
	beq	.L448
	cmp	r8, #4
	movne	r0, r0, asl #12
	moveq	r0, #0
.L448:
	bic	lr, lr, #13056
	orr	r6, r7, r6
	bic	lr, lr, #3
	and	r1, r1, #3
	orr	lr, r6, lr
	orr	lr, lr, r1
	orr	lr, lr, r0
	str	lr, [r4, #232]
	b	.L430
.L435:
	ldr	r8, [r4, #636]
	ldr	r1, [r5, #116]
	ldr	r0, [r4, #672]
	cmp	r8, r1
	bhi	.L477
	cmp	r1, r0
	bcc	.L440
.L438:
	ldr	r0, [r4, #44]
	mov	r6, #3
	ldrb	r1, [r4]	@ zero_extendqisi2
	ldrb	r10, [r4, #615]	@ zero_extendqisi2
	ldrb	r9, [r4, #651]	@ zero_extendqisi2
	str	r0, [r4, #272]
.L441:
	ldrb	r0, [r4, #4]	@ zero_extendqisi2
	cmp	r0, #1
	beq	.L478
	cmp	r0, #2
	streq	r8, [r4, #272]
	movne	r7, r6, asl #10
	moveq	r1, r10
	moveq	r7, #1024
.L443:
	mov	r6, #768
	str	r10, [r4, #224]
	str	r9, [r4, #228]
	b	.L436
.L440:
	ldrb	r1, [r4, #615]	@ zero_extendqisi2
	mov	r6, #1
	ldrb	r9, [r4, #651]	@ zero_extendqisi2
	str	r8, [r4, #272]
	mov	r10, r1
	b	.L441
.L476:
	ldr	r0, [r4, #236]
	cmp	r0, #720
	movne	r0, #1
	bne	.L447
	ldr	r0, [r4, #240]
	subs	r0, r0, #480
	movne	r0, #1
	b	.L447
.L477:
	cmp	r1, r0
	bcc	.L438
	ldrb	r1, [r4, #651]	@ zero_extendqisi2
	mov	r6, #2
	str	r0, [r4, #272]
	ldrb	r10, [r4, #615]	@ zero_extendqisi2
	mov	r9, r1
	b	.L441
.L478:
	ldr	r0, [r4, #672]
	mov	r1, r9
	mov	r7, #2048
	str	r0, [r4, #272]
	b	.L443
.L467:
	add	r3, r5, #11075584
	add	r3, r3, #45056
	b	.L430
.L480:
	.align	2
.L479:
	.word	vfmw_Osal_Func_Ptr_S
	.word	.LC12
	UNWIND(.fnend)
	.size	MVC_GetImagePara, .-MVC_GetImagePara
	.align	2
	.global	MVC_SetFrmRepeatCount
	.type	MVC_SetFrmRepeatCount, %function
MVC_SetFrmRepeatCount:
	UNWIND(.fnstart)
	@ args = 0, pretend = 0, frame = 0
	@ frame_needed = 1, uses_anonymous_args = 0
	UNWIND(.movsp ip)
	mov	ip, sp
	stmfd	sp!, {fp, ip, lr, pc}
	UNWIND(.pad #4)
	UNWIND(.save {fp, ip, lr})
	UNWIND(.setfp fp, ip, #-4)
	sub	fp, ip, #4
	ldr	r3, [r0, #224]
	ldr	r3, [r3, #684]
	add	r3, r3, #2032
	add	r3, r3, #15
	cmp	r3, #4096
	movcc	r3, #0
	strcc	r3, [r1, #84]
	ldmccfd	sp, {fp, sp, pc}
	sub	sp, fp, #12
	ldmia	sp, {fp, sp, lr}
	b	MVC_SetFrmRepeatCount.part.1
	UNWIND(.fnend)
	.size	MVC_SetFrmRepeatCount, .-MVC_SetFrmRepeatCount
	.align	2
	.global	MVC_SplitFrmToFlds
	.type	MVC_SplitFrmToFlds, %function
MVC_SplitFrmToFlds:
	UNWIND(.fnstart)
	@ args = 0, pretend = 0, frame = 0
	@ frame_needed = 1, uses_anonymous_args = 0
	UNWIND(.movsp ip)
	mov	ip, sp
	stmfd	sp!, {r4, r5, fp, ip, lr, pc}
	UNWIND(.pad #4)
	UNWIND(.save {r4, r5, fp, ip, lr})
	UNWIND(.setfp fp, ip, #-4)
	sub	fp, ip, #4
	ldrb	lr, [r0, #577]	@ zero_extendqisi2
	mov	r5, #1
	ldrb	ip, [r0, #578]	@ zero_extendqisi2
	mov	r4, #2
	ldr	r1, [r0, #600]
	ldrb	r2, [r0, #579]	@ zero_extendqisi2
	ldr	r3, [r0, #580]
	strb	r5, [r0, #612]
	strb	r4, [r0, #648]
	strb	lr, [r0, #613]
	strb	lr, [r0, #649]
	strb	ip, [r0, #614]
	strb	ip, [r0, #650]
	str	r1, [r0, #636]
	str	r1, [r0, #672]
	strb	r2, [r0, #615]
	strb	r2, [r0, #651]
	str	r3, [r0, #616]
	str	r3, [r0, #652]
	ldmfd	sp, {r4, r5, fp, sp, pc}
	UNWIND(.fnend)
	.size	MVC_SplitFrmToFlds, .-MVC_SplitFrmToFlds
	.align	2
	.global	MVC_CombineFldsToFrm
	.type	MVC_CombineFldsToFrm, %function
MVC_CombineFldsToFrm:
	UNWIND(.fnstart)
	@ args = 0, pretend = 0, frame = 0
	@ frame_needed = 1, uses_anonymous_args = 0
	UNWIND(.movsp ip)
	mov	ip, sp
	stmfd	sp!, {r4, r5, fp, ip, lr, pc}
	UNWIND(.pad #4)
	UNWIND(.save {r4, r5, fp, ip, lr})
	UNWIND(.setfp fp, ip, #-4)
	sub	fp, ip, #4
	ldr	r2, [r0, #664]
	mov	lr, #3
	ldr	r1, [r0, #628]
	ldr	r3, [r0, #672]
	cmp	r2, r1
	ldr	r5, [r0, #636]
	ldrb	r4, [r0, #649]	@ zero_extendqisi2
	ldr	ip, [r0, #616]
	movge	r2, r1
	add	r3, r3, r5
	cmp	r4, #0
	strb	lr, [r0, #576]
	mov	r3, r3, lsr #1
	str	ip, [r0, #580]
	str	r2, [r0, #592]
	str	r2, [r0, #32]
	str	r3, [r0, #600]
	beq	.L485
	ldrb	r2, [r0, #613]	@ zero_extendqisi2
	cmp	r2, #0
	bne	.L486
.L485:
	ldr	r2, [r0, #648]
	mov	r1, #0
	strb	r1, [r0, #577]
	bic	r2, r2, #-16777216
	bic	r2, r2, #255
	cmp	r2, r1
	beq	.L490
	ldr	r2, [r0, #612]
	bic	r2, r2, #-16777216
	bic	r2, r2, #255
	cmp	r2, #0
	movne	ip, #1
	bne	.L488
.L490:
	mov	ip, #0
.L488:
	ldrb	r2, [r0, #651]	@ zero_extendqisi2
	ldrb	r1, [r0, #615]	@ zero_extendqisi2
	str	r3, [r0, #44]
	cmp	r2, r1
	strb	ip, [r0, #578]
	movcs	r3, r2
	movcc	r3, r1
	strb	r3, [r0, #579]
	strb	r3, [r0]
	ldmfd	sp, {r4, r5, fp, sp, pc}
.L486:
	mov	r1, #1
	strb	r1, [r0, #577]
	b	.L490
	UNWIND(.fnend)
	.size	MVC_CombineFldsToFrm, .-MVC_CombineFldsToFrm
	.align	2
	.global	MVC_GetAPC
	.type	MVC_GetAPC, %function
MVC_GetAPC:
	UNWIND(.fnstart)
	@ args = 0, pretend = 0, frame = 0
	@ frame_needed = 1, uses_anonymous_args = 0
	UNWIND(.movsp ip)
	mov	ip, sp
	stmfd	sp!, {r4, r5, r6, r7, r8, r9, r10, fp, ip, lr, pc}
	UNWIND(.pad #4)
	UNWIND(.save {r4, r5, r6, r7, r8, r9, r10, fp, ip, lr})
	UNWIND(.setfp fp, ip, #-4)
	sub	fp, ip, #4
	UNWIND(.pad #12)
	sub	sp, sp, #12
	subs	r6, r1, #0
	mov	r5, r0
	beq	.L521
	cmp	r2, #1
	beq	.L502
	cmp	r2, #2
	beq	.L503
	ldr	r9, [r6, #628]
	ldr	r10, [r6, #664]
.L504:
	add	r8, r5, #11075584
	add	r7, r8, #45056
	ldr	ip, [r7, #2604]
	cmp	ip, #0
	beq	.L513
	ldrb	r4, [r7, #2396]	@ zero_extendqisi2
	cmp	r4, #0
	movwne	r3, #47452
	movne	r4, #0
	movtne	r3, 169
	addne	r3, r5, r3
	bne	.L507
	b	.L505
.L511:
	ldrb	r2, [r3, #1]!	@ zero_extendqisi2
	cmp	r2, #0
	beq	.L505
.L507:
	add	r4, r4, #1
	cmp	r4, ip
	bne	.L511
.L513:
	mvn	r0, #0
.L517:
	sub	sp, fp, #40
	ldmfd	sp, {r4, r5, r6, r7, r8, r9, r10, fp, sp, pc}
.L503:
	ldr	r9, [r6, #664]
	mov	r10, r9
	b	.L504
.L505:
	ldrsb	r1, [r6, #6]
	ldr	r0, [r5, #120]
	bl	FSP_GetLogicFs
	cmp	r0, #0
	beq	.L508
	ldr	r3, [r0, #520]
	cmp	r3, #0
	beq	.L508
	add	r2, r5, r4
	movw	r3, #47448
	movt	r3, 169
	add	r3, r2, r3
	mov	r2, #1
	add	r5, r5, r4, lsl #2
	strb	r2, [r3, #4]
	add	r5, r5, #11075584
	ldr	r3, [r0, #520]
	add	r5, r5, #45056
	ldr	ip, .L522
	add	r8, r8, #45056
	ldr	r1, .L522+4
	mov	r0, #13
	ldr	r3, [r3, #4]
	str	r9, [r5, #2476]
	str	r10, [r5, #2540]
	str	r3, [r5, #2412]
	ldr	r3, [r7, #2608]
	ldr	ip, [ip, #68]
	cmp	r3, #15
	addls	r2, r3, r2
	mov	r3, r4
	movhi	r2, #16
	str	r2, [r8, #2608]
	ldr	r2, [r6, #268]
	blx	ip
	mov	r0, #0
	str	r4, [r6, #52]
	sub	sp, fp, #40
	ldmfd	sp, {r4, r5, r6, r7, r8, r9, r10, fp, sp, pc}
.L502:
	ldr	r9, [r6, #628]
	mov	r10, r9
	b	.L504
.L508:
	ldr	r1, .L522
	ldrsb	r2, [r6, #6]
	ldrb	r3, [r6, #3]	@ zero_extendqisi2
	ldr	ip, [r1, #68]
	mov	r1, #0
	stmia	sp, {r0, r1}
	mov	r0, r1
	ldr	r1, .L522+8
	blx	ip
	mvn	r0, #0
	b	.L517
.L521:
	ldr	ip, .L522
	mov	r0, r6
	movw	r3, #2094
	ldr	r2, .L522+12
	ldr	r1, .L522+16
	ldr	ip, [ip, #68]
	blx	ip
	mvn	r0, #0
	b	.L517
.L523:
	.align	2
.L522:
	.word	vfmw_Osal_Func_Ptr_S
	.word	.LC15
	.word	.LC16
	.word	.LC13
	.word	.LC14
	UNWIND(.fnend)
	.size	MVC_GetAPC, .-MVC_GetAPC
	.align	2
	.global	MVC_SlidingWinMark
	.type	MVC_SlidingWinMark, %function
MVC_SlidingWinMark:
	UNWIND(.fnstart)
	@ args = 0, pretend = 0, frame = 8
	@ frame_needed = 1, uses_anonymous_args = 0
	UNWIND(.movsp ip)
	mov	ip, sp
	stmfd	sp!, {r4, r5, r6, r7, r8, r9, r10, fp, ip, lr, pc}
	UNWIND(.pad #4)
	UNWIND(.save {r4, r5, r6, r7, r8, r9, r10, fp, ip, lr})
	UNWIND(.setfp fp, ip, #-4)
	sub	fp, ip, #4
	UNWIND(.pad #12)
	sub	sp, sp, #12
	add	r3, r0, #11075584
	ldr	r2, [r0, #236]
	add	r3, r3, #45056
	mov	r10, r0
	ldr	r0, [r3, #2388]
	ldr	r2, [r2, #3944]
	ldr	r1, [r3, #2384]
	rsb	r2, r0, r2
	cmp	r1, r2
	beq	.L549
.L524:
	sub	sp, fp, #40
	ldmfd	sp, {r4, r5, r6, r7, r8, r9, r10, fp, sp, pc}
.L549:
	ldr	r8, [r3, #2376]
	cmp	r8, #0
	beq	.L529
	movw	r6, #47236
	add	r1, r10, #11141120
	movt	r6, 169
	mov	r2, #0
	add	r1, r1, #8192
	add	r6, r10, r6
	mov	r5, r2
	mvn	r9, #-2147483648
.L528:
	ldr	r4, [r6, #4]!
	cmp	r4, #0
	beq	.L527
	ldr	r7, [r4, #64]
	cmp	r9, r7
	bls	.L527
	ldrb	r3, [r4, #3]	@ zero_extendqisi2
	mov	r0, r4
	cmp	r3, #0
	beq	.L527
	str	r1, [fp, #-52]
	str	r2, [fp, #-48]
	bl	MVC_NonLongTermRefFlg
	ldr	r2, [fp, #-48]
	ldr	r1, [fp, #-52]
	cmp	r0, #0
	beq	.L527
	ldr	r0, [r4, #56]
	ldr	r3, [r1, #2192]
	cmp	r0, r3
	moveq	r9, r7
	moveq	r2, r5
.L527:
	add	r5, r5, #1
	cmp	r5, r8
	bne	.L528
.L526:
	movw	r3, #28194
	movt	r3, 42
	add	r3, r2, r3
	ldr	r4, [r10, r3, asl #2]
	cmp	r4, #0
	beq	.L524
	ldrb	r3, [r4, #3]	@ zero_extendqisi2
	cmp	r3, #0
	beq	.L524
	mov	r0, r4
	bl	MVC_NonLongTermRefFlg
	cmp	r0, #0
	beq	.L524
	add	r3, r10, #11141120
	ldr	r2, [r4, #56]
	add	r3, r3, #8192
	ldr	r3, [r3, #2192]
	cmp	r2, r3
	bne	.L524
	mov	r0, r10
	mov	r1, r4
	bl	MVC_UnMarkFrameStoreRef
	mov	r0, r10
	sub	sp, fp, #40
	ldmfd	sp, {r4, r5, r6, r7, r8, r9, r10, fp, sp, lr}
	b	MVC_UpdateReflist
.L529:
	mov	r2, r8
	b	.L526
	UNWIND(.fnend)
	.size	MVC_SlidingWinMark, .-MVC_SlidingWinMark
	.align	2
	.global	MVC_DumpDPB
	.type	MVC_DumpDPB, %function
MVC_DumpDPB:
	UNWIND(.fnstart)
	@ args = 0, pretend = 0, frame = 0
	@ frame_needed = 1, uses_anonymous_args = 0
	UNWIND(.movsp ip)
	mov	ip, sp
	stmfd	sp!, {r4, r5, r6, r7, r8, r9, fp, ip, lr, pc}
	UNWIND(.pad #4)
	UNWIND(.save {r4, r5, r6, r7, r8, r9, fp, ip, lr})
	UNWIND(.setfp fp, ip, #-4)
	sub	fp, ip, #4
	UNWIND(.pad #8)
	sub	sp, sp, #8
	ldr	r3, .L561
	mov	r8, r0
	ldr	r3, [r3]
	tst	r3, #16384
	beq	.L550
	add	r7, r0, #11075584
	add	r7, r7, #45056
	ldr	r3, [r7, #2380]
	cmp	r3, #0
	beq	.L560
	movw	r5, #47236
	ldr	r6, .L561+4
	movt	r5, 169
	add	r5, r0, r5
	mov	r4, #0
.L555:
	ldr	ip, [r5, #4]!
	mov	r2, r4
	ldr	r9, [r6, #68]
	mov	r0, #14
	ldr	r1, .L561+8
	add	r4, r4, #1
	ldrb	lr, [ip, #3]	@ zero_extendqisi2
	ldr	r3, [ip, #20]
	str	lr, [sp, #4]
	ldr	ip, [ip, #32]
	str	ip, [sp]
	blx	r9
	ldr	r3, [r7, #2380]
	cmp	r3, r4
	bhi	.L555
.L556:
	ldr	r3, [r6, #68]
	mov	r0, #14
	ldr	r1, .L561+12
	blx	r3
	ldr	r3, [r7, #2384]
	cmp	r3, #0
	movwne	r5, #47300
	movne	r4, #0
	movtne	r5, 169
	addne	r5, r8, r5
	beq	.L554
.L557:
	ldr	ip, [r5, #4]!
	mov	r2, r4
	ldr	r1, .L561+16
	mov	r0, #14
	ldr	r8, [r6, #68]
	ldrb	lr, [ip, #3]	@ zero_extendqisi2
	ldr	r3, [ip, #20]
	str	lr, [sp, #4]
	ldr	ip, [ip, #32]
	str	ip, [sp]
	blx	r8
	ldr	r3, [r5]
	mov	r2, r4
	ldr	ip, [r6, #68]
	ldr	r1, .L561+20
	mov	r0, #14
	ldr	r3, [r3, #592]
	add	r4, r4, #1
	blx	ip
	ldr	r3, [r7, #2384]
	cmp	r3, r4
	bhi	.L557
.L554:
	ldr	r3, [r6, #68]
	mov	r0, #14
	ldr	r1, .L561+12
	sub	sp, fp, #36
	ldmfd	sp, {r4, r5, r6, r7, r8, r9, fp, sp, lr}
	bx	r3
.L550:
	sub	sp, fp, #36
	ldmfd	sp, {r4, r5, r6, r7, r8, r9, fp, sp, pc}
.L560:
	ldr	r6, .L561+4
	b	.L556
.L562:
	.align	2
.L561:
	.word	g_PrintEnable
	.word	vfmw_Osal_Func_Ptr_S
	.word	.LC18
	.word	.LC17
	.word	.LC19
	.word	.LC20
	UNWIND(.fnend)
	.size	MVC_DumpDPB, .-MVC_DumpDPB
	.align	2
	.global	MVC_UpdateCurrFrameInfo
	.type	MVC_UpdateCurrFrameInfo, %function
MVC_UpdateCurrFrameInfo:
	UNWIND(.fnstart)
	@ args = 0, pretend = 0, frame = 0
	@ frame_needed = 1, uses_anonymous_args = 0
	UNWIND(.movsp ip)
	mov	ip, sp
	stmfd	sp!, {r4, r5, r6, r7, r8, r9, fp, ip, lr, pc}
	UNWIND(.pad #4)
	UNWIND(.save {r4, r5, r6, r7, r8, r9, fp, ip, lr})
	UNWIND(.setfp fp, ip, #-4)
	sub	fp, ip, #4
	add	r0, r0, #11141120
	add	r3, r0, #8192
	ldrb	r2, [r3, #1594]	@ zero_extendqisi2
	ldr	r4, [r3, #2112]
	strb	r2, [r4, #1]
	ldrb	r2, [r3, #1596]	@ zero_extendqisi2
	cmp	r2, #0
	movne	r2, #3
	bne	.L564
	ldrb	r2, [r3, #1597]	@ zero_extendqisi2
	cmp	r2, #0
	movne	r2, #3
.L564:
	strb	r2, [r4, #3]
	ldr	r2, [r3, #2120]
	str	r2, [r4, #20]
	ldr	r2, [r3, #2164]
	str	r2, [r4, #44]
	ldrb	r2, [r3, #1604]	@ zero_extendqisi2
	strb	r2, [r4]
	ldr	r2, [r3, #2132]
	str	r2, [r4, #32]
	ldr	r2, [r3, #2188]
	str	r2, [r4, #48]
	ldr	r2, [r3, #2124]
	str	r2, [r4, #28]
	ldrb	r2, [r3, #1601]	@ zero_extendqisi2
	str	r2, [r4, #40]
	ldrb	r2, [r3, #1599]	@ zero_extendqisi2
	cmp	r2, #1
	moveq	r1, #3
	movne	r1, #0
	strb	r1, [r4, #4]
	ldrb	r2, [r3, #1595]	@ zero_extendqisi2
	cmp	r2, #1
	beq	.L567
	bcc	.L568
	cmp	r2, #2
	ldmnefd	sp, {r4, r5, r6, r7, r8, r9, fp, sp, pc}
	str	r4, [r4, #652]
	mov	ip, #1
	strb	ip, [r4, #648]
	mov	r6, #0
	ldrb	ip, [r3, #1596]	@ zero_extendqisi2
	strb	ip, [r4, #649]
	ldrb	ip, [r3, #1597]	@ zero_extendqisi2
	strb	ip, [r4, #650]
	ldr	ip, [r3, #2140]
	str	ip, [r4, #664]
	ldrb	ip, [r3, #1604]	@ zero_extendqisi2
	strb	ip, [r4, #651]
	ldr	lr, [r3, #2164]
	str	r6, [r4, #40]
	str	lr, [r4, #672]
	ldrb	r5, [r3, #1593]	@ zero_extendqisi2
	cmp	r5, r6
	beq	.L585
	ldr	r2, [r4, #636]
	mov	r5, #3
	strb	r5, [r4, #2]
	mvn	r7, #0
	add	lr, lr, r2
	str	lr, [r4, #44]
	str	lr, [r4, #600]
	ldrb	r3, [r3, #1599]	@ zero_extendqisi2
	cmp	r3, #1
	add	r3, r0, #9792
	orreq	r6, r1, #2
	strb	r6, [r4, #4]
	ldrd	r8, [r3, #16]
	mvn	r6, #0
	cmp	r9, r7
	cmpeq	r8, r6
	beq	.L576
	ldrd	r2, [r4, #80]
	cmp	r3, r7
	cmpeq	r2, r6
	beq	.L586
.L576:
	ldrb	r3, [r4, #615]	@ zero_extendqisi2
.L583:
	add	r1, r0, #8192
	cmp	r3, ip
	mov	r0, r4
	movcc	r3, ip
	strb	r3, [r4]
	ldr	r3, [r1, #2132]
	str	r3, [r4, #32]
	sub	sp, fp, #36
	ldmfd	sp, {r4, r5, r6, r7, r8, r9, fp, sp, lr}
	b	MVC_CombineFldsToFrm
.L568:
	str	r4, [r4, #580]
	mov	r1, #3
	mov	r2, #0
	strb	r1, [r4, #2]
	strb	r2, [r4, #576]
	add	r1, r3, #1600
	ldrb	r5, [r3, #1596]	@ zero_extendqisi2
	mov	r2, #504
	add	r1, r1, #8
	add	r0, r4, #72
	strb	r5, [r4, #577]
	ldrb	r6, [r3, #1597]	@ zero_extendqisi2
	strb	r6, [r4, #578]
	ldr	ip, [r3, #2136]
	str	ip, [r4, #592]
	ldrb	r7, [r3, #1604]	@ zero_extendqisi2
	strb	r7, [r4, #579]
	ldr	r8, [r3, #2164]
	str	r8, [r4, #600]
	ldr	ip, [r3, #2140]
	str	ip, [r4, #628]
	ldr	r3, [r3, #2144]
	str	r3, [r4, #664]
	bl	memcpy
	mov	r2, #1
	mov	r3, #2
	str	r8, [r4, #636]
	str	r8, [r4, #672]
	strb	r7, [r4, #615]
	strb	r7, [r4, #651]
	strb	r6, [r4, #614]
	strb	r6, [r4, #650]
	strb	r5, [r4, #613]
	strb	r5, [r4, #649]
	str	r4, [r4, #616]
	str	r4, [r4, #652]
	strb	r2, [r4, #612]
	strb	r3, [r4, #648]
	ldmfd	sp, {r4, r5, r6, r7, r8, r9, fp, sp, pc}
.L567:
	strb	r2, [r4, #612]
	mov	r5, #0
	str	r4, [r4, #616]
	ldrb	ip, [r3, #1596]	@ zero_extendqisi2
	strb	ip, [r4, #613]
	ldrb	ip, [r3, #1597]	@ zero_extendqisi2
	strb	ip, [r4, #614]
	ldr	ip, [r3, #2140]
	str	ip, [r4, #628]
	ldrb	ip, [r3, #1604]	@ zero_extendqisi2
	strb	ip, [r4, #615]
	ldr	lr, [r3, #2164]
	str	r5, [r4, #40]
	str	lr, [r4, #636]
	ldrb	r6, [r3, #1593]	@ zero_extendqisi2
	cmp	r6, r5
	beq	.L587
	ldr	r2, [r4, #672]
	mov	r6, #3
	strb	r6, [r4, #2]
	mvn	r7, #0
	add	lr, lr, r2
	str	lr, [r4, #44]
	str	lr, [r4, #600]
	mvn	r6, #0
	ldrb	r3, [r3, #1599]	@ zero_extendqisi2
	cmp	r3, #1
	add	r3, r0, #9792
	orreq	r5, r1, #1
	strb	r5, [r4, #4]
	ldrd	r8, [r3, #16]
	cmp	r9, r7
	cmpeq	r8, r6
	beq	.L572
	ldrd	r2, [r4, #80]
	cmp	r3, r7
	cmpeq	r2, r6
	streqd	r8, [r4, #80]
.L572:
	ldrb	r3, [r4, #651]	@ zero_extendqisi2
	b	.L583
.L585:
	strb	r2, [r4, #2]
	add	r1, r0, #9792
	str	lr, [r4, #44]
	add	r1, r1, #8
	str	lr, [r4, #600]
	add	r0, r4, #72
	ldrb	r3, [r3, #1599]	@ zero_extendqisi2
	mov	r2, #504
	cmp	r3, #1
	moveq	r5, #2
	strb	r5, [r4, #4]
	bl	memcpy
	ldmfd	sp, {r4, r5, r6, r7, r8, r9, fp, sp, pc}
.L587:
	strb	r2, [r4, #2]
	add	r1, r3, #1600
	str	lr, [r4, #44]
	add	r1, r1, #8
	str	lr, [r4, #600]
	add	r0, r4, #72
	ldrb	r3, [r3, #1599]	@ zero_extendqisi2
	mov	r2, #504
	sub	r3, r3, #1
	clz	r3, r3
	mov	r3, r3, lsr #5
	strb	r3, [r4, #4]
	bl	memcpy
	ldmfd	sp, {r4, r5, r6, r7, r8, r9, fp, sp, pc}
.L586:
	strd	r8, [r4, #80]
	b	.L576
	UNWIND(.fnend)
	.size	MVC_UpdateCurrFrameInfo, .-MVC_UpdateCurrFrameInfo
	.align	2
	.global	MVC_SimpleSlideDPB
	.type	MVC_SimpleSlideDPB, %function
MVC_SimpleSlideDPB:
	UNWIND(.fnstart)
	@ args = 0, pretend = 0, frame = 0
	@ frame_needed = 1, uses_anonymous_args = 0
	UNWIND(.movsp ip)
	mov	ip, sp
	stmfd	sp!, {r4, r5, r6, r7, r8, r9, fp, ip, lr, pc}
	UNWIND(.pad #4)
	UNWIND(.save {r4, r5, r6, r7, r8, r9, fp, ip, lr})
	UNWIND(.setfp fp, ip, #-4)
	sub	fp, ip, #4
	add	r3, r0, #11075584
	mov	r7, r0
	add	r3, r3, #45056
	ldr	r5, [r3, #2376]
	ldr	r3, [r3, #2380]
	cmp	r3, r5
	addcc	r6, r0, #11141120
	bcc	.L589
	cmp	r5, #0
	beq	.L594
	movw	ip, #47236
	add	r6, r0, #11141120
	movt	ip, 169
	mov	r1, #0
	add	r8, r6, #8192
	add	ip, r0, ip
	mov	r3, r1
	mvn	r4, #-2147483648
.L592:
	ldr	r2, [ip, #4]!
	cmp	r2, #0
	beq	.L591
	ldr	lr, [r2, #64]
	cmp	r4, lr
	bls	.L591
	ldr	r0, [r2, #56]
	ldr	r2, [r8, #2192]
	cmp	r0, r2
	moveq	r4, lr
	moveq	r1, r3
.L591:
	add	r3, r3, #1
	cmp	r3, r5
	bne	.L592
	mov	r5, r1
.L590:
	movw	r3, #28194
	mov	r0, r7
	movt	r3, 42
	add	r3, r1, r3
	ldr	r1, [r7, r3, asl #2]
	bl	MVC_UnMarkFrameStoreRef
	mov	r1, r5
	mov	r0, r7
	bl	MVC_RemoveFrameStoreOutDPB
.L589:
	add	r3, r6, #8192
	mov	r1, #0
	ldr	r2, [r3, #2128]
	strb	r1, [r3, #1596]
	cmp	r2, r1
	movne	r2, #1
	strneb	r2, [r3, #1597]
	ldmfd	sp, {r4, r5, r6, r7, r8, r9, fp, sp, pc}
.L594:
	add	r6, r0, #11141120
	mov	r1, r5
	b	.L590
	UNWIND(.fnend)
	.size	MVC_SimpleSlideDPB, .-MVC_SimpleSlideDPB
	.align	2
	.global	MVC_ReleaseNAL
	.type	MVC_ReleaseNAL, %function
MVC_ReleaseNAL:
	UNWIND(.fnstart)
	@ args = 0, pretend = 0, frame = 0
	@ frame_needed = 1, uses_anonymous_args = 0
	UNWIND(.movsp ip)
	mov	ip, sp
	stmfd	sp!, {r4, r5, r6, r7, r8, r9, fp, ip, lr, pc}
	UNWIND(.pad #4)
	UNWIND(.save {r4, r5, r6, r7, r8, r9, fp, ip, lr})
	UNWIND(.setfp fp, ip, #-4)
	sub	fp, ip, #4
	subs	r5, r1, #0
	mov	r6, r0
	beq	.L612
	ldr	r7, .L613
	add	r8, r5, #56
	mov	r4, r5
	mov	r3, #0
	strb	r3, [r5, #1]
	strb	r3, [r5, #3]
.L607:
	ldr	r3, [r4, #8]
	mov	r0, r6
	cmp	r3, #0
	beq	.L606
	ldr	r1, [r4, #32]
	bl	SM_ReleaseStreamSeg
	ldr	r3, [r4, #12]
	ldr	ip, [r7, #68]
	mov	r0, #7
	ldr	r2, [r4, #8]
	ldr	r1, .L613+4
	blx	ip
	mov	r3, #0
	str	r3, [r4, #8]
	str	r3, [r4, #24]
	str	r3, [r4, #12]
.L606:
	add	r4, r4, #28
	cmp	r4, r8
	bne	.L607
	mov	r3, #0
	strb	r3, [r5]
	str	r3, [r5, #68]
	ldmfd	sp, {r4, r5, r6, r7, r8, r9, fp, sp, pc}
.L612:
	ldr	ip, .L613
	mov	r0, r5
	movw	r3, #4007
	ldr	r2, .L613+8
	ldr	r1, .L613+12
	ldr	ip, [ip, #68]
	sub	sp, fp, #36
	ldmfd	sp, {r4, r5, r6, r7, r8, r9, fp, sp, lr}
	bx	ip
.L614:
	.align	2
.L613:
	.word	vfmw_Osal_Func_Ptr_S
	.word	.LC21
	.word	.LC13
	.word	.LC14
	UNWIND(.fnend)
	.size	MVC_ReleaseNAL, .-MVC_ReleaseNAL
	.align	2
	.global	MVC_ClearCurrNal
	.type	MVC_ClearCurrNal, %function
MVC_ClearCurrNal:
	UNWIND(.fnstart)
	@ args = 0, pretend = 0, frame = 0
	@ frame_needed = 1, uses_anonymous_args = 0
	UNWIND(.movsp ip)
	mov	ip, sp
	stmfd	sp!, {r4, r5, fp, ip, lr, pc}
	UNWIND(.pad #4)
	UNWIND(.save {r4, r5, fp, ip, lr})
	UNWIND(.setfp fp, ip, #-4)
	sub	fp, ip, #4
	ldr	r1, [r0, #232]
	mov	r4, r0
	cmp	r1, #0
	beq	.L616
	ldr	r0, [r0, #120]
	bl	MVC_ReleaseNAL
	mov	r3, #0
	str	r3, [r4, #232]
.L616:
	mov	r0, #0
	ldmfd	sp, {r4, r5, fp, sp, pc}
	UNWIND(.fnend)
	.size	MVC_ClearCurrNal, .-MVC_ClearCurrNal
	.align	2
	.global	MVC_ClearCurrSlice
	.type	MVC_ClearCurrSlice, %function
MVC_ClearCurrSlice:
	UNWIND(.fnstart)
	@ args = 0, pretend = 0, frame = 0
	@ frame_needed = 1, uses_anonymous_args = 0
	UNWIND(.movsp ip)
	mov	ip, sp
	stmfd	sp!, {r4, r5, fp, ip, lr, pc}
	UNWIND(.pad #4)
	UNWIND(.save {r4, r5, fp, ip, lr})
	UNWIND(.setfp fp, ip, #-4)
	sub	fp, ip, #4
	ldr	r3, .L625
	mov	r4, r0
	ldr	r1, .L625+4
	mov	r0, #1
	ldr	r3, [r3, #68]
	blx	r3
	ldr	r1, [r4, #232]
	cmp	r1, #0
	beq	.L621
	ldr	r0, [r4, #120]
	bl	MVC_ReleaseNAL
	mov	r3, #0
	str	r3, [r4, #232]
.L621:
	ldr	r3, [r4, #80]
	mov	r0, #0
	add	r3, r3, #1
	str	r3, [r4, #80]
	ldmfd	sp, {r4, r5, fp, sp, pc}
.L626:
	.align	2
.L625:
	.word	vfmw_Osal_Func_Ptr_S
	.word	.LC22
	UNWIND(.fnend)
	.size	MVC_ClearCurrSlice, .-MVC_ClearCurrSlice
	.align	2
	.global	MVC_ClearAllNal
	.type	MVC_ClearAllNal, %function
MVC_ClearAllNal:
	UNWIND(.fnstart)
	@ args = 0, pretend = 0, frame = 0
	@ frame_needed = 1, uses_anonymous_args = 0
	UNWIND(.movsp ip)
	mov	ip, sp
	stmfd	sp!, {r4, r5, r6, r7, fp, ip, lr, pc}
	UNWIND(.pad #4)
	UNWIND(.save {r4, r5, r6, r7, fp, ip, lr})
	UNWIND(.setfp fp, ip, #-4)
	sub	fp, ip, #4
	mov	r6, r0
	add	r4, r0, #936
	add	r5, r0, #12992
	b	.L629
.L628:
	add	r4, r4, #88
	cmp	r4, r5
	beq	.L631
.L629:
	ldrb	r3, [r4, #1]	@ zero_extendqisi2
	cmp	r3, #1
	bne	.L628
	mov	r1, r4
	ldr	r0, [r6, #120]
	add	r4, r4, #88
	bl	MVC_ReleaseNAL
	cmp	r4, r5
	bne	.L629
.L631:
	mov	r0, #0
	ldmfd	sp, {r4, r5, r6, r7, fp, sp, pc}
	UNWIND(.fnend)
	.size	MVC_ClearAllNal, .-MVC_ClearAllNal
	.align	2
	.global	MVC_ClearAllSlice
	.type	MVC_ClearAllSlice, %function
MVC_ClearAllSlice:
	UNWIND(.fnstart)
	@ args = 0, pretend = 0, frame = 0
	@ frame_needed = 1, uses_anonymous_args = 0
	UNWIND(.movsp ip)
	mov	ip, sp
	stmfd	sp!, {r4, r5, r6, r7, fp, ip, lr, pc}
	UNWIND(.pad #4)
	UNWIND(.save {r4, r5, r6, r7, fp, ip, lr})
	UNWIND(.setfp fp, ip, #-4)
	sub	fp, ip, #4
	movw	r4, #11024
	movw	r5, #11568
	movt	r4, 170
	movt	r5, 170
	add	r4, r0, r4
	add	r5, r0, r5
	mov	r6, r0
	mov	r7, #0
.L634:
	ldr	r1, [r4, #4]!
	cmp	r1, #0
	beq	.L633
	ldr	r0, [r6, #120]
	bl	MVC_ReleaseNAL
	str	r7, [r4]
.L633:
	cmp	r4, r5
	bne	.L634
	mov	r0, #0
	str	r0, [r6, #64]
	str	r0, [r6, #104]
	ldmfd	sp, {r4, r5, r6, r7, fp, sp, pc}
	UNWIND(.fnend)
	.size	MVC_ClearAllSlice, .-MVC_ClearAllSlice
	.align	2
	.global	MVC_ClearCurrPic
	.type	MVC_ClearCurrPic, %function
MVC_ClearCurrPic:
	UNWIND(.fnstart)
	@ args = 0, pretend = 0, frame = 0
	@ frame_needed = 1, uses_anonymous_args = 0
	UNWIND(.movsp ip)
	mov	ip, sp
	stmfd	sp!, {r4, r5, fp, ip, lr, pc}
	UNWIND(.pad #4)
	UNWIND(.save {r4, r5, fp, ip, lr})
	UNWIND(.setfp fp, ip, #-4)
	sub	fp, ip, #4
	mov	r4, r0
	bl	MVC_ClearAllSlice
	ldr	r0, [r4, #40]
	add	r3, r4, #11075584
	add	r3, r3, #40960
	mov	r2, #0
	movw	r1, #23352
	movt	r1, 1
	str	r0, [r3, #2188]
	str	r1, [r3, #2192]
	mov	r0, #2
	mov	r1, #7
	strb	r0, [r3, #2177]
	strb	r1, [r3, #2179]
	mov	r0, #32
	mov	r1, #3
	strb	r0, [r3, #2178]
	str	r1, [r3, #2200]
	mvn	r0, #0
	mov	r1, #262144
	str	r0, [r3, #2204]
	str	r1, [r3, #2216]
	mov	r0, r2
	strb	r2, [r3, #2176]
	str	r2, [r3, #2208]
	str	r2, [r3, #2212]
	ldmfd	sp, {r4, r5, fp, sp, pc}
	UNWIND(.fnend)
	.size	MVC_ClearCurrPic, .-MVC_ClearCurrPic
	.align	2
	.global	MVC_ArrangeVahbMem
	.type	MVC_ArrangeVahbMem, %function
MVC_ArrangeVahbMem:
	UNWIND(.fnstart)
	@ args = 4, pretend = 0, frame = 40
	@ frame_needed = 1, uses_anonymous_args = 0
	UNWIND(.movsp ip)
	mov	ip, sp
	stmfd	sp!, {r4, r5, r6, r7, r8, fp, ip, lr, pc}
	UNWIND(.pad #4)
	UNWIND(.save {r4, r5, r6, r7, r8, fp, ip, lr})
	UNWIND(.setfp fp, ip, #-4)
	sub	fp, ip, #4
	UNWIND(.pad #44)
	sub	sp, sp, #44
	ldr	r7, .L648
	mov	r5, r1
	mov	r6, r2
	mov	r4, r0
	mov	r2, #32
	ldr	r3, [r7, #48]
	sub	r0, fp, #68
	mov	r1, #0
	blx	r3
	ldr	r2, [r4, #224]
	str	r6, [fp, #-40]
	mov	r3, #0
	str	r5, [fp, #-60]
	ldr	r2, [r2, #28]
	str	r6, [fp, #-56]
	cmp	r2, #24
	str	r5, [fp, #-52]
	str	r6, [fp, #-48]
	str	r5, [fp, #-44]
	strb	r3, [fp, #-68]
	strb	r3, [fp, #-67]
	beq	.L641
	add	r1, r4, #11075584
	ldrb	r2, [fp, #4]	@ zero_extendqisi2
	add	r1, r1, #45056
	strb	r3, [fp, #-63]
	mov	r3, #5
	strb	r3, [fp, #-62]
	ldr	r3, [r1, #2376]
	add	r3, r3, #3
	strb	r3, [fp, #-64]
.L645:
	sub	r1, fp, #68
	ldr	r0, [r4, #120]
	strb	r2, [fp, #-61]
	mov	r6, #0
	mov	r5, #1
	strb	r6, [fp, #-65]
	strb	r5, [fp, #-66]
	bl	FSP_ConfigInstance
	subs	r8, r0, #0
	bne	.L642
	ldr	r1, [r4, #224]
	sub	r3, fp, #72
	ldr	r0, [r4, #120]
	ldr	r2, [r1, #24]
	ldr	r1, [r1, #20]
	bl	FSP_ConfigFrameBuf
	cmp	r0, r6
	moveq	r0, r5
	bne	.L647
.L646:
	sub	sp, fp, #32
	ldmfd	sp, {r4, r5, r6, r7, r8, fp, sp, pc}
.L641:
	mov	r1, #5
	strb	r3, [fp, #-64]
	strb	r3, [fp, #-63]
	mov	r2, #1
	strb	r1, [fp, #-62]
	b	.L645
.L642:
	ldr	r3, [r7, #68]
	mov	r0, r6
	ldr	r1, .L648+4
	blx	r3
	mvn	r0, #19
	b	.L646
.L647:
	ldr	r3, [r7, #68]
	mov	r0, r8
	ldr	r1, .L648+8
	blx	r3
	mvn	r0, #19
	b	.L646
.L649:
	.align	2
.L648:
	.word	vfmw_Osal_Func_Ptr_S
	.word	.LC24
	.word	.LC23
	UNWIND(.fnend)
	.size	MVC_ArrangeVahbMem, .-MVC_ArrangeVahbMem
	.align	2
	.global	MVC_RepairList
	.type	MVC_RepairList, %function
MVC_RepairList:
	UNWIND(.fnstart)
	@ args = 0, pretend = 0, frame = 0
	@ frame_needed = 1, uses_anonymous_args = 0
	UNWIND(.movsp ip)
	mov	ip, sp
	stmfd	sp!, {r3, r4, r5, r6, r7, r8, r9, r10, fp, ip, lr, pc}
	UNWIND(.pad #4)
	UNWIND(.save {r3, r4, r5, r6, r7, r8, r9, r10, fp, ip, lr})
	UNWIND(.setfp fp, ip, #-4)
	sub	fp, ip, #4
	add	r3, r0, #11075584
	mov	r7, r0
	add	r3, r3, #40960
	ldrb	r3, [r3, #520]	@ zero_extendqisi2
	cmp	r3, #1
	beq	.L652
	bcc	.L667
	cmp	r3, #2
	bne	.L673
.L668:
	mov	r0, #0
	ldmfd	sp, {r3, r4, r5, r6, r7, r8, r9, r10, fp, sp, pc}
.L664:
	mov	r0, r7
.L673:
	bl	MVC_ClearCurrSlice
	mvn	r0, #0
	ldmfd	sp, {r3, r4, r5, r6, r7, r8, r9, r10, fp, sp, pc}
.L652:
	mov	r0, #2
.L653:
	movw	r6, #41524
	add	r8, r7, #11141120
	movt	r6, 169
	add	r6, r7, r6
	add	r8, r8, #8192
	add	r5, r7, #256
	ldr	r2, [r6, #4]!
	mov	lr, r7
	mov	r4, #0
	mov	r9, #1
	cmp	r2, #0
	beq	.L655
.L675:
	ldr	r10, [lr, #256]
	cmp	r10, #0
	bne	.L669
	mov	ip, r5
	mov	r3, r10
	b	.L657
.L658:
	ldr	r1, [ip, #4]!
	cmp	r1, #0
	bne	.L660
.L657:
	add	r3, r3, #1
	cmp	r3, r2
	bne	.L658
	ldr	r3, [r7, #224]
	ldr	r3, [r3, #12]
	cmp	r3, #2
	bne	.L664
	ldr	r1, [r8, #2112]
	add	r1, r1, #576
.L660:
	mov	ip, r5
	mov	r3, #0
	b	.L666
.L662:
	ldr	r10, [ip, #4]!
.L666:
	add	r3, r3, #1
	cmp	r10, #0
	streq	r1, [ip]
	cmp	r3, r2
	bne	.L662
.L663:
	add	r4, r4, #1
	add	r5, r5, #132
	cmp	r0, r4
	add	lr, lr, #132
	bls	.L668
	ldr	r2, [r6, #4]!
	cmp	r2, #0
	bne	.L675
.L655:
	ldr	r3, [r7, #224]
	ldr	r3, [r3, #12]
	cmp	r3, #2
	bne	.L664
	str	r9, [r6]
	ldr	r3, [r8, #2112]
	add	r3, r3, #576
	str	r3, [lr, #256]
	b	.L663
.L669:
	mov	r1, r10
	b	.L660
.L667:
	mov	r0, #1
	b	.L653
	UNWIND(.fnend)
	.size	MVC_RepairList, .-MVC_RepairList
	.align	2
	.global	MVC_GetShortTermPicPoint
	.type	MVC_GetShortTermPicPoint, %function
MVC_GetShortTermPicPoint:
	UNWIND(.fnstart)
	@ args = 0, pretend = 0, frame = 0
	@ frame_needed = 1, uses_anonymous_args = 0
	UNWIND(.movsp ip)
	mov	ip, sp
	stmfd	sp!, {r4, r5, fp, ip, lr, pc}
	UNWIND(.pad #4)
	UNWIND(.save {r4, r5, fp, ip, lr})
	UNWIND(.setfp fp, ip, #-4)
	sub	fp, ip, #4
	add	r3, r0, #11075584
	add	r2, r3, #40960
	ldrb	r4, [r2, #521]	@ zero_extendqisi2
	cmp	r4, #0
	beq	.L677
	ldrb	r2, [r2, #522]	@ zero_extendqisi2
	cmp	r2, #0
	movne	r4, #2
	moveq	r4, #1
.L677:
	add	r3, r3, #45056
	ldr	r5, [r3, #2384]
	cmp	r5, #0
	beq	.L685
	movw	r3, #47304
	mov	r2, #0
	movt	r3, 169
	add	r3, r0, r3
	b	.L682
.L695:
	ldrb	ip, [r0, #3]	@ zero_extendqisi2
	cmp	ip, #3
	beq	.L693
.L680:
	add	r2, r2, #1
	add	r3, r3, #4
	cmp	r2, r5
	beq	.L694
.L682:
	cmp	r4, #0
	ldr	r0, [r3]
	beq	.L695
	ldrb	lr, [r0, #3]	@ zero_extendqisi2
	tst	lr, #1
	beq	.L681
	ldr	ip, [r0, #612]
	bic	ip, ip, #-16777216
	bic	ip, ip, #255
	cmp	ip, #65536
	beq	.L696
.L681:
	tst	lr, #2
	beq	.L680
	ldr	ip, [r0, #648]
	bic	ip, ip, #-16777216
	bic	ip, ip, #255
	cmp	ip, #65536
	bne	.L680
	ldr	ip, [r0, #660]
	cmp	ip, r1
	bne	.L680
	add	r0, r0, #648
	ldmfd	sp, {r4, r5, fp, sp, pc}
.L693:
	ldr	ip, [r0, #576]
	bic	ip, ip, #-16777216
	bic	ip, ip, #255
	cmp	ip, #65536
	bne	.L680
	ldr	ip, [r0, #588]
	cmp	ip, r1
	bne	.L680
	add	r0, r0, #576
	ldmfd	sp, {r4, r5, fp, sp, pc}
.L696:
	ldr	ip, [r0, #624]
	cmp	ip, r1
	bne	.L681
	add	r0, r0, #612
	ldmfd	sp, {r4, r5, fp, sp, pc}
.L694:
	mov	r0, #0
	ldmfd	sp, {r4, r5, fp, sp, pc}
.L685:
	mov	r0, r5
	ldmfd	sp, {r4, r5, fp, sp, pc}
	UNWIND(.fnend)
	.size	MVC_GetShortTermPicPoint, .-MVC_GetShortTermPicPoint
	.align	2
	.global	MVC_GetLongTermPicPoint
	.type	MVC_GetLongTermPicPoint, %function
MVC_GetLongTermPicPoint:
	UNWIND(.fnstart)
	@ args = 0, pretend = 0, frame = 0
	@ frame_needed = 1, uses_anonymous_args = 0
	UNWIND(.movsp ip)
	mov	ip, sp
	stmfd	sp!, {r4, r5, fp, ip, lr, pc}
	UNWIND(.pad #4)
	UNWIND(.save {r4, r5, fp, ip, lr})
	UNWIND(.setfp fp, ip, #-4)
	sub	fp, ip, #4
	add	r3, r0, #11075584
	add	r2, r3, #40960
	ldrb	r4, [r2, #521]	@ zero_extendqisi2
	cmp	r4, #0
	beq	.L698
	ldrb	r2, [r2, #522]	@ zero_extendqisi2
	cmp	r2, #0
	movne	r4, #2
	moveq	r4, #1
.L698:
	add	r3, r3, #45056
	ldr	r5, [r3, #2388]
	cmp	r5, #0
	beq	.L706
	movw	r3, #47368
	mov	r2, #0
	movt	r3, 169
	add	r3, r0, r3
	b	.L703
.L716:
	ldrb	ip, [r0, #3]	@ zero_extendqisi2
	cmp	ip, #3
	beq	.L714
.L701:
	add	r2, r2, #1
	add	r3, r3, #4
	cmp	r2, r5
	beq	.L715
.L703:
	cmp	r4, #0
	ldr	r0, [r3]
	beq	.L716
	ldrb	lr, [r0, #3]	@ zero_extendqisi2
	tst	lr, #1
	beq	.L702
	ldr	ip, [r0, #612]
	bic	ip, ip, #-16777216
	bic	ip, ip, #255
	cmp	ip, #256
	beq	.L717
.L702:
	tst	lr, #2
	beq	.L701
	ldr	ip, [r0, #648]
	bic	ip, ip, #-16777216
	bic	ip, ip, #255
	cmp	ip, #256
	bne	.L701
	ldr	ip, [r0, #656]
	cmp	ip, r1
	bne	.L701
	add	r0, r0, #648
	ldmfd	sp, {r4, r5, fp, sp, pc}
.L714:
	ldr	ip, [r0, #576]
	bic	ip, ip, #-16777216
	bic	ip, ip, #255
	cmp	ip, #256
	bne	.L701
	ldr	ip, [r0, #584]
	cmp	ip, r1
	bne	.L701
	add	r0, r0, #576
	ldmfd	sp, {r4, r5, fp, sp, pc}
.L717:
	ldr	ip, [r0, #620]
	cmp	ip, r1
	bne	.L702
	add	r0, r0, #612
	ldmfd	sp, {r4, r5, fp, sp, pc}
.L715:
	mov	r0, #0
	ldmfd	sp, {r4, r5, fp, sp, pc}
.L706:
	mov	r0, r5
	ldmfd	sp, {r4, r5, fp, sp, pc}
	UNWIND(.fnend)
	.size	MVC_GetLongTermPicPoint, .-MVC_GetLongTermPicPoint
	.align	2
	.global	MVC_ReorderSTList
	.type	MVC_ReorderSTList, %function
MVC_ReorderSTList:
	UNWIND(.fnstart)
	@ args = 8, pretend = 0, frame = 0
	@ frame_needed = 1, uses_anonymous_args = 0
	UNWIND(.movsp ip)
	mov	ip, sp
	stmfd	sp!, {r4, r5, r6, r7, r8, r9, fp, ip, lr, pc}
	UNWIND(.pad #4)
	UNWIND(.save {r4, r5, r6, r7, r8, r9, fp, ip, lr})
	UNWIND(.setfp fp, ip, #-4)
	sub	fp, ip, #4
	mov	ip, r1, asl #7
	ldr	r7, [fp, #4]
	add	r6, ip, r1, lsl #2
	mov	r1, r3
	add	r6, r6, #256
	mov	r5, r3
	mov	r8, r2
	add	r6, r0, r6
	bl	MVC_GetShortTermPicPoint
	ldr	r4, [r7]
	add	r3, r8, #1
	ldr	r1, [fp, #8]
	cmp	r3, r4
	ble	.L719
	add	lr, r6, r3, lsl #2
	mov	ip, r3
.L720:
	ldr	r4, [lr, #-4]!
	sub	ip, ip, #1
	str	r4, [lr, #4]
	ldr	r4, [r7]
	cmp	r4, ip
	blt	.L720
.L719:
	add	r2, r4, #1
	str	r2, [r7]
	str	r0, [r6, r4, asl #2]
	ldr	ip, [r7]
	cmp	r3, ip
	ldmltfd	sp, {r4, r5, r6, r7, r8, r9, fp, sp, pc}
	add	r2, r8, #2
	add	r4, r6, ip, lsl #2
	mov	lr, ip
	b	.L724
.L723:
	str	r0, [r6, lr, asl #2]
	add	lr, lr, #1
.L722:
	cmp	ip, r2
	beq	.L732
.L724:
	ldr	r0, [r4], #4
	add	ip, ip, #1
	cmp	r0, #0
	beq	.L722
	ldrb	r3, [r0, #1]	@ zero_extendqisi2
	cmp	r3, #0
	bne	.L723
	ldr	r3, [r0, #12]
	cmp	r3, r5
	bne	.L723
	ldr	r3, [r0, #4]
	ldr	r3, [r3, #56]
	cmp	r3, r1
	bne	.L723
	cmp	ip, r2
	bne	.L724
.L732:
	ldmfd	sp, {r4, r5, r6, r7, r8, r9, fp, sp, pc}
	UNWIND(.fnend)
	.size	MVC_ReorderSTList, .-MVC_ReorderSTList
	.align	2
	.global	MVC_ReorderLTList
	.type	MVC_ReorderLTList, %function
MVC_ReorderLTList:
	UNWIND(.fnstart)
	@ args = 8, pretend = 0, frame = 0
	@ frame_needed = 1, uses_anonymous_args = 0
	UNWIND(.movsp ip)
	mov	ip, sp
	stmfd	sp!, {r4, r5, r6, r7, r8, r9, fp, ip, lr, pc}
	UNWIND(.pad #4)
	UNWIND(.save {r4, r5, r6, r7, r8, r9, fp, ip, lr})
	UNWIND(.setfp fp, ip, #-4)
	sub	fp, ip, #4
	mov	ip, r1, asl #7
	ldr	r7, [fp, #4]
	add	r6, ip, r1, lsl #2
	mov	r1, r3
	add	r6, r6, #256
	mov	r5, r3
	mov	r8, r2
	add	r6, r0, r6
	bl	MVC_GetLongTermPicPoint
	ldr	r4, [r7]
	add	r3, r8, #1
	ldr	r1, [fp, #8]
	cmp	r3, r4
	ble	.L734
	add	lr, r6, r3, lsl #2
	mov	ip, r3
.L735:
	ldr	r4, [lr, #-4]!
	sub	ip, ip, #1
	str	r4, [lr, #4]
	ldr	r4, [r7]
	cmp	r4, ip
	blt	.L735
.L734:
	add	r2, r4, #1
	str	r2, [r7]
	str	r0, [r6, r4, asl #2]
	ldr	ip, [r7]
	cmp	r3, ip
	ldmltfd	sp, {r4, r5, r6, r7, r8, r9, fp, sp, pc}
	add	r2, r8, #2
	add	r4, r6, ip, lsl #2
	mov	lr, ip
	b	.L739
.L738:
	str	r0, [r6, lr, asl #2]
	add	lr, lr, #1
.L737:
	cmp	ip, r2
	beq	.L750
.L739:
	ldr	r0, [r4], #4
	add	ip, ip, #1
	cmp	r0, #0
	beq	.L737
	ldrb	r3, [r0, #1]	@ zero_extendqisi2
	cmp	r3, #0
	beq	.L738
	ldr	r3, [r0, #8]
	cmp	r3, r5
	bne	.L738
	ldr	r3, [r0, #4]
	ldr	r3, [r3, #56]
	cmp	r3, r1
	bne	.L738
	cmp	ip, r2
	bne	.L739
.L750:
	ldmfd	sp, {r4, r5, r6, r7, r8, r9, fp, sp, pc}
	UNWIND(.fnend)
	.size	MVC_ReorderLTList, .-MVC_ReorderLTList
	.align	2
	.global	MVC_GetMaxViewIdx
	.type	MVC_GetMaxViewIdx, %function
MVC_GetMaxViewIdx:
	UNWIND(.fnstart)
	@ args = 0, pretend = 0, frame = 0
	@ frame_needed = 1, uses_anonymous_args = 0
	UNWIND(.movsp ip)
	mov	ip, sp
	stmfd	sp!, {r4, r5, r6, fp, ip, lr, pc}
	UNWIND(.pad #4)
	UNWIND(.save {r4, r5, r6, fp, ip, lr})
	UNWIND(.setfp fp, ip, #-4)
	sub	fp, ip, #4
	add	ip, r0, #10747904
	movw	lr, #22868
	add	ip, ip, #20480
	movt	lr, 164
	add	lr, r0, lr
	ldr	r5, [ip, #2384]
	adds	r5, r5, #1
	beq	.L758
	ldr	ip, [ip, #2388]
	cmp	r1, ip
	beq	.L759
	mov	r6, r5
	mov	ip, #0
	b	.L753
.L755:
	ldr	r4, [lr, #4]!
	cmp	r1, r4
	beq	.L761
.L753:
	add	ip, ip, #1
	cmp	ip, r5
	bne	.L755
	cmp	r6, #0
	blt	.L762
.L752:
	cmp	r2, #0
	add	r6, r6, r3, lsl #1
	movwne	r3, #5718
	movweq	r3, #5726
	movt	r3, 41
	add	r3, r6, r3
	add	r0, r0, r3, lsl #2
	ldr	r0, [r0, #4]
	ldmfd	sp, {r4, r5, r6, fp, sp, pc}
.L761:
	mov	r6, ip
	cmp	r6, #0
	bge	.L752
.L762:
	mov	r0, #0
	ldmfd	sp, {r4, r5, r6, fp, sp, pc}
.L758:
	mov	r6, r5
	b	.L752
.L759:
	mov	r6, #0
	b	.L752
	UNWIND(.fnend)
	.size	MVC_GetMaxViewIdx, .-MVC_GetMaxViewIdx
	.align	2
	.global	mvc_get_inter_view_pic
	.type	mvc_get_inter_view_pic, %function
mvc_get_inter_view_pic:
	UNWIND(.fnstart)
	@ args = 0, pretend = 0, frame = 0
	@ frame_needed = 1, uses_anonymous_args = 0
	UNWIND(.movsp ip)
	mov	ip, sp
	stmfd	sp!, {r4, fp, ip, lr, pc}
	UNWIND(.pad #4)
	UNWIND(.save {r4, fp, ip, lr})
	UNWIND(.setfp fp, ip, #-4)
	sub	fp, ip, #4
	movw	ip, #27166
	mov	r4, #1376
	movt	ip, 42
	add	ip, r3, ip
	mla	r3, r4, r3, r0
	ldr	lr, [r0, ip, asl #2]
	movw	ip, #31360
	cmp	lr, #0
	movt	ip, 169
	add	ip, r3, ip
	beq	.L769
	add	r4, r0, #11141120
	mov	r3, #0
	mov	r0, ip
	add	r4, r4, #8192
	b	.L768
.L765:
	cmp	r3, lr
	add	r0, r0, #688
	beq	.L771
.L768:
	ldr	ip, [r0, #56]
	add	r3, r3, #1
	cmp	ip, r1
	bne	.L765
	ldrb	ip, [r4, #1595]	@ zero_extendqisi2
	cmp	ip, #0
	bne	.L766
	ldr	ip, [r0, #596]
	cmp	ip, r2
	bne	.L765
	add	r0, r0, #576
	ldmfd	sp, {r4, fp, sp, pc}
.L766:
	cmp	ip, #1
	beq	.L772
	cmp	ip, #2
	bne	.L765
	ldr	ip, [r0, #668]
	cmp	ip, r2
	bne	.L765
	add	r0, r0, #648
	ldmfd	sp, {r4, fp, sp, pc}
.L772:
	ldr	ip, [r0, #632]
	cmp	ip, r2
	bne	.L765
	add	r0, r0, #612
	ldmfd	sp, {r4, fp, sp, pc}
.L771:
	mov	r0, #0
	ldmfd	sp, {r4, fp, sp, pc}
.L769:
	mov	r0, lr
	ldmfd	sp, {r4, fp, sp, pc}
	UNWIND(.fnend)
	.size	mvc_get_inter_view_pic, .-mvc_get_inter_view_pic
	.align	2
	.global	mvc_reorder_interview
	.type	mvc_reorder_interview, %function
mvc_reorder_interview:
	UNWIND(.fnstart)
	@ args = 8, pretend = 0, frame = 0
	@ frame_needed = 1, uses_anonymous_args = 0
	UNWIND(.movsp ip)
	mov	ip, sp
	stmfd	sp!, {r4, r5, r6, r7, r8, r9, fp, ip, lr, pc}
	UNWIND(.pad #4)
	UNWIND(.save {r4, r5, r6, r7, r8, r9, fp, ip, lr})
	UNWIND(.setfp fp, ip, #-4)
	sub	fp, ip, #4
	ldr	r4, [fp, #8]
	mov	r7, r2
	ldr	r6, [fp, #4]
	mov	r5, r3
	mov	r8, r1
	mov	r1, r3
	mov	r2, r4, asl #7
	mov	r3, r4
	add	r4, r2, r4, lsl #2
	mov	r2, r6
	add	r4, r4, #256
	add	r4, r0, r4
	bl	mvc_get_inter_view_pic
	cmp	r0, #0
	ldmeqfd	sp, {r4, r5, r6, r7, r8, r9, fp, sp, pc}
	ldr	r3, [r7]
	add	r1, r8, #1
	cmp	r1, r3
	bls	.L775
	add	lr, r4, r1, lsl #2
	mov	ip, r1
.L776:
	ldr	r3, [lr, #-4]!
	sub	ip, ip, #1
	str	r3, [lr, #4]
	ldr	r3, [r7]
	cmp	r3, ip
	bcc	.L776
.L775:
	add	r2, r3, #1
	str	r2, [r7]
	str	r0, [r4, r3, asl #2]
	ldr	ip, [r7]
	cmp	r1, ip
	ldmccfd	sp, {r4, r5, r6, r7, r8, r9, fp, sp, pc}
	add	r3, r4, ip, lsl #2
	mov	lr, ip
	b	.L780
.L778:
	cmp	r1, ip
	str	r0, [r4, lr, asl #2]
	add	lr, lr, #1
	bcc	.L787
.L780:
	ldr	r0, [r3], #4
	add	ip, ip, #1
	cmp	r0, #0
	beq	.L778
	ldr	r2, [r0, #4]
	ldr	r2, [r2, #56]
	cmp	r2, r5
	bne	.L778
	ldr	r2, [r0, #20]
	cmp	r2, r6
	bne	.L778
	cmp	r1, ip
	bcs	.L780
.L787:
	ldmfd	sp, {r4, r5, r6, r7, r8, r9, fp, sp, pc}
	UNWIND(.fnend)
	.size	mvc_reorder_interview, .-mvc_reorder_interview
	.align	2
	.global	MVC_ReorderRefPiclist
	.type	MVC_ReorderRefPiclist, %function
MVC_ReorderRefPiclist:
	UNWIND(.fnstart)
	@ args = 0, pretend = 0, frame = 56
	@ frame_needed = 1, uses_anonymous_args = 0
	UNWIND(.movsp ip)
	mov	ip, sp
	stmfd	sp!, {r4, r5, r6, r7, r8, r9, r10, fp, ip, lr, pc}
	UNWIND(.pad #4)
	UNWIND(.save {r4, r5, r6, r7, r8, r9, r10, fp, ip, lr})
	UNWIND(.setfp fp, ip, #-4)
	sub	fp, ip, #4
	UNWIND(.pad #68)
	sub	sp, sp, #68
	add	r6, r0, #11075584
	add	r9, r6, #40960
	str	r2, [fp, #-64]
	mov	r2, #0
	mov	r5, r0
	ldrb	r3, [r9, #521]	@ zero_extendqisi2
	mov	r10, r1
	str	r2, [fp, #-48]
	cmp	r3, r2
	beq	.L789
	ldrb	r3, [r9, #522]	@ zero_extendqisi2
	cmp	r3, r2
	movne	r3, #2
	moveq	r3, #1
.L789:
	cmp	r10, #1
	bls	.L837
.L788:
	sub	sp, fp, #40
	ldmfd	sp, {r4, r5, r6, r7, r8, r9, r10, fp, sp, pc}
.L837:
	cmp	r10, #0
	beq	.L838
	movw	r1, #40564
	movw	r8, #40828
	movw	r6, #41348
	movt	r1, 169
	movt	r8, 169
	movt	r6, 169
	add	r1, r5, r1
	add	r8, r5, r8
	add	r6, r5, r6
	movw	r2, #41088
	movt	r2, 169
	add	r2, r5, r2
	str	r2, [fp, #-100]
.L792:
	ldr	r0, [r5, #236]
	cmp	r3, #0
	mov	r2, #1
	ldr	r3, [r0, #2896]
	add	r3, r3, #4
	mov	r3, r2, asl r3
	str	r3, [fp, #-88]
	ldr	r3, [r9, #548]
	ldrne	r2, [fp, #-88]
	movne	r3, r3, asl #1
	addne	r3, r3, #1
	str	r3, [fp, #-92]
	ldr	r3, [fp, #-64]
	movne	r2, r2, asl #1
	strne	r2, [fp, #-88]
	adds	r3, r3, #2
	str	r3, [fp, #-72]
	beq	.L788
	ldr	r2, [r1]
	cmp	r2, #3
	beq	.L788
	movw	r3, #22868
	str	r9, [fp, #-68]
	mov	r0, r3
	mov	r3, #0
	mov	r4, r3
	str	r3, [fp, #-76]
	str	r3, [fp, #-80]
	mov	r7, r3
	ldr	r3, [fp, #-92]
	movt	r0, 164
	mov	r9, r1
	add	r0, r5, r0
	str	r0, [fp, #-96]
	str	r3, [fp, #-60]
	mov	r3, #1
	str	r3, [fp, #-84]
	b	.L796
.L797:
	cmp	r2, #2
	beq	.L839
	ldr	r3, [fp, #-84]
	cmp	r3, #1
	beq	.L803
	ldr	r3, [fp, #-68]
	ldrb	r3, [r3, #529]	@ zero_extendqisi2
	str	r3, [fp, #-56]
	mov	r3, r10, asl #1
.L804:
	cmp	r2, #4
	ldr	r2, [r6]
	beq	.L840
	add	r2, r2, #1
	add	r4, r2, r4
	ldr	r2, [fp, #-76]
	cmp	r2, r4
	rsble	r4, r2, r4
.L814:
	ldr	r2, [fp, #-56]
	add	r0, r5, #11141120
	add	r0, r0, #8192
	ldr	r1, [fp, #-64]
	cmp	r2, #0
	ldr	r2, [fp, #-80]
	add	r3, r3, r2
	movwne	r2, #5722
	add	r3, r3, r4
	movweq	r2, #5730
	movt	r2, 41
	add	r2, r3, r2
	add	r2, r5, r2, lsl #2
	ldr	r3, [r2, #4]
	sub	r2, fp, #48
	str	r10, [sp, #4]
	ldr	ip, [r0, #2132]
	mov	r0, r5
	str	ip, [sp]
	bl	mvc_reorder_interview
.L801:
	ldr	r3, [fp, #-72]
	add	r7, r7, #1
	cmp	r7, r3
	beq	.L788
	ldr	r2, [r9, #4]!
	add	r6, r6, #4
	add	r8, r8, #4
	cmp	r2, #3
	beq	.L788
.L796:
	cmp	r2, #1
	bhi	.L797
	cmp	r2, #0
	ldr	r3, [r8]
	bne	.L798
	ldr	r2, [fp, #-60]
	mvn	r3, r3
	adds	r3, r2, r3
	str	r3, [fp, #-60]
	bmi	.L841
.L799:
	ldr	r2, [fp, #-60]
	mov	r1, r10
	ldr	r3, [fp, #-92]
	mov	r0, r5
	cmp	r3, r2
	movlt	r3, r2
	ldrlt	r2, [fp, #-88]
	ldrge	r3, [fp, #-60]
	rsblt	r3, r2, r3
	ldr	r2, [fp, #-68]
	ldr	ip, [r2, #2160]
	sub	r2, fp, #48
	str	r2, [sp]
	ldr	r2, [fp, #-64]
	str	ip, [sp, #4]
	bl	MVC_ReorderSTList
	b	.L801
.L838:
	movw	r1, #40432
	movw	r8, #40696
	movt	r1, 169
	movt	r8, 169
	add	r6, r6, #41216
	add	r1, r5, r1
	add	r8, r5, r8
	str	r9, [fp, #-100]
	b	.L792
.L840:
	mvn	r2, r2
	adds	r4, r2, r4
	ldrmi	r2, [fp, #-76]
	addmi	r4, r4, r2
	b	.L814
.L803:
	add	r3, r5, #10747904
	ldr	r1, [fp, #-68]
	add	r3, r3, #20480
	ldr	ip, [r3, #2384]
	ldr	r1, [r1, #2160]
	adds	ip, ip, #1
	beq	.L805
	ldr	r3, [r3, #2388]
	cmp	r1, r3
	beq	.L806
	ldr	r0, [fp, #-96]
	mov	r3, #0
	str	ip, [fp, #-80]
	b	.L807
.L809:
	ldr	lr, [r0, #4]!
	cmp	r1, lr
	beq	.L823
.L807:
	add	r3, r3, #1
	cmp	r3, ip
	bne	.L809
.L808:
	ldr	r3, [fp, #-68]
	mov	r4, ip
	ldr	r0, [fp, #-96]
	ldrb	r3, [r3, #529]	@ zero_extendqisi2
	str	r3, [fp, #-56]
	mov	r3, #0
	b	.L819
.L811:
	ldr	lr, [r0, #4]!
	cmp	r1, lr
	beq	.L824
.L819:
	add	r3, r3, #1
	cmp	r3, ip
	bne	.L811
	cmp	r4, #0
	blt	.L825
.L818:
	ldr	r3, [fp, #-56]
	cmp	r3, #0
	mov	r3, r10, asl #1
	beq	.L812
	add	r4, r3, r4
	movw	r1, #5718
	movt	r1, 41
	add	r1, r4, r1
	mov	r0, #0
	str	r0, [fp, #-84]
	add	r1, r5, r1, lsl #2
	mvn	r4, #0
	ldr	r1, [r1, #4]
	str	r1, [fp, #-76]
	b	.L804
.L798:
	ldr	r2, [fp, #-60]
	add	r3, r3, #1
	add	r3, r2, r3
	ldr	r2, [fp, #-88]
	str	r3, [fp, #-60]
	cmp	r2, r3
	rsble	r3, r2, r3
	strle	r3, [fp, #-60]
	b	.L799
.L839:
	ldr	r1, [fp, #-68]
	sub	r0, fp, #48
	ldr	r3, [fp, #-100]
	ldr	r2, [fp, #-64]
	ldr	ip, [r1, #2160]
	mov	r1, r10
	ldr	r3, [r3, r7, asl #2]
	str	r0, [sp]
	mov	r0, r5
	str	ip, [sp, #4]
	bl	MVC_ReorderLTList
	b	.L801
.L823:
	str	r3, [fp, #-80]
	b	.L808
.L824:
	mov	r4, r3
	cmp	r4, #0
	bge	.L818
.L825:
	mov	r3, #0
	mvn	r4, #0
	mov	r1, r3
	str	r3, [fp, #-84]
	str	r1, [fp, #-76]
	mov	r3, r10, asl #1
	b	.L804
.L812:
	add	r4, r3, r4
	movw	r1, #5726
	movt	r1, 41
	add	r1, r4, r1
	ldr	r0, [fp, #-56]
	mvn	r4, #0
	add	r1, r5, r1, lsl #2
	str	r0, [fp, #-84]
	ldr	r1, [r1, #4]
	str	r1, [fp, #-76]
	b	.L804
.L841:
	ldr	r2, [fp, #-88]
	add	r3, r3, r2
	str	r3, [fp, #-60]
	b	.L799
.L805:
	ldr	r3, [fp, #-68]
	mov	r4, ip
	str	ip, [fp, #-80]
	ldrb	r3, [r3, #529]	@ zero_extendqisi2
	str	r3, [fp, #-56]
	b	.L818
.L806:
	ldr	r1, [fp, #-68]
	mov	r3, #0
	mov	r4, r3
	str	r3, [fp, #-80]
	ldrb	r1, [r1, #529]	@ zero_extendqisi2
	str	r1, [fp, #-56]
	b	.L818
	UNWIND(.fnend)
	.size	MVC_ReorderRefPiclist, .-MVC_ReorderRefPiclist
	.align	2
	.global	MVC_ReorderListX
	.type	MVC_ReorderListX, %function
MVC_ReorderListX:
	UNWIND(.fnstart)
	@ args = 0, pretend = 0, frame = 0
	@ frame_needed = 1, uses_anonymous_args = 0
	UNWIND(.movsp ip)
	mov	ip, sp
	stmfd	sp!, {r4, r5, r6, r7, fp, ip, lr, pc}
	UNWIND(.pad #4)
	UNWIND(.save {r4, r5, r6, r7, fp, ip, lr})
	UNWIND(.setfp fp, ip, #-4)
	sub	fp, ip, #4
	add	r4, r0, #11075584
	mov	r6, r0
	add	r5, r4, #40960
	ldrb	r1, [r5, #520]	@ zero_extendqisi2
	cmp	r1, #2
	ldmeqfd	sp, {r4, r5, r6, r7, fp, sp, pc}
	add	r7, r4, #36864
	ldrb	r3, [r7, #3564]	@ zero_extendqisi2
	cmp	r3, #0
	bne	.L854
.L845:
	ldr	r3, [r5, #580]
	cmp	r1, #1
	add	r3, r3, #1
	str	r3, [r5, #568]
	ldmnefd	sp, {r4, r5, r6, r7, fp, sp, pc}
	ldrb	r3, [r7, #3565]	@ zero_extendqisi2
	cmp	r3, #0
	bne	.L855
.L847:
	add	r4, r4, #40960
	ldr	r3, [r4, #584]
	add	r3, r3, #1
	str	r3, [r4, #572]
	ldmfd	sp, {r4, r5, r6, r7, fp, sp, pc}
.L854:
	mov	r1, #0
	ldr	r2, [r5, #580]
	bl	MVC_ReorderRefPiclist
	ldrb	r1, [r5, #520]	@ zero_extendqisi2
	b	.L845
.L855:
	ldr	r2, [r5, #584]
	mov	r0, r6
	bl	MVC_ReorderRefPiclist
	b	.L847
	UNWIND(.fnend)
	.size	MVC_ReorderListX, .-MVC_ReorderListX
	.align	2
	.global	MVC_GenPiclistfromFrmlist
	.type	MVC_GenPiclistfromFrmlist, %function
MVC_GenPiclistfromFrmlist:
	UNWIND(.fnstart)
	@ args = 8, pretend = 0, frame = 8
	@ frame_needed = 1, uses_anonymous_args = 0
	UNWIND(.movsp ip)
	mov	ip, sp
	stmfd	sp!, {r4, r5, r6, r7, r8, r9, r10, fp, ip, lr, pc}
	UNWIND(.pad #4)
	UNWIND(.save {r4, r5, r6, r7, r8, r9, r10, fp, ip, lr})
	UNWIND(.setfp fp, ip, #-4)
	sub	fp, ip, #4
	UNWIND(.pad #12)
	sub	sp, sp, #12
	cmp	r2, #31
	ldr	r6, [fp, #8]
	mov	r7, r1
	ldr	lr, .L919
	movcc	r4, r2
	ldr	ip, .L919+4
	movcs	r4, #31
	cmp	r6, #0
	str	r3, [fp, #-52]
	movne	r6, lr
	moveq	r6, ip
	cmp	r0, #1
	moveq	r5, #0
	moveq	r10, r5
	beq	.L859
	cmp	r0, #2
	moveq	r5, #0
	moveq	r10, r5
	bne	.L867
.L868:
	cmp	r10, r4
	movcs	r3, #0
	movcc	r3, #1
	cmp	r5, r4
	str	r3, [fp, #-48]
	movcs	r2, #0
	movcc	r2, #1
	orrs	r3, r2, r3
	beq	.L867
	cmp	r2, #0
	beq	.L873
	add	r8, r7, r5, lsl #2
	b	.L872
.L869:
	add	r5, r5, #1
	cmp	r4, r5
	bls	.L873
.L872:
	mov	r9, r8
	ldr	r0, [r8], #4
	ldrb	ip, [r0, #2]	@ zero_extendqisi2
	tst	ip, #2
	beq	.L869
	add	r0, r0, #648
	blx	r6
	cmp	r0, #0
	beq	.L869
	ldr	r3, [fp, #4]
	add	r5, r5, #1
	ldr	r2, [r9]
	ldr	r0, [r3]
	add	r2, r2, #648
	ldr	r3, [fp, #-52]
	str	r2, [r3, r0, asl #2]
	ldr	r3, [fp, #4]
	ldr	r2, [r3]
	add	r2, r2, #1
	str	r2, [r3]
.L873:
	ldr	r3, [fp, #-48]
	cmp	r3, #0
	addne	r8, r7, r10, lsl #2
	bne	.L875
	b	.L868
.L874:
	add	r10, r10, #1
	cmp	r4, r10
	bls	.L868
.L875:
	mov	r9, r8
	ldr	r0, [r8], #4
	ldrb	r2, [r0, #2]	@ zero_extendqisi2
	tst	r2, #1
	beq	.L874
	add	r0, r0, #612
	blx	r6
	cmp	r0, #0
	beq	.L874
	ldr	r3, [fp, #4]
	add	r10, r10, #1
	ldr	r2, [r9]
	ldr	r0, [r3]
	add	r2, r2, #612
	ldr	r3, [fp, #-52]
	str	r2, [r3, r0, asl #2]
	ldr	r3, [fp, #4]
	ldr	r2, [r3]
	add	r2, r2, #1
	str	r2, [r3]
	b	.L868
.L918:
	add	r0, r0, #612
	blx	r6
	cmp	r0, #0
	beq	.L860
	ldr	r3, [fp, #4]
	add	r10, r10, #1
	ldr	r2, [r8]
	ldr	r0, [r3]
	add	r2, r2, #612
	ldr	r3, [fp, #-52]
	str	r2, [r3, r0, asl #2]
	ldr	r3, [fp, #4]
	ldr	r2, [r3]
	add	r2, r2, #1
	str	r2, [r3]
.L864:
	ldr	r3, [fp, #-48]
	cmp	r3, #0
	addne	r8, r7, r5, lsl #2
	bne	.L866
	b	.L859
.L865:
	add	r5, r5, #1
	cmp	r4, r5
	bls	.L859
.L866:
	mov	r9, r8
	ldr	r0, [r8], #4
	ldrb	r2, [r0, #2]	@ zero_extendqisi2
	tst	r2, #2
	beq	.L865
	add	r0, r0, #648
	blx	r6
	cmp	r0, #0
	beq	.L865
	ldr	r3, [fp, #4]
	add	r5, r5, #1
	ldr	r2, [r9]
	ldr	r0, [r3]
	add	r2, r2, #648
	ldr	r3, [fp, #-52]
	str	r2, [r3, r0, asl #2]
	ldr	r3, [fp, #4]
	ldr	r2, [r3]
	add	r2, r2, #1
	str	r2, [r3]
.L859:
	cmp	r10, r4
	movcs	r2, #0
	movcc	r2, #1
	cmp	r5, r4
	movcs	r3, #0
	movcc	r3, #1
	str	r3, [fp, #-48]
	orrs	r3, r3, r2
	beq	.L867
	cmp	r2, #0
	beq	.L864
	add	r9, r7, r10, lsl #2
	b	.L863
.L860:
	add	r10, r10, #1
	cmp	r4, r10
	bls	.L864
.L863:
	mov	r8, r9
	ldr	r0, [r9], #4
	ldrb	ip, [r0, #2]	@ zero_extendqisi2
	tst	ip, #1
	beq	.L860
	b	.L918
.L867:
	mov	r0, #0
	sub	sp, fp, #40
	ldmfd	sp, {r4, r5, r6, r7, r8, r9, r10, fp, sp, pc}
.L920:
	.align	2
.L919:
	.word	MVC_IsLTRefFlg
	.word	MVC_IsSTRefFlg
	UNWIND(.fnend)
	.size	MVC_GenPiclistfromFrmlist, .-MVC_GenPiclistfromFrmlist
	.align	2
	.global	MVC_GetBaseViewId
	.type	MVC_GetBaseViewId, %function
MVC_GetBaseViewId:
	UNWIND(.fnstart)
	@ args = 0, pretend = 0, frame = 0
	@ frame_needed = 1, uses_anonymous_args = 0
	UNWIND(.movsp ip)
	mov	ip, sp
	stmfd	sp!, {fp, ip, lr, pc}
	UNWIND(.pad #4)
	UNWIND(.save {fp, ip, lr})
	UNWIND(.setfp fp, ip, #-4)
	sub	fp, ip, #4
	add	r3, r0, #12992
	mov	r2, #0
	add	r3, r3, #16
.L924:
	ldr	r1, [r3]
	cmp	r1, #0
	beq	.L922
	ldrb	r1, [r3, #-4]	@ zero_extendqisi2
	cmp	r1, #0
	bne	.L932
.L922:
	add	r2, r2, #1
	add	r3, r3, #335872
	cmp	r2, #32
	add	r3, r3, #308
	bne	.L924
	mvn	r0, #0
	ldmfd	sp, {fp, sp, pc}
.L932:
	movw	r3, #8500
	movt	r3, 5
	mla	r2, r3, r2, r0
	add	r2, r2, #12992
	ldr	r0, [r2, #20]
	ldmfd	sp, {fp, sp, pc}
	UNWIND(.fnend)
	.size	MVC_GetBaseViewId, .-MVC_GetBaseViewId
	.align	2
	.global	MVC_GetVOIdx
	.type	MVC_GetVOIdx, %function
MVC_GetVOIdx:
	UNWIND(.fnstart)
	@ args = 0, pretend = 0, frame = 0
	@ frame_needed = 1, uses_anonymous_args = 0
	UNWIND(.movsp ip)
	mov	ip, sp
	stmfd	sp!, {fp, ip, lr, pc}
	UNWIND(.pad #4)
	UNWIND(.save {fp, ip, lr})
	UNWIND(.setfp fp, ip, #-4)
	sub	fp, ip, #4
	cmp	r1, #0
	beq	.L937
	ldr	r3, [r0]
	cmp	r3, r2
	beq	.L938
	mov	ip, r0
	mov	r3, #0
	mov	r0, r1
	b	.L935
.L936:
	ldr	lr, [ip, #4]!
	cmp	lr, r2
	beq	.L939
.L935:
	add	r3, r3, #1
	cmp	r3, r1
	bne	.L936
	ldmfd	sp, {fp, sp, pc}
.L939:
	mov	r0, r3
	ldmfd	sp, {fp, sp, pc}
.L937:
	mov	r0, r1
	ldmfd	sp, {fp, sp, pc}
.L938:
	mov	r0, #0
	ldmfd	sp, {fp, sp, pc}
	UNWIND(.fnend)
	.size	MVC_GetVOIdx, .-MVC_GetVOIdx
	.align	2
	.global	MVC_is_view_id_in_ref_view_list
	.type	MVC_is_view_id_in_ref_view_list, %function
MVC_is_view_id_in_ref_view_list:
	UNWIND(.fnstart)
	@ args = 0, pretend = 0, frame = 0
	@ frame_needed = 1, uses_anonymous_args = 0
	UNWIND(.movsp ip)
	mov	ip, sp
	stmfd	sp!, {fp, ip, lr, pc}
	UNWIND(.pad #4)
	UNWIND(.save {fp, ip, lr})
	UNWIND(.setfp fp, ip, #-4)
	sub	fp, ip, #4
	cmp	r2, #0
	beq	.L944
	ldr	r3, [r1]
	cmp	r3, r0
	beq	.L945
	mov	r3, #0
	b	.L942
.L943:
	ldr	ip, [r1, #4]!
	cmp	ip, r0
	beq	.L941
.L942:
	add	r3, r3, #1
	cmp	r3, r2
	mov	lr, r3
	bne	.L943
.L941:
	cmp	r2, #0
	cmpne	r2, lr
	movhi	r0, #1
	movls	r0, #0
	ldmfd	sp, {fp, sp, pc}
.L944:
	mov	lr, r2
	b	.L941
.L945:
	mov	lr, #0
	b	.L941
	UNWIND(.fnend)
	.size	MVC_is_view_id_in_ref_view_list, .-MVC_is_view_id_in_ref_view_list
	.align	2
	.global	MVC_GenPiclistfromFrmlist_Interview
	.type	MVC_GenPiclistfromFrmlist_Interview, %function
MVC_GenPiclistfromFrmlist_Interview:
	UNWIND(.fnstart)
	@ args = 4, pretend = 0, frame = 0
	@ frame_needed = 1, uses_anonymous_args = 0
	UNWIND(.movsp ip)
	mov	ip, sp
	stmfd	sp!, {fp, ip, lr, pc}
	UNWIND(.pad #4)
	UNWIND(.save {fp, ip, lr})
	UNWIND(.setfp fp, ip, #-4)
	sub	fp, ip, #4
	cmp	r0, #1
	ldr	ip, [fp, #4]
	beq	.L962
	cmp	r0, #2
	ldmnefd	sp, {fp, sp, pc}
	cmp	r2, #0
	ldmeqfd	sp, {fp, sp, pc}
	ldr	r0, [ip]
	add	r1, r1, #648
	mov	lr, #0
.L953:
	add	lr, lr, #1
	str	r1, [r3, r0, asl #2]
	cmp	lr, r2
	ldr	r0, [ip]
	add	r1, r1, #688
	add	r0, r0, #1
	str	r0, [ip]
	bne	.L953
	ldmfd	sp, {fp, sp, pc}
.L962:
	cmp	r2, #0
	ldmeqfd	sp, {fp, sp, pc}
	ldr	r0, [ip]
	add	r1, r1, #612
	mov	lr, #0
.L949:
	add	lr, lr, #1
	str	r1, [r3, r0, asl #2]
	cmp	lr, r2
	ldr	r0, [ip]
	add	r1, r1, #688
	add	r0, r0, #1
	str	r0, [ip]
	bne	.L949
	ldmfd	sp, {fp, sp, pc}
	UNWIND(.fnend)
	.size	MVC_GenPiclistfromFrmlist_Interview, .-MVC_GenPiclistfromFrmlist_Interview
	.align	2
	.global	mvc_append_interview_list
	.type	mvc_append_interview_list, %function
mvc_append_interview_list:
	UNWIND(.fnstart)
	@ args = 0, pretend = 0, frame = 8
	@ frame_needed = 1, uses_anonymous_args = 0
	UNWIND(.movsp ip)
	mov	ip, sp
	stmfd	sp!, {r4, r5, r6, r7, r8, r9, r10, fp, ip, lr, pc}
	UNWIND(.pad #4)
	UNWIND(.save {r4, r5, r6, r7, r8, r9, r10, fp, ip, lr})
	UNWIND(.setfp fp, ip, #-4)
	sub	fp, ip, #4
	UNWIND(.pad #12)
	sub	sp, sp, #12
	add	lr, r0, #10747904
	add	lr, lr, #20480
	add	ip, r0, #11075584
	add	r5, ip, #40960
	mov	r9, r0
	ldr	r6, [lr, #2384]
	movw	r0, #22868
	movt	r0, 164
	str	r2, [fp, #-48]
	adds	r6, r6, #1
	ldr	r7, [r5, #2160]
	add	r0, r9, r0
	beq	.L982
	ldr	r2, [lr, #2388]
	cmp	r7, r2
	beq	.L983
	mov	r2, #0
	b	.L965
.L966:
	ldr	lr, [r0, #4]!
	cmp	r7, lr
	beq	.L964
.L965:
	add	r2, r2, #1
	cmp	r2, r6
	mov	r4, r2
	bne	.L966
.L964:
	ldrb	r2, [r5, #529]	@ zero_extendqisi2
	add	r4, r4, r1, lsl #1
	add	r6, r9, #11141120
	add	ip, ip, #45056
	cmp	r2, #0
	add	r6, r6, #8192
	movwne	r2, #5718
	movweq	r2, #5726
	movtne	r2, 41
	movteq	r2, 41
	addne	r2, r4, r2
	addeq	r2, r4, r2
	ldrb	r8, [r6, #1595]	@ zero_extendqisi2
	addne	r4, r9, r4, lsl #2
	add	r2, r9, r2, lsl #2
	movwne	r10, #22892
	addeq	r4, r9, r4, lsl #2
	movweq	r10, #22924
	ldr	r7, [r2, #4]
	sub	r8, r8, #2
	ldr	r2, [ip, #2376]
	movt	r10, 164
	clz	r8, r8
	add	r10, r4, r10
	subs	r4, r2, #1
	mov	r8, r8, lsr #5
	bmi	.L963
	movw	r5, #28194
	movt	r5, 42
	add	r5, r2, r5
	mov	r2, r3
	mov	r3, r9
	add	r5, r9, r5, lsl #2
	mov	r9, r2
	b	.L980
.L1006:
	ldrb	r2, [r1, #2]	@ zero_extendqisi2
	cmp	r2, #3
	ldreq	r0, [r1, #596]
	bne	.L970
.L972:
	add	r2, r1, r8
	ldrb	r2, [r2, #12]	@ zero_extendqisi2
	cmp	r2, #0
	beq	.L970
	ldr	r2, [r6, #2132]
	cmp	r2, r0
	beq	.L1005
.L970:
	subs	r4, r4, #1
	bmi	.L963
.L980:
	ldr	r1, [r5, #-4]!
	cmp	r1, #0
	beq	.L970
	ldrb	r2, [r6, #1595]	@ zero_extendqisi2
	cmp	r2, #0
	beq	.L1006
	cmp	r2, #1
	beq	.L1007
	cmp	r2, #2
	bne	.L970
	ldrb	r0, [r6, #1593]	@ zero_extendqisi2
	ldrb	r2, [r1, #2]	@ zero_extendqisi2
	cmp	r0, #0
	ubfx	r2, r2, #1, #1
	beq	.L975
	ldr	r0, [r6, #2112]
	ldr	ip, [r1, #632]
	ldr	r0, [r0, #632]
	cmp	ip, r0
	movne	r2, #0
	andeq	r2, r2, #1
.L975:
	cmp	r2, #0
	ldrne	r0, [r1, #668]
	bne	.L972
	subs	r4, r4, #1
	bpl	.L980
.L963:
	sub	sp, fp, #40
	ldmfd	sp, {r4, r5, r6, r7, r8, r9, r10, fp, sp, pc}
.L1007:
	ldrb	r0, [r6, #1593]	@ zero_extendqisi2
	ldrb	r2, [r1, #2]	@ zero_extendqisi2
	cmp	r0, #0
	and	r2, r2, #1
	beq	.L974
	ldr	r0, [r6, #2112]
	ldr	ip, [r1, #668]
	ldr	r0, [r0, #668]
	cmp	ip, r0
	movne	r2, #0
	andeq	r2, r2, #1
.L974:
	cmp	r2, #0
	ldrne	r0, [r1, #632]
	bne	.L972
	b	.L970
.L1005:
	cmp	r7, #0
	ldr	lr, [r1, #56]
	beq	.L970
	ldr	r2, [r10]
	cmp	lr, r2
	beq	.L976
	mov	r0, r10
	mov	r2, #0
.L977:
	add	r2, r2, #1
	cmp	r2, r7
	beq	.L970
	ldr	ip, [r0, #4]!
	cmp	lr, ip
	bne	.L977
.L976:
	str	r3, [fp, #-52]
	mov	r2, #688
	ldr	r3, .L1008
	ldr	r0, [r9]
	ldr	ip, [r3, #52]
	ldr	r3, [fp, #-48]
	mla	r0, r2, r0, r3
	blx	ip
	ldr	r2, [r9]
	ldr	r0, [fp, #-48]
	mov	r1, #688
	mov	ip, #688
	ldr	r3, [fp, #-52]
	mla	r2, r1, r2, r0
	str	r2, [r2, #652]
	str	r2, [r2, #616]
	str	r2, [r2, #580]
	ldr	r2, [r9]
	ldr	r1, [r3, #52]
	mla	r2, ip, r2, r0
	sub	r1, r1, #1
	str	r1, [r2, #48]
	ldr	r2, [r9]
	cmp	r2, r7
	beq	.L963
	add	r2, r2, #1
	str	r2, [r9]
	b	.L970
.L982:
	mov	r4, r6
	b	.L964
.L983:
	mov	r4, #0
	b	.L964
.L1009:
	.align	2
.L1008:
	.word	vfmw_Osal_Func_Ptr_S
	UNWIND(.fnend)
	.size	mvc_append_interview_list, .-mvc_append_interview_list
	.align	2
	.global	MVC_InitListX
	.type	MVC_InitListX, %function
MVC_InitListX:
	UNWIND(.fnstart)
	@ args = 0, pretend = 0, frame = 208
	@ frame_needed = 1, uses_anonymous_args = 0
	UNWIND(.movsp ip)
	mov	ip, sp
	stmfd	sp!, {r4, r5, r6, r7, r8, r9, r10, fp, ip, lr, pc}
	UNWIND(.pad #4)
	UNWIND(.save {r4, r5, r6, r7, r8, r9, r10, fp, ip, lr})
	UNWIND(.setfp fp, ip, #-4)
	sub	fp, ip, #4
	UNWIND(.pad #220)
	sub	sp, sp, #220
	add	r2, r0, #11075584
	add	r5, r2, #40960
	add	r7, r0, #11141120
	mov	r3, #0
	add	r7, r7, #8192
	ldrb	r9, [r5, #520]	@ zero_extendqisi2
	mov	r6, r0
	str	r3, [r5, #2172]
	cmp	r9, r3
	str	r3, [r5, #2168]
	ldrb	r4, [r7, #1595]	@ zero_extendqisi2
	bne	.L1011
	cmp	r4, r3
	add	r3, r2, #45056
	str	r3, [fp, #-240]
	bne	.L1169
	ldr	ip, [r3, #2384]
	cmp	ip, #0
	beq	.L1095
	movw	r1, #47300
	mov	r3, r4
	movt	r1, 169
	add	r1, r0, r1
	b	.L1017
.L1016:
	cmp	r3, ip
	beq	.L1015
.L1017:
	ldr	r2, [r1, #4]!
	add	r3, r3, #1
	ldrb	r0, [r2, #3]	@ zero_extendqisi2
	cmp	r0, #3
	bne	.L1016
	ldr	r0, [r2, #576]
	bic	r0, r0, #-16777216
	bic	r0, r0, #255
	cmp	r0, #65536
	addeq	r0, r4, #64
	addeq	r2, r2, #576
	addeq	r4, r4, #1
	streq	r2, [r6, r0, asl #2]
	cmp	r3, ip
	bne	.L1017
.L1015:
	add	r3, r6, #256
	mov	r1, r4
	str	r3, [fp, #-244]
	mov	r2, #4
	mov	r0, r3
	ldr	r3, .L1180
	bl	qsort
	ldr	r3, [fp, #-240]
	str	r4, [r5, #568]
	ldr	r1, [r3, #2388]
	cmp	r1, #0
	beq	.L1096
	movw	r0, #47364
	mov	r8, r4
	movt	r0, 169
	mov	r3, #0
	add	r0, r6, r0
	b	.L1020
.L1019:
	cmp	r3, r1
	beq	.L1170
.L1020:
	ldr	r2, [r0, #4]!
	add	r3, r3, #1
	ldrb	ip, [r2, #3]	@ zero_extendqisi2
	cmp	ip, #3
	bne	.L1019
	ldr	ip, [r2, #576]
	bic	ip, ip, #-16777216
	bic	ip, ip, #255
	cmp	ip, #256
	addeq	ip, r8, #64
	addeq	r2, r2, #576
	addeq	r8, r8, #1
	streq	r2, [r6, ip, asl #2]
	cmp	r3, r1
	bne	.L1020
.L1170:
	rsb	r1, r4, r8
.L1018:
	add	r0, r4, #64
	ldr	r3, .L1180+4
	mov	r2, #4
	add	r0, r6, r0, lsl #2
	bl	qsort
	str	r8, [r5, #568]
	b	.L1021
.L1011:
	cmp	r4, #0
	beq	.L1038
	add	r2, r2, #45056
	str	r2, [fp, #-240]
	ldr	ip, [r2, #2384]
	cmp	ip, #0
	beq	.L1171
	movw	r9, #47300
	mov	r4, r3
	movt	r9, 169
	add	r9, r0, r9
	mov	r1, r9
.L1057:
	ldr	r2, [r1, #4]!
	add	r3, r3, #1
	ldrb	r0, [r2, #2]	@ zero_extendqisi2
	cmp	r0, #0
	beq	.L1056
	sub	r0, fp, #44
	ldr	lr, [r7, #2132]
	add	r8, r0, r4, lsl #2
	ldr	r0, [r2, #32]
	cmp	lr, r0
	strge	r2, [r8, #-192]
	addge	r4, r4, #1
.L1056:
	cmp	r3, ip
	bne	.L1057
	sub	r10, fp, #236
	ldr	r3, .L1180+8
	mov	r2, #4
	mov	r1, r4
	mov	r0, r10
	bl	qsort
	ldr	r3, [fp, #-240]
	ldr	r8, [r3, #2384]
	cmp	r8, #0
	beq	.L1166
.L1093:
	mov	r3, r9
	mov	r2, #0
	mov	r9, r4
.L1060:
	ldr	r1, [r3, #4]!
	add	r2, r2, #1
	ldrb	r0, [r1, #2]	@ zero_extendqisi2
	cmp	r0, #0
	beq	.L1059
	sub	r0, fp, #44
	ldr	ip, [r7, #2132]
	add	lr, r0, r9, lsl #2
	ldr	r0, [r1, #32]
	cmp	ip, r0
	strlt	r1, [lr, #-192]
	addlt	r9, r9, #1
.L1059:
	cmp	r2, r8
	bne	.L1060
	rsb	r8, r4, r9
	mov	r3, r4, asl #2
	add	r0, r10, r3
	str	r3, [fp, #-244]
	mov	r1, r8
	ldr	r3, .L1180+12
	mov	r2, #4
	bl	qsort
	cmp	r4, #0
	subeq	ip, fp, #172
	beq	.L1061
.L1088:
	sub	ip, fp, #172
	mov	r2, r10
	add	r8, ip, r8, lsl #2
	mov	r3, #0
.L1062:
	add	r3, r3, #1
	ldr	r1, [r2], #4
	cmp	r3, r4
	str	r1, [r8], #4
	bcc	.L1062
.L1061:
	cmp	r9, r4
	bls	.L1063
	ldr	r3, [fp, #-244]
	add	r2, r10, r3
	mov	r3, ip
.L1064:
	add	r4, r4, #1
	ldr	r1, [r2], #4
	cmp	r4, r9
	str	r1, [r3], #4
	bne	.L1064
.L1063:
	movw	r8, #41528
	mov	r4, #0
	add	r3, r6, #256
	str	r4, [r5, #568]
	str	r4, [r5, #572]
	mov	r1, r10
	ldrb	r0, [r7, #1595]	@ zero_extendqisi2
	mov	r2, r9
	str	r4, [sp, #4]
	movt	r8, 169
	add	r8, r6, r8
	str	r8, [sp]
	str	ip, [fp, #-252]
	movw	r10, #41532
	str	r3, [fp, #-244]
	bl	MVC_GenPiclistfromFrmlist
	ldr	ip, [fp, #-252]
	add	r3, r6, #388
	ldrb	r0, [r7, #1595]	@ zero_extendqisi2
	mov	r2, r9
	str	r4, [sp, #4]
	movt	r10, 169
	mov	r1, ip
	add	r10, r6, r10
	str	r10, [sp]
	str	r3, [fp, #-248]
	bl	MVC_GenPiclistfromFrmlist
	ldr	r3, [fp, #-240]
	ldr	r9, [r3, #2388]
	cmp	r9, r4
	subeq	ip, fp, #108
	beq	.L1065
	movw	r3, #47364
	sub	ip, fp, #108
	movt	r3, 169
	add	r3, r6, r3
	mov	r2, ip
.L1066:
	add	r4, r4, #1
	ldr	r1, [r3, #4]!
	cmp	r4, r9
	str	r1, [r2], #4
	bne	.L1066
.L1065:
	mov	r0, ip
	ldr	r3, .L1180+16
	mov	r2, #4
	mov	r1, r9
	str	ip, [fp, #-240]
	bl	qsort
	ldr	ip, [fp, #-240]
	mov	r4, #1
	ldrb	r0, [r7, #1595]	@ zero_extendqisi2
	mov	r2, r9
	ldr	r3, [fp, #-244]
	mov	r1, ip
	str	r4, [sp, #4]
	str	r8, [sp]
	bl	MVC_GenPiclistfromFrmlist
	ldr	ip, [fp, #-240]
	ldrb	r0, [r7, #1595]	@ zero_extendqisi2
	mov	r2, r9
	str	r4, [sp, #4]
	ldr	r3, [fp, #-248]
	mov	r1, ip
	str	r10, [sp]
	bl	MVC_GenPiclistfromFrmlist
	ldr	r4, [r5, #568]
	ldr	r3, [r5, #572]
	rsb	r3, r3, r4
	clz	r3, r3
	mov	r3, r3, lsr #5
.L1055:
	cmp	r4, #1
	movls	r3, #0
	andhi	r3, r3, #1
	cmp	r3, #0
	beq	.L1067
	cmp	r4, #0
	beq	.L1068
	ldr	lr, [r6, #256]
	ldr	r3, [r6, #388]
	cmp	lr, r3
	bne	.L1067
	ldr	r1, [fp, #-244]
	add	r2, r6, #388
	mov	r3, #0
	b	.L1069
.L1070:
	ldr	ip, [r1, #4]!
	ldr	r0, [r2, #4]!
	cmp	ip, r0
	bne	.L1067
.L1069:
	add	r3, r3, #1
	cmp	r3, r4
	bne	.L1070
.L1071:
	ldr	r3, [r6, #392]
	str	lr, [r6, #392]
	str	r3, [r6, #388]
	ldrb	r3, [r5, #532]	@ zero_extendqisi2
.L1089:
	cmp	r3, #0
	bne	.L1158
.L1072:
	movw	r4, #31360
	movw	r3, #43128
	movt	r4, 169
	add	r4, r6, r4
	mov	r0, r6
	movt	r3, 169
	mov	r1, #0
	mov	r2, r4
	add	r3, r6, r3
	bl	mvc_append_interview_list
	ldrb	r0, [r7, #1595]	@ zero_extendqisi2
	cmp	r0, #0
	bne	.L1172
	ldr	r1, [r5, #2168]
	ldr	ip, [r5, #568]
	cmp	r1, #0
	beq	.L1074
	add	r2, ip, #63
	movw	r3, #31936
	movt	r3, 169
	add	r3, r6, r3
	add	r2, r6, r2, lsl #2
.L1075:
	add	r0, r0, #1
	str	r3, [r2, #4]!
	cmp	r0, r1
	add	r3, r3, #688
	bne	.L1075
	add	ip, ip, r0
.L1074:
	str	ip, [r5, #568]
.L1076:
	ldrb	r1, [r5, #520]	@ zero_extendqisi2
	cmp	r1, #1
	beq	.L1173
.L1159:
	ldr	r0, [r5, #568]
.L1073:
	cmp	r1, #0
	bne	.L1031
	cmp	r0, #0
	beq	.L1174
.L1030:
	ldr	r2, [r5, #580]
	ldr	r3, [r5, #584]
	add	r2, r2, #1
	ldr	r1, [r5, #572]
	cmp	r0, r2
	add	r3, r3, #1
	movcc	r2, r0
	cmp	r3, r1
	str	r2, [r5, #568]
	movcs	r3, r1
	cmp	r2, #32
	str	r3, [r5, #572]
	bhi	.L1082
.L1090:
	add	r1, r2, #63
	mov	r0, #0
	add	r1, r6, r1, lsl #2
.L1083:
	add	r2, r2, #1
	str	r0, [r1, #4]!
	cmp	r2, #32
	bls	.L1083
.L1082:
	cmp	r3, #32
	bhi	.L1086
	add	r3, r3, #96
	add	r1, r6, #516
	mov	r2, #0
	add	r6, r6, r3, lsl #2
.L1085:
	str	r2, [r6, #4]!
	cmp	r6, r1
	bne	.L1085
.L1086:
	mov	r0, #0
.L1152:
	sub	sp, fp, #40
	ldmfd	sp, {r4, r5, r6, r7, r8, r9, r10, fp, sp, pc}
.L1038:
	add	r3, r2, #45056
	str	r3, [fp, #-240]
	ldr	r10, [r3, #2384]
	cmp	r10, #0
	beq	.L1041
	movw	r9, #47300
	mov	r3, r4
	movt	r9, 169
	add	r9, r0, r9
	mov	r1, r9
	b	.L1043
.L1042:
	cmp	r3, r10
	beq	.L1175
.L1043:
	ldr	r2, [r1, #4]!
	add	r3, r3, #1
	ldrb	r0, [r2, #3]	@ zero_extendqisi2
	cmp	r0, #3
	bne	.L1042
	ldr	r0, [r2, #592]
	add	lr, r4, #64
	ldr	ip, [r7, #2136]
	add	r2, r2, #576
	cmp	ip, r0
	strge	r2, [r6, lr, asl #2]
	addge	r4, r4, #1
	cmp	r3, r10
	bne	.L1043
.L1175:
	add	r3, r6, #256
	mov	r2, #4
	str	r3, [fp, #-244]
	mov	r1, r4
	mov	r0, r3
	ldr	r3, .L1180+20
	bl	qsort
	ldr	r3, [fp, #-240]
	ldr	r8, [r3, #2384]
	cmp	r8, #0
	beq	.L1165
.L1091:
	mov	r3, r9
	mov	r10, r4
	mov	r2, #0
	b	.L1046
.L1045:
	cmp	r2, r8
	beq	.L1176
.L1046:
	ldr	r1, [r3, #4]!
	add	r2, r2, #1
	ldrb	r0, [r1, #3]	@ zero_extendqisi2
	cmp	r0, #3
	bne	.L1045
	ldr	r0, [r1, #592]
	add	lr, r10, #64
	ldr	ip, [r7, #2136]
	add	r1, r1, #576
	cmp	ip, r0
	strlt	r1, [r6, lr, asl #2]
	addlt	r10, r10, #1
	cmp	r2, r8
	bne	.L1046
.L1176:
	rsb	r8, r4, r10
	add	r0, r4, #64
	ldr	r3, .L1180+24
	mov	r2, #4
	mov	r1, r8
	add	r0, r6, r0, lsl #2
	bl	qsort
	add	r9, r10, #64
	cmp	r4, #0
	add	r9, r6, r9, lsl #2
	beq	.L1048
.L1087:
	add	r8, r8, #96
	add	r2, r6, #252
	mov	r3, #0
	add	r8, r6, r8, lsl #2
.L1049:
	add	r3, r3, #1
	ldr	r1, [r2, #4]!
	cmp	r3, r4
	str	r1, [r8, #4]!
	bcc	.L1049
.L1048:
	cmp	r10, r4
	bls	.L1050
	add	r3, r4, #63
	add	r2, r6, #384
	add	r3, r6, r3, lsl #2
.L1051:
	add	r4, r4, #1
	ldr	r1, [r3, #4]!
	cmp	r4, r10
	str	r1, [r2, #4]!
	bne	.L1051
.L1050:
	ldr	r3, [fp, #-240]
	str	r10, [r5, #572]
	str	r10, [r5, #568]
	ldr	r1, [r3, #2388]
	cmp	r1, #0
	beq	.L1097
	movw	r0, #47364
	mov	r4, r10
	movt	r0, 169
	mov	r3, #0
	add	r0, r6, r0
	b	.L1054
.L1053:
	cmp	r3, r1
	beq	.L1177
.L1054:
	ldr	r2, [r0, #4]!
	add	r3, r3, #1
	ldrb	ip, [r2, #2]	@ zero_extendqisi2
	cmp	ip, #3
	bne	.L1053
	ldrb	ip, [r2, #577]	@ zero_extendqisi2
	cmp	ip, #1
	addeq	ip, r6, r4, lsl #2
	addeq	r2, r2, #576
	addeq	r4, r4, #1
	streq	r2, [ip, #256]
	streq	r2, [ip, #388]
	cmp	r3, r1
	bne	.L1054
.L1177:
	rsb	r1, r10, r4
.L1052:
	mov	r0, r9
	ldr	r3, .L1180+4
	mov	r2, #4
	bl	qsort
	ldr	r1, [r5, #568]
	ldr	r3, .L1180+4
	mov	r2, #4
	add	r0, r1, #97
	rsb	r1, r1, r4
	add	r0, r6, r0, lsl #2
	bl	qsort
	str	r4, [r5, #572]
	str	r4, [r5, #568]
	mov	r3, #1
	b	.L1055
.L1169:
	ldr	lr, [r3, #2384]
	cmp	lr, #0
	moveq	r9, lr
	beq	.L1014
	movw	r1, #47300
	mov	r3, r9
	movt	r1, 169
	add	r1, r0, r1
.L1023:
	ldr	r2, [r1, #4]!
	sub	r0, fp, #44
	add	ip, r0, r9, lsl #2
	add	r3, r3, #1
	ldrb	r0, [r2, #3]	@ zero_extendqisi2
	cmp	r0, #0
	strne	r2, [ip, #-192]
	addne	r9, r9, #1
	cmp	r3, lr
	bne	.L1023
.L1014:
	mov	r1, r9
	ldr	r3, .L1180+28
	mov	r2, #4
	sub	r0, fp, #236
	movw	r8, #41528
	bl	qsort
	mov	r4, #0
	add	r3, r6, #256
	str	r4, [r5, #568]
	mov	r2, r9
	ldrb	r0, [r7, #1595]	@ zero_extendqisi2
	sub	r1, fp, #236
	str	r4, [sp, #4]
	movt	r8, 169
	add	r8, r6, r8
	str	r8, [sp]
	str	r3, [fp, #-244]
	bl	MVC_GenPiclistfromFrmlist
	ldr	r3, [fp, #-240]
	ldr	r9, [r3, #2388]
	cmp	r9, r4
	subeq	ip, fp, #108
	beq	.L1024
	movw	r3, #47364
	sub	ip, fp, #108
	movt	r3, 169
	add	r3, r6, r3
	mov	r2, ip
.L1025:
	add	r4, r4, #1
	ldr	r1, [r3, #4]!
	cmp	r4, r9
	str	r1, [r2], #4
	bne	.L1025
.L1024:
	mov	r0, ip
	ldr	r3, .L1180+16
	mov	r2, #4
	mov	r1, r9
	str	ip, [fp, #-240]
	bl	qsort
	ldr	ip, [fp, #-240]
	mov	r3, #1
	ldrb	r0, [r7, #1595]	@ zero_extendqisi2
	mov	r2, r9
	str	r3, [sp, #4]
	str	r8, [sp]
	mov	r1, ip
	ldr	r3, [fp, #-244]
	bl	MVC_GenPiclistfromFrmlist
.L1021:
	ldrb	r3, [r5, #532]	@ zero_extendqisi2
	mov	r2, #0
	str	r2, [r5, #572]
	cmp	r3, r2
	beq	.L1072
	ldr	r0, [r5, #568]
	cmp	r0, #0
	bne	.L1178
	ldr	r3, [r6, #224]
	ldr	r3, [r3, #12]
	cmp	r3, #2
	bne	.L1032
	ldrb	r3, [r7, #1595]	@ zero_extendqisi2
	cmp	r3, #0
	bne	.L1033
	ldr	r3, [r7, #2112]
	add	r3, r3, #576
	str	r3, [r6, #256]
.L1034:
	mov	r3, #1
	str	r3, [r5, #568]
.L1158:
	ldrb	r1, [r5, #520]	@ zero_extendqisi2
	b	.L1159
.L1178:
	ldrb	r3, [r5, #520]	@ zero_extendqisi2
	cmp	r3, #0
	beq	.L1030
.L1031:
	cmp	r0, #0
	bne	.L1030
	ldr	r1, [r5, #572]
	cmp	r1, #0
	beq	.L1179
	ldr	r3, [r5, #584]
	mov	r2, r0
	str	r0, [r5, #568]
	add	r3, r3, #1
	cmp	r3, r1
	movcs	r3, r1
	str	r3, [r5, #572]
	b	.L1090
.L1067:
	ldrb	r3, [r5, #532]	@ zero_extendqisi2
	b	.L1089
.L1172:
	movw	ip, #41528
	ldr	r2, [r5, #2168]
	ldr	r3, [fp, #-244]
	mov	r1, r4
	movt	ip, 169
	add	ip, r6, ip
	str	ip, [sp]
	bl	MVC_GenPiclistfromFrmlist_Interview
	b	.L1076
.L1033:
	cmp	r3, #1
	ldr	r3, [r7, #2112]
	addeq	r3, r3, #612
	addne	r3, r3, #648
	str	r3, [r6, #256]
	b	.L1034
.L1068:
	ldr	lr, [r6, #388]
	b	.L1071
.L1173:
	movw	r4, #32736
	movw	r3, #43132
	movt	r4, 169
	add	r4, r6, r4
	mov	r0, r6
	movt	r3, 169
	mov	r2, r4
	add	r3, r6, r3
	bl	mvc_append_interview_list
	ldrb	r0, [r7, #1595]	@ zero_extendqisi2
	cmp	r0, #0
	bne	.L1078
	ldr	r1, [r5, #2172]
	ldr	ip, [r5, #572]
	cmp	r1, #0
	beq	.L1079
	add	r2, ip, #96
	movw	r3, #33312
	movt	r3, 169
	add	r3, r6, r3
	add	r2, r6, r2, lsl #2
.L1080:
	add	r0, r0, #1
	str	r3, [r2, #4]!
	cmp	r0, r1
	add	r3, r3, #688
	bne	.L1080
	add	ip, ip, r0
.L1079:
	str	ip, [r5, #572]
	ldrb	r1, [r5, #520]	@ zero_extendqisi2
	ldr	r0, [r5, #568]
	b	.L1073
.L1166:
	mov	r3, r4, asl #2
	mov	r1, r8
	str	r3, [fp, #-244]
	mov	r2, r3
	ldr	r3, .L1180+12
	add	r0, r10, r2
	mov	r2, #4
	bl	qsort
	subs	r9, r4, #0
	bne	.L1088
.L1161:
	sub	ip, fp, #172
	b	.L1063
.L1165:
	add	r9, r4, #64
	ldr	r3, .L1180+24
	mov	r2, #4
	mov	r1, r8
	add	r9, r6, r9, lsl #2
	mov	r0, r9
	bl	qsort
	subs	r10, r4, #0
	bne	.L1087
	b	.L1050
.L1095:
	mov	r4, ip
	b	.L1015
.L1096:
	mov	r8, r4
	b	.L1018
.L1097:
	mov	r4, r10
	b	.L1052
.L1171:
	sub	r10, fp, #236
	ldr	r3, .L1180+8
	mov	r1, ip
	mov	r2, #4
	mov	r0, r10
	str	ip, [fp, #-244]
	bl	qsort
	ldr	r3, [fp, #-240]
	ldr	ip, [fp, #-244]
	ldr	r8, [r3, #2384]
	cmp	r8, #0
	movwne	r9, #47300
	movne	r4, ip
	movtne	r9, 169
	addne	r9, r6, r9
	bne	.L1093
	ldr	r3, .L1180+12
	mov	r2, #4
	mov	r1, r8
	mov	r0, r10
	mov	r9, r8
	bl	qsort
	b	.L1161
.L1041:
	add	r3, r0, #256
	mov	r2, #4
	str	r3, [fp, #-244]
	mov	r1, r10
	mov	r0, r3
	ldr	r3, .L1180+20
	bl	qsort
	ldr	r3, [fp, #-240]
	ldr	r8, [r3, #2384]
	cmp	r8, #0
	movwne	r9, #47300
	movne	r4, r10
	movtne	r9, 169
	addne	r9, r6, r9
	bne	.L1091
	ldr	r9, [fp, #-244]
	mov	r2, #4
	ldr	r3, .L1180+24
	mov	r1, r8
	mov	r10, r8
	mov	r0, r9
	bl	qsort
	b	.L1050
.L1078:
	movw	ip, #41532
	ldr	r2, [r5, #2172]
	mov	r1, r4
	movt	ip, 169
	add	r3, r6, #388
	add	ip, r6, ip
	str	ip, [sp]
	bl	MVC_GenPiclistfromFrmlist_Interview
	b	.L1158
.L1174:
	ldr	r3, .L1180+32
	mov	r0, #1
	ldr	r1, .L1180+36
.L1160:
	ldr	r3, [r3, #68]
	blx	r3
	mov	r0, r6
	bl	MVC_ClearCurrSlice
	mvn	r0, #0
	b	.L1152
.L1032:
	ldr	r3, .L1180+32
	mov	r0, #1
	ldr	r1, .L1180+40
	b	.L1160
.L1179:
	ldr	r3, .L1180+32
	mov	r0, #1
	ldr	r1, .L1180+44
	b	.L1160
.L1181:
	.align	2
.L1180:
	.word	MVC_compare_pic_by_pic_num_desc
	.word	MVC_compare_pic_by_lt_pic_num_asc
	.word	MVC_compare_fs_by_poc_desc
	.word	MVC_compare_fs_by_poc_asc
	.word	MVC_compare_fs_by_lt_pic_idx_asc
	.word	MVC_compare_pic_by_poc_desc
	.word	MVC_compare_pic_by_poc_asc
	.word	MVC_compare_fs_by_frame_num_desc
	.word	vfmw_Osal_Func_Ptr_S
	.word	.LC26
	.word	.LC25
	.word	.LC27
	UNWIND(.fnend)
	.size	MVC_InitListX, .-MVC_InitListX
	.align	2
	.global	MVC_DumpList
	.type	MVC_DumpList, %function
MVC_DumpList:
	UNWIND(.fnstart)
	@ args = 0, pretend = 0, frame = 0
	@ frame_needed = 1, uses_anonymous_args = 0
	UNWIND(.movsp ip)
	mov	ip, sp
	stmfd	sp!, {r4, r5, r6, r7, r8, r9, r10, fp, ip, lr, pc}
	UNWIND(.pad #4)
	UNWIND(.save {r4, r5, r6, r7, r8, r9, r10, fp, ip, lr})
	UNWIND(.setfp fp, ip, #-4)
	sub	fp, ip, #4
	UNWIND(.pad #12)
	sub	sp, sp, #12
	ldr	r3, .L1195
	ldr	r3, [r3]
	tst	r3, #8192
	beq	.L1182
	movw	r6, #41524
	ldr	r9, .L1195+4
	movt	r6, 169
	add	r8, r0, #252
	add	r6, r0, r6
	mov	r7, #0
.L1184:
	ldr	r3, [r6, #4]!
	cmp	r3, #0
	movne	r5, r8
	movne	r4, #0
	beq	.L1186
.L1185:
	ldr	ip, [r5, #4]!
	mov	r3, r4
	ldr	r10, [r9, #68]
	mov	r2, r7
	ldr	r1, .L1195+8
	mov	r0, #13
	ldr	ip, [ip, #4]
	add	r4, r4, #1
	ldr	lr, [ip, #32]
	str	lr, [sp, #4]
	ldr	ip, [ip, #20]
	str	ip, [sp]
	blx	r10
	ldr	r3, [r6]
	cmp	r3, r4
	bhi	.L1185
.L1186:
	add	r7, r7, #1
	add	r8, r8, #132
	cmp	r7, #2
	bne	.L1184
.L1182:
	sub	sp, fp, #40
	ldmfd	sp, {r4, r5, r6, r7, r8, r9, r10, fp, sp, pc}
.L1196:
	.align	2
.L1195:
	.word	g_PrintEnable
	.word	vfmw_Osal_Func_Ptr_S
	.word	.LC28
	UNWIND(.fnend)
	.size	MVC_DumpList, .-MVC_DumpList
	.align	2
	.global	MVC_FindNearestPOCPicId
	.type	MVC_FindNearestPOCPicId, %function
MVC_FindNearestPOCPicId:
	UNWIND(.fnstart)
	@ args = 0, pretend = 0, frame = 0
	@ frame_needed = 1, uses_anonymous_args = 0
	UNWIND(.movsp ip)
	mov	ip, sp
	stmfd	sp!, {r4, r5, r6, fp, ip, lr, pc}
	UNWIND(.pad #4)
	UNWIND(.save {r4, r5, r6, fp, ip, lr})
	UNWIND(.setfp fp, ip, #-4)
	sub	fp, ip, #4
	add	r3, r0, #11075584
	add	r3, r3, #45056
	ldr	r2, [r3, #2380]
	cmp	r2, #0
	beq	.L1202
	ldr	r4, [r3, #2376]
	add	r3, r0, #11141120
	add	r3, r3, #8192
	cmp	r4, #0
	ldr	r5, [r3, #2132]
	beq	.L1203
	movw	ip, #47236
	mov	r6, #0
	movt	ip, 169
	add	ip, r0, ip
	mov	r1, r6
	mvn	lr, #-2147483648
.L1201:
	ldr	r2, [ip, #4]!
	add	r1, r1, #1
	cmp	r2, #0
	beq	.L1200
	ldr	r3, [r2, #32]
	rsb	r3, r3, r5
	cmp	r3, #0
	rsblt	r3, r3, #0
	cmp	r3, lr
	ldrlt	r6, [r2, #268]
	movlt	lr, r3
.L1200:
	cmp	r1, r4
	bne	.L1201
.L1199:
	mov	r0, r6
	ldmfd	sp, {r4, r5, r6, fp, sp, pc}
.L1203:
	mov	r6, r4
	b	.L1199
.L1202:
	mvn	r0, #0
	ldmfd	sp, {r4, r5, r6, fp, sp, pc}
	UNWIND(.fnend)
	.size	MVC_FindNearestPOCPicId, .-MVC_FindNearestPOCPicId
	.align	2
	.global	MVC_FindMinRefIdx
	.type	MVC_FindMinRefIdx, %function
MVC_FindMinRefIdx:
	UNWIND(.fnstart)
	@ args = 0, pretend = 0, frame = 0
	@ frame_needed = 1, uses_anonymous_args = 0
	UNWIND(.movsp ip)
	mov	ip, sp
	stmfd	sp!, {r4, r5, r6, r7, r8, fp, ip, lr, pc}
	UNWIND(.pad #4)
	UNWIND(.save {r4, r5, r6, r7, r8, fp, ip, lr})
	UNWIND(.setfp fp, ip, #-4)
	sub	fp, ip, #4
	add	r3, r0, #11075584
	add	r3, r3, #40960
	ldrb	r2, [r3, #520]	@ zero_extendqisi2
	cmp	r2, #2
	ldmeqfd	sp, {r4, r5, r6, r7, r8, fp, sp, pc}
	add	r2, r0, #11141120
	movw	r6, #47668
	add	r2, r2, #8192
	ldrb	lr, [r2, #1595]	@ zero_extendqisi2
	cmp	lr, #0
	bne	.L1238
	ldr	r4, [r3, #568]
	movw	r5, #47672
	movt	r6, 169
	movt	r5, 169
	cmp	r4, #0
	add	r6, r0, r6
	add	r5, r0, r5
	mov	r7, lr
	beq	.L1216
.L1240:
	add	r2, r0, #252
	mov	ip, #32
	mov	r3, #0
	b	.L1214
.L1213:
	add	r3, r3, #1
	cmp	r3, r4
	beq	.L1239
.L1214:
	ldr	r1, [r2, #4]!
	ldr	r1, [r1, #4]
	ldr	r1, [r1, #52]
	cmp	r1, lr
	bne	.L1213
	cmp	ip, r3
	movcs	ip, r3
	add	r3, r3, #1
	cmp	r3, r4
	str	ip, [r5, #-4]
	str	ip, [r6, #4]
	bne	.L1214
.L1239:
	cmp	ip, #31
	bhi	.L1216
.L1215:
	add	lr, lr, #1
	add	r6, r6, #8
	cmp	lr, #16
	add	r5, r5, #8
	ldmeqfd	sp, {r4, r5, r6, r7, r8, fp, sp, pc}
	cmp	r4, #0
	bne	.L1240
.L1216:
	str	r7, [r5, #-4]
	str	r7, [r6, #4]
	b	.L1215
.L1238:
	ldr	r5, [r3, #568]
	mov	lr, #0
	movt	r6, 169
	mov	r7, lr
	cmp	r5, #0
	add	r6, r0, r6
	beq	.L1220
.L1242:
	add	r1, r0, #252
	mov	r4, #32
	mov	r2, #0
	b	.L1218
.L1217:
	add	r2, r2, #1
	cmp	r2, r5
	beq	.L1241
.L1218:
	ldr	r3, [r1, #4]!
	ldr	r8, [r3, #4]
	ldrb	ip, [r3]	@ zero_extendqisi2
	ldr	r3, [r8, #52]
	mov	r3, r3, asl #1
	cmp	ip, #2
	orreq	r3, r3, #1
	cmp	r3, lr
	bne	.L1217
	cmp	r4, r2
	movcs	r4, r2
	add	r2, r2, #1
	cmp	r2, r5
	str	r4, [r6]
	bne	.L1218
.L1241:
	cmp	r4, #31
	bhi	.L1220
.L1219:
	add	lr, lr, #1
	add	r6, r6, #4
	cmp	lr, #32
	ldmeqfd	sp, {r4, r5, r6, r7, r8, fp, sp, pc}
	cmp	r5, #0
	bne	.L1242
.L1220:
	str	r7, [r6]
	b	.L1219
	UNWIND(.fnend)
	.size	MVC_FindMinRefIdx, .-MVC_FindMinRefIdx
	.align	2
	.global	MVC_DecList
	.type	MVC_DecList, %function
MVC_DecList:
	UNWIND(.fnstart)
	@ args = 0, pretend = 0, frame = 0
	@ frame_needed = 1, uses_anonymous_args = 0
	UNWIND(.movsp ip)
	mov	ip, sp
	stmfd	sp!, {r4, r5, r6, r7, fp, ip, lr, pc}
	UNWIND(.pad #4)
	UNWIND(.save {r4, r5, r6, r7, fp, ip, lr})
	UNWIND(.setfp fp, ip, #-4)
	sub	fp, ip, #4
	mov	r5, r0
	bl	MVC_FindNearestPOCPicId
	add	r6, r5, #11075584
	mvn	r4, #0
	add	r3, r6, #40960
	ldrb	r2, [r3, #520]	@ zero_extendqisi2
	str	r4, [r3, #2152]
	cmp	r2, #2
	str	r0, [r3, #2156]
	beq	.L1250
	mov	r0, r5
	bl	MVC_InitListX
	cmp	r0, #0
	bne	.L1251
	mov	r0, r5
	bl	MVC_ReorderListX
	mov	r0, r5
	bl	MVC_RepairList
	cmp	r0, #0
	bne	.L1248
	mov	r0, r5
	add	r6, r6, #40960
	bl	MVC_FindMinRefIdx
	ldr	r3, [r5, #256]
	mov	r0, #0
	cmp	r3, #0
	ldrne	r3, [r3, #4]
	ldrne	r4, [r3, #268]
	str	r4, [r6, #2152]
	ldmfd	sp, {r4, r5, r6, r7, fp, sp, pc}
.L1250:
	mov	r4, #0
	str	r4, [r3, #568]
	str	r4, [r3, #572]
	mov	r0, r4
	ldmfd	sp, {r4, r5, r6, r7, fp, sp, pc}
.L1248:
	mov	r0, r4
	ldmfd	sp, {r4, r5, r6, r7, fp, sp, pc}
.L1251:
	ldr	r3, .L1252
	mov	r0, #13
	ldr	r1, .L1252+4
	ldr	r3, [r3, #68]
	blx	r3
	mov	r0, r4
	ldmfd	sp, {r4, r5, r6, r7, fp, sp, pc}
.L1253:
	.align	2
.L1252:
	.word	vfmw_Osal_Func_Ptr_S
	.word	.LC29
	UNWIND(.fnend)
	.size	MVC_DecList, .-MVC_DecList
	.align	2
	.global	MVC_NoPicOut
	.type	MVC_NoPicOut, %function
MVC_NoPicOut:
	UNWIND(.fnstart)
	@ args = 0, pretend = 0, frame = 0
	@ frame_needed = 1, uses_anonymous_args = 0
	UNWIND(.movsp ip)
	mov	ip, sp
	stmfd	sp!, {fp, ip, lr, pc}
	UNWIND(.pad #4)
	UNWIND(.save {fp, ip, lr})
	UNWIND(.setfp fp, ip, #-4)
	sub	fp, ip, #4
	ldr	ip, [r0, #48]
	cmp	ip, #0
	beq	.L1261
	movw	r3, #47807
	mov	r2, #0
	movt	r3, 169
	mov	lr, r2
	add	r3, r0, r3
	b	.L1260
.L1269:
	ldrb	r1, [r3, #-2]	@ zero_extendqisi2
	cmp	r1, #1
	beq	.L1258
	cmp	r2, ip
	add	r3, r3, #688
	beq	.L1261
.L1260:
	ldrb	r1, [r3]	@ zero_extendqisi2
	add	r2, r2, #1
	cmp	r1, #1
	bne	.L1269
.L1258:
	cmp	r2, ip
	strb	lr, [r3, #-5]
	strb	lr, [r3, #-4]
	add	r3, r3, #688
	bne	.L1260
.L1261:
	ldr	r2, [r0, #52]
	cmp	r2, #0
	beq	.L1270
	mov	r3, #0
	add	r0, r0, #144
	mov	r1, r3
.L1262:
	add	r3, r3, #1
	str	r1, [r0, #4]!
	cmp	r3, r2
	bne	.L1262
	ldmfd	sp, {fp, sp, pc}
.L1270:
	ldmfd	sp, {fp, sp, pc}
	UNWIND(.fnend)
	.size	MVC_NoPicOut, .-MVC_NoPicOut
	.align	2
	.global	MVC_GetBackPicFromVOQueue
	.type	MVC_GetBackPicFromVOQueue, %function
MVC_GetBackPicFromVOQueue:
	UNWIND(.fnstart)
	@ args = 0, pretend = 0, frame = 0
	@ frame_needed = 1, uses_anonymous_args = 0
	UNWIND(.movsp ip)
	mov	ip, sp
	stmfd	sp!, {r4, r5, r6, r7, r8, r9, fp, ip, lr, pc}
	UNWIND(.pad #4)
	UNWIND(.save {r4, r5, r6, r7, r8, r9, fp, ip, lr})
	UNWIND(.setfp fp, ip, #-4)
	sub	fp, ip, #4
	mov	r6, r0
	ldr	r0, [r0, #120]
	bl	FSP_GetFspType
	cmp	r0, #0
	beq	.L1288
.L1272:
	ldr	r3, [r6, #48]
	cmp	r3, #0
	beq	.L1279
	movw	r5, #48096
	mov	r8, #0
	movt	r5, 169
	add	r5, r6, r5
	mov	r7, r8
.L1278:
	sub	r4, r5, #16
	strb	r7, [r5, #-294]
	strb	r7, [r5, #-293]
.L1277:
	ldr	r1, [r4, #4]!
	cmp	r1, #0
	beq	.L1276
	ldr	r0, [r6, #120]
	bl	FreeUsdByDec
	str	r7, [r4]
.L1276:
	cmp	r4, r5
	bne	.L1277
	ldr	r3, [r6, #48]
	add	r8, r8, #1
	add	r5, r5, #688
	cmp	r3, r8
	bhi	.L1278
.L1279:
	ldr	r2, [r6, #52]
	cmp	r2, #0
	beq	.L1289
	mov	r3, #0
	add	r6, r6, #144
	mov	r1, r3
.L1280:
	add	r3, r3, #1
	str	r1, [r6, #4]!
	cmp	r3, r2
	bne	.L1280
	ldmfd	sp, {r4, r5, r6, r7, r8, r9, fp, sp, pc}
.L1288:
	add	r0, r6, #584
	bl	ResetVoQueue
	b	.L1272
.L1289:
	ldmfd	sp, {r4, r5, r6, r7, r8, r9, fp, sp, pc}
	UNWIND(.fnend)
	.size	MVC_GetBackPicFromVOQueue, .-MVC_GetBackPicFromVOQueue
	.align	2
	.global	mvc_wait_vo
	.type	mvc_wait_vo, %function
mvc_wait_vo:
	UNWIND(.fnstart)
	@ args = 0, pretend = 0, frame = 0
	@ frame_needed = 1, uses_anonymous_args = 0
	UNWIND(.movsp ip)
	mov	ip, sp
	stmfd	sp!, {fp, ip, lr, pc}
	UNWIND(.pad #4)
	UNWIND(.save {fp, ip, lr})
	UNWIND(.setfp fp, ip, #-4)
	sub	fp, ip, #4
	ldmfd	sp, {fp, sp, pc}
	UNWIND(.fnend)
	.size	mvc_wait_vo, .-mvc_wait_vo
	.align	2
	.global	MVC_RoundLog2
	.type	MVC_RoundLog2, %function
MVC_RoundLog2:
	UNWIND(.fnstart)
	@ args = 0, pretend = 0, frame = 0
	@ frame_needed = 1, uses_anonymous_args = 0
	UNWIND(.movsp ip)
	mov	ip, sp
	stmfd	sp!, {fp, ip, lr, pc}
	UNWIND(.pad #4)
	UNWIND(.save {fp, ip, lr})
	UNWIND(.setfp fp, ip, #-4)
	sub	fp, ip, #4
	mul	r0, r0, r0
	mov	r3, #0
	mov	r2, #1
.L1292:
	add	r3, r3, #1
	cmp	r0, r2, asl r3
	bge	.L1292
	mov	r0, r3, asr #1
	ldmfd	sp, {fp, sp, pc}
	UNWIND(.fnend)
	.size	MVC_RoundLog2, .-MVC_RoundLog2
	.align	2
	.global	MVC_GetReRangeFlag
	.type	MVC_GetReRangeFlag, %function
MVC_GetReRangeFlag:
	UNWIND(.fnstart)
	@ args = 0, pretend = 0, frame = 8
	@ frame_needed = 1, uses_anonymous_args = 0
	UNWIND(.movsp ip)
	mov	ip, sp
	stmfd	sp!, {r4, r5, r6, r7, r8, fp, ip, lr, pc}
	UNWIND(.pad #4)
	UNWIND(.save {r4, r5, r6, r7, r8, fp, ip, lr})
	UNWIND(.setfp fp, ip, #-4)
	sub	fp, ip, #4
	UNWIND(.pad #12)
	sub	sp, sp, #12
	add	ip, r0, #11075584
	add	r7, ip, #40960
	mov	r5, r1
	mov	r4, r0
	ldr	r0, [r0, #252]
	ldrb	r1, [r7, #532]	@ zero_extendqisi2
	mov	lr, #2240
	ldr	r3, [r7, #536]
	sxtb	r2, r1
	cmn	r2, #1
	mla	r3, lr, r3, r0
	beq	.L1312
	cmp	r1, #0
	bne	.L1297
	ldrb	r2, [r4, #2]	@ zero_extendqisi2
	ldr	r3, [r3, #28]
	cmp	r2, #1
	beq	.L1313
	ldr	r2, [r4, #28]
	cmp	r2, r3
	movweq	r6, #35364
	movteq	r6, 168
	addeq	r6, r4, r6
	bne	.L1314
.L1296:
	ldrb	r3, [r6, #20]	@ zero_extendqisi2
	ldr	r1, [r6, #3952]
	rsb	r3, r3, #2
	ldr	r2, [r6, #3948]
	ldr	r0, [r4, #12]
	mla	r3, r1, r3, r3
	ldr	r1, [r4, #16]
	add	r2, r2, #1
	cmp	r2, r0
	cmpeq	r3, r1
	movne	lr, #1
	moveq	lr, #0
	beq	.L1315
.L1301:
	ldr	ip, .L1317
	ldr	ip, [ip]
	cmp	ip, #0
	beq	.L1308
	mov	r0, r0, asl #4
	mov	r1, r1, asl #4
	strh	r0, [fp, #-44]	@ movhi
	mov	r2, r2, asl #4
	strh	r1, [fp, #-42]	@ movhi
	mov	r1, r3, asl #4
	strh	r2, [fp, #-40]	@ movhi
	mov	r3, #8
	strh	r1, [fp, #-38]	@ movhi
	sub	r2, fp, #44
	mov	r1, #2
	ldr	r0, [r4, #120]
	blx	ip
	mov	lr, #1
	mov	r0, lr
.L1302:
	ldrb	r3, [r7, #531]	@ zero_extendqisi2
	cmp	r3, #1
	ldrne	ip, [r6, #3972]
	subne	ip, ip, #1
	beq	.L1316
.L1305:
	ldr	r3, [r4, #44]
	cmp	r3, ip
	orrne	lr, lr, #1
	str	lr, [r5]
	str	ip, [r4, #44]
.L1310:
	sub	sp, fp, #32
	ldmfd	sp, {r4, r5, r6, r7, r8, fp, sp, pc}
.L1315:
	add	ip, ip, #45056
	ldr	r8, [r6, #3972]
	ldr	ip, [ip, #2376]
	add	ip, ip, #1
	cmp	r8, ip
	bhi	.L1301
.L1311:
	mov	r0, lr
	b	.L1302
.L1312:
	ldr	r2, [r3, #28]
	movw	r6, #3992
	ldr	r3, [r4, #248]
	mla	r6, r6, r2, r3
	b	.L1296
.L1316:
	movw	r1, #39336
	add	r3, r4, #290816
	movt	r1, 168
	add	r3, r3, #808
	add	r1, r4, r1
	mov	ip, #0
.L1304:
	ldr	r2, [r3]
	add	r3, r3, #335872
	add	r3, r3, #308
	cmp	r2, ip
	subhi	ip, r2, #1
	cmp	r3, r1
	bne	.L1304
	add	ip, ip, #1
	mov	ip, ip, asl #1
	cmp	ip, #16
	movcs	ip, #16
	b	.L1305
.L1308:
	mov	lr, #1
	b	.L1311
.L1313:
	movw	r6, #8500
	movt	r6, 5
	mla	r6, r6, r3, r4
	add	r6, r6, #286720
	add	r6, r6, #932
	b	.L1296
.L1314:
	ldr	r3, .L1317+4
	mov	r0, #1
	ldr	r1, .L1317+8
	ldr	r3, [r3, #68]
	blx	r3
	mvn	r0, #0
	b	.L1310
.L1297:
	ldr	r3, .L1317+4
	mov	r0, #1
	ldr	r1, .L1317+12
	ldr	r3, [r3, #68]
	blx	r3
	mvn	r0, #0
	b	.L1310
.L1318:
	.align	2
.L1317:
	.word	g_event_report
	.word	vfmw_Osal_Func_Ptr_S
	.word	.LC30
	.word	.LC31
	UNWIND(.fnend)
	.size	MVC_GetReRangeFlag, .-MVC_GetReRangeFlag
	.global	__aeabi_uidiv
	.global	__aeabi_uidivmod
	.align	2
	.global	MVC_DecPOC
	.type	MVC_DecPOC, %function
MVC_DecPOC:
	UNWIND(.fnstart)
	@ args = 0, pretend = 0, frame = 0
	@ frame_needed = 1, uses_anonymous_args = 0
	UNWIND(.movsp ip)
	mov	ip, sp
	stmfd	sp!, {r3, r4, r5, r6, r7, r8, r9, r10, fp, ip, lr, pc}
	UNWIND(.pad #4)
	UNWIND(.save {r3, r4, r5, r6, r7, r8, r9, r10, fp, ip, lr})
	UNWIND(.setfp fp, ip, #-4)
	sub	fp, ip, #4
	add	r6, r0, #11075584
	ldr	r5, [r0, #236]
	add	r7, r6, #40960
	mov	r2, #1
	ldrb	r1, [r7, #523]	@ zero_extendqisi2
	ldr	ip, [r5, #2900]
	ldr	r3, [r5, #2896]
	sub	r1, r1, #5
	clz	r1, r1
	cmp	ip, r2
	add	r3, r3, #4
	ldr	lr, [r5, #2904]
	mov	r1, r1, lsr #5
	mov	r3, r2, asl r3
	beq	.L1321
	bcc	.L1322
	cmp	ip, #2
	ldmnefd	sp, {r3, r4, r5, r6, r7, r8, r9, r10, fp, sp, pc}
	cmp	r1, #0
	bne	.L1377
	add	r4, r6, #36864
	ldrb	r2, [r4, #3480]	@ zero_extendqisi2
	cmp	r2, #0
	bne	.L1355
	ldr	r1, [r4, #3536]
	ldr	r0, [r4, #3532]
	ldr	r2, [r4, #3544]
	cmp	r1, r0
	addcc	r2, r2, r3
	strcc	r2, [r4, #3540]
	bcs	.L1357
.L1358:
	add	r3, r2, r1
	str	r3, [r4, #3528]
	ldrb	r0, [r7, #528]	@ zero_extendqisi2
	mov	r3, r3, asl #1
	cmp	r0, #0
	subeq	r3, r3, #1
	str	r3, [r4, #3516]
	ldrb	r0, [r7, #521]	@ zero_extendqisi2
	cmp	r0, #0
	bne	.L1361
	str	r3, [r4, #3512]
	str	r3, [r4, #3508]
	str	r3, [r4, #3504]
.L1354:
	add	r6, r6, #36864
	str	r1, [r6, #3532]
	str	r2, [r6, #3544]
	ldmfd	sp, {r3, r4, r5, r6, r7, r8, r9, r10, fp, sp, pc}
.L1322:
	cmp	r1, #0
	add	lr, lr, #4
	mov	r2, r2, asl lr
	bne	.L1378
	add	r4, r6, #36864
	ldrb	r3, [r4, #3480]	@ zero_extendqisi2
	cmp	r3, #0
	bne	.L1326
	ldr	lr, [r4, #3492]
	ldr	ip, [r4, #3496]
	mov	r1, lr
.L1327:
	ldr	r0, [r4, #3484]
	cmp	r0, ip
	bcs	.L1325
	rsb	r3, r0, ip
	cmp	r3, r2, lsr #1
	addcs	r1, r1, r2
	strcs	r1, [r4, #3500]
	bcs	.L1329
.L1325:
	cmp	r0, ip
	bls	.L1330
	rsb	r3, ip, r0
	cmp	r3, r2, lsr #1
	rsbhi	r1, r2, r1
	strhi	r1, [r4, #3500]
	bls	.L1330
.L1329:
	ldrb	r3, [r7, #521]	@ zero_extendqisi2
	cmp	r3, #0
	bne	.L1331
.L1380:
	ldr	r3, [r4, #3488]
	add	r1, r1, r0
	str	r1, [r4, #3504]
	add	r3, r1, r3
	str	r3, [r4, #3508]
	cmp	r3, r1
	movge	r3, r1
	str	r3, [r4, #3516]
.L1332:
	ldr	r2, [r4, #3536]
	str	r3, [r4, #3512]
	add	r3, r6, #40960
	ldr	r1, [r4, #3532]
	cmp	r2, r1
	strne	r2, [r4, #3532]
	ldrb	r3, [r3, #528]	@ zero_extendqisi2
	cmp	r3, #0
	addne	r6, r6, #36864
	ldrne	r2, [r6, #3484]
	ldrne	r3, [r6, #3500]
	strne	r2, [r6, #3496]
	strne	r3, [r6, #3492]
	ldmfd	sp, {r3, r4, r5, r6, r7, r8, r9, r10, fp, sp, pc}
.L1321:
	cmp	r1, #0
	add	r4, r6, #36864
	movne	r3, #0
	strne	r3, [r4, #3540]
	bne	.L1336
	ldrb	r2, [r4, #3480]	@ zero_extendqisi2
	cmp	r2, #0
	beq	.L1337
	mov	r3, r1
	str	r1, [r4, #3544]
	str	r1, [r4, #3532]
.L1338:
	str	r3, [r4, #3540]
.L1336:
	ldr	r3, [r5, #2916]
	cmp	r3, #0
	beq	.L1340
	ldr	r3, [r4, #3536]
	ldr	r0, [r4, #3540]
	add	r0, r3, r0
	str	r0, [r4, #3528]
	ldrb	r8, [r7, #528]	@ zero_extendqisi2
	cmp	r8, #0
	bne	.L1342
	cmp	r0, #0
	beq	.L1343
	sub	r0, r0, #1
	str	r0, [r4, #3528]
.L1342:
	mov	r3, #0
	str	r3, [r4, #3560]
	ldr	r1, [r5, #2916]
	cmp	r1, r3
	bgt	.L1363
	cmp	r0, #0
	beq	.L1346
.L1379:
	sub	r9, r0, #1
	mov	r0, r9
	bl	__aeabi_uidiv
	mov	r10, r0
	mov	r0, r9
	str	r10, [r4, #3552]
	ldr	r1, [r5, #2916]
	bl	__aeabi_uidivmod
	ldr	r0, [r4, #3560]
	mul	r0, r0, r10
	str	r0, [r4, #3556]
	cmp	r1, #0
	str	r1, [r4, #3548]
	blt	.L1347
	add	r2, r5, #2912
	add	r1, r1, #1
	add	r2, r2, #4
	mov	r3, #0
.L1348:
	add	r3, r3, #1
	ldr	ip, [r2, #4]!
	cmp	r3, r1
	add	r0, r0, ip
	str	r0, [r4, #3556]
	bne	.L1348
.L1347:
	cmp	r8, #0
	ldreq	r3, [r5, #2908]
	addeq	r0, r0, r3
	streq	r0, [r4, #3556]
	ldrb	r3, [r7, #521]	@ zero_extendqisi2
	cmp	r3, #0
	bne	.L1350
	ldr	r2, [r4, #3520]
	ldr	r1, [r4, #3524]
	add	r2, r0, r2
	str	r2, [r4, #3504]
	ldr	r3, [r5, #2912]
	add	r3, r2, r3
	add	r0, r3, r1
	str	r0, [r4, #3508]
	cmp	r0, r2
	movge	r0, r2
	str	r0, [r4, #3516]
.L1351:
	add	r6, r6, #36864
	ldr	r2, [r6, #3536]
	ldr	r3, [r6, #3540]
	str	r0, [r6, #3512]
	str	r2, [r6, #3532]
	str	r3, [r6, #3544]
	ldmfd	sp, {r3, r4, r5, r6, r7, r8, r9, r10, fp, sp, pc}
.L1340:
	str	r3, [r4, #3528]
	ldrb	r8, [r7, #528]	@ zero_extendqisi2
.L1343:
	mov	r0, #0
	str	r0, [r4, #3560]
	ldr	r3, [r5, #2916]
	cmp	r3, r0
	ble	.L1346
.L1363:
	add	ip, r5, #2912
	mov	r3, #0
	add	ip, ip, #4
	mov	r2, r3
.L1345:
	ldr	r1, [ip, #4]!
	add	r2, r2, #1
	add	r3, r3, r1
	str	r3, [r4, #3560]
	ldr	r1, [r5, #2916]
	cmp	r1, r2
	bgt	.L1345
	cmp	r0, #0
	bne	.L1379
.L1346:
	mov	r0, #0
	str	r0, [r4, #3556]
	b	.L1347
.L1378:
	add	r4, r0, #11075584
	add	r4, r4, #36864
.L1328:
	mov	r3, #0
	ldr	r0, [r4, #3484]
	str	r3, [r4, #3492]
	mov	lr, r3
	str	r3, [r4, #3496]
	mov	r1, ip
	b	.L1325
.L1377:
	add	r3, r6, #36864
	mov	r1, #0
	mov	r2, r1
	str	r1, [r3, #3540]
	str	r1, [r3, #3508]
	str	r1, [r3, #3504]
	str	r1, [r3, #3512]
	str	r1, [r3, #3516]
	ldr	r1, [r3, #3536]
	b	.L1354
.L1330:
	str	lr, [r4, #3500]
	ldrb	r3, [r7, #521]	@ zero_extendqisi2
	cmp	r3, #0
	beq	.L1380
.L1331:
	ldrb	r3, [r7, #522]	@ zero_extendqisi2
	cmp	r3, #0
	add	r3, r1, r0
	streq	r3, [r4, #3504]
	strne	r3, [r4, #3508]
	str	r3, [r4, #3516]
	b	.L1332
.L1350:
	ldrb	r3, [r7, #522]	@ zero_extendqisi2
	cmp	r3, #0
	ldrne	r2, [r5, #2912]
	ldreq	r3, [r4, #3520]
	ldrne	r3, [r4, #3520]
	addne	r0, r0, r2
	addeq	r0, r0, r3
	streq	r0, [r4, #3504]
	addne	r0, r0, r3
	strne	r0, [r4, #3508]
	str	r0, [r4, #3516]
	b	.L1351
.L1326:
	movw	r3, #3481
	ldrsb	r3, [r4, r3]
	cmp	r3, #0
	bne	.L1328
	ldr	r0, [r4, #3504]
	mov	r1, ip
	mov	lr, r3
	str	r3, [r4, #3492]
	mov	ip, r0
	str	r0, [r4, #3496]
	b	.L1327
.L1337:
	ldr	r1, [r4, #3536]
	ldr	r2, [r4, #3532]
	cmp	r1, r2
	bcs	.L1339
	ldr	r2, [r4, #3544]
	add	r3, r3, r2
	str	r3, [r4, #3540]
	b	.L1336
.L1361:
	ldrb	r0, [r7, #522]	@ zero_extendqisi2
	str	r3, [r4, #3512]
	cmp	r0, #0
	streq	r3, [r4, #3504]
	strne	r3, [r4, #3508]
	b	.L1354
.L1355:
	str	r1, [r4, #3532]
	mov	r2, r1
	str	r1, [r4, #3544]
	ldr	r1, [r4, #3536]
.L1357:
	str	r2, [r4, #3540]
	b	.L1358
.L1339:
	ldr	r3, [r4, #3544]
	b	.L1338
	UNWIND(.fnend)
	.size	MVC_DecPOC, .-MVC_DecPOC
	.align	2
	.global	MVC_CalcPicNum
	.type	MVC_CalcPicNum, %function
MVC_CalcPicNum:
	UNWIND(.fnstart)
	@ args = 0, pretend = 0, frame = 0
	@ frame_needed = 1, uses_anonymous_args = 0
	UNWIND(.movsp ip)
	mov	ip, sp
	stmfd	sp!, {r4, r5, r6, r7, r8, fp, ip, lr, pc}
	UNWIND(.pad #4)
	UNWIND(.save {r4, r5, r6, r7, r8, fp, ip, lr})
	UNWIND(.setfp fp, ip, #-4)
	sub	fp, ip, #4
	add	r5, r0, #11141120
	ldr	r3, [r0, #236]
	add	r5, r5, #8192
	mov	r6, #1
	ldrb	r2, [r5, #1595]	@ zero_extendqisi2
	ldr	r3, [r3, #2896]
	cmp	r2, #0
	add	r3, r3, #4
	mov	r6, r6, asl r3
	add	r3, r0, #11075584
	beq	.L1382
	add	r3, r3, #45056
	sub	r7, r2, #1
	sub	r2, r2, #2
	clz	r7, r7
	ldr	r1, [r3, #2384]
	clz	r2, r2
	mov	r7, r7, lsr #5
	cmp	r1, #0
	mov	r2, r2, lsr #5
	movwne	lr, #47300
	movne	r1, #0
	movtne	lr, 169
	addne	lr, r0, lr
	beq	.L1402
.L1401:
	ldr	ip, [lr, #4]!
	ldrb	r4, [ip, #3]	@ zero_extendqisi2
	cmp	r4, #0
	beq	.L1396
	ldr	r4, [ip, #20]
	ldr	r8, [r5, #2120]
	cmp	r4, r8
	rsbhi	r4, r6, r4
	str	r4, [ip, #24]
	ldr	ip, [lr]
	ldrb	r4, [ip, #3]	@ zero_extendqisi2
	tst	r4, #1
	beq	.L1399
	ldr	r8, [ip, #612]
	bic	r8, r8, #-16777216
	bic	r8, r8, #255
	cmp	r8, #65536
	ldreq	r4, [ip, #24]
	addeq	r4, r7, r4, lsl #1
	streq	r4, [ip, #624]
	ldreq	ip, [lr]
	ldreqb	r4, [ip, #3]	@ zero_extendqisi2
.L1399:
	tst	r4, #2
	beq	.L1396
	ldr	r4, [ip, #648]
	bic	r4, r4, #-16777216
	bic	r4, r4, #255
	cmp	r4, #65536
	ldreq	r4, [ip, #24]
	addeq	r4, r2, r4, lsl #1
	streq	r4, [ip, #660]
.L1396:
	ldr	ip, [r3, #2384]
	add	r1, r1, #1
	cmp	ip, r1
	bhi	.L1401
.L1402:
	ldr	r1, [r3, #2388]
	cmp	r1, #0
	beq	.L1426
	movw	r4, #47364
	mov	ip, #0
	movt	r4, 169
	add	r4, r0, r4
.L1407:
	ldr	lr, [r4, #4]!
	add	ip, ip, #1
	ldrb	r1, [lr, #3]	@ zero_extendqisi2
	cmp	r1, #0
	beq	.L1404
	tst	r1, #1
	beq	.L1405
	ldr	r0, [lr, #612]
	bic	r0, r0, #-16777216
	bic	r0, r0, #255
	cmp	r0, #256
	ldreq	r1, [lr, #28]
	addeq	r1, r7, r1, lsl #1
	streq	r1, [lr, #620]
	ldreq	lr, [r4]
	ldreqb	r1, [lr, #3]	@ zero_extendqisi2
.L1405:
	tst	r1, #2
	beq	.L1404
	ldr	r1, [lr, #648]
	bic	r1, r1, #-16777216
	bic	r1, r1, #255
	cmp	r1, #256
	ldreq	r1, [lr, #28]
	addeq	r1, r2, r1, lsl #1
	streq	r1, [lr, #656]
.L1404:
	ldr	r1, [r3, #2388]
	cmp	r1, ip
	bhi	.L1407
	ldmfd	sp, {r4, r5, r6, r7, r8, fp, sp, pc}
.L1382:
	add	r3, r3, #45056
	ldr	r1, [r3, #2384]
	cmp	r1, #0
	movwne	lr, #47300
	movtne	lr, 169
	addne	lr, r0, lr
	bne	.L1391
.L1392:
	ldr	r2, [r3, #2388]
	cmp	r2, #0
	beq	.L1427
	movw	ip, #47364
	mov	r2, #0
	movt	ip, 169
	add	ip, r0, ip
	b	.L1394
.L1393:
	ldr	r1, [r3, #2388]
	cmp	r1, r2
	bls	.L1428
.L1394:
	ldr	r1, [ip, #4]!
	add	r2, r2, #1
	ldrb	r0, [r1, #3]	@ zero_extendqisi2
	cmp	r0, #3
	bne	.L1393
	ldr	r0, [r1, #576]
	bic	r0, r0, #-16777216
	bic	r0, r0, #255
	cmp	r0, #256
	ldreq	r0, [r1, #28]
	streq	r0, [r1, #584]
	ldr	r1, [r3, #2388]
	cmp	r1, r2
	bhi	.L1394
.L1428:
	ldmfd	sp, {r4, r5, r6, r7, r8, fp, sp, pc}
.L1429:
	ldr	ip, [r1, #576]
	bic	ip, ip, #-16777216
	bic	ip, ip, #255
	cmp	ip, #65536
	bne	.L1388
	ldr	ip, [r1, #20]
	ldr	r4, [r5, #2120]
	rsb	r7, r6, ip
	cmp	ip, r4
	strhi	r7, [r1, #24]
	strls	ip, [r1, #24]
	ldr	r1, [lr]
	ldr	ip, [r1, #24]
	str	ip, [r1, #588]
.L1388:
	ldr	r1, [r3, #2384]
	add	r2, r2, #1
	cmp	r1, r2
	bls	.L1392
.L1391:
	ldr	r1, [lr, #4]!
	ldrb	ip, [r1, #3]	@ zero_extendqisi2
	cmp	ip, #3
	bne	.L1388
	b	.L1429
.L1427:
	ldmfd	sp, {r4, r5, r6, r7, r8, fp, sp, pc}
.L1426:
	ldmfd	sp, {r4, r5, r6, r7, r8, fp, sp, pc}
	UNWIND(.fnend)
	.size	MVC_CalcPicNum, .-MVC_CalcPicNum
	.align	2
	.global	MVC_IsOutDPB
	.type	MVC_IsOutDPB, %function
MVC_IsOutDPB:
	UNWIND(.fnstart)
	@ args = 0, pretend = 0, frame = 0
	@ frame_needed = 1, uses_anonymous_args = 0
	UNWIND(.movsp ip)
	mov	ip, sp
	stmfd	sp!, {fp, ip, lr, pc}
	UNWIND(.pad #4)
	UNWIND(.save {fp, ip, lr})
	UNWIND(.setfp fp, ip, #-4)
	sub	fp, ip, #4
	cmp	r1, #0
	beq	.L1435
	add	r3, r0, #11075584
	add	r3, r3, #45056
	ldr	lr, [r3, #2376]
	cmp	lr, #0
	beq	.L1435
	ldr	r2, [r3, #2184]
	rsb	r3, r2, r1
	cmp	r2, #0
	clz	r3, r3
	mov	r3, r3, lsr #5
	moveq	r3, #0
	cmp	r3, #0
	bne	.L1437
	movw	ip, #47240
	movt	ip, 169
	add	ip, r0, ip
	b	.L1432
.L1433:
	ldr	r2, [ip, #4]!
	rsb	r0, r2, r1
	cmp	r2, #0
	clz	r0, r0
	mov	r0, r0, lsr #5
	moveq	r0, #0
	cmp	r0, #0
	bne	.L1437
.L1432:
	add	r3, r3, #1
	cmp	r3, lr
	bne	.L1433
.L1435:
	mov	r0, #1
	ldmfd	sp, {fp, sp, pc}
.L1437:
	mov	r0, #0
	ldmfd	sp, {fp, sp, pc}
	UNWIND(.fnend)
	.size	MVC_IsOutDPB, .-MVC_IsOutDPB
	.align	2
	.global	mvc_combine_scalinglist
	.type	mvc_combine_scalinglist, %function
mvc_combine_scalinglist:
	UNWIND(.fnstart)
	@ args = 0, pretend = 0, frame = 0
	@ frame_needed = 1, uses_anonymous_args = 0
	UNWIND(.movsp ip)
	mov	ip, sp
	stmfd	sp!, {r4, r5, r6, r7, r8, fp, ip, lr, pc}
	UNWIND(.pad #4)
	UNWIND(.save {r4, r5, r6, r7, r8, fp, ip, lr})
	UNWIND(.setfp fp, ip, #-4)
	sub	fp, ip, #4
	cmp	r2, #0
	ldmlefd	sp, {r4, r5, r6, r7, r8, fp, sp, pc}
	ldr	r6, .L1445
	mov	lr, #0
	mov	r5, #255
	sub	r7, r6, #16
.L1442:
	cmp	r2, #16
	ldreqb	ip, [lr, r7]	@ zero_extendqisi2
	ldrneb	ip, [lr, r6]	@ zero_extendqisi2
	add	lr, lr, #1
	cmp	lr, r2
	and	r3, ip, #3
	mov	r4, ip, lsr #2
	ldrb	r8, [r0, ip, asl #2]	@ zero_extendqisi2
	mov	r3, r3, asl #3
	ldr	ip, [r1, r4, asl #2]
	bic	ip, ip, r5, asl r3
	orr	r3, ip, r8, asl r3
	str	r3, [r1, r4, asl #2]
	bne	.L1442
	ldmfd	sp, {r4, r5, r6, r7, r8, fp, sp, pc}
.L1446:
	.align	2
.L1445:
	.word	.LANCHOR0+16
	UNWIND(.fnend)
	.size	mvc_combine_scalinglist, .-mvc_combine_scalinglist
	.align	2
	.global	mvc_assign_quant_params
	.type	mvc_assign_quant_params, %function
mvc_assign_quant_params:
	UNWIND(.fnstart)
	@ args = 0, pretend = 0, frame = 16
	@ frame_needed = 1, uses_anonymous_args = 0
	UNWIND(.movsp ip)
	mov	ip, sp
	stmfd	sp!, {r4, r5, r6, r7, r8, r9, r10, fp, ip, lr, pc}
	UNWIND(.pad #4)
	UNWIND(.save {r4, r5, r6, r7, r8, r9, r10, fp, ip, lr})
	UNWIND(.setfp fp, ip, #-4)
	sub	fp, ip, #4
	UNWIND(.pad #20)
	sub	sp, sp, #20
	subs	r3, r0, #0
	str	r1, [fp, #-48]
	str	r3, [fp, #-52]
	movweq	r3, #6960
	ldreq	ip, .L1484
	beq	.L1478
	ldr	r3, [fp, #-48]
	cmp	r3, #0
	beq	.L1479
	ldr	r3, [fp, #-48]
	ldrb	r3, [r3, #18]	@ zero_extendqisi2
	cmp	r3, #0
	beq	.L1467
	ldr	r3, [fp, #-48]
	mov	r4, #0
	ldr	r1, [fp, #-52]
	add	r2, r3, #2016
	add	r8, r3, #1728
	str	r2, [fp, #-56]
	add	r9, r1, #2384
	mov	r6, r2
	add	r7, r3, #1984
	add	r5, r3, #5
	ldr	r10, .L1484
	b	.L1452
.L1482:
	cmp	r4, #0
	beq	.L1480
	cmp	r4, #3
	beq	.L1481
	ldr	r3, [r10, #52]
	mov	r2, #16
	sub	r1, r6, #16
	mov	r0, r6
	blx	r3
.L1460:
	add	r4, r4, #1
	cmp	r4, #7
	bhi	.L1467
.L1466:
	add	r8, r8, #64
	add	r9, r9, #64
	add	r6, r6, #16
	add	r7, r7, #4
	add	r5, r5, #1
.L1452:
	cmp	r4, #5
	ldrsb	r3, [r5]
	bhi	.L1453
	cmp	r3, #0
	beq	.L1482
	ldr	r3, [r7]
	cmp	r3, #0
	beq	.L1460
	ldr	r1, .L1484+4
	cmp	r4, #2
	mov	r2, #16
	ldr	r3, [r10, #52]
	add	r0, r1, r2
	add	r4, r4, #1
	movhi	r1, r0
	mov	r0, r6
	blx	r3
	cmp	r4, #7
	bls	.L1466
.L1467:
	mov	r0, #0
.L1449:
	sub	sp, fp, #40
	ldmfd	sp, {r4, r5, r6, r7, r8, r9, r10, fp, sp, pc}
.L1453:
	cmp	r3, #0
	bne	.L1462
	ldr	r3, [fp, #-52]
	mov	r2, #64
	ldrb	r3, [r3, #27]	@ zero_extendqisi2
	cmp	r3, #0
	ldr	r3, [r10, #52]
	bne	.L1483
.L1477:
	ldr	r1, .L1484+8
	cmp	r4, #6
	add	r0, r1, r2
	movne	r1, r0
	mov	r0, r8
	blx	r3
	b	.L1460
.L1462:
	ldr	r3, [r7]
	cmp	r3, #0
	beq	.L1460
	ldr	r3, [r10, #52]
	mov	r2, #64
	b	.L1477
.L1483:
	mov	r1, r9
	mov	r0, r8
	blx	r3
	b	.L1460
.L1479:
	ldr	ip, .L1484
	mov	r0, r3
	movw	r3, #6961
.L1478:
	ldr	r2, .L1484+12
	ldr	r1, .L1484+16
	ldr	ip, [ip, #68]
	blx	ip
	mvn	r0, #0
	b	.L1449
.L1481:
	ldr	r3, [fp, #-52]
	mov	r2, #16
	ldr	r0, [fp, #-48]
	mov	r4, #4
	ldrb	r3, [r3, #27]	@ zero_extendqisi2
	add	r0, r0, #2064
	cmp	r3, #0
	ldr	r3, [r10, #52]
	ldrne	r1, [fp, #-52]
	ldreq	r1, .L1484+20
	addne	r1, r1, #2720
	blx	r3
	b	.L1466
.L1480:
	ldr	r3, [fp, #-52]
	mov	r2, #16
	ldr	r0, [fp, #-56]
	mov	r4, #1
	ldrb	r3, [r3, #27]	@ zero_extendqisi2
	cmp	r3, #0
	ldr	r3, [r10, #52]
	ldrne	r1, [fp, #-52]
	ldreq	r1, .L1484+4
	addne	r1, r1, #2672
	blx	r3
	b	.L1466
.L1485:
	.align	2
.L1484:
	.word	vfmw_Osal_Func_Ptr_S
	.word	.LANCHOR1
	.word	.LANCHOR1+32
	.word	.LC13
	.word	.LC14
	.word	.LANCHOR1+16
	UNWIND(.fnend)
	.size	mvc_assign_quant_params, .-mvc_assign_quant_params
	.align	2
	.global	MVC_WriteCurrPicYUV
	.type	MVC_WriteCurrPicYUV, %function
MVC_WriteCurrPicYUV:
	UNWIND(.fnstart)
	@ args = 0, pretend = 0, frame = 0
	@ frame_needed = 1, uses_anonymous_args = 0
	UNWIND(.movsp ip)
	mov	ip, sp
	stmfd	sp!, {r4, r5, r6, fp, ip, lr, pc}
	UNWIND(.pad #4)
	UNWIND(.save {r4, r5, r6, fp, ip, lr})
	UNWIND(.setfp fp, ip, #-4)
	sub	fp, ip, #4
	UNWIND(.pad #12)
	sub	sp, sp, #12
	add	r5, r0, #11141120
	add	r3, r5, #8192
	ldr	r6, .L1489
	add	r5, r5, #8192
	ldr	r1, .L1489+4
	ldrb	r4, [r3, #1595]	@ zero_extendqisi2
	mov	r0, #2
	ldr	r3, [r3, #2112]
	ldr	ip, [r6, #68]
	mov	r2, r4
	ldr	r3, [r3, #268]
	blx	ip
	ldr	lr, [r5, #2172]
	cmp	r4, #3
	cmpne	r4, #0
	ldr	r3, [r5, #2168]
	addne	r2, r4, #1
	ldr	ip, [r6, #68]
	moveq	r2, #1
	ldr	r1, .L1489+8
	str	lr, [sp]
	mov	r0, #22
	blx	ip
	sub	sp, fp, #24
	ldmfd	sp, {r4, r5, r6, fp, sp, pc}
.L1490:
	.align	2
.L1489:
	.word	vfmw_Osal_Func_Ptr_S
	.word	.LC32
	.word	.LC33
	UNWIND(.fnend)
	.size	MVC_WriteCurrPicYUV, .-MVC_WriteCurrPicYUV
	.align	2
	.global	MVC_WritePicMsg
	.type	MVC_WritePicMsg, %function
MVC_WritePicMsg:
	UNWIND(.fnstart)
	@ args = 0, pretend = 0, frame = 8
	@ frame_needed = 1, uses_anonymous_args = 0
	UNWIND(.movsp ip)
	mov	ip, sp
	stmfd	sp!, {r4, r5, r6, r7, r8, r9, r10, fp, ip, lr, pc}
	UNWIND(.pad #4)
	UNWIND(.save {r4, r5, r6, r7, r8, r9, r10, fp, ip, lr})
	UNWIND(.setfp fp, ip, #-4)
	sub	fp, ip, #4
	UNWIND(.pad #20)
	sub	sp, sp, #20
	add	r10, r0, #11141120
	add	r4, r10, #8192
	ldr	ip, .L1527
	add	lr, r10, #12288
	str	lr, [fp, #-48]
	ldr	r5, [r4, #2188]
	mov	r6, r0
	ldr	lr, [r4, #1804]
	mov	r0, #2
	ldr	r8, [ip, #68]
	add	r7, r6, #11075584
	ldrb	r3, [r4, #1595]	@ zero_extendqisi2
	add	r9, r7, #32768
	ldr	r2, [r4, #2128]
	ldr	r1, .L1527+4
	str	r5, [sp, #4]
	add	r5, r7, #36864
	str	lr, [sp]
	str	ip, [fp, #-52]
	blx	r8
	movw	r3, #9808
	mov	r2, #0
	movt	r3, 170
	str	r2, [r6, #64]
	ldrd	r0, [r6, r3]
	add	r3, r10, #11584
	ldr	lr, [fp, #-48]
	strd	r0, [r3]
	ldr	r3, [r6, #544]
	str	r3, [lr, #156]
	ldr	r1, [r4, #1800]
	ldr	r2, [r4, #2128]
	ldrb	r3, [r4, #1595]	@ zero_extendqisi2
	str	r1, [r4, #4040]
	str	r2, [r4, #3400]
	strb	r3, [r4, #3384]
	ldr	r3, [r6, #236]
	ldr	r0, [r4, #2172]
	ldr	r1, [r4, #2176]
	ldrb	r2, [r3, #21]	@ zero_extendqisi2
	str	r0, [r4, #3404]
	str	r1, [r4, #3408]
	str	r2, [r4, #3416]
	ldr	r2, [r3, #3948]
	add	r2, r2, #1
	str	r2, [r4, #3412]
	ldrb	r2, [r9, #1364]	@ zero_extendqisi2
	strb	r2, [r4, #3387]
	ldr	r2, [r5, #1300]
	str	r2, [r4, #3420]
	ldrb	r2, [r5, #1240]	@ zero_extendqisi2
	str	r2, [r4, #3424]
	ldr	r3, [r3, #748]
	strb	r3, [r4, #3385]
	ldrb	r3, [r5, #1244]	@ zero_extendqisi2
	str	r3, [r4, #3428]
	ldr	r3, [r5, #3516]
	str	r3, [r4, #3432]
	ldr	r3, [r5, #3504]
	str	r3, [r4, #3436]
	ldr	r3, [r4, #2112]
	ldr	r2, [r5, #3508]
	str	r2, [r4, #3440]
	ldrsb	r1, [r3, #6]
	ldr	r0, [r6, #120]
	bl	FSP_GetLogicFs
	ldr	ip, [fp, #-52]
	subs	r8, r0, #0
	beq	.L1525
	ldr	r2, [r8, #520]
	ldr	r3, [r8, #524]
	cmp	r2, #0
	beq	.L1495
	cmp	r3, #0
	beq	.L1495
	movw	r3, #12012
	movw	r2, #11884
	movw	r1, #12140
	ldr	r0, [r6, #120]
	movt	r3, 170
	movt	r2, 170
	add	r3, r6, r3
	add	r2, r6, r2
	movt	r1, 170
	add	r1, r6, r1
	bl	FSP_GetDecFsAddrTab
	ldr	r3, [r8, #520]
	movw	r2, #12144
	add	r1, r10, #12224
	movt	r2, 170
	add	r2, r6, r2
	ldr	r3, [r3, #4]
	add	r7, r7, #45056
	str	r3, [r4, #3676]
	ldr	r0, [r6, #120]
	bl	FSP_GetPmvAddrTab
	ldr	r3, [r4, #2188]
	ldr	r2, [fp, #-48]
	str	r3, [r4, #3684]
	ldr	r3, [r8, #536]
	str	r3, [r4, #4036]
	ldr	r3, [r8, #524]
	ldr	r3, [r3, #12]
	str	r3, [r4, #3680]
	ldr	r3, [r7, #2604]
	cmp	r3, #0
	str	r3, [fp, #-52]
	str	r3, [r2, #148]
	beq	.L1501
	movw	r4, #47464
	movw	lr, #12240
	movw	ip, #47528
	movw	r0, #12304
	movw	r1, #47592
	movw	r2, #12368
	ldr	r10, [fp, #-52]
	movt	r4, 169
	movt	lr, 170
	movt	ip, 169
	movt	r0, 170
	movt	r1, 169
	movt	r2, 170
	add	r4, r6, r4
	add	lr, r6, lr
	add	ip, r6, ip
	add	r0, r6, r0
	add	r1, r6, r1
	add	r2, r6, r2
	mov	r3, #0
.L1500:
	ldr	r8, [r4, #4]!
	add	r3, r3, #1
	cmp	r3, r10
	str	r8, [lr, #4]!
	ldr	r8, [ip, #4]!
	str	r8, [r0, #4]!
	ldr	r8, [r1, #4]!
	str	r8, [r2, #4]!
	bne	.L1500
.L1501:
	ldrb	r3, [r9, #1371]	@ zero_extendqisi2
	cmp	r3, #0
	bne	.L1526
	ldrb	ip, [r5, #1258]	@ zero_extendqisi2
	cmp	ip, #0
	bne	.L1502
	movw	lr, #11632
	ldr	r0, .L1527+8
	movt	lr, 170
	add	lr, r6, lr
.L1503:
	and	r3, ip, #3
	add	ip, ip, #1
	cmp	ip, #24
	add	r3, r0, r3, lsl #2
	ldr	r3, [r3, #352]
	bic	r2, r3, #16711680
	ubfx	r1, r3, #8, #8
	bic	r2, r2, #65280
	mov	r3, r3, lsr #8
	orr	r2, r2, r1, asl #16
	and	r3, r3, #65280
	orr	r3, r2, r3
	str	r3, [lr, #4]!
	bne	.L1503
	movw	r8, #11732
	mov	r5, #0
	movt	r8, 170
	add	r8, r6, r8
.L1504:
	add	r3, r5, #1
	and	r2, r5, #14
	and	r3, r3, #15
	add	r5, r5, #2
	add	r2, r0, r2, lsl #2
	cmp	r5, #32
	add	r3, r0, r3, lsl #2
	ldr	r1, [r2, #368]
	ldr	ip, [r3, #368]
	ubfx	r3, r1, #8, #8
	mov	r2, r1, lsr #24
	uxtb	r9, r1
	uxtb	r4, ip
	mov	lr, ip, lsr #16
	orr	r3, r3, r2, asl #8
	mov	r1, r1, lsr #8
	mov	r4, r4, asl #16
	and	r2, ip, #-16777216
	orr	lr, r4, lr, asl #24
	ubfx	ip, ip, #8, #8
	orr	r3, r3, r2
	orr	lr, lr, r9
	and	r1, r1, #65280
	orr	r3, r3, ip, asl #16
	orr	r2, lr, r1
	stmia	r8, {r2, r3}
	add	r8, r8, #8
	bne	.L1504
.L1509:
	ldr	r3, [fp, #-52]
	cmp	r3, #0
	beq	.L1506
	movw	r4, #47468
	movw	r9, #12572
	movw	r8, #12636
	movt	r4, 169
	movt	r9, 170
	movt	r8, 170
	add	r4, r6, r4
	add	r9, r6, r9
	add	r8, r6, r8
	mov	r5, #0
.L1512:
	ldr	r2, [r4]
	mov	r1, #0
	ldr	r0, [r6, #120]
	add	r5, r5, #1
	bl	FSP_GetStoreType
	adds	r0, r0, #0
	movne	r0, #1
	str	r0, [r9, #4]!
	ldr	r3, [r4], #4
	str	r3, [r8, #4]!
	ldr	r3, [r7, #2604]
	cmp	r3, r5
	bhi	.L1512
.L1506:
	mov	r0, #0
.L1522:
	sub	sp, fp, #40
	ldmfd	sp, {r4, r5, r6, r7, r8, r9, r10, fp, sp, pc}
.L1526:
	ldrb	ip, [r5, #1258]	@ zero_extendqisi2
.L1502:
	cmp	ip, #1
	movw	ip, #11632
	movt	ip, 170
	mov	r0, #0
	add	ip, r6, ip
	beq	.L1507
.L1510:
	movw	r3, #25580
	movt	r3, 42
	add	r3, r0, r3
	add	r0, r0, #1
	ldr	r3, [r6, r3, asl #2]
	cmp	r0, #24
	bic	r2, r3, #16711680
	ubfx	r1, r3, #8, #8
	bic	r2, r2, #65280
	mov	r3, r3, lsr #8
	orr	r2, r2, r1, asl #16
	and	r3, r3, #65280
	orr	r3, r2, r3
	str	r3, [ip, #4]!
	bne	.L1510
	movw	r9, #11732
	mov	r10, #1
	movt	r9, 170
	add	r9, r6, r9
	mov	r8, #0
.L1511:
	mov	r3, r8, lsr #3
	and	r2, r10, #15
	mov	r0, r8, asl #1
	movw	r1, #25604
	mov	r3, r3, asl #4
	and	r0, r0, #14
	add	r2, r3, r2
	movt	r1, 42
	add	r3, r3, r0
	add	r1, r2, r1
	movw	r2, #25604
	add	r8, r8, #1
	movt	r2, 42
	add	r2, r3, r2
	ldr	r1, [r6, r1, asl #2]
	cmp	r8, #16
	ldr	r3, [r6, r2, asl #2]
	add	r10, r10, #2
	and	ip, r1, #-16777216
	ubfx	r0, r1, #8, #8
	uxtb	r5, r1
	mov	r1, r1, lsr #16
	mov	r4, r3, lsr #24
	ubfx	r2, r3, #8, #8
	mov	r5, r5, asl #16
	uxtb	lr, r3
	orr	r1, r5, r1, asl #24
	mov	r3, r3, lsr #8
	orr	r2, r2, r4, asl #8
	orr	r1, r1, lr
	and	r3, r3, #65280
	orr	r2, r2, ip
	orr	r3, r1, r3
	orr	r2, r2, r0, asl #16
	str	r3, [r9]
	add	r9, r9, #8
	str	r2, [r9, #-4]
	bne	.L1511
	b	.L1509
.L1507:
	movw	r3, #26414
	movt	r3, 42
	add	r3, r0, r3
	add	r0, r0, #1
	ldr	r3, [r6, r3, asl #2]
	cmp	r0, #24
	bic	r2, r3, #16711680
	ubfx	r1, r3, #8, #8
	bic	r2, r2, #65280
	mov	r3, r3, lsr #8
	orr	r2, r2, r1, asl #16
	and	r3, r3, #65280
	orr	r3, r2, r3
	str	r3, [ip, #4]!
	bne	.L1507
	movw	r9, #11732
	mov	r10, #1
	movt	r9, 170
	add	r9, r6, r9
	mov	r8, #0
.L1508:
	mov	r3, r8, lsr #3
	and	r2, r10, #15
	mov	r0, r8, asl #1
	movw	r1, #26438
	mov	r3, r3, asl #4
	and	r0, r0, #14
	add	r2, r3, r2
	movt	r1, 42
	add	r3, r3, r0
	add	r1, r2, r1
	movw	r2, #26438
	add	r8, r8, #1
	movt	r2, 42
	add	r2, r3, r2
	ldr	r1, [r6, r1, asl #2]
	cmp	r8, #16
	ldr	r3, [r6, r2, asl #2]
	add	r10, r10, #2
	and	ip, r1, #-16777216
	ubfx	r0, r1, #8, #8
	uxtb	r5, r1
	mov	r1, r1, lsr #16
	mov	r4, r3, lsr #24
	ubfx	r2, r3, #8, #8
	mov	r5, r5, asl #16
	uxtb	lr, r3
	orr	r1, r5, r1, asl #24
	mov	r3, r3, lsr #8
	orr	r2, r2, r4, asl #8
	orr	r1, r1, lr
	and	r3, r3, #65280
	orr	r2, r2, ip
	orr	r3, r1, r3
	orr	r2, r2, r0, asl #16
	str	r3, [r9]
	add	r9, r9, #8
	str	r2, [r9, #-4]
	bne	.L1508
	b	.L1509
.L1495:
	ldr	ip, [ip, #68]
	mov	r0, #0
	ldr	r1, .L1527+12
	blx	ip
	mvn	r0, #0
	b	.L1522
.L1525:
	ldr	r2, [r4, #2112]
	ldr	r3, [ip, #68]
	ldr	r1, .L1527+16
	ldrsb	r2, [r2, #6]
	blx	r3
	mvn	r0, #0
	b	.L1522
.L1528:
	.align	2
.L1527:
	.word	vfmw_Osal_Func_Ptr_S
	.word	.LC34
	.word	.LANCHOR1
	.word	.LC36
	.word	.LC35
	UNWIND(.fnend)
	.size	MVC_WritePicMsg, .-MVC_WritePicMsg
	.align	2
	.global	MVC_UpdatePicQpInf
	.type	MVC_UpdatePicQpInf, %function
MVC_UpdatePicQpInf:
	UNWIND(.fnstart)
	@ args = 0, pretend = 0, frame = 0
	@ frame_needed = 1, uses_anonymous_args = 0
	UNWIND(.movsp ip)
	mov	ip, sp
	stmfd	sp!, {fp, ip, lr, pc}
	UNWIND(.pad #4)
	UNWIND(.save {fp, ip, lr})
	UNWIND(.setfp fp, ip, #-4)
	sub	fp, ip, #4
	ldr	r2, [r1, #28]
	ldr	r3, [r1, #32]
	cmp	r2, r0
	movlt	r2, r0
	cmp	r3, r0
	str	r2, [r1, #28]
	movge	r3, r0
	str	r3, [r1, #32]
	ldmfd	sp, {fp, sp, pc}
	UNWIND(.fnend)
	.size	MVC_UpdatePicQpInf, .-MVC_UpdatePicQpInf
	.align	2
	.global	MVC_WriteSliceMsg
	.type	MVC_WriteSliceMsg, %function
MVC_WriteSliceMsg:
	UNWIND(.fnstart)
	@ args = 0, pretend = 0, frame = 24
	@ frame_needed = 1, uses_anonymous_args = 0
	UNWIND(.movsp ip)
	mov	ip, sp
	stmfd	sp!, {r4, r5, r6, r7, r8, r9, r10, fp, ip, lr, pc}
	UNWIND(.pad #4)
	UNWIND(.save {r4, r5, r6, r7, r8, r9, r10, fp, ip, lr})
	UNWIND(.setfp fp, ip, #-4)
	sub	fp, ip, #4
	UNWIND(.pad #28)
	sub	sp, sp, #28
	ldr	r3, [r0, #64]
	movw	r1, #4060
	mov	r4, r0
	mov	ip, r3
	str	r3, [fp, #-48]
	mul	r1, r1, ip
	ldr	r3, [r0, #32]
	ldr	r0, [r0, #544]
	add	r2, ip, #1
	sub	r3, r3, #1
	str	r2, [r4, #64]
	cmp	ip, r3
	add	r6, r0, r1
	addcc	r3, r1, #4048
	addcc	r3, r3, #12
	movcs	r3, #0
	addcc	r3, r0, r3
	str	r3, [r6, #4056]
	ldr	r2, [r4, #232]
	ldrb	ip, [r2]	@ zero_extendqisi2
	ldr	r3, [r2, #68]
	cmp	ip, #1
	cmpls	ip, r3
	bcs	.L1533
	add	lr, ip, #3
	add	lr, r6, lr, lsl #2
.L1534:
	mov	r3, ip, asl #5
	sub	r3, r3, ip, asl #2
	add	ip, ip, #1
	add	r2, r2, r3
	ldr	r2, [r2, #24]
	str	r2, [lr, #4]!
	ldr	r2, [r4, #232]
	add	r2, r2, r3
	ldr	r2, [r2, #20]
	str	r2, [lr, #-8]
	ldr	r2, [r4, #232]
	add	r3, r2, r3
	ldr	r3, [r3, #28]
	str	r3, [lr, #8]
	ldr	r2, [r4, #232]
	ldr	r3, [r2, #68]
	cmp	r3, ip
	movhi	r5, #1
	movls	r5, #0
	cmp	ip, #1
	movhi	r5, #0
	cmp	r5, #0
	bne	.L1534
.L1533:
	cmp	r3, #1
	bhi	.L1539
	add	r3, r3, #3
	add	ip, r6, #20
	mov	r2, #0
	add	r3, r6, r3, lsl #2
.L1538:
	str	r2, [r3, #4]!
	cmp	r3, ip
	str	r2, [r3, #-8]
	str	r2, [r3, #8]
	bne	.L1538
.L1539:
	add	r8, r4, #11141120
	ldr	r3, [fp, #-48]
	add	r8, r8, #8192
	add	r5, r4, #11075584
	cmp	r3, #0
	add	r9, r5, #36864
	ldrb	r3, [r8, #1601]	@ zero_extendqisi2
	add	r5, r5, #40960
	strb	r3, [r6, #1]
	ldr	r3, [r9, #1288]
	ldr	r2, [r5, #2136]
	add	r3, r3, #26
	add	r3, r3, r2
	str	r3, [r6, #32]
	bne	.L1635
	ldr	r2, [r8, #2112]
	str	r3, [r2, #604]
	ldr	r3, [r8, #2112]
	ldr	r2, [r6, #32]
	str	r2, [r3, #608]
.L1540:
	ldr	r3, [r5, #2132]
	str	r3, [r6, #36]
	ldr	r3, [r5, #584]
	str	r3, [r6, #40]
	ldr	r3, [r5, #580]
	str	r3, [r6, #44]
	ldrb	r3, [r5, #520]	@ zero_extendqisi2
	strb	r3, [r0, r1]
	ldr	r3, [r5, #576]
	str	r3, [r6, #48]
	ldrb	r3, [r5, #526]	@ zero_extendqisi2
	strb	r3, [r6, #2]
	ldr	r3, [r4, #236]
	ldrb	r3, [r3, #22]	@ zero_extendqisi2
	strb	r3, [r6, #3]
	ldr	r3, [r5, #568]
	str	r3, [r6, #52]
	ldr	r3, [r5, #572]
	str	r3, [r6, #56]
	ldrb	r3, [r5, #520]	@ zero_extendqisi2
	cmp	r3, #1
	ldreq	r3, [r9, #1284]
	streqb	r3, [r6, #4]
	beq	.L1542
	cmp	r3, #0
	ldreqb	r3, [r9, #1242]	@ zero_extendqisi2
	movne	r3, #0
	strb	r3, [r6, #4]
.L1542:
	ldr	r3, [r9, #1292]
	str	r3, [r6, #60]
	ldr	r3, [r9, #1296]
	str	r3, [r6, #64]
	ldr	r3, [r5, #2144]
	str	r3, [r6, #68]
	ldr	r3, [r5, #2148]
	str	r3, [r6, #72]
	ldr	r3, [r5, #2140]
	str	r3, [r6, #76]
	ldrb	r3, [r5, #520]	@ zero_extendqisi2
	cmp	r3, #2
	beq	.L1581
	ldr	r7, [r5, #568]
	cmp	r7, #0
	beq	.L1584
	ldr	r3, [r4, #256]
	ldr	r2, [r3, #4]
	ldrb	r3, [r2, #1]	@ zero_extendqisi2
	cmp	r3, #0
	addne	r1, r4, #256
	movne	r3, #0
	bne	.L1549
	b	.L1547
.L1551:
	ldr	r2, [r1, #4]!
	ldr	r2, [r2, #4]
	ldrb	r0, [r2, #1]	@ zero_extendqisi2
	cmp	r0, #0
	beq	.L1547
.L1549:
	add	r3, r3, #1
	cmp	r3, r7
	bne	.L1551
	mov	r3, #0
	str	r3, [fp, #-52]
.L1546:
	ldr	ip, [r5, #572]
	cmp	ip, #0
	beq	.L1585
	ldr	r3, [r4, #388]
	ldr	r2, [r3, #4]
	ldrb	r3, [r2, #1]	@ zero_extendqisi2
	cmp	r3, #0
	addne	r1, r4, #388
	movne	r3, #0
	bne	.L1555
	b	.L1553
.L1557:
	ldr	r2, [r1, #4]!
	ldr	r2, [r2, #4]
	ldrb	r0, [r2, #1]	@ zero_extendqisi2
	cmp	r0, #0
	beq	.L1553
.L1555:
	add	r3, r3, #1
	cmp	r3, ip
	bne	.L1557
	mov	r3, #0
	str	r3, [fp, #-56]
.L1552:
	ldrb	ip, [r8, #1595]	@ zero_extendqisi2
	ldr	r3, [r5, #568]
	cmp	ip, #0
	beq	.L1558
	cmp	r3, #0
	beq	.L1573
	mov	r3, r6
	mov	r7, #0
	str	r6, [fp, #-60]
	add	r10, r4, #256
	mov	r6, r7
	str	r8, [fp, #-64]
	mov	r7, r3
	mov	r8, r5
	ldr	r5, [fp, #-52]
	b	.L1572
.L1570:
	strb	r1, [r7, #1630]
	ldr	r1, [r10]
	ldrb	r1, [r1, #1]	@ zero_extendqisi2
	strb	r1, [r7, #1631]
	ldr	r1, [r10]
	ldr	r1, [r1, #16]
	str	r1, [r7, #1656]
.L1571:
	ldr	r1, [r8, #568]
	add	r6, r6, #1
	add	r10, r10, #4
	add	r7, r7, #36
	cmp	r1, r6
	bls	.L1636
.L1572:
	ldr	r1, [r10]
	ldr	r0, [r4, #120]
	ldr	r1, [r1, #4]
	ldrsb	r1, [r1, #6]
	bl	FSP_GetLogicFs
	ldr	r1, [r10]
	ldr	r1, [r1, #4]
	ldr	r1, [r1, #48]
	str	r1, [r7, #1636]
	ldr	r1, [r10]
	ldr	r1, [r1, #4]
	ldrb	r1, [r1, #2]	@ zero_extendqisi2
	strb	r1, [r7, #1625]
	ldr	r1, [r10]
	ldr	r1, [r1, #4]
	ldrb	r1, [r1, #1]	@ zero_extendqisi2
	cmp	r1, #1
	moveq	r0, r5
	beq	.L1569
	cmp	r0, #0
	ldrne	r1, [r0, #520]
	ldrne	r0, [r1, #4]
.L1569:
	str	r0, [r7, #1640]
	ldr	r1, [r10]
	ldr	r1, [r1, #4]
	ldr	r1, [r1, #52]
	str	r1, [r7, #1644]
	ldr	r1, [r10]
	ldr	r1, [r1, #4]
	ldr	r1, [r1, #32]
	str	r1, [r7, #1632]
	ldr	r1, [r10]
	ldrb	r1, [r1]	@ zero_extendqisi2
	strb	r1, [r7, #1624]
	ldr	r1, [r10]
	ldr	r1, [r1, #4]
	ldrb	r1, [r1, #576]	@ zero_extendqisi2
	strb	r1, [r7, #1626]
	ldr	r1, [r10]
	ldrb	r1, [r1]	@ zero_extendqisi2
	cmp	r1, #1
	bne	.L1570
	strb	r1, [r7, #1628]
	ldr	r1, [r10]
	ldrb	r1, [r1, #1]	@ zero_extendqisi2
	strb	r1, [r7, #1629]
	ldr	r1, [r10]
	ldr	r1, [r1, #16]
	str	r1, [r7, #1652]
	b	.L1571
.L1636:
	mov	r5, r8
	ldr	r6, [fp, #-60]
	ldr	r8, [fp, #-64]
.L1573:
	ldrb	r3, [r5, #520]	@ zero_extendqisi2
	cmp	r3, #1
	beq	.L1637
.L1561:
	movw	r2, #47664
	add	r3, r6, #3920
	add	r0, r6, #4048
	movt	r2, 169
	add	r3, r3, #4
	add	r2, r4, r2
	add	r0, r0, #4
.L1578:
	ldr	r1, [r2, #4]!
	str	r1, [r3, #4]!
	cmp	r3, r0
	bne	.L1578
	ldrb	r3, [r9, #1242]	@ zero_extendqisi2
	cmp	r3, #0
	str	r3, [r8, #3668]
	ldr	r3, [r9, #1284]
	str	r3, [r8, #3672]
	beq	.L1579
	ldrb	r2, [r5, #520]	@ zero_extendqisi2
	cmp	r2, #0
	beq	.L1580
.L1579:
	cmp	r3, #1
	beq	.L1638
.L1581:
	ldr	r2, [fp, #-48]
	movw	r3, #35524
	movt	r3, 42
	ldr	r1, [r4, #232]
	add	r3, r2, r3
	mov	r2, #0
	add	r3, r4, r3, lsl #2
	str	r1, [r3, #4]
	str	r2, [r4, #232]
	sub	sp, fp, #40
	ldmfd	sp, {r4, r5, r6, r7, r8, r9, r10, fp, sp, pc}
.L1635:
	ldr	r2, [r8, #2112]
	ldr	lr, [r2, #604]
	ldr	ip, [r2, #608]
	cmp	lr, r3
	movlt	lr, r3
	cmp	ip, r3
	str	lr, [r2, #604]
	movge	ip, r3
	str	ip, [r2, #608]
	b	.L1540
.L1547:
	ldrsb	r1, [r2, #6]
	ldr	r0, [r4, #120]
	bl	FSP_GetLogicFs
	subs	r3, r0, #0
	ldreq	ip, .L1640
	movweq	r3, #8019
	beq	.L1631
	ldr	r3, [r3, #520]
	ldr	r3, [r3, #4]
	str	r3, [fp, #-52]
	b	.L1546
.L1638:
	ldrb	r3, [r5, #520]	@ zero_extendqisi2
	cmp	r3, #1
	bne	.L1581
.L1580:
	ldr	r3, [r5, #588]
	movw	r8, #41552
	movw	r7, #41680
	movw	lr, #41808
	movw	ip, #42320
	movw	r0, #42448
	str	r3, [r6, #80]
	movw	r1, #42576
	ldr	r10, [r5, #592]
	movt	r8, 169
	movt	r7, 169
	movt	lr, 169
	movt	ip, 169
	movt	r0, 169
	movt	r1, 169
	add	r8, r4, r8
	add	r7, r4, r7
	add	lr, r4, lr
	add	ip, r4, ip
	add	r0, r4, r0
	add	r1, r4, r1
	mov	r9, r6
	mov	r3, r6
	mov	r2, #0
	str	r6, [fp, #-52]
	str	r10, [r9, #84]!
.L1582:
	ldr	r10, [r8, #4]!
	add	r2, r2, #1
	add	r3, r3, #4
	str	r10, [r9, #4]!
	ldr	r10, [r7, #4]!
	str	r10, [r3, #212]
	ldr	r10, [lr, #4]!
	str	r10, [r3, #340]
	ldr	r10, [ip, #4]!
	str	r10, [r3, #852]
	ldr	r10, [r0, #4]!
	str	r10, [r3, #980]
	ldr	r10, [r1, #4]!
	str	r10, [r3, #1108]
	ldr	r10, [r5, #580]
	cmp	r10, r2
	bcs	.L1582
	ldrb	r3, [r5, #520]	@ zero_extendqisi2
	cmp	r3, #1
	bne	.L1581
	movw	r7, #41936
	movw	lr, #42064
	movw	ip, #42192
	movw	r0, #42704
	movw	r1, #42832
	movw	r2, #42960
	ldr	r8, [fp, #-52]
	movt	r7, 169
	movt	lr, 169
	movt	ip, 169
	movt	r0, 169
	movt	r1, 169
	movt	r2, 169
	add	r6, r6, #468
	add	r7, r4, r7
	add	lr, r4, lr
	add	ip, r4, ip
	add	r0, r4, r0
	add	r1, r4, r1
	add	r2, r4, r2
	mov	r3, #0
.L1583:
	ldr	r9, [r7, #4]!
	add	r3, r3, #1
	add	r8, r8, #4
	str	r9, [r6, #4]!
	ldr	r9, [lr, #4]!
	str	r9, [r8, #596]
	ldr	r9, [ip, #4]!
	str	r9, [r8, #724]
	ldr	r9, [r0, #4]!
	str	r9, [r8, #1236]
	ldr	r9, [r1, #4]!
	str	r9, [r8, #1364]
	ldr	r9, [r2, #4]!
	str	r9, [r8, #1492]
	ldr	r9, [r5, #584]
	cmp	r9, r3
	bcs	.L1583
	b	.L1581
.L1558:
	cmp	r3, #0
	beq	.L1566
	add	r2, r4, #256
	str	r8, [fp, #-64]
	mov	r8, r5
	ldr	r5, [fp, #-52]
	mov	r7, r6
	str	r6, [fp, #-60]
	mov	r10, r2
	mov	r6, ip
.L1565:
	ldr	r1, [r10]
	ldr	r0, [r4, #120]
	ldr	r1, [r1, #4]
	ldrsb	r1, [r1, #6]
	bl	FSP_GetLogicFs
	ldr	r1, [r10]
	ldr	r1, [r1, #4]
	ldr	r1, [r1, #48]
	str	r1, [r7, #1636]
	ldr	r1, [r10]
	ldr	r1, [r1, #4]
	ldrb	r1, [r1, #2]	@ zero_extendqisi2
	strb	r1, [r7, #1625]
	ldr	r1, [r10]
	ldr	r1, [r1, #4]
	ldrb	r1, [r1, #1]	@ zero_extendqisi2
	cmp	r1, #1
	moveq	r0, r5
	beq	.L1564
	cmp	r0, #0
	ldrne	r1, [r0, #520]
	ldrne	r0, [r1, #4]
.L1564:
	str	r0, [r7, #1640]
	mov	r3, #0
	ldr	r1, [r10]
	add	r6, r6, #1
	add	r7, r7, #36
	ldr	r1, [r1, #4]
	ldr	r1, [r1, #52]
	str	r1, [r7, #1608]
	ldr	r1, [r10]
	ldr	r1, [r1, #4]
	ldr	r1, [r1, #32]
	str	r1, [r7, #1596]
	ldr	r1, [r10]
	ldrb	r1, [r1, #1]	@ zero_extendqisi2
	strb	r1, [r7, #1591]
	ldr	r1, [r10]
	ldrb	r1, [r1]	@ zero_extendqisi2
	strb	r1, [r7, #1590]
	ldr	r1, [r10]
	ldr	r1, [r1, #4]
	ldr	r1, [r1, #592]
	str	r1, [r7, #1612]
	ldr	r1, [r10]
	ldr	r1, [r1, #4]
	ldr	r1, [r1, #628]
	str	r1, [r7, #1616]
	ldr	r1, [r10], #4
	ldr	r1, [r1, #4]
	ldr	r1, [r1, #664]
	strb	r3, [r7, #1588]
	str	r1, [r7, #1620]
	ldr	r1, [r8, #568]
	cmp	r1, r6
	bhi	.L1565
	mov	r5, r8
	ldr	r6, [fp, #-60]
	ldr	r8, [fp, #-64]
.L1566:
	ldrb	r3, [r5, #520]	@ zero_extendqisi2
	cmp	r3, #1
	bne	.L1561
	ldr	r3, [r5, #572]
	cmp	r3, #0
	beq	.L1561
	add	r3, r4, #388
	str	r8, [fp, #-60]
	mov	r8, r5
	ldr	r5, [fp, #-56]
	mov	r7, #0
	mov	r10, r6
	str	r6, [fp, #-52]
	mov	r6, r7
	mov	r7, r3
.L1568:
	ldr	r1, [r7]
	ldr	r0, [r4, #120]
	ldr	r1, [r1, #4]
	ldrsb	r1, [r1, #6]
	bl	FSP_GetLogicFs
	ldr	r1, [r7]
	ldr	r1, [r1, #4]
	ldr	r1, [r1, #48]
	str	r1, [r10, #2788]
	ldr	r1, [r7]
	ldr	r1, [r1, #4]
	ldrb	r1, [r1, #2]	@ zero_extendqisi2
	strb	r1, [r10, #2777]
	ldr	r1, [r7]
	ldr	r1, [r1, #4]
	ldrb	r1, [r1, #1]	@ zero_extendqisi2
	cmp	r1, #1
	moveq	r0, r5
	beq	.L1567
	cmp	r0, #0
	ldrne	r1, [r0, #520]
	ldrne	r0, [r1, #4]
.L1567:
	str	r0, [r10, #1640]
	mov	r3, #0
	ldr	r1, [r7]
	add	r6, r6, #1
	add	r10, r10, #36
	ldr	r1, [r1, #4]
	ldr	r1, [r1, #52]
	str	r1, [r10, #2760]
	ldr	r1, [r7]
	ldr	r1, [r1, #4]
	ldr	r1, [r1, #32]
	str	r1, [r10, #2748]
	ldr	r1, [r7]
	ldrb	r1, [r1, #1]	@ zero_extendqisi2
	strb	r1, [r10, #2743]
	ldr	r1, [r7]
	ldrb	r1, [r1]	@ zero_extendqisi2
	strb	r1, [r10, #2742]
	ldr	r1, [r7]
	ldr	r1, [r1, #4]
	ldr	r1, [r1, #592]
	str	r1, [r10, #2764]
	ldr	r1, [r7]
	ldr	r1, [r1, #4]
	ldr	r1, [r1, #628]
	str	r1, [r10, #2768]
	ldr	r1, [r7], #4
	ldr	r1, [r1, #4]
	ldr	r1, [r1, #664]
	strb	r3, [r10, #2740]
	str	r1, [r10, #2772]
	ldr	r1, [r8, #572]
	cmp	r1, r6
	bhi	.L1568
.L1630:
	mov	r5, r8
	ldr	r6, [fp, #-52]
	ldr	r8, [fp, #-60]
	b	.L1561
.L1553:
	ldrsb	r1, [r2, #6]
	ldr	r0, [r4, #120]
	bl	FSP_GetLogicFs
	subs	r3, r0, #0
	beq	.L1639
	ldr	r3, [r3, #520]
	ldr	r3, [r3, #4]
	str	r3, [fp, #-56]
	b	.L1552
.L1637:
	ldr	r3, [r5, #572]
	cmp	r3, #0
	beq	.L1561
	mov	r3, #0
	mov	r10, r6
	str	r6, [fp, #-52]
	add	r7, r4, #388
	str	r8, [fp, #-60]
	mov	r6, r3
	mov	r8, r5
	ldr	r5, [fp, #-56]
	b	.L1577
.L1575:
	strb	r1, [r10, #2782]
	ldr	r1, [r7]
	ldrb	r1, [r1, #1]	@ zero_extendqisi2
	strb	r1, [r10, #2783]
	ldr	r1, [r7]
	ldr	r1, [r1, #16]
	str	r1, [r10, #2808]
.L1576:
	ldr	r1, [r8, #572]
	add	r6, r6, #1
	add	r7, r7, #4
	add	r10, r10, #36
	cmp	r1, r6
	bls	.L1630
.L1577:
	ldr	r1, [r7]
	ldr	r0, [r4, #120]
	ldr	r1, [r1, #4]
	ldrsb	r1, [r1, #6]
	bl	FSP_GetLogicFs
	ldr	r1, [r7]
	ldr	r1, [r1, #4]
	ldr	r1, [r1, #48]
	str	r1, [r10, #2788]
	ldr	r1, [r7]
	ldr	r1, [r1, #4]
	ldrb	r1, [r1, #2]	@ zero_extendqisi2
	strb	r1, [r10, #2777]
	ldr	r1, [r7]
	ldr	r1, [r1, #4]
	ldrb	r1, [r1, #1]	@ zero_extendqisi2
	cmp	r1, #1
	moveq	r0, r5
	beq	.L1574
	cmp	r0, #0
	ldrne	r1, [r0, #520]
	ldrne	r0, [r1, #4]
.L1574:
	str	r0, [r10, #2792]
	ldr	r1, [r7]
	ldr	r1, [r1, #4]
	ldr	r1, [r1, #52]
	str	r1, [r10, #2796]
	ldr	r1, [r7]
	ldr	r1, [r1, #4]
	ldr	r1, [r1, #32]
	str	r1, [r10, #2784]
	ldr	r1, [r7]
	ldrb	r1, [r1]	@ zero_extendqisi2
	strb	r1, [r10, #2776]
	ldr	r1, [r7]
	ldr	r1, [r1, #4]
	ldrb	r1, [r1, #576]	@ zero_extendqisi2
	strb	r1, [r10, #2778]
	ldr	r1, [r7]
	ldrb	r1, [r1]	@ zero_extendqisi2
	cmp	r1, #1
	bne	.L1575
	strb	r1, [r10, #2780]
	ldr	r1, [r7]
	ldrb	r1, [r1, #1]	@ zero_extendqisi2
	strb	r1, [r10, #2781]
	ldr	r1, [r7]
	ldr	r1, [r1, #16]
	str	r1, [r10, #2804]
	b	.L1576
.L1639:
	ldr	ip, .L1640
	movw	r3, #8040
.L1631:
	ldr	r2, .L1640+4
	ldr	r1, .L1640+8
	ldr	ip, [ip, #68]
	sub	sp, fp, #40
	ldmfd	sp, {r4, r5, r6, r7, r8, r9, r10, fp, sp, lr}
	bx	ip
.L1584:
	str	r7, [fp, #-52]
	b	.L1546
.L1585:
	str	ip, [fp, #-56]
	b	.L1552
.L1641:
	.align	2
.L1640:
	.word	vfmw_Osal_Func_Ptr_S
	.word	.LANCHOR0+80
	.word	.LC37
	UNWIND(.fnend)
	.size	MVC_WriteSliceMsg, .-MVC_WriteSliceMsg
	.align	2
	.global	MVC_StopPicNum
	.type	MVC_StopPicNum, %function
MVC_StopPicNum:
	UNWIND(.fnstart)
	@ args = 0, pretend = 0, frame = 0
	@ frame_needed = 1, uses_anonymous_args = 0
	UNWIND(.movsp ip)
	mov	ip, sp
	stmfd	sp!, {fp, ip, lr, pc}
	UNWIND(.pad #4)
	UNWIND(.save {fp, ip, lr})
	UNWIND(.setfp fp, ip, #-4)
	sub	fp, ip, #4
	ldmfd	sp, {fp, sp, pc}
	UNWIND(.fnend)
	.size	MVC_StopPicNum, .-MVC_StopPicNum
	.align	2
	.global	MVC_GetPicStreamSize
	.type	MVC_GetPicStreamSize, %function
MVC_GetPicStreamSize:
	UNWIND(.fnstart)
	@ args = 0, pretend = 0, frame = 0
	@ frame_needed = 1, uses_anonymous_args = 0
	UNWIND(.movsp ip)
	mov	ip, sp
	stmfd	sp!, {fp, ip, lr, pc}
	UNWIND(.pad #4)
	UNWIND(.save {fp, ip, lr})
	UNWIND(.setfp fp, ip, #-4)
	sub	fp, ip, #4
	add	r0, r0, #11141120
	add	r0, r0, #12288
	ldr	r2, [r0, #156]
	cmp	r2, #0
	beq	.L1646
	mov	r0, #0
.L1645:
	ldr	r3, [r2, #8]
	ldr	r1, [r2, #12]
	ldr	r2, [r2, #4056]
	add	r3, r3, r1
	add	r3, r3, #7
	cmp	r2, #0
	add	r0, r0, r3, lsr #3
	bne	.L1645
	ldmfd	sp, {fp, sp, pc}
.L1646:
	mov	r0, r2
	ldmfd	sp, {fp, sp, pc}
	UNWIND(.fnend)
	.size	MVC_GetPicStreamSize, .-MVC_GetPicStreamSize
	.align	2
	.global	MVC_SliceCheck
	.type	MVC_SliceCheck, %function
MVC_SliceCheck:
	UNWIND(.fnstart)
	@ args = 0, pretend = 0, frame = 0
	@ frame_needed = 1, uses_anonymous_args = 0
	UNWIND(.movsp ip)
	mov	ip, sp
	stmfd	sp!, {r4, r5, r6, r7, fp, ip, lr, pc}
	UNWIND(.pad #4)
	UNWIND(.save {r4, r5, r6, r7, fp, ip, lr})
	UNWIND(.setfp fp, ip, #-4)
	sub	fp, ip, #4
	ldr	r1, .L1659
	mov	r4, r0
	add	r5, r0, #11075584
	bl	mvc_ue_v
	add	r5, r5, #40960
	str	r0, [r5, #576]
	ldrb	r3, [r4, #10]	@ zero_extendqisi2
	cmp	r3, #0
	bne	.L1657
	cmp	r0, #262144
	bcs	.L1658
	ldr	r2, [r4, #12]
	ldr	r3, [r4, #16]
	mul	r3, r3, r2
	sub	r3, r3, #1
	cmp	r0, r3
	bhi	.L1657
	ldr	r1, .L1659+4
	mov	r0, r4
	bl	mvc_ue_v
	ldr	r7, .L1659+8
	ldr	r1, .L1659+12
	ldr	r3, [r7, #68]
	mov	r2, r0
	mov	r6, r0
	mov	r0, #19
	blx	r3
	ldrb	r3, [r4, #10]	@ zero_extendqisi2
	cmp	r3, #0
	bne	.L1657
	cmp	r6, #9
	bhi	.L1653
	mov	r1, #1
	movw	r0, #297
	mov	r2, r1, asl r6
	and	r0, r0, r2
	cmp	r0, #0
	bne	.L1654
	ands	r3, r2, #660
	bne	.L1655
	tst	r2, #66
	beq	.L1653
	strb	r1, [r5, #520]
	mov	r0, r3
	ldmfd	sp, {r4, r5, r6, r7, fp, sp, pc}
.L1654:
	strb	r3, [r5, #520]
	mov	r0, r3
	ldmfd	sp, {r4, r5, r6, r7, fp, sp, pc}
.L1653:
	ldr	r3, [r7, #68]
	mov	r2, r6
	ldr	r1, .L1659+16
	mov	r0, #1
	blx	r3
.L1657:
	mvn	r0, #0
	ldmfd	sp, {r4, r5, r6, r7, fp, sp, pc}
.L1655:
	mov	r3, #2
	strb	r3, [r5, #520]
	ldmfd	sp, {r4, r5, r6, r7, fp, sp, pc}
.L1658:
	ldr	r3, .L1659+8
	mov	r0, #1
	ldr	r1, .L1659+20
	ldr	r3, [r3, #68]
	blx	r3
	mvn	r0, #0
	ldmfd	sp, {r4, r5, r6, r7, fp, sp, pc}
.L1660:
	.align	2
.L1659:
	.word	.LC38
	.word	.LC40
	.word	vfmw_Osal_Func_Ptr_S
	.word	.LC41
	.word	.LC42
	.word	.LC39
	UNWIND(.fnend)
	.size	MVC_SliceCheck, .-MVC_SliceCheck
	.align	2
	.global	MVC_PPSSPSCheck
	.type	MVC_PPSSPSCheck, %function
MVC_PPSSPSCheck:
	UNWIND(.fnstart)
	@ args = 0, pretend = 0, frame = 0
	@ frame_needed = 1, uses_anonymous_args = 0
	UNWIND(.movsp ip)
	mov	ip, sp
	stmfd	sp!, {r4, r5, r6, r7, fp, ip, lr, pc}
	UNWIND(.pad #4)
	UNWIND(.save {r4, r5, r6, r7, fp, ip, lr})
	UNWIND(.setfp fp, ip, #-4)
	sub	fp, ip, #4
	ldr	r6, .L1673
	add	r4, r0, #11075584
	add	r4, r4, #40960
	mov	r5, r0
	ldr	r1, .L1673+4
	mov	r0, #19
	ldr	r3, [r6, #68]
	ldr	r2, [r4, #536]
	blx	r3
	ldr	r3, [r5, #252]
	ldr	r2, [r4, #536]
	mov	r1, #2240
	mla	r1, r1, r2, r3
	ldrb	r3, [r1, #19]	@ zero_extendqisi2
	cmp	r3, #0
	beq	.L1671
	ldrb	r3, [r4, #532]	@ zero_extendqisi2
	sxtb	r4, r3
	cmn	r4, #1
	beq	.L1672
	cmp	r3, #0
	bne	.L1666
	ldr	r2, [r1, #28]
	movw	r3, #8500
	movt	r3, 5
	mul	r3, r3, r2
	add	r0, r5, r3
	add	ip, r0, #12992
	add	r3, r0, #286720
	add	ip, ip, #8
	add	r3, r3, #932
	ldrb	ip, [ip, #4]	@ zero_extendqisi2
	cmp	ip, #0
	beq	.L1667
	add	r0, r0, #286720
	ldrb	r0, [r0, #957]	@ zero_extendqisi2
	cmp	r0, #0
	beq	.L1667
.L1665:
	mov	r0, #0
	str	r1, [r5, #244]
	str	r3, [r5, #240]
	ldmfd	sp, {r4, r5, r6, r7, fp, sp, pc}
.L1672:
	ldr	r2, [r1, #28]
	movw	r0, #3992
	ldr	r3, [r5, #248]
	mla	r3, r0, r2, r3
	ldrb	r0, [r3, #25]	@ zero_extendqisi2
	cmp	r0, #0
	bne	.L1665
	ldr	r3, [r6, #68]
	mov	r0, #1
	ldr	r1, .L1673+8
	blx	r3
	mov	r0, r4
	ldmfd	sp, {r4, r5, r6, r7, fp, sp, pc}
.L1667:
	ldr	r3, [r6, #68]
	mov	r0, #1
	ldr	r1, .L1673+12
	blx	r3
	mvn	r0, #0
	ldmfd	sp, {r4, r5, r6, r7, fp, sp, pc}
.L1671:
	ldr	r3, [r6, #68]
	mov	r0, #1
	ldr	r1, .L1673+16
	blx	r3
	mvn	r0, #0
	ldmfd	sp, {r4, r5, r6, r7, fp, sp, pc}
.L1666:
	ldr	r3, [r6, #68]
	mov	r2, r4
	ldr	r1, .L1673+20
	mov	r0, #1
	blx	r3
	mvn	r0, #0
	ldmfd	sp, {r4, r5, r6, r7, fp, sp, pc}
.L1674:
	.align	2
.L1673:
	.word	vfmw_Osal_Func_Ptr_S
	.word	.LC43
	.word	.LC45
	.word	.LC46
	.word	.LC44
	.word	.LC31
	UNWIND(.fnend)
	.size	MVC_PPSSPSCheck, .-MVC_PPSSPSCheck
	.align	2
	.global	MVC_PPSSPSCheckTmpId
	.type	MVC_PPSSPSCheckTmpId, %function
MVC_PPSSPSCheckTmpId:
	UNWIND(.fnstart)
	@ args = 0, pretend = 0, frame = 0
	@ frame_needed = 1, uses_anonymous_args = 0
	UNWIND(.movsp ip)
	mov	ip, sp
	stmfd	sp!, {r4, r5, r6, r7, fp, ip, lr, pc}
	UNWIND(.pad #4)
	UNWIND(.save {r4, r5, r6, r7, fp, ip, lr})
	UNWIND(.setfp fp, ip, #-4)
	sub	fp, ip, #4
	ldr	r6, .L1684
	mov	r2, r1
	mov	r5, r1
	mov	r4, r0
	ldr	r1, .L1684+4
	mov	r0, #19
	ldr	r3, [r6, #68]
	blx	r3
	ldr	r2, [r4, #252]
	mov	r3, #2240
	mla	r3, r3, r5, r2
	ldrb	r2, [r3, #19]	@ zero_extendqisi2
	cmp	r2, #0
	beq	.L1681
	ldr	r1, [r4, #36]
	ldr	r2, [r3, #28]
	sub	r3, r1, #1
	cmp	r2, r3
	bhi	.L1682
	movw	r3, #41492
	movt	r3, 169
	add	r3, r4, r3
	ldrsb	r5, [r3]
	cmn	r5, #1
	beq	.L1683
.L1680:
	mov	r0, #0
	ldmfd	sp, {r4, r5, r6, r7, fp, sp, pc}
.L1683:
	ldr	r1, [r4, #248]
	movw	r3, #3992
	mla	r3, r3, r2, r1
	ldrb	r3, [r3, #25]	@ zero_extendqisi2
	cmp	r3, #0
	bne	.L1680
	ldr	r3, [r6, #68]
	mov	r0, #1
	ldr	r1, .L1684+8
	blx	r3
	mov	r0, r5
	ldmfd	sp, {r4, r5, r6, r7, fp, sp, pc}
.L1681:
	ldr	r3, [r6, #68]
	mov	r2, r5
	ldr	r1, .L1684+12
	mov	r0, #1
	blx	r3
	mvn	r0, #0
	ldmfd	sp, {r4, r5, r6, r7, fp, sp, pc}
.L1682:
	ldr	r3, [r6, #68]
	mov	r0, #1
	ldr	r1, .L1684+16
	blx	r3
	mvn	r0, #0
	ldmfd	sp, {r4, r5, r6, r7, fp, sp, pc}
.L1685:
	.align	2
.L1684:
	.word	vfmw_Osal_Func_Ptr_S
	.word	.LC47
	.word	.LC50
	.word	.LC48
	.word	.LC49
	UNWIND(.fnend)
	.size	MVC_PPSSPSCheckTmpId, .-MVC_PPSSPSCheckTmpId
	.align	2
	.global	MVC_IsNewPic
	.type	MVC_IsNewPic, %function
MVC_IsNewPic:
	UNWIND(.fnstart)
	@ args = 0, pretend = 0, frame = 0
	@ frame_needed = 1, uses_anonymous_args = 0
	UNWIND(.movsp ip)
	mov	ip, sp
	stmfd	sp!, {r4, r5, r6, r7, fp, ip, lr, pc}
	UNWIND(.pad #4)
	UNWIND(.save {r4, r5, r6, r7, fp, ip, lr})
	UNWIND(.setfp fp, ip, #-4)
	sub	fp, ip, #4
	add	ip, r0, #11075584
	ldr	lr, [r0, #236]
	add	r3, ip, #40960
	ldr	r1, [lr, #744]
	ldr	r0, [r3, #2184]
	ldr	r2, [r3, #2188]
	ldr	r4, [r3, #536]
	ldr	r6, [r3, #2192]
	cmp	r2, r4
	cmpeq	r0, r1
	ldr	r5, [r3, #548]
	ldrb	r4, [r3, #2176]	@ zero_extendqisi2
	ldrb	r0, [r3, #521]	@ zero_extendqisi2
	movne	r1, #1
	moveq	r1, #0
	cmp	r6, r5
	moveq	r2, r1
	orrne	r2, r1, #1
	cmp	r4, r0
	orrne	r2, r2, #1
	cmp	r4, #0
	cmpne	r0, #0
	beq	.L1688
	ldrb	r0, [r3, #2177]	@ zero_extendqisi2
	ldrb	r1, [r3, #522]	@ zero_extendqisi2
	cmp	r0, r1
	orrne	r2, r2, #1
.L1688:
	ldrb	r1, [r3, #2179]	@ zero_extendqisi2
	ldrb	r0, [r3, #528]	@ zero_extendqisi2
	cmp	r1, r0
	moveq	r1, #0
	beq	.L1689
	cmp	r0, #0
	cmpne	r1, #0
	moveq	r1, #1
	movne	r1, #0
.L1689:
	ldrb	r0, [r3, #2178]	@ zero_extendqisi2
	ldrb	r4, [r3, #523]	@ zero_extendqisi2
	cmp	r0, r4
	orrne	r2, r2, #1
	cmp	r4, #5
	cmpeq	r0, #5
	orr	r2, r2, r1
	beq	.L1701
.L1690:
	ldr	r1, [lr, #2900]
	cmp	r1, #0
	bne	.L1691
	add	r1, ip, #36864
	ldr	r0, [r3, #2204]
	ldr	r4, [r3, #2200]
	ldr	r5, [r1, #3488]
	ldr	lr, [r1, #3484]
	cmp	r4, lr
	cmpeq	r0, r5
	movne	r1, #1
	moveq	r1, #0
	orr	r2, r2, r1
.L1692:
	ldrb	r1, [r3, #531]	@ zero_extendqisi2
	cmp	r1, #0
	beq	.L1693
	ldr	r1, [r3, #2220]
	ldrb	r0, [r3, #2180]	@ zero_extendqisi2
	ldrb	r6, [r3, #529]	@ zero_extendqisi2
	ldr	r5, [r3, #2160]
	ldrb	r4, [r3, #2181]	@ zero_extendqisi2
	cmp	r1, r5
	cmpeq	r0, r6
	ldrb	lr, [r3, #530]	@ zero_extendqisi2
	movne	r1, #1
	moveq	r1, #0
	cmp	r4, lr
	moveq	r3, r1
	orrne	r3, r1, #1
	orr	r2, r2, r3
.L1693:
	add	r3, ip, #40960
	ldr	ip, .L1702
	ldr	r1, .L1702+4
	mov	r0, #19
	ldr	r4, [r3, #576]
	ldr	r3, [ip, #68]
	cmp	r4, #0
	movne	r4, r2
	orreq	r4, r2, #1
	mov	r2, r4
	blx	r3
	mov	r0, r4
	ldmfd	sp, {r4, r5, r6, r7, fp, sp, pc}
.L1691:
	cmp	r1, #1
	bne	.L1692
	add	r1, ip, #36864
	ldr	r0, [r3, #2212]
	ldr	r4, [r3, #2208]
	ldr	r5, [r1, #3524]
	ldr	lr, [r1, #3520]
	cmp	r4, lr
	cmpeq	r0, r5
	movne	r1, #1
	moveq	r1, #0
	orr	r2, r2, r1
	b	.L1692
.L1701:
	ldr	r0, [r3, #2196]
	ldr	r1, [r3, #564]
	cmp	r0, r1
	orrne	r2, r2, #1
	b	.L1690
.L1703:
	.align	2
.L1702:
	.word	vfmw_Osal_Func_Ptr_S
	.word	.LC51
	UNWIND(.fnend)
	.size	MVC_IsNewPic, .-MVC_IsNewPic
	.align	2
	.global	mvc_ref_pic_list_reordering
	.type	mvc_ref_pic_list_reordering, %function
mvc_ref_pic_list_reordering:
	UNWIND(.fnstart)
	@ args = 0, pretend = 0, frame = 0
	@ frame_needed = 1, uses_anonymous_args = 0
	UNWIND(.movsp ip)
	mov	ip, sp
	stmfd	sp!, {r3, r4, r5, r6, r7, r8, r9, r10, fp, ip, lr, pc}
	UNWIND(.pad #4)
	UNWIND(.save {r3, r4, r5, r6, r7, r8, r9, r10, fp, ip, lr})
	UNWIND(.setfp fp, ip, #-4)
	sub	fp, ip, #4
	add	r5, r0, #11075584
	ldr	r2, [r0, #240]
	add	r8, r5, #40960
	add	r5, r5, #36864
	mov	r3, #0
	mov	r6, #1
	ldrb	r1, [r8, #531]	@ zero_extendqisi2
	mov	r4, r0
	strb	r3, [r5, #3564]
	cmp	r1, r3
	strb	r3, [r5, #3565]
	ldrb	r3, [r8, #521]	@ zero_extendqisi2
	movne	r7, #5
	moveq	r7, #3
	cmp	r3, #0
	ldr	r3, [r2, #2896]
	addne	r3, r3, #5
	addeq	r3, r3, #4
	mov	r6, r6, asl r3
	ldrb	r3, [r8, #520]	@ zero_extendqisi2
	cmp	r3, #1
	bls	.L1759
.L1758:
	ldrb	r3, [r4, #10]	@ zero_extendqisi2
.L1725:
	adds	r3, r3, #0
	movne	r3, #1
	rsb	r0, r3, #0
	ldmfd	sp, {r3, r4, r5, r6, r7, r8, r9, r10, fp, sp, pc}
.L1759:
	ldr	r1, .L1766
	bl	mvc_u_1
	uxtb	r0, r0
	strb	r0, [r5, #3564]
	cmp	r0, #0
	beq	.L1715
	ldr	r3, [r8, #580]
	cmn	r3, #2
	beq	.L1741
	movw	r10, #40428
	mov	r9, #0
	movt	r10, 169
	add	r10, r4, r10
	b	.L1722
.L1716:
	cmp	r0, #2
	beq	.L1760
	sub	r0, r0, #4
	cmp	r0, #1
	bls	.L1761
.L1719:
	ldr	r3, [r8, #580]
	add	r9, r9, #1
	add	r3, r3, #2
	cmp	r3, r9
	bls	.L1762
.L1722:
	ldr	r1, .L1766+4
	mov	r0, r4
	bl	mvc_ue_v
	cmp	r7, r0
	str	r0, [r10, #4]!
	ldrb	r3, [r4, #10]	@ zero_extendqisi2
	bcc	.L1712
	cmp	r3, #0
	bne	.L1712
	cmp	r0, #3
	beq	.L1715
	cmp	r0, #1
	bhi	.L1716
	ldr	r1, .L1766+8
	mov	r0, r4
	bl	mvc_ue_v
	cmp	r6, r0
	str	r0, [r10, #264]
	ldrb	r3, [r4, #10]	@ zero_extendqisi2
	bls	.L1718
	cmp	r3, #0
	beq	.L1719
.L1718:
	ldr	ip, .L1766+12
	mov	r2, r0
	ldr	r1, .L1766+16
	mov	r0, #1
	ldr	ip, [ip, #68]
	blx	ip
	mvn	r0, #0
	ldmfd	sp, {r3, r4, r5, r6, r7, r8, r9, r10, fp, sp, pc}
.L1715:
	ldrb	r3, [r8, #520]	@ zero_extendqisi2
	cmp	r3, #1
	bne	.L1758
	ldr	r1, .L1766+20
	mov	r0, r4
	bl	mvc_u_1
	uxtb	r0, r0
	strb	r0, [r5, #3565]
	cmp	r0, #0
	beq	.L1758
	ldr	r3, [r8, #584]
	cmn	r3, #2
	beq	.L1758
	movw	r9, #40560
	mov	r5, #0
	movt	r9, 169
	add	r9, r4, r9
	b	.L1738
.L1737:
	add	r5, r5, #1
	cmp	r5, r3
	bcs	.L1758
.L1738:
	ldr	r1, .L1766+24
	mov	r0, r4
	bl	mvc_ue_v
	cmp	r7, r0
	str	r0, [r9, #4]!
	ldrb	r3, [r4, #10]	@ zero_extendqisi2
	bcc	.L1729
	cmp	r3, #0
	bne	.L1729
	cmp	r0, #3
	beq	.L1725
	cmp	r0, #1
	bls	.L1763
	cmp	r0, #2
	beq	.L1764
	sub	r0, r0, #4
	cmp	r0, #1
	bls	.L1765
	ldr	r3, [r8, #584]
	add	r3, r3, #2
	cmp	r3, r5
	bne	.L1737
.L1739:
	ldr	r3, .L1766+12
	mov	r0, #1
	ldr	r1, .L1766+28
	ldr	r3, [r3, #68]
	blx	r3
	mvn	r0, #0
	ldmfd	sp, {r3, r4, r5, r6, r7, r8, r9, r10, fp, sp, pc}
.L1763:
	ldr	r1, .L1766+32
	mov	r0, r4
	bl	mvc_ue_v
	cmp	r6, r0
	str	r0, [r9, #264]
	ldrb	r3, [r4, #10]	@ zero_extendqisi2
	bls	.L1733
	cmp	r3, #0
	bne	.L1733
.L1734:
	ldr	r2, [r8, #584]
	add	r3, r2, #2
	cmp	r3, r5
	bne	.L1737
	movw	r1, #26526
	movt	r1, 42
	add	r1, r2, r1
	add	r1, r4, r1, lsl #2
	ldr	r2, [r1, #4]
	cmp	r2, #3
	beq	.L1737
	b	.L1739
.L1760:
	ldr	r1, .L1766+36
	mov	r0, r4
	bl	mvc_ue_v
	str	r0, [r10, #528]
	b	.L1719
.L1764:
	ldr	r1, .L1766+40
	mov	r0, r4
	bl	mvc_ue_v
	str	r0, [r9, #524]
	b	.L1734
.L1761:
	ldr	r1, .L1766+44
	mov	r0, r4
	bl	mvc_ue_v
	str	r0, [r10, #784]
	b	.L1719
.L1765:
	ldr	r1, .L1766+48
	mov	r0, r4
	bl	mvc_ue_v
	str	r0, [r9, #784]
	b	.L1734
.L1712:
	ldr	ip, .L1766+12
	mov	r2, r0
	ldr	r1, .L1766+52
	mov	r0, #1
	ldr	ip, [ip, #68]
	blx	ip
	mvn	r0, #0
	ldmfd	sp, {r3, r4, r5, r6, r7, r8, r9, r10, fp, sp, pc}
.L1729:
	ldr	ip, .L1766+12
	mov	r2, r0
	ldr	r1, .L1766+56
	mov	r0, #1
	ldr	ip, [ip, #68]
	blx	ip
	mvn	r0, #0
	ldmfd	sp, {r3, r4, r5, r6, r7, r8, r9, r10, fp, sp, pc}
.L1762:
	cmp	r9, r3
	bne	.L1715
.L1710:
	movw	r2, #26490
	movt	r2, 42
	add	r2, r3, r2
	add	r2, r4, r2, lsl #2
	ldr	r3, [r2, #8]
	cmp	r3, #3
	beq	.L1715
	ldr	r3, .L1766+12
	mov	r0, #1
	ldr	r1, .L1766+60
	ldr	r3, [r3, #68]
	blx	r3
	mvn	r0, #0
	ldmfd	sp, {r3, r4, r5, r6, r7, r8, r9, r10, fp, sp, pc}
.L1733:
	ldr	ip, .L1766+12
	mov	r2, r0
	ldr	r1, .L1766+64
	mov	r0, #1
	ldr	ip, [ip, #68]
	blx	ip
	mvn	r0, #0
	ldmfd	sp, {r3, r4, r5, r6, r7, r8, r9, r10, fp, sp, pc}
.L1741:
	mov	r3, #0
	b	.L1710
.L1767:
	.align	2
.L1766:
	.word	.LC52
	.word	.LC53
	.word	.LC55
	.word	vfmw_Osal_Func_Ptr_S
	.word	.LC56
	.word	.LC60
	.word	.LC61
	.word	.LC67
	.word	.LC63
	.word	.LC57
	.word	.LC65
	.word	.LC58
	.word	.LC66
	.word	.LC54
	.word	.LC62
	.word	.LC59
	.word	.LC64
	UNWIND(.fnend)
	.size	mvc_ref_pic_list_reordering, .-mvc_ref_pic_list_reordering
	.align	2
	.global	mvc_pred_weight_table
	.type	mvc_pred_weight_table, %function
mvc_pred_weight_table:
	UNWIND(.fnstart)
	@ args = 0, pretend = 0, frame = 8
	@ frame_needed = 1, uses_anonymous_args = 0
	UNWIND(.movsp ip)
	mov	ip, sp
	stmfd	sp!, {r4, r5, r6, r7, r8, r9, r10, fp, ip, lr, pc}
	UNWIND(.pad #4)
	UNWIND(.save {r4, r5, r6, r7, r8, r9, r10, fp, ip, lr})
	UNWIND(.setfp fp, ip, #-4)
	sub	fp, ip, #4
	UNWIND(.pad #12)
	sub	sp, sp, #12
	ldr	r3, [r0, #244]
	ldr	r1, .L1798
	add	r6, r0, #11075584
	ldr	r7, [r0, #240]
	mov	r5, r0
	str	r3, [fp, #-48]
	bl	mvc_ue_v
	add	r6, r6, #40960
	mov	r4, #1
	str	r0, [r6, #588]
	mov	r8, r4, asl r0
	ldr	r9, [r7, #748]
	cmp	r9, #0
	bne	.L1792
.L1769:
	cmp	r0, #7
	bhi	.L1772
	ldr	r3, [r6, #592]
	cmp	r3, #7
	bhi	.L1772
	ldrb	r2, [r5, #10]	@ zero_extendqisi2
	cmp	r2, #0
	movweq	r10, #41684
	moveq	r4, r2
	movteq	r10, 169
	addeq	r10, r5, r10
	beq	.L1780
	b	.L1771
.L1776:
	ldr	r2, [r7, #748]
	cmp	r2, #0
	bne	.L1793
.L1777:
	str	r2, [r10]
	str	r2, [r10, #768]
	str	r2, [r10, #128]
	str	r2, [r10, #896]
.L1779:
	ldr	r2, [r6, #580]
	add	r4, r4, #1
	add	r10, r10, #4
	cmp	r2, r4
	bcc	.L1794
.L1780:
	ldr	r1, .L1798+4
	mov	r0, r5
	bl	mvc_u_1
	cmp	r0, #0
	streq	r8, [r10, #-128]
	streq	r0, [r10, #640]
	beq	.L1776
	ldr	r1, .L1798+8
	mov	r0, r5
	bl	mvc_se_v
	ldr	r1, .L1798+12
	str	r0, [r10, #-128]
	mov	r0, r5
	bl	mvc_se_v
	str	r0, [r10, #640]
	ldr	r2, [r7, #748]
	cmp	r2, #0
	beq	.L1777
.L1793:
	ldr	r1, .L1798+16
	mov	r0, r5
	bl	mvc_u_1
	cmp	r0, #0
	bne	.L1795
	str	r9, [r10]
	str	r0, [r10, #768]
	str	r9, [r10, #128]
	str	r0, [r10, #896]
	b	.L1779
.L1794:
	ldr	r3, [fp, #-48]
	ldr	r3, [r3, #44]
	cmp	r3, #1
	beq	.L1781
.L1782:
	ldrb	r0, [r5, #10]	@ zero_extendqisi2
	adds	r0, r0, #0
	movne	r0, #1
	rsb	r0, r0, #0
.L1774:
	sub	sp, fp, #40
	ldmfd	sp, {r4, r5, r6, r7, r8, r9, r10, fp, sp, pc}
.L1795:
	ldr	r1, .L1798+20
	mov	r0, r5
	bl	mvc_se_v
	ldr	r1, .L1798+24
	str	r0, [r10]
	mov	r0, r5
	bl	mvc_se_v
	ldr	r1, .L1798+20
	str	r0, [r10, #768]
	mov	r0, r5
	bl	mvc_se_v
	ldr	r1, .L1798+24
	str	r0, [r10, #128]
	mov	r0, r5
	bl	mvc_se_v
	str	r0, [r10, #896]
	b	.L1779
.L1792:
	ldr	r1, .L1798+28
	mov	r0, r5
	bl	mvc_ue_v
	mov	r3, r0
	ldr	r0, [r6, #588]
	mov	r9, r4, asl r3
	str	r3, [r6, #592]
	b	.L1769
.L1781:
	ldrb	r3, [r6, #520]	@ zero_extendqisi2
	cmp	r3, #1
	bne	.L1782
	movw	r4, #42068
	mov	r10, #0
	movt	r4, 169
	add	r4, r5, r4
	b	.L1788
.L1784:
	ldr	r3, [r7, #748]
	cmp	r3, #0
	bne	.L1796
.L1785:
	str	r3, [r4]
	str	r3, [r4, #768]
	str	r3, [r4, #128]
	str	r3, [r4, #896]
.L1787:
	ldr	r3, [r6, #584]
	add	r10, r10, #1
	add	r4, r4, #4
	cmp	r3, r10
	bcc	.L1782
.L1788:
	ldr	r1, .L1798+32
	mov	r0, r5
	bl	mvc_u_1
	cmp	r0, #0
	streq	r8, [r4, #-128]
	streq	r0, [r4, #640]
	beq	.L1784
	ldr	r1, .L1798+36
	mov	r0, r5
	bl	mvc_se_v
	ldr	r1, .L1798+40
	str	r0, [r4, #-128]
	mov	r0, r5
	bl	mvc_se_v
	str	r0, [r4, #640]
	ldr	r3, [r7, #748]
	cmp	r3, #0
	beq	.L1785
.L1796:
	ldr	r1, .L1798+44
	mov	r0, r5
	bl	mvc_u_1
	cmp	r0, #0
	bne	.L1797
	str	r9, [r4]
	str	r0, [r4, #768]
	str	r9, [r4, #128]
	str	r0, [r4, #896]
	b	.L1787
.L1772:
	ldrb	r2, [r5, #10]	@ zero_extendqisi2
.L1771:
	ldr	r3, .L1798+48
	mov	r0, #1
	ldr	r1, .L1798+52
	ldr	r3, [r3, #68]
	blx	r3
	mvn	r0, #0
	b	.L1774
.L1797:
	ldr	r1, .L1798+56
	mov	r0, r5
	bl	mvc_se_v
	ldr	r1, .L1798+60
	str	r0, [r4]
	mov	r0, r5
	bl	mvc_se_v
	ldr	r1, .L1798+56
	str	r0, [r4, #768]
	mov	r0, r5
	bl	mvc_se_v
	ldr	r1, .L1798+60
	str	r0, [r4, #128]
	mov	r0, r5
	bl	mvc_se_v
	str	r0, [r4, #896]
	b	.L1787
.L1799:
	.align	2
.L1798:
	.word	.LC68
	.word	.LC71
	.word	.LC72
	.word	.LC73
	.word	.LC74
	.word	.LC75
	.word	.LC76
	.word	.LC69
	.word	.LC77
	.word	.LC78
	.word	.LC79
	.word	.LC80
	.word	vfmw_Osal_Func_Ptr_S
	.word	.LC70
	.word	.LC81
	.word	.LC82
	UNWIND(.fnend)
	.size	mvc_pred_weight_table, .-mvc_pred_weight_table
	.align	2
	.global	MVC_DecMMCO
	.type	MVC_DecMMCO, %function
MVC_DecMMCO:
	UNWIND(.fnstart)
	@ args = 0, pretend = 0, frame = 0
	@ frame_needed = 1, uses_anonymous_args = 0
	UNWIND(.movsp ip)
	mov	ip, sp
	stmfd	sp!, {r4, r5, r6, r7, r8, r9, fp, ip, lr, pc}
	UNWIND(.pad #4)
	UNWIND(.save {r4, r5, r6, r7, r8, r9, fp, ip, lr})
	UNWIND(.setfp fp, ip, #-4)
	sub	fp, ip, #4
	cmp	r1, #0
	mov	r4, r0
	moveq	r7, #100
	beq	.L1812
	mov	r9, #0
	b	.L1803
.L1835:
	ldr	r1, .L1841
	mov	r0, r4
	bl	mvc_ue_v
	cmp	r5, #2
	beq	.L1833
.L1814:
	cmp	r5, #6
	orreq	r6, r6, #1
	cmp	r6, #0
	bne	.L1817
	cmp	r5, #4
	beq	.L1834
.L1818:
	cmp	r5, #6
	bhi	.L1819
.L1815:
	ldrb	r3, [r4, #10]	@ zero_extendqisi2
	cmp	r3, #0
	bne	.L1819
	cmp	r5, #0
	beq	.L1821
.L1820:
	subs	r7, r7, #1
	beq	.L1822
.L1812:
	ldr	r1, .L1841+4
	mov	r0, r4
	bl	mvc_ue_v
	bic	r3, r0, #2
	sub	r6, r0, #3
	clz	r6, r6
	cmp	r3, #1
	mov	r5, r0
	mov	r6, r6, lsr #5
	beq	.L1835
	cmp	r5, #2
	bne	.L1814
.L1833:
	ldr	r1, .L1841+8
	mov	r0, r4
	bl	mvc_ue_v
	cmp	r6, #0
	beq	.L1815
.L1817:
	ldr	r1, .L1841+12
	mov	r0, r4
	bl	mvc_ue_v
	cmp	r5, #4
	bne	.L1818
.L1834:
	ldr	r1, .L1841+16
	mov	r0, r4
	bl	mvc_ue_v
	ldrb	r3, [r4, #10]	@ zero_extendqisi2
	cmp	r3, #0
	beq	.L1820
.L1819:
	ldr	r3, .L1841+20
	mov	r0, #1
	ldr	r1, .L1841+24
	ldr	r3, [r3, #68]
	blx	r3
	mvn	r0, #0
	ldmfd	sp, {r4, r5, r6, r7, r8, r9, fp, sp, pc}
.L1840:
	ldr	r1, .L1841
	mov	r0, r4
	bl	mvc_ue_v
	ldr	r3, [r8, #4]
	cmp	r3, #2
	str	r0, [r8, #8]
	beq	.L1836
.L1806:
	cmp	r3, #3
	cmpne	r3, #6
	beq	.L1837
.L1807:
	cmp	r3, #4
	beq	.L1838
.L1808:
	cmp	r3, #6
	bhi	.L1819
	ldrb	r2, [r4, #10]	@ zero_extendqisi2
	cmp	r2, #0
	bne	.L1819
	cmp	r3, #0
	add	r9, r9, #1
	beq	.L1821
	cmp	r9, #100
	beq	.L1839
.L1803:
	ldr	r1, .L1841+4
	mov	r0, r4
	ldrb	r5, [r4, #3]	@ zero_extendqisi2
	bl	mvc_ue_v
	mov	r6, r9, asl #2
	mov	r7, r9, asl #4
	add	r1, r6, r7
	movw	r2, #2004
	movw	r8, #43184
	mla	r2, r2, r5, r1
	movt	r8, 169
	add	r2, r4, r2
	add	r8, r2, r8
	mov	r3, r0
	bic	r0, r0, #2
	cmp	r0, #1
	str	r3, [r8, #4]
	beq	.L1840
	cmp	r3, #2
	bne	.L1806
.L1836:
	ldr	r1, .L1841+8
	mov	r0, r4
	bl	mvc_ue_v
	add	r3, r6, r7
	movw	r2, #2004
	movw	r1, #43192
	mla	r3, r2, r5, r3
	movw	r2, #43184
	movt	r1, 169
	movt	r2, 169
	add	r3, r4, r3
	add	r1, r3, r1
	add	r2, r3, r2
	str	r0, [r1, #4]
	ldr	r3, [r2, #4]
	cmp	r3, #3
	cmpne	r3, #6
	bne	.L1807
.L1837:
	ldr	r1, .L1841+12
	mov	r0, r4
	bl	mvc_ue_v
	add	r3, r6, r7
	movw	r2, #2004
	movw	r1, #43192
	mla	r3, r2, r5, r3
	movw	r2, #43184
	movt	r1, 169
	movt	r2, 169
	add	r3, r4, r3
	add	r1, r3, r1
	add	r2, r3, r2
	str	r0, [r1, #8]
	ldr	r3, [r2, #4]
	cmp	r3, #4
	bne	.L1808
.L1838:
	ldr	r1, .L1841+16
	mov	r0, r4
	bl	mvc_ue_v
	add	r6, r6, r7
	movw	r7, #2004
	movw	r2, #43200
	mla	r5, r7, r5, r6
	movw	r3, #43184
	movt	r2, 169
	movt	r3, 169
	add	r5, r4, r5
	add	r2, r5, r2
	add	r3, r5, r3
	str	r0, [r2, #4]
	ldr	r3, [r3, #4]
	b	.L1808
.L1821:
	mov	r0, #0
	ldmfd	sp, {r4, r5, r6, r7, r8, r9, fp, sp, pc}
.L1839:
	ldr	r3, .L1841+20
	mov	r0, #1
	ldr	r1, .L1841+28
	ldr	r3, [r3, #68]
	blx	r3
	mvn	r0, #0
	ldmfd	sp, {r4, r5, r6, r7, r8, r9, fp, sp, pc}
.L1822:
	mvn	r0, #0
	ldmfd	sp, {r4, r5, r6, r7, r8, r9, fp, sp, pc}
.L1842:
	.align	2
.L1841:
	.word	.LC85
	.word	.LC84
	.word	.LC86
	.word	.LC87
	.word	.LC88
	.word	vfmw_Osal_Func_Ptr_S
	.word	.LC89
	.word	.LC83
	UNWIND(.fnend)
	.size	MVC_DecMMCO, .-MVC_DecMMCO
	.align	2
	.global	mvc_dec_ref_pic_marking
	.type	mvc_dec_ref_pic_marking, %function
mvc_dec_ref_pic_marking:
	UNWIND(.fnstart)
	@ args = 0, pretend = 0, frame = 0
	@ frame_needed = 1, uses_anonymous_args = 0
	UNWIND(.movsp ip)
	mov	ip, sp
	stmfd	sp!, {r4, r5, r6, r7, r8, r9, fp, ip, lr, pc}
	UNWIND(.pad #4)
	UNWIND(.save {r4, r5, r6, r7, r8, r9, fp, ip, lr})
	UNWIND(.setfp fp, ip, #-4)
	sub	fp, ip, #4
	UNWIND(.pad #8)
	sub	sp, sp, #8
	add	r3, r0, #11075584
	add	r3, r3, #40960
	mov	r4, r0
	ldrb	r7, [r0, #3]	@ zero_extendqisi2
	ldrb	r8, [r3, #525]	@ zero_extendqisi2
	cmp	r8, #0
	beq	.L1844
	clz	r2, r7
	mov	r2, r2, lsr #5
	strb	r2, [r0, #3]
	mov	r6, r2
.L1853:
	ldrb	r3, [r3, #523]	@ zero_extendqisi2
	cmp	r3, #5
	beq	.L1864
	ldr	r1, .L1868
	mov	r0, r4
	bl	mvc_u_1
	movw	r2, #2004
	mla	r6, r2, r6, r4
	movw	r5, #43184
	ldr	r9, .L1868+4
	movt	r5, 169
	ldr	r1, .L1868+8
	add	r5, r6, r5
	ldr	ip, [r9, #68]
	mov	r3, r0
	uxtb	r2, r0
	strb	r3, [r5, #3]
	mov	r0, #16
	blx	ip
	ldrb	r3, [r5, #3]	@ zero_extendqisi2
	cmp	r3, #0
	bne	.L1847
.L1851:
	mov	r8, #0
.L1861:
	mov	r0, r8
	sub	sp, fp, #36
	ldmfd	sp, {r4, r5, r6, r7, r8, r9, fp, sp, pc}
.L1844:
	movw	r2, #2004
	movw	r1, #43184
	mla	r2, r2, r7, r0
	movt	r1, 169
	movw	r5, #43184
	mov	r6, r7
	movt	r5, 169
	add	r5, r2, r5
	ldrb	r2, [r2, r1]	@ zero_extendqisi2
	cmp	r2, #0
	beq	.L1853
	ldrb	r3, [r3, #523]	@ zero_extendqisi2
	cmp	r3, #5
	beq	.L1865
	ldr	r1, .L1868
	ldrb	r6, [r5, #3]	@ zero_extendqisi2
	bl	mvc_u_1
	cmp	r6, r0
	bne	.L1866
	ldrb	r3, [r5, #3]	@ zero_extendqisi2
	cmp	r3, #0
	beq	.L1851
	mov	r1, r8
	mov	r0, r4
	sub	sp, fp, #36
	ldmfd	sp, {r4, r5, r6, r7, r8, r9, fp, sp, lr}
	b	MVC_DecMMCO
.L1847:
	mov	r1, #1
	mov	r0, r4
	bl	MVC_DecMMCO
	cmn	r0, #1
	mov	r8, r0
	movne	r3, #1
	movne	r8, #0
	strneb	r3, [r5]
	bne	.L1861
	mov	r3, #0
	ldr	r1, .L1868+12
	strb	r3, [r5]
	mov	r0, #1
	strb	r7, [r4, #3]
	ldr	r3, [r9, #68]
	blx	r3
	b	.L1861
.L1865:
	ldr	r1, .L1868+16
	ldrb	r6, [r5, #1]	@ zero_extendqisi2
	bl	mvc_u_1
	cmp	r6, r0
	bne	.L1867
	mov	r0, r4
	ldr	r1, .L1868+20
	ldrb	r4, [r5, #2]	@ zero_extendqisi2
	bl	mvc_u_1
	cmp	r4, r0
	beq	.L1851
	ldr	r3, .L1868+4
	mov	r0, #1
	ldr	r1, .L1868+24
	mvn	r8, #0
	ldr	r3, [r3, #68]
	blx	r3
	b	.L1861
.L1864:
	ldr	r1, .L1868+16
	mov	r0, r4
	bl	mvc_u_1
	movw	r2, #2004
	mla	r2, r2, r6, r4
	movw	r5, #43184
	movt	r5, 169
	ldr	r1, .L1868+20
	mov	r8, #0
	add	r5, r2, r5
	strb	r0, [r5, #1]
	mov	r0, r4
	bl	mvc_u_1
	ldr	r3, .L1868+4
	ldrb	r2, [r5, #1]	@ zero_extendqisi2
	ldr	r1, .L1868+28
	ldr	r3, [r3, #68]
	strb	r0, [r5, #2]
	mov	r0, #16
	blx	r3
	mov	r0, r8
	sub	sp, fp, #36
	ldmfd	sp, {r4, r5, r6, r7, r8, r9, fp, sp, pc}
.L1866:
	ldr	r5, .L1868+4
	mov	r0, #1
	ldr	r1, .L1868+32
	mvn	r8, #0
	ldr	r3, [r5, #68]
	blx	r3
	ldr	lr, [r4, #68]
	ldr	r3, [r4, #100]
	mov	r0, #1
	ldr	r2, [r4, #88]
	ldr	ip, [r5, #68]
	ldr	r1, .L1868+36
	str	lr, [sp]
	blx	ip
	b	.L1861
.L1867:
	ldr	r3, .L1868+4
	mov	r0, #1
	ldr	r1, .L1868+40
	mvn	r8, #0
	ldr	r3, [r3, #68]
	blx	r3
	b	.L1861
.L1869:
	.align	2
.L1868:
	.word	.LC93
	.word	vfmw_Osal_Func_Ptr_S
	.word	.LC94
	.word	.LC95
	.word	.LC90
	.word	.LC91
	.word	.LC97
	.word	.LC92
	.word	.LC98
	.word	.LC99
	.word	.LC96
	UNWIND(.fnend)
	.size	mvc_dec_ref_pic_marking, .-mvc_dec_ref_pic_marking
	.align	2
	.global	MVC_ProcessSliceHeaderFirstPart
	.type	MVC_ProcessSliceHeaderFirstPart, %function
MVC_ProcessSliceHeaderFirstPart:
	UNWIND(.fnstart)
	@ args = 0, pretend = 0, frame = 0
	@ frame_needed = 1, uses_anonymous_args = 0
	UNWIND(.movsp ip)
	mov	ip, sp
	stmfd	sp!, {r3, r4, r5, r6, r7, r8, r9, r10, fp, ip, lr, pc}
	UNWIND(.pad #4)
	UNWIND(.save {r3, r4, r5, r6, r7, r8, r9, r10, fp, ip, lr})
	UNWIND(.setfp fp, ip, #-4)
	sub	fp, ip, #4
	ldr	r1, .L1935
	mov	r4, r0
	bl	mvc_ue_v
	ldr	r3, [r4, #40]
	sub	r3, r3, #1
	cmp	r0, r3
	mov	r6, r0
	bhi	.L1871
	ldrb	r3, [r4, #10]	@ zero_extendqisi2
	cmp	r3, #0
	bne	.L1871
	mov	r1, r0
	mov	r0, r4
	bl	MVC_PPSSPSCheckTmpId
	cmp	r0, #0
	bne	.L1926
	add	r7, r4, #11075584
	mov	r0, r4
	add	r5, r7, #40960
	str	r6, [r5, #536]
	bl	MVC_PPSSPSCheck
	subs	r8, r0, #0
	bne	.L1927
	ldr	r6, [r4, #240]
	mov	r0, r4
	ldr	r2, .L1935+4
	ldr	r9, [r4, #244]
	ldr	r1, [r6, #2896]
	add	r1, r1, #4
	bl	mvc_u_v
	str	r0, [r5, #548]
	ldrb	r3, [r4, #10]	@ zero_extendqisi2
	cmp	r3, #0
	bne	.L1924
	adds	r0, r0, #0
	ldrb	r3, [r5, #523]	@ zero_extendqisi2
	movne	r0, #1
	cmp	r3, #5
	movne	r0, #0
	cmp	r0, #0
	bne	.L1928
.L1877:
	mov	r3, #0
	strb	r3, [r5, #521]
	strb	r3, [r5, #522]
	ldrb	r3, [r6, #20]	@ zero_extendqisi2
	cmp	r3, #0
	beq	.L1929
	ldr	r2, [r6, #3948]
	ldr	r1, [r6, #3952]
	add	r3, r2, #1
	mla	r3, r1, r3, r3
.L1900:
	ldrb	r2, [r6, #21]	@ zero_extendqisi2
	cmp	r2, #0
	bne	.L1883
	strb	r2, [r5, #524]
.L1885:
	ldr	r2, [r5, #576]
	cmp	r2, r3
	bcs	.L1930
.L1886:
	ldrb	r3, [r5, #523]	@ zero_extendqisi2
	cmp	r3, #5
	beq	.L1931
.L1888:
	add	r10, r7, #36864
	mov	r3, #0
	str	r3, [r10, #3484]
	str	r3, [r10, #3488]
	ldr	r3, [r6, #2900]
	cmp	r3, #0
	beq	.L1932
.L1892:
	mov	r3, #0
	str	r3, [r10, #3520]
	str	r3, [r10, #3524]
	ldr	r3, [r6, #2900]
	cmp	r3, #1
	beq	.L1933
.L1895:
	ldrb	r3, [r4, #10]	@ zero_extendqisi2
	cmp	r3, #0
	bne	.L1924
	ldrb	r3, [r9, #17]	@ zero_extendqisi2
	cmp	r3, #0
	beq	.L1898
	ldr	r1, .L1935+8
	mov	r0, r4
	bl	mvc_ue_v
	cmp	r0, #0
	bne	.L1899
	ldrb	r3, [r4, #10]	@ zero_extendqisi2
	cmp	r3, #0
	beq	.L1898
.L1899:
	ldr	r3, .L1935+12
	mov	r0, #1
	ldr	r1, .L1935+16
	ldr	r3, [r3, #68]
	blx	r3
	ldr	r3, .L1935+20
	ldr	ip, [r3]
	cmp	ip, #0
	beq	.L1924
	mov	r3, #0
	ldr	r0, [r4, #120]
	mov	r2, r3
	mov	r1, #102
	blx	ip
.L1924:
	mvn	r8, #0
.L1910:
	mov	r0, r8
	ldmfd	sp, {r3, r4, r5, r6, r7, r8, r9, r10, fp, sp, pc}
.L1929:
	ldr	r1, .L1935+24
	mov	r0, r4
	bl	mvc_u_1
	uxtb	r0, r0
	strb	r0, [r5, #521]
	cmp	r0, #0
	bne	.L1934
	ldr	r2, [r6, #3948]
	ldrb	ip, [r6, #20]	@ zero_extendqisi2
	ldr	r1, [r6, #3952]
	add	r3, r2, #1
	cmp	ip, #0
	mla	r3, r1, r3, r3
	bne	.L1902
	mov	r3, r3, asl #1
	b	.L1900
.L1883:
	mov	r2, #1
	strb	r2, [r5, #524]
.L1903:
	ldr	r2, [r5, #576]
	cmp	r2, r3, lsr #1
	bcc	.L1886
	ldr	r3, .L1935+12
	mov	r0, #1
	ldr	r1, .L1935+28
	mvn	r8, #0
	ldr	r3, [r3, #68]
	blx	r3
	b	.L1910
.L1934:
	ldr	r1, .L1935+32
	mov	r0, r4
	bl	mvc_u_1
	strb	r0, [r5, #522]
	ldr	r2, [r6, #3948]
	ldrb	r0, [r6, #20]	@ zero_extendqisi2
	ldr	r1, [r6, #3952]
	add	r3, r2, #1
	cmp	r0, #0
	ldrb	r0, [r5, #521]	@ zero_extendqisi2
	mla	r3, r1, r3, r3
	moveq	r2, #2
	beq	.L1881
.L1902:
	mov	r2, #1
.L1881:
	cmp	r0, #0
	mul	r3, r2, r3
	beq	.L1900
	cmp	r0, #1
	mov	r2, #0
	strb	r2, [r5, #524]
	bne	.L1885
	b	.L1903
.L1898:
	mov	r0, r4
	add	r7, r7, #40960
	bl	MVC_IsNewPic
	uxtb	r0, r0
	strb	r0, [r7, #525]
	cmp	r0, #0
	bne	.L1910
	ldr	r2, [r7, #576]
	ldr	r3, [r7, #2216]
	cmp	r2, r3
	bhi	.L1910
	ldr	r3, .L1935+12
	mov	r0, #1
	ldr	r1, .L1935+36
	mvn	r8, #0
	ldr	r3, [r3, #68]
	blx	r3
	b	.L1910
.L1932:
	ldr	r1, [r6, #2904]
	mov	r0, r4
	ldr	r2, .L1935+40
	add	r1, r1, #4
	bl	mvc_u_v
	str	r0, [r10, #3484]
	ldrb	r3, [r9, #1]	@ zero_extendqisi2
	cmp	r3, #0
	beq	.L1892
	ldrb	r3, [r5, #521]	@ zero_extendqisi2
	cmp	r3, #0
	bne	.L1892
	ldr	r1, .L1935+44
	mov	r0, r4
	bl	mvc_se_v
	str	r0, [r10, #3488]
	b	.L1892
.L1933:
	ldrb	r3, [r6, #18]	@ zero_extendqisi2
	cmp	r3, #0
	bne	.L1895
	ldr	r1, .L1935+48
	mov	r0, r4
	bl	mvc_se_v
	str	r0, [r10, #3520]
	ldrb	r3, [r9, #1]	@ zero_extendqisi2
	cmp	r3, #1
	bne	.L1895
	ldrb	r3, [r5, #521]	@ zero_extendqisi2
	cmp	r3, #0
	bne	.L1895
	ldr	r1, .L1935+52
	mov	r0, r4
	bl	mvc_se_v
	str	r0, [r10, #3524]
	b	.L1895
.L1871:
	ldr	r3, .L1935+12
	mov	r2, r6
	ldr	r1, .L1935+56
	mvn	r8, #0
	mov	r0, #1
	ldr	r3, [r3, #68]
	blx	r3
	mov	r0, r8
	ldmfd	sp, {r3, r4, r5, r6, r7, r8, r9, r10, fp, sp, pc}
.L1931:
	ldr	r1, .L1935+60
	mov	r0, r4
	bl	mvc_ue_v
	cmp	r0, #65536
	str	r0, [r5, #564]
	bcs	.L1889
	ldrb	r3, [r4, #10]	@ zero_extendqisi2
	cmp	r3, #0
	beq	.L1888
.L1889:
	ldr	r3, .L1935+12
	mov	r0, #1
	ldr	r1, .L1935+64
	ldr	r3, [r3, #68]
	blx	r3
	b	.L1888
.L1926:
	ldr	r3, .L1935+12
	mov	r0, #1
	ldr	r1, .L1935+68
	mvn	r8, #0
	ldr	r3, [r3, #68]
	blx	r3
	b	.L1910
.L1927:
	ldr	r3, .L1935+12
	mov	r0, #1
	ldr	r1, .L1935+72
	mvn	r8, #0
	ldr	r3, [r3, #68]
	blx	r3
	b	.L1910
.L1928:
	ldr	r3, [r5, #2160]
	cmp	r3, #0
	bgt	.L1877
	ldr	r3, .L1935+12
	mov	r0, #1
	ldr	r1, .L1935+76
	ldr	r3, [r3, #68]
	blx	r3
	b	.L1877
.L1930:
	ldr	r3, .L1935+12
	mov	r0, #1
	ldr	r1, .L1935+80
	mvn	r8, #0
	ldr	r3, [r3, #68]
	blx	r3
	b	.L1910
.L1936:
	.align	2
.L1935:
	.word	.LC100
	.word	.LC104
	.word	.LC116
	.word	vfmw_Osal_Func_Ptr_S
	.word	.LC117
	.word	g_event_report
	.word	.LC106
	.word	.LC108
	.word	.LC107
	.word	.LC118
	.word	.LC112
	.word	.LC113
	.word	.LC114
	.word	.LC115
	.word	.LC101
	.word	.LC110
	.word	.LC111
	.word	.LC102
	.word	.LC103
	.word	.LC105
	.word	.LC109
	UNWIND(.fnend)
	.size	MVC_ProcessSliceHeaderFirstPart, .-MVC_ProcessSliceHeaderFirstPart
	.align	2
	.global	MVC_ProcessSliceHeaderSecondPart
	.type	MVC_ProcessSliceHeaderSecondPart, %function
MVC_ProcessSliceHeaderSecondPart:
	UNWIND(.fnstart)
	@ args = 0, pretend = 0, frame = 0
	@ frame_needed = 1, uses_anonymous_args = 0
	UNWIND(.movsp ip)
	mov	ip, sp
	stmfd	sp!, {r4, r5, r6, r7, r8, r9, fp, ip, lr, pc}
	UNWIND(.pad #4)
	UNWIND(.save {r4, r5, r6, r7, r8, r9, fp, ip, lr})
	UNWIND(.setfp fp, ip, #-4)
	sub	fp, ip, #4
	add	r4, r0, #11075584
	ldr	r3, [r0, #40]
	add	r4, r4, #40960
	mov	r5, r0
	sub	r3, r3, #1
	ldr	r6, [r0, #244]
	ldr	r2, [r4, #536]
	cmp	r3, r2
	bcc	.L1938
	ldrb	r7, [r0, #10]	@ zero_extendqisi2
	cmp	r7, #0
	bne	.L1938
	bl	MVC_PPSSPSCheck
	cmp	r0, #0
	bne	.L2020
	ldrb	r3, [r4, #520]	@ zero_extendqisi2
	cmp	r3, #1
	beq	.L2021
.L1942:
	ldr	r2, [r6, #36]
	cmp	r3, #1
	str	r2, [r4, #580]
	ldr	r2, [r6, #40]
	str	r2, [r4, #584]
	bls	.L2022
	cmp	r3, #2
	beq	.L1969
.L1953:
	mov	r3, #32
	str	r3, [r4, #584]
.L1954:
	mov	r0, r5
	bl	mvc_ref_pic_list_reordering
	subs	r8, r0, #0
	bne	.L2023
	ldrb	r3, [r6, #2]	@ zero_extendqisi2
	cmp	r3, #0
	beq	.L1956
	ldrb	r3, [r4, #520]	@ zero_extendqisi2
	cmp	r3, #0
	moveq	r7, #1
	moveq	r2, r7
	beq	.L1957
.L1956:
	ldr	r3, [r6, #44]
	cmp	r3, #1
	beq	.L2024
.L1973:
	mov	r2, #0
.L1957:
	ldr	r9, .L2030
	mov	r0, #19
	strb	r7, [r4, #527]
	ldr	r1, .L2030+4
	ldr	r3, [r9, #68]
	blx	r3
	ldrb	r2, [r4, #527]	@ zero_extendqisi2
	mov	r3, #0
	str	r3, [r4, #588]
	cmp	r2, r3
	str	r3, [r4, #592]
	bne	.L2025
.L1958:
	ldrb	r3, [r4, #528]	@ zero_extendqisi2
	cmp	r3, #0
	bne	.L2026
.L1959:
	mov	r3, #0
	str	r3, [r4, #2132]
	ldrb	r3, [r6]	@ zero_extendqisi2
	cmp	r3, #0
	beq	.L1960
	ldrb	r3, [r4, #520]	@ zero_extendqisi2
	cmp	r3, #1
	bls	.L2027
.L1960:
	ldr	r1, .L2030+8
	mov	r0, r5
	bl	mvc_se_v
	mov	r3, #0
	str	r3, [r4, #2140]
	str	r3, [r4, #2144]
	str	r3, [r4, #2148]
	str	r0, [r4, #2136]
	ldrb	r3, [r6, #3]	@ zero_extendqisi2
	cmp	r3, #0
	bne	.L2028
.L1989:
	mov	r0, r8
	ldmfd	sp, {r4, r5, r6, r7, r8, r9, fp, sp, pc}
.L1969:
	mov	r3, #32
	str	r3, [r4, #580]
	b	.L1953
.L2028:
	ldr	r1, .L2030+12
	mov	r0, r5
	bl	mvc_ue_v
	cmp	r0, #2
	str	r0, [r4, #2140]
	bhi	.L1963
	ldrb	r3, [r5, #10]	@ zero_extendqisi2
	cmp	r3, #0
	bne	.L1963
	cmp	r0, #1
	beq	.L1989
	ldr	r1, .L2030+16
	mov	r0, r5
	bl	mvc_se_v
	add	r3, r0, #6
	str	r0, [r4, #2144]
	cmp	r3, #12
	bhi	.L1966
	ldrb	r3, [r5, #10]	@ zero_extendqisi2
	cmp	r3, #0
	bne	.L1966
	ldr	r1, .L2030+20
	mov	r0, r5
	bl	mvc_se_v
	add	r3, r0, #6
	str	r0, [r4, #2148]
	cmp	r3, #12
	bhi	.L1968
	ldrb	r3, [r5, #10]	@ zero_extendqisi2
	cmp	r3, #0
	beq	.L1989
.L1968:
	ldr	r3, [r9, #68]
	mov	r0, #1
	ldr	r1, .L2030+24
	mvn	r8, #0
	blx	r3
	b	.L1989
.L2025:
	mov	r0, r5
	bl	mvc_pred_weight_table
	cmp	r0, #0
	beq	.L1958
	ldr	r3, [r9, #68]
	mov	r0, #1
	ldr	r1, .L2030+28
	mvn	r8, #0
	blx	r3
	b	.L1989
.L2026:
	mov	r0, r5
	bl	mvc_dec_ref_pic_marking
	cmp	r0, #0
	beq	.L1959
	ldr	r3, [r9, #68]
	mov	r0, #1
	ldr	r1, .L2030+32
	mvn	r8, #0
	blx	r3
	b	.L1989
.L2024:
	ldrb	r3, [r4, #520]	@ zero_extendqisi2
	cmp	r3, #1
	moveq	r7, r3
	moveq	r2, r7
	bne	.L1973
	b	.L1957
.L2021:
	ldr	r1, .L2030+36
	mov	r0, r5
	bl	mvc_u_1
	ldrb	r3, [r4, #520]	@ zero_extendqisi2
	strb	r0, [r4, #526]
	b	.L1942
.L2022:
	ldr	r1, .L2030+40
	mov	r0, r5
	bl	mvc_u_1
	cmp	r0, #0
	bne	.L1944
	ldr	r3, [r4, #580]
.L1945:
	ldrb	r2, [r4, #521]	@ zero_extendqisi2
	cmp	r2, #0
	bne	.L1946
	cmp	r3, #15
	bhi	.L1947
	ldr	r3, [r4, #584]
	cmp	r3, #15
	bhi	.L2029
.L1948:
	ldrb	r3, [r5, #10]	@ zero_extendqisi2
	cmp	r3, #0
	bne	.L1947
.L1949:
	ldrb	r3, [r4, #520]	@ zero_extendqisi2
	cmp	r3, #2
	beq	.L1969
	cmp	r3, #1
	bne	.L1953
	b	.L1954
.L1938:
	ldr	r3, .L2030
	mvn	r8, #0
	ldr	r1, .L2030+44
	mov	r0, #1
	ldr	r3, [r3, #68]
	blx	r3
	mov	r0, r8
	ldmfd	sp, {r4, r5, r6, r7, r8, r9, fp, sp, pc}
.L2027:
	ldr	r1, .L2030+48
	mov	r0, r5
	bl	mvc_ue_v
	cmp	r0, #2
	str	r0, [r4, #2132]
	bhi	.L1961
	ldrb	r3, [r5, #10]	@ zero_extendqisi2
	cmp	r3, #0
	beq	.L1960
.L1961:
	ldr	r3, [r9, #68]
	mov	r0, #1
	ldr	r1, .L2030+52
	mvn	r8, #0
	blx	r3
	b	.L1989
.L1946:
	cmp	r3, #31
	bhi	.L1950
	ldr	r3, [r4, #584]
	cmp	r3, #31
	bls	.L1951
	ldrb	r3, [r4, #520]	@ zero_extendqisi2
	cmp	r3, #1
	bne	.L1951
.L1950:
	ldr	r3, .L2030
	mov	r0, #1
	ldr	r1, .L2030+56
	mvn	r8, #0
	ldr	r3, [r3, #68]
	blx	r3
	b	.L1989
.L1951:
	ldrb	r3, [r5, #10]	@ zero_extendqisi2
	cmp	r3, #0
	beq	.L1949
	b	.L1950
.L2029:
	ldrb	r3, [r4, #520]	@ zero_extendqisi2
	cmp	r3, #1
	bne	.L1948
.L1947:
	ldr	r3, .L2030
	mov	r0, #1
	ldr	r1, .L2030+60
	mvn	r8, #0
	ldr	r3, [r3, #68]
	blx	r3
	b	.L1989
.L1944:
	ldr	r1, .L2030+64
	mov	r0, r5
	bl	mvc_ue_v
	ldrb	r2, [r4, #520]	@ zero_extendqisi2
	cmp	r2, #1
	mov	r3, r0
	str	r0, [r4, #580]
	bne	.L1945
	ldr	r1, .L2030+68
	mov	r0, r5
	bl	mvc_ue_v
	ldr	r3, [r4, #580]
	str	r0, [r4, #584]
	b	.L1945
.L1966:
	ldr	r3, [r9, #68]
	mov	r0, #1
	ldr	r1, .L2030+72
	mvn	r8, #0
	blx	r3
	b	.L1989
.L1963:
	ldr	r3, [r9, #68]
	mov	r0, #1
	ldr	r1, .L2030+76
	mvn	r8, #0
	blx	r3
	b	.L1989
.L2020:
	ldr	r3, .L2030
	mov	r0, #1
	ldr	r1, .L2030+80
	mvn	r8, #0
	ldr	r3, [r3, #68]
	blx	r3
	b	.L1989
.L2023:
	ldr	r3, .L2030
	mov	r0, #1
	ldr	r1, .L2030+84
	mvn	r8, #0
	ldr	r3, [r3, #68]
	blx	r3
	b	.L1989
.L2031:
	.align	2
.L2030:
	.word	vfmw_Osal_Func_Ptr_S
	.word	.LC126
	.word	.LC131
	.word	.LC132
	.word	.LC134
	.word	.LC136
	.word	.LC137
	.word	.LC127
	.word	.LC128
	.word	.LC119
	.word	.LC120
	.word	.LC101
	.word	.LC129
	.word	.LC130
	.word	.LC124
	.word	.LC123
	.word	.LC121
	.word	.LC122
	.word	.LC135
	.word	.LC133
	.word	.LC102
	.word	.LC125
	UNWIND(.fnend)
	.size	MVC_ProcessSliceHeaderSecondPart, .-MVC_ProcessSliceHeaderSecondPart
	.align	2
	.global	MVC_ExitSlice
	.type	MVC_ExitSlice, %function
MVC_ExitSlice:
	UNWIND(.fnstart)
	@ args = 0, pretend = 0, frame = 0
	@ frame_needed = 1, uses_anonymous_args = 0
	UNWIND(.movsp ip)
	mov	ip, sp
	stmfd	sp!, {r4, r5, fp, ip, lr, pc}
	UNWIND(.pad #4)
	UNWIND(.save {r4, r5, fp, ip, lr})
	UNWIND(.setfp fp, ip, #-4)
	sub	fp, ip, #4
	add	r2, r0, #11075584
	ldr	ip, [r0, #236]
	add	r3, r2, #40960
	ldrb	r1, [r3, #521]	@ zero_extendqisi2
	ldr	lr, [r3, #536]
	cmp	r1, #0
	ldr	r5, [r3, #576]
	str	lr, [r3, #2188]
	ldr	r4, [ip, #744]
	strb	r1, [r3, #2176]
	ldrneb	r1, [r3, #522]	@ zero_extendqisi2
	ldr	lr, [r3, #548]
	str	r5, [r3, #2216]
	strneb	r1, [r3, #2177]
	ldrb	r1, [r3, #523]	@ zero_extendqisi2
	str	lr, [r3, #2192]
	cmp	r1, #5
	ldrb	lr, [r3, #528]	@ zero_extendqisi2
	strb	r1, [r3, #2178]
	ldreq	r1, [r3, #564]
	str	r4, [r3, #2184]
	strb	lr, [r3, #2179]
	streq	r1, [r3, #2196]
	ldr	r1, [ip, #2900]
	cmp	r1, #0
	bne	.L2035
	add	r1, r2, #36864
	ldr	lr, [r1, #3484]
	str	lr, [r3, #2200]
	ldr	r1, [r1, #3488]
	str	r1, [r3, #2204]
	ldr	r1, [ip, #2900]
.L2035:
	cmp	r1, #1
	addeq	r2, r2, #36864
	ldreq	r1, [r2, #3520]
	streq	r1, [r3, #2208]
	ldreq	r2, [r2, #3524]
	streq	r2, [r3, #2212]
	ldrb	r2, [r3, #531]	@ zero_extendqisi2
	cmp	r2, #1
	bne	.L2037
	ldr	ip, [r3, #2160]
	ldrb	r1, [r3, #529]	@ zero_extendqisi2
	ldrb	r2, [r3, #530]	@ zero_extendqisi2
	str	ip, [r3, #2220]
	strb	r1, [r3, #2180]
	strb	r2, [r3, #2181]
.L2037:
	ldr	r3, [r0, #80]
	add	r3, r3, #1
	str	r3, [r0, #80]
	ldmfd	sp, {r4, r5, fp, sp, pc}
	UNWIND(.fnend)
	.size	MVC_ExitSlice, .-MVC_ExitSlice
	.align	2
	.global	MVC_PicTypeStatistic
	.type	MVC_PicTypeStatistic, %function
MVC_PicTypeStatistic:
	UNWIND(.fnstart)
	@ args = 0, pretend = 0, frame = 0
	@ frame_needed = 1, uses_anonymous_args = 0
	UNWIND(.movsp ip)
	mov	ip, sp
	stmfd	sp!, {fp, ip, lr, pc}
	UNWIND(.pad #4)
	UNWIND(.save {fp, ip, lr})
	UNWIND(.setfp fp, ip, #-4)
	sub	fp, ip, #4
	add	r3, r0, #11075584
	add	r3, r3, #40960
	ldrb	r2, [r3, #520]	@ zero_extendqisi2
	cmp	r2, #1
	beq	.L2043
	bcc	.L2044
	cmp	r2, #2
	ldmnefd	sp, {fp, sp, pc}
	ldrb	r3, [r3, #523]	@ zero_extendqisi2
	add	r0, r0, #11141120
	cmp	r3, #5
	beq	.L2053
.L2046:
	add	r0, r0, #8192
	mov	r3, #0
	strb	r3, [r0, #1605]
	ldmfd	sp, {fp, sp, pc}
.L2044:
	add	r0, r0, #11141120
	add	r3, r0, #8192
	ldrb	r2, [r3, #1604]	@ zero_extendqisi2
	cmp	r2, #2
	movne	r2, #1
	strneb	r2, [r3, #1604]
	b	.L2046
.L2043:
	add	r0, r0, #11141120
	mov	r2, #2
	add	r0, r0, #8192
	mov	r3, #0
	strb	r2, [r0, #1604]
	strb	r3, [r0, #1605]
	ldmfd	sp, {fp, sp, pc}
.L2053:
	add	r0, r0, #8192
	mov	r3, #1
	strb	r3, [r0, #1605]
	ldmfd	sp, {fp, sp, pc}
	UNWIND(.fnend)
	.size	MVC_PicTypeStatistic, .-MVC_PicTypeStatistic
	.align	2
	.global	MVC_CalcStreamBits
	.type	MVC_CalcStreamBits, %function
MVC_CalcStreamBits:
	UNWIND(.fnstart)
	@ args = 0, pretend = 0, frame = 0
	@ frame_needed = 1, uses_anonymous_args = 0
	UNWIND(.movsp ip)
	mov	ip, sp
	stmfd	sp!, {r4, r5, r6, r7, r8, fp, ip, lr, pc}
	UNWIND(.pad #4)
	UNWIND(.save {r4, r5, r6, r7, r8, fp, ip, lr})
	UNWIND(.setfp fp, ip, #-4)
	sub	fp, ip, #4
	UNWIND(.pad #12)
	sub	sp, sp, #12
	add	r3, r0, #11075584
	add	r3, r3, #36864
	mov	r4, r0
	ldrb	r3, [r3, #1240]	@ zero_extendqisi2
	cmp	r3, #0
	beq	.L2055
	ldr	r2, [r0, #232]
	ldr	r3, [r2, #64]
	add	r3, r3, #7
	bic	r3, r3, #7
	str	r3, [r2, #64]
	ldr	r2, [r0, #232]
	ldr	r3, [r2, #72]
	sub	r3, r3, #1
	str	r3, [r2, #72]
.L2055:
	ldr	ip, [r4, #232]
	ldrb	r6, [ip]	@ zero_extendqisi2
	cmp	r6, #0
	beq	.L2066
	mov	r1, #0
	mov	r0, ip
	mov	r5, r1
.L2057:
	add	r1, r1, #1
	ldr	r3, [r0, #12]
	cmp	r1, r6
	add	r0, r0, #28
	add	r5, r5, r3
	bne	.L2057
.L2056:
	mov	r8, r6, asl #5
	ldr	r3, [ip, #72]
	sub	r8, r8, r6, asl #2
	ldr	r2, [ip, #64]
	add	ip, ip, r8
	ldr	r7, .L2077
	str	r3, [sp, #4]
	mov	r0, #7
	ldr	lr, [ip, #12]
	mov	r3, r5
	ldr	ip, [r7, #68]
	ldr	r1, .L2077+4
	str	lr, [sp]
	blx	ip
	ldr	r3, [r4, #232]
	mov	r2, r6
	mov	r0, #7
	ldr	r1, .L2077+8
	ldrb	r6, [r3]	@ zero_extendqisi2
	ldr	ip, [r3, #64]
	mov	lr, r6, asl #5
	and	ip, ip, r0
	sub	lr, lr, r6, asl #2
	add	r3, r3, lr
	str	ip, [r3, #24]
	ldr	r3, [r4, #232]
	ldrb	ip, [r3]	@ zero_extendqisi2
	ldr	r6, [r3, #64]
	mov	lr, ip, asl #5
	sub	lr, lr, ip, asl #2
	add	r3, r3, lr
	ldr	ip, [r3, #16]
	add	ip, ip, r6, lsr #3
	rsb	ip, r5, ip
	str	ip, [r3, #28]
	ldr	r3, [r4, #232]
	ldrb	r6, [r3]	@ zero_extendqisi2
	ldr	ip, [r3, #64]
	mov	lr, r6, asl #5
	sub	lr, lr, r6, asl #2
	add	r3, r3, lr
	ldr	lr, [r3, #12]
	add	r5, r5, lr
	rsb	r5, ip, r5, lsl #3
	str	r5, [r3, #20]
	ldr	ip, [r4, #232]
	ldrb	lr, [ip]	@ zero_extendqisi2
	mov	r3, lr, asl #5
	sub	r3, r3, lr, asl #2
	add	r3, ip, r3
	ldr	ip, [r3, #28]
	ldr	lr, [r3, #24]
	and	ip, ip, #3
	add	ip, lr, ip, lsl #3
	str	ip, [r3, #24]
	ldr	ip, [r4, #232]
	ldrb	lr, [ip]	@ zero_extendqisi2
	mov	r3, lr, asl #5
	sub	r3, r3, lr, asl #2
	add	r3, ip, r3
	ldr	ip, [r3, #28]
	bic	ip, ip, #3
	str	ip, [r3, #28]
	ldr	ip, [r4, #232]
	ldr	r5, [r7, #68]
	add	r8, ip, r8
	ldrb	r6, [ip]	@ zero_extendqisi2
	ldr	r3, [r8, #24]
	mov	lr, r6, asl #5
	sub	lr, lr, r6, asl #2
	add	ip, ip, lr
	ldr	ip, [ip, #28]
	str	ip, [sp, #4]
	ldr	ip, [r8, #20]
	str	ip, [sp]
	blx	r5
	ldr	ip, [r4, #232]
	ldr	r2, [ip, #68]
	sub	r3, r2, #1
	cmp	r3, #1
	bhi	.L2076
	ldrb	r5, [ip]	@ zero_extendqisi2
	add	r1, r5, #1
	cmp	r2, r1
	movhi	r2, #1
	movls	r2, #0
	cmp	r1, #1
	movhi	r2, #0
	cmp	r2, #0
	beq	.L2059
	add	r5, r5, #2
	mov	r6, #0
.L2060:
	sub	r3, r5, #1
	ldr	r1, .L2077+12
	mov	r0, #7
	mov	lr, r3, asl #5
	mov	r2, r3
	sub	r3, lr, r3, asl #2
	add	ip, ip, r3
	str	r6, [ip, #24]
	ldr	ip, [r4, #232]
	add	ip, ip, r3
	ldr	lr, [ip, #16]
	str	lr, [ip, #28]
	ldr	ip, [r4, #232]
	add	ip, ip, r3
	ldr	lr, [ip, #12]
	mov	lr, lr, asl #3
	str	lr, [ip, #20]
	ldr	ip, [r4, #232]
	add	ip, ip, r3
	ldr	lr, [ip, #28]
	ldr	r8, [ip, #24]
	and	lr, lr, #3
	add	lr, r8, lr, lsl #3
	str	lr, [ip, #24]
	ldr	ip, [r4, #232]
	add	ip, ip, r3
	ldr	lr, [ip, #28]
	bic	lr, lr, #3
	str	lr, [ip, #28]
	ldr	ip, [r4, #232]
	ldr	r8, [r7, #68]
	add	ip, ip, r3
	ldr	r3, [ip, #24]
	ldr	ip, [ip, #20]
	str	ip, [sp]
	blx	r8
	ldr	ip, [r4, #232]
	ldr	r3, [ip, #68]
	cmp	r5, #1
	cmpls	r5, r3
	add	r5, r5, #1
	movcc	r2, #1
	movcs	r2, #0
	cmp	r2, #0
	bne	.L2060
	sub	r3, r3, #1
.L2059:
	mov	r2, r3, asl #5
	ldr	r1, [ip, #72]
	sub	r3, r2, r3, asl #2
	add	ip, ip, r3
	ldr	r3, [ip, #20]
	rsb	r3, r1, r3
	str	r3, [ip, #20]
	ldr	ip, [r4, #232]
	ldrb	r1, [ip]	@ zero_extendqisi2
	ldr	r3, [ip, #68]
	cmp	r1, r3
	bcs	.L2054
	sxth	r3, r1
	add	r4, r4, #11141120
	add	r4, r4, #8192
	mov	r2, r3, asl #5
	sub	r3, r2, r3, asl #2
	add	r3, ip, r3
.L2064:
	ldr	r2, [r3, #28]
	add	r1, r1, #1
	ldr	r0, [r4, #2184]
	add	r3, r3, #28
	cmp	r2, r0
	strcc	r2, [r4, #2184]
	ldr	r2, [ip, #68]
	cmp	r2, r1
	bhi	.L2064
.L2054:
	sub	sp, fp, #32
	ldmfd	sp, {r4, r5, r6, r7, r8, fp, sp, pc}
.L2076:
	ldr	r3, [r7, #68]
	mov	r0, #0
	ldr	r1, .L2077+16
	sub	sp, fp, #32
	ldmfd	sp, {r4, r5, r6, r7, r8, fp, sp, lr}
	bx	r3
.L2066:
	mov	r5, r6
	b	.L2056
.L2078:
	.align	2
.L2077:
	.word	vfmw_Osal_Func_Ptr_S
	.word	.LC138
	.word	.LC139
	.word	.LC141
	.word	.LC140
	UNWIND(.fnend)
	.size	MVC_CalcStreamBits, .-MVC_CalcStreamBits
	.align	2
	.global	MVC_Scaling_List
	.type	MVC_Scaling_List, %function
MVC_Scaling_List:
	UNWIND(.fnstart)
	@ args = 4, pretend = 0, frame = 8
	@ frame_needed = 1, uses_anonymous_args = 0
	UNWIND(.movsp ip)
	mov	ip, sp
	stmfd	sp!, {r4, r5, r6, r7, r8, r9, r10, fp, ip, lr, pc}
	UNWIND(.pad #4)
	UNWIND(.save {r4, r5, r6, r7, r8, r9, r10, fp, ip, lr})
	UNWIND(.setfp fp, ip, #-4)
	sub	fp, ip, #4
	UNWIND(.pad #12)
	sub	sp, sp, #12
	subs	r7, r3, #0
	str	r0, [fp, #-52]
	mov	r9, r1
	ble	.L2079
	mov	r3, r7
	mov	r1, #8
	mov	r6, r9
	ldr	r8, .L2090
	mov	r5, r1
	mov	r4, #0
	mov	r10, #255
	mov	r7, r2
	mov	r9, r3
	b	.L2084
.L2083:
	mov	lr, ip, lsr #2
	and	r3, ip, #3
	str	r5, [r6, ip, asl #2]
	uxtb	r0, r5
	mov	ip, r3, asl #3
	ldr	r3, [r7, lr, asl #2]
	cmp	r4, r9
	bic	r3, r3, r10, asl ip
	orr	r0, r3, r0, asl ip
	str	r0, [r7, lr, asl #2]
	beq	.L2079
.L2084:
	cmp	r9, #16
	ldreq	r3, .L2090+4
	ldrneb	ip, [r4, r8]	@ zero_extendqisi2
	ldreqb	ip, [r4, r3]	@ zero_extendqisi2
	cmp	r1, #0
	add	r4, r4, #1
	beq	.L2083
	ldr	r1, .L2090+8
	ldr	r0, [fp, #-52]
	str	ip, [fp, #-48]
	bl	mvc_se_v
	ldr	r2, [fp, #4]
	ldr	ip, [fp, #-48]
	add	r0, r5, r0
	add	r0, r0, #256
	mov	r1, r0, asr #31
	mov	lr, r1, lsr #24
	add	r0, r0, lr
	uxtb	r0, r0
	rsb	r3, lr, r0
	rsb	r1, lr, r0
	clz	r3, r3
	mov	r3, r3, lsr #5
	cmp	r3, #0
	moveq	r5, r1
	cmp	ip, #0
	movne	r3, #0
	andeq	r3, r3, #1
	str	r3, [r2]
	b	.L2083
.L2079:
	sub	sp, fp, #40
	ldmfd	sp, {r4, r5, r6, r7, r8, r9, r10, fp, sp, pc}
.L2091:
	.align	2
.L2090:
	.word	.LANCHOR0+16
	.word	.LANCHOR0
	.word	.LC142
	UNWIND(.fnend)
	.size	MVC_Scaling_List, .-MVC_Scaling_List
	.align	2
	.global	MVC_ProcessPPS
	.type	MVC_ProcessPPS, %function
MVC_ProcessPPS:
	UNWIND(.fnstart)
	@ args = 0, pretend = 0, frame = 32
	@ frame_needed = 1, uses_anonymous_args = 0
	UNWIND(.movsp ip)
	mov	ip, sp
	stmfd	sp!, {r4, r5, r6, r7, r8, r9, r10, fp, ip, lr, pc}
	UNWIND(.pad #4)
	UNWIND(.save {r4, r5, r6, r7, r8, r9, r10, fp, ip, lr})
	UNWIND(.setfp fp, ip, #-4)
	sub	fp, ip, #4
	UNWIND(.pad #44)
	sub	sp, sp, #44
	mov	r5, r1
	ldr	r1, .L2150
	mov	r4, r0
	bl	mvc_u_1
	strb	r0, [r5]
	ldrb	r3, [r4, #10]	@ zero_extendqisi2
	cmp	r3, #0
	bne	.L2141
	ldr	r1, .L2150+4
	mov	r0, r4
	bl	mvc_u_1
	strb	r0, [r5, #1]
	ldrb	r3, [r4, #10]	@ zero_extendqisi2
	cmp	r3, #0
	bne	.L2141
	ldr	r1, .L2150+8
	mov	r0, r4
	bl	mvc_ue_v
	cmp	r0, #0
	str	r0, [r5, #32]
	bne	.L2096
	ldrb	r3, [r4, #10]	@ zero_extendqisi2
	cmp	r3, #0
	beq	.L2097
.L2096:
	ldr	r3, .L2150+12
	mov	r0, #1
	ldr	r1, .L2150+16
	ldr	r3, [r3, #68]
	blx	r3
	ldr	r3, .L2150+20
	ldr	ip, [r3]
	cmp	ip, #0
	beq	.L2141
	mov	r3, #0
	ldr	r0, [r4, #120]
	mov	r2, r3
	mov	r1, #102
	blx	ip
	mvn	r0, #0
.L2094:
	sub	sp, fp, #40
	ldmfd	sp, {r4, r5, r6, r7, r8, r9, r10, fp, sp, pc}
.L2104:
	ldr	r1, .L2150+24
	mov	r0, r4
	bl	mvc_u_1
	ldr	r1, .L2150+28
	str	r0, [r5, #60]
	mov	r0, r4
	bl	mvc_u_1
	uxtb	r0, r0
	strb	r0, [r5, #18]
	cmp	r0, #1
	beq	.L2105
.L2123:
	ldr	r1, .L2150+32
	mov	r0, r4
	bl	mvc_se_v
	add	r3, r0, #12
	str	r0, [r5, #56]
	cmp	r3, #24
	bhi	.L2106
	ldrb	r3, [r4, #10]	@ zero_extendqisi2
	cmp	r3, #0
	beq	.L2124
.L2106:
	ldr	r3, .L2150+12
	mov	r0, #1
	ldr	r1, .L2150+36
	ldr	r3, [r3, #68]
	blx	r3
.L2141:
	mvn	r0, #0
	sub	sp, fp, #40
	ldmfd	sp, {r4, r5, r6, r7, r8, r9, r10, fp, sp, pc}
.L2097:
	ldr	r1, .L2150+40
	mov	r0, r4
	bl	mvc_ue_v
	cmp	r0, #31
	str	r0, [r5, #36]
	bhi	.L2098
	ldrb	r3, [r4, #10]	@ zero_extendqisi2
	cmp	r3, #0
	bne	.L2098
	ldr	r1, .L2150+44
	mov	r0, r4
	bl	mvc_ue_v
	cmp	r0, #31
	str	r0, [r5, #40]
	bhi	.L2100
	ldrb	r3, [r4, #10]	@ zero_extendqisi2
	cmp	r3, #0
	bne	.L2100
	ldr	r1, .L2150+48
	mov	r0, r4
	bl	mvc_u_1
	strb	r0, [r5, #2]
	ldrb	r3, [r4, #10]	@ zero_extendqisi2
	cmp	r3, #0
	bne	.L2141
	ldr	r2, .L2150+52
	mov	r1, #2
	mov	r0, r4
	bl	mvc_u_v
	cmp	r0, #2
	str	r0, [r5, #44]
	bhi	.L2142
	ldr	r1, .L2150+56
	mov	r0, r4
	bl	mvc_se_v
	ldr	r1, .L2150+60
	str	r0, [r5, #48]
	mov	r0, r4
	bl	mvc_se_v
	ldr	r1, .L2150+64
	mov	r0, r4
	bl	mvc_se_v
	ldr	r1, .L2150+68
	str	r0, [r5, #52]
	mov	r0, r4
	bl	mvc_u_1
	ldr	r1, .L2150+72
	strb	r0, [r5, #3]
	mov	r0, r4
	bl	mvc_u_1
	ldr	r1, .L2150+76
	strb	r0, [r5, #4]
	mov	r0, r4
	bl	mvc_u_1
	uxtb	r0, r0
	strb	r0, [r5, #17]
	cmp	r0, #0
	bne	.L2143
.L2103:
	ldr	r3, [r5, #52]
	mov	r6, #0
	add	r0, r4, #548
	str	r6, [r5, #60]
	strb	r6, [r5, #18]
	str	r3, [r5, #56]
	bl	BsResidBits
	ldr	r3, [r4, #232]
	ldr	r3, [r3, #72]
	add	r3, r3, #3
	cmp	r0, r3
	bcs	.L2104
.L2124:
	mov	r0, #0
	sub	sp, fp, #40
	ldmfd	sp, {r4, r5, r6, r7, r8, r9, r10, fp, sp, pc}
.L2143:
	ldr	r3, .L2150+12
	mov	r0, #1
	ldr	r1, .L2150+80
	ldr	r3, [r3, #68]
	blx	r3
	b	.L2103
.L2098:
	ldr	r3, .L2150+12
	mov	r0, #1
	ldr	r1, .L2150+84
	ldr	r3, [r3, #68]
	blx	r3
	mvn	r0, #0
	b	.L2094
.L2100:
	ldr	r3, .L2150+12
	mov	r0, #1
	ldr	r1, .L2150+88
	ldr	r3, [r3, #68]
	blx	r3
	mvn	r0, #0
	b	.L2094
.L2105:
	sub	r8, fp, #72
	add	r10, r5, #4
	add	r7, r5, #2016
	add	r9, r5, #64
	b	.L2114
.L2147:
	ldr	lr, [r5, #28]
	ldr	r3, [r4, #248]
	mla	r3, ip, lr, r3
	ldrb	ip, [r3, #27]	@ zero_extendqisi2
	cmp	ip, #1
	beq	.L2144
	ldr	r3, .L2150+92
	cmp	r1, #0
	add	ip, r3, #16
	moveq	r3, ip
	mov	r1, r3
	ldr	r3, .L2150+12
	ldr	r3, [r3, #52]
	blx	r3
.L2109:
	add	r6, r6, #1
	add	r7, r7, #16
	cmp	r6, #6
	add	r9, r9, #64
	beq	.L2145
.L2114:
	ldr	r1, .L2150+96
	mov	r0, r4
	bl	mvc_u_1
	movw	ip, #3992
	clz	r1, r6
	mov	r2, #16
	cmp	r0, #1
	mov	r3, r0
	mov	r0, r7
	str	r3, [r8, #4]!
	strb	r3, [r10, #1]!
	beq	.L2146
	cmp	r6, #0
	cmpne	r6, #3
	mov	r1, r1, lsr #5
	beq	.L2147
	ldr	r3, .L2150+12
	mov	r2, #16
	sub	r1, r7, #16
	mov	r0, r7
	ldr	r3, [r3, #52]
	blx	r3
	b	.L2109
.L2145:
	add	r8, r5, #2112
	add	r10, r5, #448
	sub	r7, fp, #76
	add	r9, r5, #11
	mov	r6, #0
.L2122:
	ldr	r2, [r5, #60]
	mov	r3, #0
	cmp	r2, #1
	strne	r3, [r7]
	strneb	r3, [r9]
	beq	.L2148
.L2117:
	ldr	r1, [r4, #248]
	movw	ip, #3992
	ldr	r3, [r5, #28]
	mov	r0, r8
	mov	r2, #64
	mla	r3, ip, r3, r1
	ldrb	r1, [r3, #27]	@ zero_extendqisi2
	cmp	r1, #1
	beq	.L2149
	ldr	r1, .L2150+100
	cmp	r6, #0
	ldr	r3, .L2150+12
	add	ip, r1, #64
	ldr	r3, [r3, #52]
	movne	r1, ip
	blx	r3
.L2118:
	add	r6, r6, #1
	add	r8, r8, #64
	cmp	r6, #2
	add	r10, r10, #256
	add	r7, r7, #4
	add	r9, r9, #1
	bne	.L2122
	b	.L2123
.L2146:
	mov	r3, r2
	str	r8, [sp]
	mov	r2, r7
	mov	r1, r9
	mov	r0, r4
	bl	MVC_Scaling_List
	ldr	r3, [r8]
	cmp	r3, #1
	bne	.L2109
	ldr	r1, .L2150+92
	mov	r2, #16
	ldr	r3, .L2150+12
	cmp	r6, #2
	add	r0, r1, r2
	ldr	r3, [r3, #52]
	movhi	r1, r0
	mov	r0, r7
	blx	r3
	b	.L2109
.L2144:
	ldr	r2, .L2150+12
	add	r1, r6, #167
	mov	r0, r7
	add	r1, r3, r1, lsl #4
	ldr	ip, [r2, #52]
	mov	r2, #16
	blx	ip
	b	.L2109
.L2142:
	ldr	r3, .L2150+12
	mov	r0, #1
	ldr	r1, .L2150+104
	ldr	r3, [r3, #68]
	blx	r3
	mvn	r0, #0
	b	.L2094
.L2148:
	ldr	r1, .L2150+108
	mov	r0, r4
	bl	mvc_u_1
	mov	r2, r8
	mov	r1, r10
	mov	r3, #64
	mov	ip, r0
	cmp	ip, #1
	mov	r0, r4
	str	ip, [r7]
	strb	ip, [r9]
	bne	.L2117
	str	r7, [sp]
	bl	MVC_Scaling_List
	ldr	r3, [r7]
	cmp	r3, #1
	bne	.L2118
	ldr	r1, .L2150+100
	mov	r2, #64
	ldr	r3, .L2150+12
	cmp	r6, #0
	add	r0, r1, r2
	ldr	r3, [r3, #52]
	movne	r1, r0
	mov	r0, r8
	blx	r3
	b	.L2118
.L2149:
	add	r1, r3, r6, lsl #6
	ldr	r3, .L2150+12
	add	r1, r1, #2768
	ldr	ip, [r3, #52]
	blx	ip
	b	.L2118
.L2151:
	.align	2
.L2150:
	.word	.LC143
	.word	.LC144
	.word	.LC145
	.word	vfmw_Osal_Func_Ptr_S
	.word	.LC146
	.word	g_event_report
	.word	.LC161
	.word	.LC162
	.word	.LC163
	.word	.LC166
	.word	.LC147
	.word	.LC149
	.word	.LC151
	.word	.LC152
	.word	.LC154
	.word	.LC155
	.word	.LC156
	.word	.LC157
	.word	.LC158
	.word	.LC159
	.word	.LC160
	.word	.LC148
	.word	.LC150
	.word	.LANCHOR1
	.word	.LC164
	.word	.LANCHOR1+32
	.word	.LC153
	.word	.LC165
	UNWIND(.fnend)
	.size	MVC_ProcessPPS, .-MVC_ProcessPPS
	.align	2
	.global	MVC_PPSEqual
	.type	MVC_PPSEqual, %function
MVC_PPSEqual:
	UNWIND(.fnstart)
	@ args = 0, pretend = 0, frame = 24
	@ frame_needed = 1, uses_anonymous_args = 0
	UNWIND(.movsp ip)
	mov	ip, sp
	stmfd	sp!, {r4, r5, r6, r7, r8, r9, r10, fp, ip, lr, pc}
	UNWIND(.pad #4)
	UNWIND(.save {r4, r5, r6, r7, r8, r9, r10, fp, ip, lr})
	UNWIND(.setfp fp, ip, #-4)
	sub	fp, ip, #4
	UNWIND(.pad #28)
	sub	sp, sp, #28
	subs	r6, r0, #0
	ldreq	ip, .L2181
	movweq	r3, #10246
	beq	.L2179
	cmp	r1, #0
	beq	.L2180
	ldr	r2, [r1, #28]
	ldr	r0, [r6, #28]
	ldr	r3, [r6, #24]
	ldr	ip, [r1, #24]
	ldrb	lr, [r6]	@ zero_extendqisi2
	cmp	r0, r2
	cmpeq	r3, ip
	ldrb	r4, [r1]	@ zero_extendqisi2
	ldrb	ip, [r6, #1]	@ zero_extendqisi2
	ldrb	r5, [r1, #1]	@ zero_extendqisi2
	moveq	r2, #1
	movne	r2, #0
	ldr	r0, [r6, #36]
	cmp	lr, r4
	movne	r3, #0
	andeq	r3, r2, #1
	ldr	r4, [r1, #36]
	cmp	ip, r5
	movne	lr, #0
	andeq	lr, r3, #1
	ldr	r2, [r6, #40]
	ldr	r5, [r1, #40]
	cmp	r0, r4
	movne	ip, #0
	andeq	ip, lr, #1
	ldrb	r3, [r6, #2]	@ zero_extendqisi2
	ldrb	r4, [r1, #2]	@ zero_extendqisi2
	cmp	r2, r5
	movne	r0, #0
	andeq	r0, ip, #1
	ldr	lr, [r6, #44]
	ldr	r5, [r1, #44]
	cmp	r3, r4
	movne	r2, #0
	andeq	r2, r0, #1
	ldr	ip, [r6, #48]
	ldr	r4, [r1, #48]
	cmp	lr, r5
	movne	r3, #0
	andeq	r3, r2, #1
	ldr	r0, [r6, #52]
	ldr	r5, [r1, #52]
	cmp	ip, r4
	movne	lr, #0
	andeq	lr, r3, #1
	ldrb	r2, [r6, #3]	@ zero_extendqisi2
	ldrb	r4, [r1, #3]	@ zero_extendqisi2
	cmp	r0, r5
	movne	ip, #0
	andeq	ip, lr, #1
	ldrb	r3, [r6, #4]	@ zero_extendqisi2
	ldrb	lr, [r1, #4]	@ zero_extendqisi2
	cmp	r2, r4
	movne	r0, #0
	andeq	r0, ip, #1
	ldr	ip, [r6, #60]
	ldr	r4, [r1, #60]
	cmp	r3, lr
	movne	r2, #0
	andeq	r2, r0, #1
	ldrb	r0, [r6, #18]	@ zero_extendqisi2
	ldrb	lr, [r1, #18]	@ zero_extendqisi2
	cmp	ip, r4
	movne	r3, #0
	andeq	r3, r2, #1
	cmp	lr, r0
	movne	r3, #0
	andeq	r3, r3, #1
	cmp	r0, #0
	beq	.L2156
	mov	ip, ip, asl #1
	adds	r2, ip, #6
	str	r2, [fp, #-56]
	beq	.L2156
	add	r2, r6, #4
	sub	r9, r1, #1088
	str	r2, [fp, #-52]
	add	r2, r1, #4
	str	r2, [fp, #-48]
	add	r2, r1, #64
	sub	r9, r9, #4
	add	r7, r1, #1984
	add	r8, r6, #1984
	mov	r10, r6
	mov	r5, r6
	str	r6, [fp, #-60]
	mov	r0, #0
	mov	r6, r2
	str	r1, [fp, #-64]
.L2161:
	ldr	r1, [fp, #-52]
	ldrb	r2, [r1, #1]!	@ zero_extendqisi2
	str	r1, [fp, #-52]
	ldr	r1, [fp, #-48]
	ldrsb	ip, [r1, #1]!
	str	r1, [fp, #-48]
	sxtb	r1, r2
	cmp	ip, r1
	movne	r3, #0
	andeq	r3, r3, #1
	cmp	r2, #0
	beq	.L2178
	ldr	r2, [r8]
	ldr	r1, [r7]
	cmp	r2, r1
	movne	r3, #0
	andeq	r3, r3, #1
	cmp	r0, #5
	bhi	.L2158
	cmp	r2, #0
	add	r4, r10, #64
	bne	.L2157
	add	r10, r10, #128
	mov	r1, r6
	mov	r2, r4
.L2159:
	ldr	lr, [r2], #4
	ldr	ip, [r1], #4
	cmp	lr, ip
	movne	r3, #0
	andeq	r3, r3, #1
	cmp	r2, r10
	bne	.L2159
.L2157:
	ldr	r2, [fp, #-56]
	add	r0, r0, #1
	add	r8, r8, #4
	add	r7, r7, #4
	cmp	r0, r2
	add	r5, r5, #256
	add	r9, r9, #256
	mov	r10, r4
	add	r6, r6, #64
	bne	.L2161
	ldr	r6, [fp, #-60]
	ldr	r1, [fp, #-64]
.L2156:
	ldr	r0, [r6, #56]
	ldr	r2, [r1, #56]
	cmp	r0, r2
	movne	r0, #0
	andeq	r0, r3, #1
	eor	r0, r0, #1
	rsb	r0, r0, #0
.L2154:
	sub	sp, fp, #40
	ldmfd	sp, {r4, r5, r6, r7, r8, r9, r10, fp, sp, pc}
.L2158:
	cmp	r2, #0
	bne	.L2178
	sub	r2, r5, #1088
	sub	r4, r5, #836
	sub	r2, r2, #4
	mov	r1, r9
.L2160:
	ldr	lr, [r2, #4]!
	ldr	ip, [r1, #4]!
	cmp	lr, ip
	movne	r3, #0
	andeq	r3, r3, #1
	cmp	r2, r4
	bne	.L2160
.L2178:
	add	r4, r10, #64
	b	.L2157
.L2180:
	ldr	ip, .L2181
	mov	r0, r1
	movw	r3, #10247
.L2179:
	ldr	r2, .L2181+4
	ldr	r1, .L2181+8
	ldr	ip, [ip, #68]
	blx	ip
	mvn	r0, #0
	b	.L2154
.L2182:
	.align	2
.L2181:
	.word	vfmw_Osal_Func_Ptr_S
	.word	.LC13
	.word	.LC14
	UNWIND(.fnend)
	.size	MVC_PPSEqual, .-MVC_PPSEqual
	.align	2
	.global	MVC_DecPPS
	.type	MVC_DecPPS, %function
MVC_DecPPS:
	UNWIND(.fnstart)
	@ args = 0, pretend = 0, frame = 8
	@ frame_needed = 1, uses_anonymous_args = 0
	UNWIND(.movsp ip)
	mov	ip, sp
	stmfd	sp!, {r4, r5, r6, r7, r8, fp, ip, lr, pc}
	UNWIND(.pad #4)
	UNWIND(.save {r4, r5, r6, r7, r8, fp, ip, lr})
	UNWIND(.setfp fp, ip, #-4)
	sub	fp, ip, #4
	UNWIND(.pad #12)
	sub	sp, sp, #12
	ldr	r1, .L2198
	mov	r4, r0
	bl	mvc_ue_v
	ldr	r3, [r4, #40]
	sub	r3, r3, #1
	cmp	r0, r3
	mov	r5, r0
	bls	.L2184
	ldr	r3, .L2198+4
	mov	r2, r0
	ldr	r1, .L2198+8
	mov	r0, #1
	ldr	r3, [r3, #68]
	blx	r3
	ldr	r2, [r4, #40]
	sub	r3, r2, #1
	cmp	r5, r3
	bls	.L2191
	ldr	r3, .L2198+12
	ldr	ip, [r3]
	cmp	ip, #0
	beq	.L2191
	str	r2, [fp, #-40]
	mov	r3, #8
	str	r5, [fp, #-44]
	sub	r2, fp, #44
	ldr	r0, [r4, #120]
	mov	r1, #110
	blx	ip
	mvn	r0, #0
.L2185:
	sub	sp, fp, #32
	ldmfd	sp, {r4, r5, r6, r7, r8, fp, sp, pc}
.L2184:
	ldr	r1, .L2198+16
	mov	r0, r4
	bl	mvc_ue_v
	ldr	r3, [r4, #36]
	sub	r3, r3, #1
	cmp	r0, r3
	mov	ip, r0
	bhi	.L2195
	mov	r8, #2240
	ldr	r3, [r4, #252]
	mul	r6, r8, r5
	add	r3, r3, r6
	ldrb	r7, [r3, #19]	@ zero_extendqisi2
	cmp	r7, #0
	beq	.L2187
	ldr	r7, .L2198+20
	mov	r0, r4
	mov	r1, r7
	str	r5, [r7, #24]
	str	ip, [r7, #28]
	bl	MVC_ProcessPPS
	subs	r5, r0, #0
	bne	.L2196
	ldr	r1, [r4, #252]
	mov	r0, r7
	add	r1, r1, r6
	bl	MVC_PPSEqual
	cmp	r0, #0
	beq	.L2185
	ldr	ip, .L2198+4
	mov	r3, #1
	ldr	r0, [r4, #252]
	mov	r2, r8
	mov	r1, r7
	strb	r3, [r7, #20]
	add	r0, r0, r6
	ldr	ip, [ip, #56]
	strb	r3, [r7, #19]
	blx	ip
	mov	r0, r5
	b	.L2185
.L2187:
	str	r5, [r3, #24]
	mov	r0, r4
	ldr	r3, [r4, #252]
	add	r3, r3, r6
	str	ip, [r3, #28]
	ldr	r1, [r4, #252]
	add	r1, r1, r6
	bl	MVC_ProcessPPS
	cmp	r0, #0
	bne	.L2197
	ldr	r3, [r4, #252]
	mov	r2, #1
	add	r3, r3, r6
	strb	r2, [r3, #20]
	ldr	r3, [r4, #252]
	add	r6, r3, r6
	strb	r2, [r6, #19]
	sub	sp, fp, #32
	ldmfd	sp, {r4, r5, r6, r7, r8, fp, sp, pc}
.L2191:
	mvn	r0, #0
	sub	sp, fp, #32
	ldmfd	sp, {r4, r5, r6, r7, r8, fp, sp, pc}
.L2195:
	ldr	r3, .L2198+4
	mov	r0, #1
	ldr	r1, .L2198+24
	ldr	r3, [r3, #68]
	blx	r3
	mvn	r0, #0
	b	.L2185
.L2196:
	ldr	r3, .L2198+4
	movw	r2, #10010
	ldr	r1, .L2198+28
	mov	r0, #1
	ldr	r3, [r3, #68]
	blx	r3
	mvn	r0, #0
	b	.L2185
.L2197:
	ldr	r3, .L2198+4
	movw	r2, #10030
	ldr	r1, .L2198+28
	mov	r0, #1
	ldr	r3, [r3, #68]
	blx	r3
	ldr	r3, [r4, #252]
	mov	r2, #1
	mvn	r0, #0
	add	r3, r3, r6
	strb	r2, [r3, #20]
	ldr	r3, [r4, #252]
	add	r6, r3, r6
	strb	r7, [r6, #19]
	b	.L2185
.L2199:
	.align	2
.L2198:
	.word	.LC167
	.word	vfmw_Osal_Func_Ptr_S
	.word	.LC168
	.word	g_event_report
	.word	.LC169
	.word	.LANCHOR2
	.word	.LC170
	.word	.LC171
	UNWIND(.fnend)
	.size	MVC_DecPPS, .-MVC_DecPPS
	.align	2
	.global	mvc_vui_parameters
	.type	mvc_vui_parameters, %function
mvc_vui_parameters:
	UNWIND(.fnstart)
	@ args = 0, pretend = 0, frame = 0
	@ frame_needed = 1, uses_anonymous_args = 0
	UNWIND(.movsp ip)
	mov	ip, sp
	stmfd	sp!, {r4, r5, r6, r7, r8, r9, fp, ip, lr, pc}
	UNWIND(.pad #4)
	UNWIND(.save {r4, r5, r6, r7, r8, r9, fp, ip, lr})
	UNWIND(.setfp fp, ip, #-4)
	sub	fp, ip, #4
	mov	r5, r1
	ldr	r1, .L2250
	mov	r4, r0
	bl	mvc_u_1
	uxtb	r0, r0
	strb	r0, [r5]
	cmp	r0, #0
	streqb	r0, [r5, #15]
	bne	.L2244
.L2202:
	ldr	r1, .L2250+4
	mov	r0, r4
	bl	mvc_u_1
	uxtb	r0, r0
	strb	r0, [r5, #1]
	cmp	r0, #0
	bne	.L2245
.L2203:
	ldr	r1, .L2250+8
	mov	r0, r4
	bl	mvc_u_1
	uxtb	r0, r0
	strb	r0, [r5, #3]
	cmp	r0, #0
	moveq	r3, #5
	streq	r3, [r5, #28]
	bne	.L2246
.L2205:
	ldr	r1, .L2250+12
	mov	r0, r4
	bl	mvc_u_1
	uxtb	r0, r0
	strb	r0, [r5, #6]
	cmp	r0, #0
	bne	.L2247
.L2206:
	ldr	r1, .L2250+16
	mov	r0, r4
	bl	mvc_u_1
	uxtb	r0, r0
	strb	r0, [r5, #8]
	cmp	r0, #0
	bne	.L2248
.L2208:
	ldr	r1, .L2250+20
	mov	r0, r4
	bl	mvc_u_1
	uxtb	r0, r0
	strb	r0, [r5, #7]
	cmp	r0, #0
	beq	.L2210
	ldr	r1, .L2250+24
	mov	r0, r4
	bl	mvc_ue_v
	ldr	r2, .L2250+28
	mov	r1, #4
	str	r0, [r5, #96]
	mov	r0, r4
	bl	mvc_u_v
	ldr	r2, .L2250+32
	mov	r1, #4
	strb	r0, [r5, #92]
	mov	r0, r4
	bl	mvc_u_v
	ldr	r3, [r5, #96]
	cmp	r3, #31
	strb	r0, [r5, #93]
	bhi	.L2216
	ldrb	r6, [r4, #10]	@ zero_extendqisi2
	cmp	r6, #0
	addeq	r7, r5, #96
	addeq	r8, r5, #59
	bne	.L2216
.L2214:
	ldr	r1, .L2250+36
	mov	r0, r4
	bl	mvc_ue_v
	ldr	r1, .L2250+40
	add	r6, r6, #1
	str	r0, [r7, #4]!
	mov	r0, r4
	bl	mvc_ue_v
	ldr	r1, .L2250+44
	str	r0, [r7, #128]
	mov	r0, r4
	bl	mvc_u_1
	strb	r0, [r8, #1]!
	ldr	r3, [r5, #96]
	cmp	r3, r6
	bcs	.L2214
	ldr	r2, .L2250+48
	mov	r1, #5
	mov	r0, r4
	bl	mvc_u_v
	ldr	r2, .L2250+52
	mov	r1, #5
	str	r0, [r5, #356]
	mov	r0, r4
	bl	mvc_u_v
	ldr	r2, .L2250+56
	mov	r1, #5
	str	r0, [r5, #360]
	mov	r0, r4
	bl	mvc_u_v
	ldr	r2, .L2250+60
	mov	r1, #5
	str	r0, [r5, #364]
	mov	r0, r4
	bl	mvc_u_v
	str	r0, [r5, #368]
.L2210:
	ldr	r1, .L2250+64
	mov	r0, r4
	bl	mvc_u_1
	uxtb	r0, r0
	strb	r0, [r5, #10]
	cmp	r0, #0
	bne	.L2249
	ldrb	r3, [r5, #7]	@ zero_extendqisi2
	cmp	r3, #0
	bne	.L2221
.L2220:
	ldr	r1, .L2250+68
	mov	r0, r4
	bl	mvc_u_1
	ldr	r1, .L2250+72
	strb	r0, [r5, #11]
	mov	r0, r4
	bl	mvc_u_1
	uxtb	r0, r0
	strb	r0, [r5, #12]
	cmp	r0, #0
	bne	.L2222
	ldrb	r0, [r4, #10]	@ zero_extendqisi2
.L2223:
	adds	r0, r0, #0
	movne	r0, #1
	rsb	r0, r0, #0
	ldmfd	sp, {r4, r5, r6, r7, r8, r9, fp, sp, pc}
.L2249:
	ldr	r1, .L2250+24
	mov	r0, r4
	bl	mvc_ue_v
	ldr	r2, .L2250+28
	mov	r1, #4
	str	r0, [r5, #408]
	mov	r0, r4
	bl	mvc_u_v
	ldr	r2, .L2250+32
	mov	r1, #4
	strb	r0, [r5, #404]
	mov	r0, r4
	bl	mvc_u_v
	ldr	r3, [r5, #408]
	cmp	r3, #31
	strb	r0, [r5, #405]
	bhi	.L2216
	ldrb	r6, [r4, #10]	@ zero_extendqisi2
	cmp	r6, #0
	addeq	r8, r5, #368
	addeq	r7, r5, #408
	addeq	r8, r8, #3
	bne	.L2216
.L2218:
	ldr	r1, .L2250+36
	mov	r0, r4
	bl	mvc_ue_v
	ldr	r1, .L2250+40
	add	r6, r6, #1
	str	r0, [r7, #4]!
	mov	r0, r4
	bl	mvc_ue_v
	ldr	r1, .L2250+44
	str	r0, [r7, #128]
	mov	r0, r4
	bl	mvc_u_1
	strb	r0, [r8, #1]!
	ldr	r3, [r5, #408]
	cmp	r3, r6
	bcs	.L2218
	ldr	r2, .L2250+48
	mov	r1, #5
	mov	r0, r4
	bl	mvc_u_v
	ldr	r2, .L2250+52
	mov	r1, #5
	str	r0, [r5, #668]
	mov	r0, r4
	bl	mvc_u_v
	ldr	r2, .L2250+56
	mov	r1, #5
	str	r0, [r5, #672]
	mov	r0, r4
	bl	mvc_u_v
	ldr	r2, .L2250+60
	mov	r1, #5
	str	r0, [r5, #676]
	mov	r0, r4
	bl	mvc_u_v
	ldrb	r3, [r5, #7]	@ zero_extendqisi2
	cmp	r3, #0
	str	r0, [r5, #680]
	bne	.L2221
	ldrb	r3, [r5, #10]	@ zero_extendqisi2
	cmp	r3, #0
	beq	.L2220
.L2221:
	ldr	r1, .L2250+76
	mov	r0, r4
	bl	mvc_u_1
	strb	r0, [r5, #14]
	b	.L2220
.L2248:
	ldr	r2, .L2250+80
	mov	r1, #32
	mov	r0, r4
	bl	mvc_u_v
	ldr	r2, .L2250+84
	mov	r1, #32
	str	r0, [r5, #52]
	mov	r0, r4
	bl	mvc_u_v
	ldr	r1, .L2250+88
	str	r0, [r5, #56]
	mov	r0, r4
	bl	mvc_u_1
	uxtb	r0, r0
	strb	r0, [r5, #9]
	cmp	r0, #1
	bne	.L2208
	ldr	r1, [r5, #52]
	cmp	r1, #0
	beq	.L2208
	ldr	r0, [r5, #56]
	bl	__aeabi_uidiv
	mov	r0, r0, lsr #1
	str	r0, [r4, #56]
	b	.L2208
.L2247:
	ldr	r1, .L2250+92
	mov	r0, r4
	bl	mvc_ue_v
	ldr	r1, .L2250+96
	str	r0, [r5, #44]
	mov	r0, r4
	bl	mvc_ue_v
	str	r0, [r5, #48]
	b	.L2206
.L2246:
	ldr	r2, .L2250+100
	mov	r1, #3
	mov	r0, r4
	bl	mvc_u_v
	ldr	r1, .L2250+104
	str	r0, [r5, #28]
	mov	r0, r4
	bl	mvc_u_1
	ldr	r1, .L2250+108
	strb	r0, [r5, #4]
	mov	r0, r4
	bl	mvc_u_1
	uxtb	r0, r0
	strb	r0, [r5, #5]
	cmp	r0, #0
	beq	.L2205
	ldr	r2, .L2250+112
	mov	r1, #8
	mov	r0, r4
	bl	mvc_u_v
	ldr	r2, .L2250+116
	mov	r1, #8
	str	r0, [r5, #32]
	mov	r0, r4
	bl	mvc_u_v
	ldr	r2, .L2250+120
	mov	r1, #8
	str	r0, [r5, #36]
	mov	r0, r4
	bl	mvc_u_v
	str	r0, [r5, #40]
	b	.L2205
.L2245:
	ldr	r1, .L2250+124
	mov	r0, r4
	bl	mvc_u_1
	strb	r0, [r5, #2]
	b	.L2203
.L2244:
	ldr	r2, .L2250+128
	mov	r1, #8
	mov	r0, r4
	bl	mvc_u_v
	uxtb	r0, r0
	strb	r0, [r5, #15]
	cmp	r0, #255
	bne	.L2202
	ldr	r2, .L2250+132
	mov	r1, #16
	mov	r0, r4
	bl	mvc_u_v
	ldr	r2, .L2250+136
	mov	r1, #16
	str	r0, [r5, #16]
	mov	r0, r4
	bl	mvc_u_v
	str	r0, [r5, #20]
	b	.L2202
.L2222:
	ldr	r1, .L2250+140
	mov	r0, r4
	bl	mvc_u_1
	ldr	r1, .L2250+144
	strb	r0, [r5, #13]
	mov	r0, r4
	bl	mvc_ue_v
	ldr	r1, .L2250+148
	str	r0, [r5, #684]
	mov	r0, r4
	bl	mvc_ue_v
	ldr	r1, .L2250+152
	str	r0, [r5, #688]
	mov	r0, r4
	bl	mvc_ue_v
	ldr	r1, .L2250+156
	str	r0, [r5, #696]
	mov	r0, r4
	bl	mvc_ue_v
	ldr	r1, .L2250+160
	str	r0, [r5, #692]
	mov	r0, r4
	bl	mvc_ue_v
	ldr	r1, .L2250+164
	str	r0, [r5, #700]
	mov	r0, r4
	bl	mvc_ue_v
	str	r0, [r5, #704]
	ldrb	r0, [r4, #10]	@ zero_extendqisi2
	cmp	r0, #0
	beq	.L2223
	mvn	r0, #0
	ldmfd	sp, {r4, r5, r6, r7, r8, r9, fp, sp, pc}
.L2216:
	ldr	r3, .L2250+168
	mov	r0, #1
	ldr	r1, .L2250+172
	ldr	r3, [r3, #68]
	blx	r3
	mvn	r0, #0
	ldmfd	sp, {r4, r5, r6, r7, r8, r9, fp, sp, pc}
.L2251:
	.align	2
.L2250:
	.word	.LC172
	.word	.LC176
	.word	.LC178
	.word	.LC185
	.word	.LC188
	.word	.LC192
	.word	.LC193
	.word	.LC194
	.word	.LC195
	.word	.LC197
	.word	.LC198
	.word	.LC199
	.word	.LC200
	.word	.LC201
	.word	.LC202
	.word	.LC203
	.word	.LC204
	.word	.LC206
	.word	.LC207
	.word	.LC205
	.word	.LC189
	.word	.LC190
	.word	.LC191
	.word	.LC186
	.word	.LC187
	.word	.LC179
	.word	.LC180
	.word	.LC181
	.word	.LC182
	.word	.LC183
	.word	.LC184
	.word	.LC177
	.word	.LC173
	.word	.LC174
	.word	.LC175
	.word	.LC208
	.word	.LC209
	.word	.LC210
	.word	.LC211
	.word	.LC212
	.word	.LC213
	.word	.LC214
	.word	vfmw_Osal_Func_Ptr_S
	.word	.LC196
	UNWIND(.fnend)
	.size	mvc_vui_parameters, .-mvc_vui_parameters
	.align	2
	.global	MVC_SPSEqual
	.type	MVC_SPSEqual, %function
MVC_SPSEqual:
	UNWIND(.fnstart)
	@ args = 0, pretend = 0, frame = 8
	@ frame_needed = 1, uses_anonymous_args = 0
	UNWIND(.movsp ip)
	mov	ip, sp
	stmfd	sp!, {r4, r5, r6, r7, r8, r9, r10, fp, ip, lr, pc}
	UNWIND(.pad #4)
	UNWIND(.save {r4, r5, r6, r7, r8, r9, r10, fp, ip, lr})
	UNWIND(.setfp fp, ip, #-4)
	sub	fp, ip, #4
	UNWIND(.pad #12)
	sub	sp, sp, #12
	subs	r5, r0, #0
	ldreq	ip, .L2287
	movweq	r3, #10490
	beq	.L2284
	cmp	r1, #0
	beq	.L2285
	ldrb	lr, [r1]	@ zero_extendqisi2
	ldrb	r3, [r5]	@ zero_extendqisi2
	ldr	ip, [r5, #736]
	ldr	r2, [r1, #736]
	ldrb	r0, [r5, #1]	@ zero_extendqisi2
	cmp	r3, lr
	cmpeq	ip, r2
	ldrb	r6, [r1, #1]	@ zero_extendqisi2
	ldrb	r2, [r5, #2]	@ zero_extendqisi2
	ldrb	r4, [r1, #2]	@ zero_extendqisi2
	moveq	lr, #1
	movne	lr, #0
	ldr	r3, [r5, #740]
	cmp	r0, r6
	movne	ip, #0
	andeq	ip, lr, #1
	ldr	r6, [r1, #740]
	cmp	r2, r4
	movne	r0, #0
	andeq	r0, ip, #1
	ldr	lr, [r1, #744]
	ldr	r4, [r5, #744]
	cmp	r3, r6
	movne	r2, #0
	andeq	r2, r0, #1
	ldrb	ip, [r1, #27]	@ zero_extendqisi2
	ldrb	r0, [r5, #27]	@ zero_extendqisi2
	cmp	r4, lr
	movne	r3, #0
	andeq	r3, r2, #1
	cmp	ip, r0
	movne	r3, #0
	andeq	r3, r3, #1
	cmp	r0, #0
	beq	.L2256
	add	r0, r1, #5
	add	r2, r5, #5
	sub	r9, r1, #404
	add	r7, r1, #748
	mov	ip, r0
	mov	r8, r5
	mov	r6, r5
	str	r5, [fp, #-48]
	mov	r0, #0
	mov	r4, r2
	mov	r5, ip
	str	r1, [fp, #-52]
.L2261:
	ldrb	r2, [r4, #1]!	@ zero_extendqisi2
	ldrsb	ip, [r5, #1]!
	sxtb	r1, r2
	cmp	ip, r1
	movne	r3, #0
	andeq	r3, r3, #1
	cmp	r2, #0
	beq	.L2257
	cmp	r0, #5
	bhi	.L2258
	add	r2, r6, #748
	add	r10, r6, #812
	mov	r1, r7
.L2259:
	ldr	lr, [r2, #4]!
	ldr	ip, [r1, #4]!
	cmp	lr, ip
	movne	r3, #0
	andeq	r3, r3, #1
	cmp	r2, r10
	bne	.L2259
.L2257:
	add	r0, r0, #1
	add	r8, r8, #256
	cmp	r0, #8
	add	r9, r9, #256
	add	r6, r6, #64
	add	r7, r7, #64
	bne	.L2261
	ldr	r5, [fp, #-48]
	ldr	r1, [fp, #-52]
.L2256:
	ldr	r2, [r1, #2896]
	ldr	ip, [r5, #2900]
	ldr	r0, [r1, #2900]
	ldr	lr, [r5, #2896]
	cmp	ip, r0
	cmpeq	lr, r2
	moveq	r2, #1
	movne	r2, #0
	cmp	ip, #0
	and	r3, r3, r2
	beq	.L2263
	cmp	ip, #1
	bne	.L2262
	ldr	r0, [r1, #2908]
	ldr	ip, [r5, #2908]
	ldrb	r2, [r5, #18]	@ zero_extendqisi2
	ldrb	r6, [r1, #18]	@ zero_extendqisi2
	ldr	r4, [r5, #2912]
	cmp	ip, r0
	cmpeq	r2, r6
	ldr	lr, [r1, #2912]
	ldr	r6, [r5, #2916]
	ldr	ip, [r1, #2916]
	moveq	r0, #1
	movne	r0, #0
	cmp	r4, lr
	movne	r2, #0
	andeq	r2, r0, #1
	cmp	r6, ip
	movne	r2, #0
	andeq	r2, r2, #1
	cmp	r6, #0
	and	r3, r3, r2
	beq	.L2262
	add	ip, r5, #2912
	add	r0, r1, #2912
	add	ip, ip, #4
	add	r0, r0, #4
	mov	r2, #0
.L2265:
	ldr	r4, [ip, #4]!
	add	r2, r2, #1
	ldr	lr, [r0, #4]!
	cmp	r4, lr
	movne	r3, #0
	andeq	r3, r3, #1
	cmp	r2, r6
	bne	.L2265
.L2262:
	ldrb	ip, [r1, #19]	@ zero_extendqisi2
	ldrb	lr, [r5, #19]	@ zero_extendqisi2
	ldr	r0, [r5, #3944]
	ldr	r4, [r1, #3944]
	ldr	r2, [r5, #3948]
	cmp	lr, ip
	cmpeq	r0, r4
	ldr	r7, [r1, #3948]
	ldr	r6, [r5, #3952]
	ldr	r4, [r1, #3952]
	moveq	ip, #1
	movne	ip, #0
	ldrb	lr, [r1, #20]	@ zero_extendqisi2
	cmp	r2, r7
	movne	r0, #0
	andeq	r0, ip, #1
	ldrb	ip, [r5, #20]	@ zero_extendqisi2
	cmp	r6, r4
	movne	r2, #0
	andeq	r2, r0, #1
	cmp	lr, ip
	movne	r2, #0
	andeq	r2, r2, #1
	cmp	ip, #0
	and	r3, r3, r2
	bne	.L2266
	ldrb	r0, [r5, #21]	@ zero_extendqisi2
	ldrb	r2, [r1, #21]	@ zero_extendqisi2
	cmp	r0, r2
	movne	r3, #0
	andeq	r3, r3, #1
.L2266:
	ldrb	r2, [r1, #22]	@ zero_extendqisi2
	ldrb	ip, [r5, #23]	@ zero_extendqisi2
	ldrb	r0, [r1, #23]	@ zero_extendqisi2
	ldrb	lr, [r5, #22]	@ zero_extendqisi2
	cmp	r0, ip
	cmpeq	lr, r2
	moveq	r2, #1
	movne	r2, #0
	cmp	ip, #0
	and	r3, r3, r2
	bne	.L2286
.L2267:
	ldrb	r0, [r5, #24]	@ zero_extendqisi2
	ldrb	r2, [r1, #24]	@ zero_extendqisi2
	cmp	r0, r2
	movne	r0, #0
	andeq	r0, r3, #1
	eor	r0, r0, #1
	rsb	r0, r0, #0
.L2254:
	sub	sp, fp, #40
	ldmfd	sp, {r4, r5, r6, r7, r8, r9, r10, fp, sp, pc}
.L2286:
	ldr	ip, [r1, #3960]
	ldr	lr, [r5, #3960]
	ldr	r0, [r5, #3956]
	ldr	r4, [r1, #3956]
	ldr	r2, [r1, #3964]
	cmp	lr, ip
	cmpeq	r0, r4
	ldr	r6, [r5, #3964]
	ldr	r4, [r5, #3968]
	ldr	lr, [r1, #3968]
	moveq	ip, #1
	movne	ip, #0
	cmp	r6, r2
	movne	r0, #0
	andeq	r0, ip, #1
	cmp	r4, lr
	movne	r2, #0
	andeq	r2, r0, #1
	and	r3, r3, r2
	b	.L2267
.L2258:
	sub	r2, r8, #404
	sub	r10, r8, #148
	mov	r1, r9
.L2260:
	ldr	lr, [r2, #4]!
	ldr	ip, [r1, #4]!
	cmp	lr, ip
	movne	r3, #0
	andeq	r3, r3, #1
	cmp	r2, r10
	bne	.L2260
	b	.L2257
.L2263:
	ldr	r0, [r5, #2904]
	ldr	r2, [r1, #2904]
	cmp	r0, r2
	movne	r3, #0
	andeq	r3, r3, #1
	b	.L2262
.L2285:
	ldr	ip, .L2287
	mov	r0, r1
	movw	r3, #10491
.L2284:
	ldr	r2, .L2287+4
	ldr	r1, .L2287+8
	ldr	ip, [ip, #68]
	blx	ip
	mvn	r0, #0
	b	.L2254
.L2288:
	.align	2
.L2287:
	.word	vfmw_Osal_Func_Ptr_S
	.word	.LC13
	.word	.LC14
	UNWIND(.fnend)
	.size	MVC_SPSEqual, .-MVC_SPSEqual
	.global	__aeabi_idiv
	.align	2
	.global	MVC_GetDar
	.type	MVC_GetDar, %function
MVC_GetDar:
	UNWIND(.fnstart)
	@ args = 4, pretend = 0, frame = 0
	@ frame_needed = 1, uses_anonymous_args = 0
	UNWIND(.movsp ip)
	mov	ip, sp
	stmfd	sp!, {r4, r5, fp, ip, lr, pc}
	UNWIND(.pad #4)
	UNWIND(.save {r4, r5, fp, ip, lr})
	UNWIND(.setfp fp, ip, #-4)
	sub	fp, ip, #4
	cmp	r0, #0
	moveq	r4, r0
	beq	.L2290
	subs	lr, r0, #255
	movne	lr, #1
	cmp	r0, #16
	movle	r4, #0
	andgt	r4, lr, #1
	cmp	r4, #0
	movne	r4, #0
	bne	.L2290
	cmp	r2, #0
	cmpne	r1, #0
	moveq	ip, #1
	movne	ip, #0
	cmp	r0, #255
	movne	ip, #0
	andeq	ip, ip, #1
	cmp	ip, #0
	bne	.L2290
	cmp	r0, #1
	moveq	r4, #5
	beq	.L2290
	cmp	lr, #0
	ldrne	r2, .L2312
	addne	r0, r2, r0, lsl #3
	ldrne	r1, [r0, #100]
	ldrne	r2, [r0, #104]
	mul	r0, r3, r1
	ldr	r3, [fp, #4]
	mul	r1, r3, r2
	mov	r0, r0, asl #10
	bl	__aeabi_idiv
	movw	r3, #2405
	movw	r2, #2262
	cmp	r0, r3
	rsble	r3, r0, #2400
	subgt	r3, r0, #2400
	addle	r3, r3, #6
	subgt	r3, r3, #6
	cmp	r0, r2
	bgt	.L2294
	rsb	r2, r0, #2256
	add	r2, r2, #7
	cmp	r3, r2
	bge	.L2295
.L2305:
	mov	r4, #4
.L2290:
	ldr	r3, .L2312+4
	mov	r2, r4
	ldr	r1, .L2312+8
	mov	r0, #22
	ldr	r3, [r3, #68]
	blx	r3
	mov	r0, r4
	ldmfd	sp, {r4, r5, fp, sp, pc}
.L2294:
	sub	r2, r0, #2256
	sub	r2, r2, #7
	cmp	r3, r2
	blt	.L2305
.L2295:
	movw	r3, #1819
	cmp	r0, r3
	bgt	.L2296
	rsb	r3, r0, #1808
	add	r3, r3, #12
	cmp	r2, r3
	blt	.L2307
.L2297:
	movw	r2, #1364
	cmp	r0, r2
	rsble	r0, r0, #1360
	subgt	r0, r0, #1360
	addle	r0, r0, #5
	subgt	r0, r0, #5
	cmp	r3, r0
	movlt	r4, #2
	movge	r4, #1
	b	.L2290
.L2296:
	sub	r3, r0, #1808
	sub	r3, r3, #12
	cmp	r2, r3
	bge	.L2297
.L2307:
	mov	r4, #3
	b	.L2290
.L2313:
	.align	2
.L2312:
	.word	.LANCHOR0
	.word	vfmw_Osal_Func_Ptr_S
	.word	.LC215
	UNWIND(.fnend)
	.size	MVC_GetDar, .-MVC_GetDar
	.align	2
	.global	MVC_ProcessSPS
	.type	MVC_ProcessSPS, %function
MVC_ProcessSPS:
	UNWIND(.fnstart)
	@ args = 0, pretend = 0, frame = 40
	@ frame_needed = 1, uses_anonymous_args = 0
	UNWIND(.movsp ip)
	mov	ip, sp
	stmfd	sp!, {r4, r5, r6, r7, r8, r9, r10, fp, ip, lr, pc}
	UNWIND(.pad #4)
	UNWIND(.save {r4, r5, r6, r7, r8, r9, r10, fp, ip, lr})
	UNWIND(.setfp fp, ip, #-4)
	sub	fp, ip, #4
	UNWIND(.pad #52)
	sub	sp, sp, #52
	subs	r5, r1, #0
	mov	r4, r0
	beq	.L2428
	ldr	r3, [r5, #736]
	cmp	r3, #100
	cmpne	r3, #122
	bic	r1, r3, #16
	sub	r3, r3, #110
	moveq	r2, #1
	movne	r2, #0
	cmp	r1, #128
	orreq	r2, r2, #1
	bics	r3, r3, #8
	orreq	r3, r2, #1
	movne	r3, r2
	cmp	r3, #0
	streqb	r3, [r5, #27]
	moveq	r3, #1
	streq	r3, [r5, #748]
	bne	.L2429
.L2327:
	ldr	r1, .L2443
	mov	r0, r4
	bl	mvc_ue_v
	cmp	r0, #12
	str	r0, [r5, #2896]
	bhi	.L2340
	ldrb	r3, [r4, #10]	@ zero_extendqisi2
	cmp	r3, #0
	bne	.L2340
	ldr	r1, .L2443+4
	mov	r0, r4
	bl	mvc_ue_v
	cmp	r0, #2
	str	r0, [r5, #2900]
	bhi	.L2342
	ldrb	r3, [r4, #10]	@ zero_extendqisi2
	cmp	r3, #0
	bne	.L2342
	cmp	r0, #0
	beq	.L2430
	cmp	r0, #1
	beq	.L2431
.L2348:
	ldr	r1, .L2443+8
	mov	r0, r4
	bl	mvc_ue_v
	str	r0, [r5, #3944]
	ldrb	r3, [r4, #10]	@ zero_extendqisi2
	cmp	r3, #0
	bne	.L2426
	ldr	r1, .L2443+12
	mov	r0, r4
	bl	mvc_u_1
	strb	r0, [r5, #19]
	ldrb	r3, [r4, #10]	@ zero_extendqisi2
	cmp	r3, #0
	bne	.L2426
	ldr	r1, .L2443+16
	mov	r0, r4
	bl	mvc_ue_v
	movw	r7, #509
	sub	r3, r0, #1
	str	r0, [r5, #3948]
	cmp	r3, r7
	bhi	.L2353
	ldrb	r3, [r4, #10]	@ zero_extendqisi2
	cmp	r3, #0
	bne	.L2353
	ldr	r1, .L2443+20
	mov	r0, r4
	bl	mvc_ue_v
	str	r0, [r5, #3952]
	ldrb	r3, [r4, #10]	@ zero_extendqisi2
	cmp	r3, #0
	bne	.L2426
	ldr	r1, .L2443+24
	mov	r0, r4
	bl	mvc_u_1
	uxtb	r0, r0
	strb	r0, [r5, #20]
	ldrb	r3, [r4, #10]	@ zero_extendqisi2
	cmp	r3, #0
	bne	.L2426
	cmp	r0, #0
	bne	.L2432
	ldr	r1, .L2443+28
	mov	r0, r4
	bl	mvc_u_1
	ldr	r6, [r5, #3952]
	add	r6, r6, #1
	cmp	r6, #255
	strb	r0, [r5, #21]
	bhi	.L2386
	ldr	r3, [r5, #3948]
	add	r3, r3, #1
	cmp	r6, #1
	cmphi	r3, #3
	movhi	r8, #2
	bhi	.L2357
.L2386:
	ldr	r3, .L2443+32
	mov	r0, #1
	ldr	r1, .L2443+36
	ldr	r3, [r3, #68]
	blx	r3
	mvn	r0, #0
	b	.L2419
.L2429:
	ldr	r1, .L2443+40
	bl	mvc_ue_v
	cmp	r0, #1
	str	r0, [r5, #748]
	bhi	.L2318
	ldrb	r3, [r4, #10]	@ zero_extendqisi2
	cmp	r3, #0
	bne	.L2318
	ldr	r1, .L2443+44
	mov	r0, r4
	bl	mvc_ue_v
	cmp	r0, #0
	bne	.L2320
	ldrb	r3, [r4, #10]	@ zero_extendqisi2
	cmp	r3, #0
	beq	.L2321
.L2320:
	ldr	r3, .L2443+32
	mov	r0, #1
	ldr	r1, .L2443+48
	ldr	r3, [r3, #68]
	blx	r3
.L2321:
	ldr	r1, .L2443+52
	mov	r0, r4
	bl	mvc_ue_v
	cmp	r0, #0
	bne	.L2322
	ldrb	r3, [r4, #10]	@ zero_extendqisi2
	cmp	r3, #0
	beq	.L2323
.L2322:
	ldr	r3, .L2443+32
	mov	r0, #1
	ldr	r1, .L2443+56
	ldr	r3, [r3, #68]
	blx	r3
.L2323:
	ldr	r1, .L2443+60
	mov	r0, r4
	bl	mvc_u_1
	cmp	r0, #0
	bne	.L2324
	ldrb	r10, [r4, #10]	@ zero_extendqisi2
	cmp	r10, #0
	bne	.L2324
	ldr	r1, .L2443+64
	mov	r0, r4
	bl	mvc_u_1
	uxtb	r0, r0
	strb	r0, [r5, #27]
	cmp	r0, #1
	bne	.L2327
	sub	r7, fp, #72
	add	r9, r5, #5
	add	r6, r5, #2672
	add	r8, r5, #752
	b	.L2333
.L2435:
	ldr	r3, .L2443+68
	cmp	r1, #0
	add	ip, r3, #16
	moveq	r3, ip
	mov	r1, r3
	ldr	r3, .L2443+32
	ldr	r3, [r3, #52]
	blx	r3
.L2329:
	add	r10, r10, #1
	add	r6, r6, #16
	cmp	r10, #6
	add	r8, r8, #64
	beq	.L2433
.L2333:
	ldr	r1, .L2443+72
	mov	r0, r4
	bl	mvc_u_1
	clz	r1, r10
	mov	r2, #16
	mov	r1, r1, lsr #5
	cmp	r0, #1
	mov	r3, r0
	mov	r0, r6
	str	r3, [r7, #4]!
	strb	r3, [r9, #1]!
	beq	.L2434
	cmp	r10, #0
	cmpne	r10, #3
	beq	.L2435
	ldr	r3, .L2443+32
	mov	r2, #16
	sub	r1, r6, #16
	mov	r0, r6
	ldr	r3, [r3, #52]
	blx	r3
	b	.L2329
.L2384:
	cmp	r1, r9
	cmpcs	r0, r6
	bcs	.L2383
	ldr	r3, .L2443+76
	ldr	ip, [r3]
	cmp	ip, #0
	beq	.L2426
	strh	r1, [fp, #-72]	@ movhi
	mov	r3, #8
	strh	r0, [fp, #-70]	@ movhi
	sub	r2, fp, #76
	strh	r9, [fp, #-76]	@ movhi
	mov	r1, #107
	strh	r6, [fp, #-74]	@ movhi
	ldr	r0, [r4, #120]
	blx	ip
.L2426:
	mvn	r0, #0
.L2419:
	sub	sp, fp, #40
	ldmfd	sp, {r4, r5, r6, r7, r8, r9, r10, fp, sp, pc}
.L2432:
	ldr	r6, [r5, #3952]
	strb	r3, [r5, #21]
	sub	r3, r6, #1
	cmp	r3, r7
	bhi	.L2386
	ldr	r3, [r5, #3948]
	mov	r8, #1
	add	r6, r6, #1
	add	r3, r3, r8
.L2357:
	mul	r6, r6, r8
	mov	r9, r3, asl #4
	mov	r6, r6, asl #4
	mul	r1, r9, r6
	add	r1, r1, r1, lsr #1
	cmp	r1, #100663296
	bhi	.L2436
	ldr	r2, [r5, #740]
	sub	r3, r2, #10
	cmp	r3, #31
	ldrls	pc, [pc, r3, asl #2]
	b	.L2359
.L2361:
	.word	.L2360
	.word	.L2362
	.word	.L2394
	.word	.L2394
	.word	.L2359
	.word	.L2359
	.word	.L2359
	.word	.L2359
	.word	.L2359
	.word	.L2359
	.word	.L2394
	.word	.L2364
	.word	.L2366
	.word	.L2359
	.word	.L2359
	.word	.L2359
	.word	.L2359
	.word	.L2359
	.word	.L2359
	.word	.L2359
	.word	.L2366
	.word	.L2367
	.word	.L2368
	.word	.L2359
	.word	.L2359
	.word	.L2359
	.word	.L2359
	.word	.L2359
	.word	.L2359
	.word	.L2359
	.word	.L2370
	.word	.L2370
.L2430:
	ldr	r1, .L2443+80
	mov	r0, r4
	bl	mvc_ue_v
	cmp	r0, #12
	str	r0, [r5, #2904]
	bhi	.L2345
	ldrb	r3, [r4, #10]	@ zero_extendqisi2
	cmp	r3, #0
	beq	.L2348
.L2345:
	ldr	r3, .L2443+32
	mov	r0, #1
	ldr	r1, .L2443+84
	ldr	r3, [r3, #68]
	blx	r3
	mvn	r0, #0
	b	.L2419
.L2394:
	mov	r0, #60416
	movt	r0, 13
.L2363:
	bl	__aeabi_uidiv
	ldr	r10, .L2443+32
	ldr	r1, .L2443+88
	ldr	r3, [r10, #68]
	cmp	r0, #16
	movcc	r7, r0
	movcs	r7, #16
	mov	r2, r7
	mov	r0, #21
	blx	r3
	ldr	r2, [r5, #3944]
	cmp	r2, r7
	bhi	.L2371
	ldrb	r3, [r4, #10]	@ zero_extendqisi2
	cmp	r3, #0
	beq	.L2372
.L2371:
	mov	r3, r7
	ldr	ip, [r10, #68]
	ldr	r1, .L2443+92
	mov	r0, #0
	blx	ip
	ldr	r3, [r5, #3944]
	cmp	r3, #16
	bhi	.L2423
	cmp	r7, r3
	movcc	r7, r3
.L2423:
	str	r7, [r5, #3944]
.L2372:
	ldr	r1, .L2443+96
	mov	r0, r4
	bl	mvc_u_1
	strb	r0, [r5, #22]
	ldrb	r3, [r4, #10]	@ zero_extendqisi2
	cmp	r3, #0
	bne	.L2426
	ldr	r1, .L2443+100
	mov	r0, r4
	bl	mvc_u_1
	uxtb	r0, r0
	strb	r0, [r5, #23]
	ldrb	r3, [r4, #10]	@ zero_extendqisi2
	cmp	r3, #0
	bne	.L2426
	cmp	r0, #0
	bne	.L2437
.L2374:
	mov	r2, r9, lsr #1
	mov	r3, r6, lsr #1
	str	r9, [r5, #3976]
	str	r6, [r5, #3980]
	str	r2, [r5, #3984]
	str	r3, [r5, #3988]
.L2376:
	ldr	r1, .L2443+104
	mov	r0, r4
	bl	mvc_u_1
	uxtb	r3, r0
	strb	r3, [r5, #24]
	ldrb	r2, [r4, #10]	@ zero_extendqisi2
	cmp	r2, #0
	bne	.L2426
	cmp	r3, #0
	mov	r2, #2
	str	r2, [r5, #68]
	bne	.L2438
	mov	r0, r3
	strb	r3, [r5, #43]
	mov	r3, #5
	str	r3, [r5, #56]
.L2379:
	ldr	r2, [r5, #48]
	mov	r3, r9
	ldr	r1, [r5, #44]
	str	r6, [sp]
	bl	MVC_GetDar
	ldr	r3, [r5, #3944]
	cmp	r3, #0
	str	r0, [r5, #52]
	beq	.L2382
	cmp	r7, r3
	movcs	r7, r3
.L2382:
	ldr	r3, [r4, #224]
	cmp	r7, #16
	movcs	r7, #16
	ldr	r2, [r3, #28]
	cmp	r2, #25
	beq	.L2439
.L2383:
	cmp	r6, #1920
	bcc	.L2385
	cmp	r7, #4
	movcs	r7, #4
.L2385:
	add	r7, r7, #1
	mov	r0, #0
	str	r7, [r5, #3972]
	sub	sp, fp, #40
	ldmfd	sp, {r4, r5, r6, r7, r8, r9, r10, fp, sp, pc}
.L2370:
	mov	r0, #12582912
	b	.L2363
.L2366:
	mov	r0, #30208
	movt	r0, 47
	b	.L2363
.L2433:
	sub	r7, fp, #88
	add	r9, r5, #11
	add	r6, r5, #2768
	add	r8, r5, #1136
	mov	r10, #0
.L2338:
	ldr	r1, .L2443+72
	mov	r0, r4
	bl	mvc_u_1
	mov	r2, #64
	mov	r3, r0
	cmp	r3, #1
	mov	r0, r6
	str	r3, [r7, #4]!
	strb	r3, [r9, #1]!
	beq	.L2440
	ldr	r1, .L2443+108
	cmp	r10, #0
	ldr	r3, .L2443+32
	add	ip, r1, #64
	ldr	r3, [r3, #52]
	movne	r1, ip
	blx	r3
.L2335:
	add	r10, r10, #1
	add	r6, r6, #64
	cmp	r10, #2
	add	r8, r8, #256
	bne	.L2338
	b	.L2327
.L2434:
	mov	r3, r2
	str	r7, [sp]
	mov	r2, r6
	mov	r1, r8
	mov	r0, r4
	bl	MVC_Scaling_List
	ldr	r3, [r7]
	cmp	r3, #1
	bne	.L2329
	ldr	r1, .L2443+68
	mov	r2, #16
	ldr	r3, .L2443+32
	cmp	r10, #2
	add	r0, r1, r2
	ldr	r3, [r3, #52]
	movhi	r1, r0
	mov	r0, r6
	blx	r3
	b	.L2329
.L2318:
	ldr	r3, .L2443+32
	mov	r0, #1
	ldr	r1, .L2443+112
	ldr	r3, [r3, #68]
	blx	r3
	mvn	r0, #0
	sub	sp, fp, #40
	ldmfd	sp, {r4, r5, r6, r7, r8, r9, r10, fp, sp, pc}
.L2340:
	ldr	r3, .L2443+32
	mov	r0, #1
	ldr	r1, .L2443+116
	ldr	r3, [r3, #68]
	blx	r3
	mvn	r0, #0
	b	.L2419
.L2437:
	ldr	r1, .L2443+120
	mov	r0, r4
	bl	mvc_ue_v
	ldr	r1, .L2443+124
	str	r0, [r5, #3956]
	mov	r0, r4
	bl	mvc_ue_v
	ldr	r1, .L2443+128
	str	r0, [r5, #3960]
	mov	r0, r4
	bl	mvc_ue_v
	ldr	r1, .L2443+132
	str	r0, [r5, #3964]
	mov	r0, r4
	bl	mvc_ue_v
	ldr	r2, [r5, #3964]
	ldr	r1, [r5, #3956]
	mov	ip, r8, asl #1
	ldr	r3, [r5, #3960]
	mov	r2, r2, asl #1
	mov	r1, r1, asl #1
	mul	r8, r8, r2
	rsb	r2, r1, r9
	sub	r3, r2, r3, asl #1
	rsb	r2, r8, r6
	str	r0, [r5, #3968]
	mls	r0, r0, ip, r2
	cmp	r3, #0
	cmpgt	r0, #0
	ble	.L2374
	add	r1, r1, r3, lsr #1
	add	r8, r8, r0, lsr #1
	str	r1, [r5, #3984]
	str	r8, [r5, #3988]
	str	r3, [r5, #3976]
	str	r0, [r5, #3980]
	b	.L2376
.L2438:
	add	r1, r5, #28
	mov	r0, r4
	bl	mvc_vui_parameters
	cmp	r0, #0
	bne	.L2425
	ldrb	r3, [r5, #40]	@ zero_extendqisi2
	cmp	r3, #0
	beq	.L2425
	ldr	r2, [r5, #732]
	clz	r3, r2
	mov	r3, r3, lsr #5
	cmp	r7, r2
	orrcc	r3, r3, #1
	cmp	r3, #0
	bne	.L2441
	ldr	r3, [r5, #3944]
	ldrb	r0, [r5, #43]	@ zero_extendqisi2
	cmp	r2, r3
	movcs	r7, r2
	movcc	r7, r3
	b	.L2379
.L2441:
	ldr	ip, [r10, #68]
	mov	r3, r7
	ldr	r1, .L2443+136
	mov	r0, #1
	blx	ip
.L2425:
	ldrb	r0, [r5, #43]	@ zero_extendqisi2
	b	.L2379
.L2439:
	ldr	r2, [r3, #776]
	cmp	r2, #0
	bne	.L2383
	ldr	r2, [r3, #760]
	ldr	r1, [r3, #736]
	cmp	r7, r2
	ldr	r0, [r3, #740]
	bls	.L2384
	ldr	r3, .L2443+76
	ldr	ip, [r3]
	cmp	ip, #0
	beq	.L2426
	str	r2, [fp, #-72]
	mov	r3, #8
	str	r7, [fp, #-76]
	sub	r2, fp, #76
	ldr	r0, [r4, #120]
	mov	r1, #106
	blx	ip
	mvn	r0, #0
	b	.L2419
.L2324:
	ldr	r3, .L2443+32
	mov	r0, #1
	ldr	r1, .L2443+140
	ldr	r3, [r3, #68]
	blx	r3
	mvn	r0, #0
	b	.L2419
.L2431:
	ldr	r1, .L2443+144
	mov	r0, r4
	bl	mvc_u_1
	strb	r0, [r5, #18]
	ldrb	r3, [r4, #10]	@ zero_extendqisi2
	cmp	r3, #0
	bne	.L2426
	ldr	r1, .L2443+148
	mov	r0, r4
	bl	mvc_se_v
	str	r0, [r5, #2908]
	ldrb	r3, [r4, #10]	@ zero_extendqisi2
	cmp	r3, #0
	bne	.L2426
	ldr	r1, .L2443+152
	mov	r0, r4
	bl	mvc_se_v
	str	r0, [r5, #2912]
	ldrb	r3, [r4, #10]	@ zero_extendqisi2
	cmp	r3, #0
	bne	.L2426
	ldr	r1, .L2443+156
	mov	r0, r4
	bl	mvc_ue_v
	cmp	r0, #255
	str	r0, [r5, #2916]
	bhi	.L2350
	ldrb	r6, [r4, #10]	@ zero_extendqisi2
	cmp	r6, #0
	bne	.L2350
	cmp	r0, #0
	addne	r7, r5, #2912
	addne	r7, r7, #4
	bne	.L2352
	b	.L2348
.L2442:
	ldr	r3, [r5, #2916]
	cmp	r3, r6
	bls	.L2348
.L2352:
	ldr	r1, .L2443+160
	mov	r0, r4
	bl	mvc_se_v
	add	r6, r6, #1
	str	r0, [r7, #4]!
	ldrb	r3, [r4, #10]	@ zero_extendqisi2
	cmp	r3, #0
	beq	.L2442
	b	.L2426
.L2353:
	ldr	r3, .L2443+32
	mov	r2, r0
	ldr	r1, .L2443+164
	mov	r0, #1
	ldr	r3, [r3, #68]
	blx	r3
	mvn	r0, #0
	b	.L2419
.L2367:
	mov	r0, #30720
	movt	r0, 105
	b	.L2363
.L2364:
	mov	r0, #55296
	movt	r0, 27
	b	.L2363
.L2368:
	mov	r0, #7864320
	b	.L2363
.L2362:
	mov	r0, #17920
	movt	r0, 5
	b	.L2363
.L2360:
	mov	r0, #20992
	movt	r0, 2
	b	.L2363
.L2359:
	ldr	r3, .L2443+32
	mov	r0, #1
	ldr	r1, .L2443+168
	ldr	r3, [r3, #68]
	blx	r3
	mvn	r0, #0
	b	.L2419
.L2350:
	ldr	r3, .L2443+32
	mov	r0, #1
	ldr	r1, .L2443+172
	ldr	r3, [r3, #68]
	blx	r3
	mvn	r0, #0
	b	.L2419
.L2440:
	mov	r3, r2
	str	r7, [sp]
	mov	r2, r6
	mov	r1, r8
	mov	r0, r4
	bl	MVC_Scaling_List
	ldr	r3, [r7]
	cmp	r3, #1
	bne	.L2335
	ldr	r1, .L2443+108
	mov	r2, #64
	ldr	r3, .L2443+32
	cmp	r10, #0
	add	r0, r1, r2
	ldr	r3, [r3, #52]
	movne	r1, r0
	mov	r0, r6
	blx	r3
	b	.L2335
.L2342:
	ldr	r3, .L2443+32
	mov	r0, #1
	ldr	r1, .L2443+176
	ldr	r3, [r3, #68]
	blx	r3
	mvn	r0, #0
	b	.L2419
.L2436:
	ldr	r3, .L2443+32
	mov	r0, #0
	ldr	r1, .L2443+180
	ldr	r3, [r3, #68]
	blx	r3
	mvn	r0, #0
	b	.L2419
.L2428:
	ldr	ip, .L2443+32
	mov	r0, r5
	movw	r3, #10680
	ldr	r2, .L2443+184
	ldr	r1, .L2443+188
	ldr	ip, [ip, #68]
	blx	ip
	mvn	r0, #0
	b	.L2419
.L2444:
	.align	2
.L2443:
	.word	.LC225
	.word	.LC227
	.word	.LC230
	.word	.LC238
	.word	.LC239
	.word	.LC241
	.word	.LC242
	.word	.LC256
	.word	vfmw_Osal_Func_Ptr_S
	.word	.LC243
	.word	.LC216
	.word	.LC218
	.word	.LC219
	.word	.LC220
	.word	.LC221
	.word	.LC222
	.word	.LC224
	.word	.LANCHOR1
	.word	.LC164
	.word	g_event_report
	.word	.LC229
	.word	.LC231
	.word	.LC246
	.word	.LC247
	.word	.LC248
	.word	.LC249
	.word	.LC254
	.word	.LANCHOR1+32
	.word	.LC217
	.word	.LC226
	.word	.LC250
	.word	.LC251
	.word	.LC252
	.word	.LC253
	.word	.LC255
	.word	.LC223
	.word	.LC232
	.word	.LC233
	.word	.LC234
	.word	.LC235
	.word	.LC237
	.word	.LC240
	.word	.LC245
	.word	.LC236
	.word	.LC228
	.word	.LC244
	.word	.LC13
	.word	.LC14
	UNWIND(.fnend)
	.size	MVC_ProcessSPS, .-MVC_ProcessSPS
	.align	2
	.global	MVC_DecSPS
	.type	MVC_DecSPS, %function
MVC_DecSPS:
	UNWIND(.fnstart)
	@ args = 0, pretend = 0, frame = 32
	@ frame_needed = 1, uses_anonymous_args = 0
	UNWIND(.movsp ip)
	mov	ip, sp
	stmfd	sp!, {r4, r5, r6, r7, r8, r9, r10, fp, ip, lr, pc}
	UNWIND(.pad #4)
	UNWIND(.save {r4, r5, r6, r7, r8, r9, r10, fp, ip, lr})
	UNWIND(.setfp fp, ip, #-4)
	sub	fp, ip, #4
	UNWIND(.pad #36)
	sub	sp, sp, #36
	ldr	r2, .L2490
	mov	r1, #8
	mov	r4, r0
	bl	mvc_u_v
	ldr	r1, .L2490+4
	mov	r7, r0
	mov	r0, r4
	bl	mvc_u_1
	ldr	r1, .L2490+8
	mov	r9, r0
	mov	r0, r4
	bl	mvc_u_1
	ldr	r1, .L2490+12
	mov	r8, r0
	mov	r0, r4
	bl	mvc_u_1
	ldr	r1, .L2490+16
	str	r0, [fp, #-56]
	mov	r0, r4
	bl	mvc_u_1
	ldr	r1, .L2490+20
	str	r0, [fp, #-60]
	mov	r0, r4
	bl	mvc_u_1
	ldr	r1, .L2490+24
	str	r0, [fp, #-64]
	mov	r0, r4
	bl	mvc_u_1
	ldr	r2, .L2490+28
	mov	r1, #2
	str	r0, [fp, #-68]
	mov	r0, r4
	bl	mvc_u_v
	ldr	r2, .L2490+32
	mov	r1, #8
	mov	r0, r4
	bl	mvc_u_v
	ldr	r1, .L2490+36
	mov	r5, r0
	mov	r0, r4
	bl	mvc_ue_v
	ldrb	r2, [r4, #10]	@ zero_extendqisi2
	cmp	r2, #0
	mov	r6, r0
	bne	.L2483
	ldr	r2, [r4, #36]
	sub	r2, r2, #1
	cmp	r0, r2
	bhi	.L2485
	cmp	r7, #100
	mov	r10, r7
	beq	.L2451
	bhi	.L2452
	cmp	r7, #77
	beq	.L2451
	cmp	r7, #88
	beq	.L2453
	cmp	r7, #66
	bne	.L2450
	ldr	r3, .L2490+40
	mov	r0, #1
	ldr	r1, .L2490+44
	ldr	r3, [r3, #68]
	blx	r3
.L2451:
	cmp	r5, #9
	mov	r2, r5
	bls	.L2482
.L2488:
	cmp	r5, #41
	bhi	.L2482
.L2457:
	movw	r1, #3992
	ldr	r3, [r4, #248]
	mul	r5, r1, r6
	add	r3, r3, r5
	ldrb	ip, [r3, #25]	@ zero_extendqisi2
	cmp	ip, #0
	beq	.L2458
	ldr	r3, .L2490+48
	mov	r0, r4
	ldrb	ip, [fp, #-56]	@ zero_extendqisi2
	add	r1, r3, #2240
	str	r10, [r3, #2976]
	strb	ip, [r3, #2242]
	ldrb	ip, [fp, #-60]	@ zero_extendqisi2
	strb	r9, [r3, #2240]
	strb	r8, [r3, #2241]
	strb	ip, [r3, #2243]
	ldrb	ip, [fp, #-64]	@ zero_extendqisi2
	str	r2, [r3, #2980]
	str	r6, [r3, #2984]
	strb	ip, [r3, #2244]
	ldrb	ip, [fp, #-68]	@ zero_extendqisi2
	str	r3, [fp, #-56]
	strb	ip, [r3, #2245]
	bl	MVC_ProcessSPS
	ldr	r3, [fp, #-56]
	subs	r7, r0, #0
	bne	.L2486
	ldr	r1, [r4, #248]
	add	r0, r3, #2240
	str	r3, [fp, #-56]
	add	r1, r1, r5
	bl	MVC_SPSEqual
	ldr	r3, [fp, #-56]
	cmp	r0, #0
	bne	.L2487
.L2447:
	sub	sp, fp, #40
	ldmfd	sp, {r4, r5, r6, r7, r8, r9, r10, fp, sp, pc}
.L2452:
	cmp	r7, #122
	beq	.L2455
	cmp	r7, #144
	beq	.L2455
	cmp	r7, #110
	beq	.L2455
.L2450:
	ldr	ip, .L2490+40
	mov	r2, r7
	ldr	r1, .L2490+52
	mov	r0, #1
	mov	r10, #100
	ldr	r3, [ip, #68]
	blx	r3
	cmp	r5, #9
	mov	r2, r5
	bhi	.L2488
.L2482:
	ldr	ip, .L2490+40
	mov	r3, #41
	ldr	r1, .L2490+56
	mov	r0, #1
	ldr	ip, [ip, #68]
	blx	ip
	mov	r2, #41
	b	.L2457
.L2458:
	str	r10, [r3, #736]
	mov	r0, r4
	ldr	r3, [r4, #248]
	ldrb	r1, [fp, #-56]	@ zero_extendqisi2
	str	ip, [fp, #-72]
	strb	r9, [r3, r5]
	ldr	r3, [r4, #248]
	add	r3, r3, r5
	strb	r8, [r3, #1]
	ldr	r3, [r4, #248]
	add	r3, r3, r5
	strb	r1, [r3, #2]
	ldr	r3, [r4, #248]
	ldrb	r1, [fp, #-60]	@ zero_extendqisi2
	add	r3, r3, r5
	strb	r1, [r3, #3]
	ldr	r3, [r4, #248]
	ldrb	r1, [fp, #-64]	@ zero_extendqisi2
	add	r3, r3, r5
	strb	r1, [r3, #4]
	ldr	r3, [r4, #248]
	ldrb	r1, [fp, #-68]	@ zero_extendqisi2
	add	r3, r3, r5
	strb	r1, [r3, #5]
	ldr	r3, [r4, #248]
	add	r3, r3, r5
	str	r2, [r3, #740]
	ldr	r3, [r4, #248]
	add	r3, r3, r5
	str	r6, [r3, #744]
	ldr	r1, [r4, #248]
	add	r1, r1, r5
	bl	MVC_ProcessSPS
	ldr	ip, [fp, #-72]
	cmp	r0, #0
	bne	.L2489
	ldr	r3, [r4, #248]
	mov	r2, #1
	add	r3, r3, r5
	strb	r2, [r3, #26]
	ldr	r3, [r4, #248]
	add	r5, r3, r5
	strb	r2, [r5, #25]
	sub	sp, fp, #40
	ldmfd	sp, {r4, r5, r6, r7, r8, r9, r10, fp, sp, pc}
.L2485:
	ldr	r3, .L2490+40
	mov	r0, #1
	ldr	r1, .L2490+60
	ldr	r3, [r3, #68]
	blx	r3
	ldr	r2, [r4, #36]
	sub	r3, r2, #1
	cmp	r6, r3
	bls	.L2483
	ldr	r3, .L2490+64
	ldr	ip, [r3]
	cmp	ip, #0
	beq	.L2483
	str	r2, [fp, #-48]
	mov	r3, #8
	str	r6, [fp, #-52]
	sub	r2, fp, #52
	ldr	r0, [r4, #120]
	mov	r1, #109
	blx	ip
.L2483:
	mvn	r0, #0
	sub	sp, fp, #40
	ldmfd	sp, {r4, r5, r6, r7, r8, r9, r10, fp, sp, pc}
.L2455:
	ldr	r3, .L2490+40
	mov	r0, #1
	ldr	r1, .L2490+68
	ldr	r3, [r3, #68]
	blx	r3
	cmp	r5, #9
	mov	r2, r5
	bhi	.L2488
	b	.L2482
.L2453:
	ldr	r3, .L2490+40
	mov	r0, #1
	ldr	r1, .L2490+72
	ldr	r3, [r3, #68]
	blx	r3
	cmp	r5, #9
	mov	r2, r5
	bhi	.L2488
	b	.L2482
.L2487:
	ldr	lr, .L2490+40
	mov	ip, #1
	ldr	r0, [r4, #248]
	movw	r2, #3992
	add	r1, r3, #2240
	strb	ip, [r3, #2266]
	add	r0, r0, r5
	ldr	r4, [lr, #56]
	strb	ip, [r3, #2265]
	blx	r4
	mov	r0, r7
	b	.L2447
.L2486:
	ldr	ip, .L2490+40
	mov	r3, r6
	movw	r2, #11224
	ldr	r1, .L2490+76
	mov	r0, #1
	ldr	ip, [ip, #68]
	blx	ip
	mvn	r0, #0
	b	.L2447
.L2489:
	ldr	lr, .L2490+40
	mov	r3, r6
	movw	r2, #11251
	ldr	r1, .L2490+76
	mov	r0, #1
	str	ip, [fp, #-56]
	ldr	r6, [lr, #68]
	blx	r6
	ldr	r3, [r4, #248]
	mov	r2, #1
	ldr	ip, [fp, #-56]
	add	r3, r3, r5
	mvn	r0, #0
	strb	r2, [r3, #26]
	ldr	r3, [r4, #248]
	add	r5, r3, r5
	strb	ip, [r5, #25]
	b	.L2447
.L2491:
	.align	2
.L2490:
	.word	.LC257
	.word	.LC258
	.word	.LC259
	.word	.LC260
	.word	.LC261
	.word	.LC262
	.word	.LC263
	.word	.LC264
	.word	.LC265
	.word	.LC266
	.word	vfmw_Osal_Func_Ptr_S
	.word	.LC267
	.word	.LANCHOR2
	.word	.LC270
	.word	.LC271
	.word	.LC170
	.word	g_event_report
	.word	.LC269
	.word	.LC268
	.word	.LC272
	UNWIND(.fnend)
	.size	MVC_DecSPS, .-MVC_DecSPS
	.align	2
	.global	MVC_FreeMvcExtMem
	.type	MVC_FreeMvcExtMem, %function
MVC_FreeMvcExtMem:
	UNWIND(.fnstart)
	@ args = 0, pretend = 0, frame = 0
	@ frame_needed = 1, uses_anonymous_args = 0
	UNWIND(.movsp ip)
	mov	ip, sp
	stmfd	sp!, {fp, ip, lr, pc}
	UNWIND(.pad #4)
	UNWIND(.save {fp, ip, lr})
	UNWIND(.setfp fp, ip, #-4)
	sub	fp, ip, #4
	mov	r0, #0
	ldmfd	sp, {fp, sp, pc}
	UNWIND(.fnend)
	.size	MVC_FreeMvcExtMem, .-MVC_FreeMvcExtMem
	.align	2
	.global	MVC_FreeMvcVuiExtMem
	.type	MVC_FreeMvcVuiExtMem, %function
MVC_FreeMvcVuiExtMem:
	UNWIND(.fnstart)
	@ args = 0, pretend = 0, frame = 0
	@ frame_needed = 1, uses_anonymous_args = 0
	UNWIND(.movsp ip)
	mov	ip, sp
	stmfd	sp!, {fp, ip, lr, pc}
	UNWIND(.pad #4)
	UNWIND(.save {fp, ip, lr})
	UNWIND(.setfp fp, ip, #-4)
	sub	fp, ip, #4
	mov	r0, #0
	ldmfd	sp, {fp, sp, pc}
	UNWIND(.fnend)
	.size	MVC_FreeMvcVuiExtMem, .-MVC_FreeMvcVuiExtMem
	.align	2
	.global	MVC_ProcessSUBSPSMvcExt
	.type	MVC_ProcessSUBSPSMvcExt, %function
MVC_ProcessSUBSPSMvcExt:
	UNWIND(.fnstart)
	@ args = 0, pretend = 0, frame = 32
	@ frame_needed = 1, uses_anonymous_args = 0
	UNWIND(.movsp ip)
	mov	ip, sp
	stmfd	sp!, {r4, r5, r6, r7, r8, r9, r10, fp, ip, lr, pc}
	UNWIND(.pad #4)
	UNWIND(.save {r4, r5, r6, r7, r8, r9, r10, fp, ip, lr})
	UNWIND(.setfp fp, ip, #-4)
	sub	fp, ip, #4
	UNWIND(.pad #36)
	sub	sp, sp, #36
	subs	r5, r1, #0
	mov	r4, r0
	beq	.L2557
	ldr	r1, .L2558
	bl	mvc_ue_v
	cmp	r0, #1
	str	r0, [r5, #4]
	bhi	.L2497
