#include "hi_asm_define.h"
	.arch armv7-a
	.fpu softvfp
	.eabi_attribute 20, 1
	.eabi_attribute 21, 1
	.eabi_attribute 23, 3
	.eabi_attribute 24, 1
	.eabi_attribute 25, 1
	.eabi_attribute 26, 2
	.eabi_attribute 30, 2
	.eabi_attribute 34, 0
	.eabi_attribute 18, 4
	.file	"vp9.c"
	.global	__aeabi_uidiv
	.text
	.align	2
	.type	Vp9_ModeMvMergeProbs, %function
Vp9_ModeMvMergeProbs:
	UNWIND(.fnstart)
	@ args = 0, pretend = 0, frame = 0
	@ frame_needed = 1, uses_anonymous_args = 0
	UNWIND(.movsp ip)
	mov	ip, sp
	stmfd	sp!, {r4, r5, fp, ip, lr, pc}
	UNWIND(.pad #4)
	UNWIND(.save {r4, r5, fp, ip, lr})
	UNWIND(.setfp fp, ip, #-4)
	sub	fp, ip, #4
	mov	r4, r0
	ldmia	r1, {r0, r1}
	adds	r3, r0, r1
	beq	.L3
	cmp	r3, #20
	ldr	r2, .L5
	mov	r0, r0, asl #8
	mov	r1, r3
	add	r0, r0, r3, lsr #1
	movcs	r3, #20
	ldrb	r5, [r2, r3]	@ zero_extendqisi2
	bl	__aeabi_uidiv
	rsb	r3, r5, #256
	mul	r4, r4, r3
	add	r3, r4, #128
	cmp	r0, #1
	movlt	r0, #1
	cmp	r0, #255
	movge	r0, #255
	uxtb	r0, r0
	mla	r0, r5, r0, r3
	ubfx	r0, r0, #8, #8
	ldmfd	sp, {r4, r5, fp, sp, pc}
.L3:
	mov	r0, r4
	ldmfd	sp, {r4, r5, fp, sp, pc}
.L6:
	.align	2
.L5:
	.word	.LANCHOR0
	UNWIND(.fnend)
	.size	Vp9_ModeMvMergeProbs, .-Vp9_ModeMvMergeProbs
	.align	2
	.global	VP9_u_v_x
	.type	VP9_u_v_x, %function
VP9_u_v_x:
	UNWIND(.fnstart)
	@ args = 0, pretend = 0, frame = 0
	@ frame_needed = 1, uses_anonymous_args = 0
	UNWIND(.movsp ip)
	mov	ip, sp
	stmfd	sp!, {fp, ip, lr, pc}
	UNWIND(.pad #4)
	UNWIND(.save {fp, ip, lr})
	UNWIND(.setfp fp, ip, #-4)
	sub	fp, ip, #4
	sub	sp, fp, #12
	ldmia	sp, {fp, sp, lr}
	b	BsGet
	UNWIND(.fnend)
	.size	VP9_u_v_x, .-VP9_u_v_x
	.align	2
	.global	VP9_s_v
	.type	VP9_s_v, %function
VP9_s_v:
	UNWIND(.fnstart)
	@ args = 0, pretend = 0, frame = 0
	@ frame_needed = 1, uses_anonymous_args = 0
	UNWIND(.movsp ip)
	mov	ip, sp
	stmfd	sp!, {fp, ip, lr, pc}
	UNWIND(.pad #4)
	UNWIND(.save {fp, ip, lr})
	UNWIND(.setfp fp, ip, #-4)
	sub	fp, ip, #4
	add	r1, r1, #1
	bl	BsGet
	tst	r0, #1
	mov	r0, r0, asr #1
	rsbne	r0, r0, #0
	ldmfd	sp, {fp, sp, pc}
	UNWIND(.fnend)
	.size	VP9_s_v, .-VP9_s_v
	.align	2
	.global	Vp9_Cabac_ReadIsValid
	.type	Vp9_Cabac_ReadIsValid, %function
Vp9_Cabac_ReadIsValid:
	UNWIND(.fnstart)
	@ args = 0, pretend = 0, frame = 0
	@ frame_needed = 1, uses_anonymous_args = 0
	UNWIND(.movsp ip)
	mov	ip, sp
	stmfd	sp!, {fp, ip, lr, pc}
	UNWIND(.pad #4)
	UNWIND(.save {fp, ip, lr})
	UNWIND(.setfp fp, ip, #-4)
	sub	fp, ip, #4
	cmp	r2, #0
	cmpne	r0, #0
	moveq	r3, #1
	movne	r3, #0
	beq	.L13
	cmp	r1, #0
	ble	.L14
	add	r0, r0, r1
	cmp	r2, r0
	movcc	r0, #0
	movcs	r0, #1
	ldmfd	sp, {fp, sp, pc}
.L13:
	mov	r0, #0
	ldmfd	sp, {fp, sp, pc}
.L14:
	mov	r0, r3
	ldmfd	sp, {fp, sp, pc}
	UNWIND(.fnend)
	.size	Vp9_Cabac_ReadIsValid, .-Vp9_Cabac_ReadIsValid
	.align	2
	.global	Vp9_Cabac_ReaderFill
	.type	Vp9_Cabac_ReaderFill, %function
Vp9_Cabac_ReaderFill:
	UNWIND(.fnstart)
	@ args = 0, pretend = 0, frame = 0
	@ frame_needed = 1, uses_anonymous_args = 0
	UNWIND(.movsp ip)
	mov	ip, sp
	stmfd	sp!, {r4, r5, r6, r7, r8, r9, fp, ip, lr, pc}
	UNWIND(.pad #4)
	UNWIND(.save {r4, r5, r6, r7, r8, r9, fp, ip, lr})
	UNWIND(.setfp fp, ip, #-4)
	sub	fp, ip, #4
	ldr	r5, [r0, #32]
	mov	r7, r0
	ldr	r8, [r0, #28]
	rsb	r6, r5, #24
	rsb	r4, r5, #16
	bic	r6, r6, #7
	rsb	r4, r6, r4
	add	r5, r5, r6
	mov	r1, r6
	and	r4, r4, #7
	bl	BsGet
	str	r5, [r7, #32]
	orr	r0, r8, r0, asl r4
	str	r0, [r7, #28]
	ldmfd	sp, {r4, r5, r6, r7, r8, r9, fp, sp, pc}
	UNWIND(.fnend)
	.size	Vp9_Cabac_ReaderFill, .-Vp9_Cabac_ReaderFill
	.align	2
	.global	Vp9_Cabac_Read
	.type	Vp9_Cabac_Read, %function
Vp9_Cabac_Read:
	UNWIND(.fnstart)
	@ args = 0, pretend = 0, frame = 0
	@ frame_needed = 1, uses_anonymous_args = 0
	UNWIND(.movsp ip)
	mov	ip, sp
	stmfd	sp!, {r4, r5, r6, r7, r8, r9, fp, ip, lr, pc}
	UNWIND(.pad #4)
	UNWIND(.save {r4, r5, r6, r7, r8, r9, fp, ip, lr})
	UNWIND(.setfp fp, ip, #-4)
	sub	fp, ip, #4
	ldr	r4, [r0, #36]
	mov	r5, r0
	ldr	r7, [r0, #32]
	sub	r4, r4, #1
	cmp	r7, #0
	mul	r1, r4, r1
	mov	r4, r1, lsr #8
	add	r4, r4, #1
	blt	.L17
	ldr	r3, [r0, #28]
.L18:
	mov	r2, r4, asl #24
	cmp	r2, r3
	rsbls	r3, r2, r3
	ldr	r2, .L21
	ldrls	r1, [r5, #36]
	movls	r0, #1
	movhi	r0, #0
	rsbls	r4, r4, r1
	add	r2, r2, r4
	ldrb	r1, [r2, #24]	@ zero_extendqisi2
	mov	r3, r3, asl r1
	rsb	r7, r1, r7
	mov	r4, r4, asl r1
	str	r3, [r5, #28]
	str	r7, [r5, #32]
	str	r4, [r5, #36]
	ldmfd	sp, {r4, r5, r6, r7, r8, r9, fp, sp, pc}
.L17:
	rsb	r1, r7, #24
	rsb	r8, r7, #16
	bic	r1, r1, #7
	ldr	r6, [r0, #28]
	rsb	r8, r1, r8
	add	r7, r7, r1
	bl	BsGet
	and	r3, r8, #7
	orr	r3, r6, r0, asl r3
	b	.L18
.L22:
	.align	2
.L21:
	.word	.LANCHOR0
	UNWIND(.fnend)
	.size	Vp9_Cabac_Read, .-Vp9_Cabac_Read
	.align	2
	.global	Vp9_Cabac_ReadLiteral
	.type	Vp9_Cabac_ReadLiteral, %function
Vp9_Cabac_ReadLiteral:
	UNWIND(.fnstart)
	@ args = 0, pretend = 0, frame = 8
	@ frame_needed = 1, uses_anonymous_args = 0
	UNWIND(.movsp ip)
	mov	ip, sp
	stmfd	sp!, {r4, r5, r6, r7, r8, r9, r10, fp, ip, lr, pc}
	UNWIND(.pad #4)
	UNWIND(.save {r4, r5, r6, r7, r8, r9, r10, fp, ip, lr})
	UNWIND(.setfp fp, ip, #-4)
	sub	fp, ip, #4
	UNWIND(.pad #12)
	sub	sp, sp, #12
	subs	r7, r1, #1
	mov	r6, r0
	bmi	.L28
	ldr	r8, [r0, #28]
	mov	r9, #0
	ldr	r4, [r0, #36]
	mov	r3, #1
	ldr	r5, [r0, #32]
	ldr	r10, .L32
	b	.L27
.L25:
	mov	r2, r4, asl #24
	mov	r1, r3, asl r7
	cmp	r2, r0
	sub	r7, r7, #1
	rsbls	r0, r2, r0
	ldrls	ip, [r6, #36]
	movhi	r1, #0
	orr	r9, r9, r1
	rsbls	r4, r4, ip
	cmn	r7, #1
	add	r2, r10, r4
	ldrb	r2, [r2, #24]	@ zero_extendqisi2
	mov	r8, r0, asl r2
	rsb	r5, r2, r5
	mov	r4, r4, asl r2
	str	r8, [r6, #28]
	str	r5, [r6, #32]
	str	r4, [r6, #36]
	beq	.L24
.L27:
	sub	r4, r4, #1
	cmp	r5, #0
	ubfx	r4, r4, #1, #24
	mov	r0, r8
	add	r4, r4, #1
	bge	.L25
	rsb	r1, r5, #24
	rsb	r2, r5, #16
	bic	r1, r1, #7
	mov	r0, r6
	rsb	r2, r1, r2
	str	r3, [fp, #-52]
	str	r2, [fp, #-48]
	add	r5, r1, r5
	bl	BsGet
	ldr	r2, [fp, #-48]
	ldr	r3, [fp, #-52]
	and	r2, r2, #7
	orr	r0, r8, r0, asl r2
	b	.L25
.L28:
	mov	r9, #0
.L24:
	mov	r0, r9
	sub	sp, fp, #40
	ldmfd	sp, {r4, r5, r6, r7, r8, r9, r10, fp, sp, pc}
.L33:
	.align	2
.L32:
	.word	.LANCHOR0
	UNWIND(.fnend)
	.size	Vp9_Cabac_ReadLiteral, .-Vp9_Cabac_ReadLiteral
	.align	2
	.global	Vp9_Cabac_ReaderInit
	.type	Vp9_Cabac_ReaderInit, %function
Vp9_Cabac_ReaderInit:
	UNWIND(.fnstart)
	@ args = 0, pretend = 0, frame = 0
	@ frame_needed = 1, uses_anonymous_args = 0
	UNWIND(.movsp ip)
	mov	ip, sp
	stmfd	sp!, {r4, r5, fp, ip, lr, pc}
	UNWIND(.pad #4)
	UNWIND(.save {r4, r5, fp, ip, lr})
	UNWIND(.setfp fp, ip, #-4)
	sub	fp, ip, #4
	mvn	r2, #7
	mov	r3, #255
	mov	r5, #0
	str	r2, [r0, #32]
	str	r3, [r0, #36]
	mov	r1, #32
	str	r5, [r0, #28]
	mov	r4, r0
	bl	BsGet
	mov	r2, r0
	ldr	r0, [r4, #36]
	sub	r3, r0, #1
	ubfx	r3, r3, #1, #24
	add	r3, r3, #1
	mov	r1, r3, asl #24
	cmp	r2, r1
	rsbcs	r2, r1, r2
	ldr	r1, .L37
	rsbcs	r3, r3, r0
	movcc	r0, r5
	add	r1, r1, r3
	movcs	r0, #1
	ldrb	r1, [r1, #24]	@ zero_extendqisi2
	mov	r2, r2, asl r1
	mov	r3, r3, asl r1
	str	r2, [r4, #28]
	rsb	r1, r1, #24
	str	r3, [r4, #36]
	str	r1, [r4, #32]
	ldmfd	sp, {r4, r5, fp, sp, pc}
.L38:
	.align	2
.L37:
	.word	.LANCHOR0
	UNWIND(.fnend)
	.size	Vp9_Cabac_ReaderInit, .-Vp9_Cabac_ReaderInit
	.align	2
	.global	Vp9_ReadTxMode
	.type	Vp9_ReadTxMode, %function
Vp9_ReadTxMode:
	UNWIND(.fnstart)
	@ args = 0, pretend = 0, frame = 8
	@ frame_needed = 1, uses_anonymous_args = 0
	UNWIND(.movsp ip)
	mov	ip, sp
	stmfd	sp!, {r4, r5, r6, r7, r8, r9, r10, fp, ip, lr, pc}
	UNWIND(.pad #4)
	UNWIND(.save {r4, r5, r6, r7, r8, r9, r10, fp, ip, lr})
	UNWIND(.setfp fp, ip, #-4)
	sub	fp, ip, #4
	UNWIND(.pad #12)
	sub	sp, sp, #12
	mov	r7, #1
	mov	r6, r0
	ldr	r10, .L53
	ldr	r4, [r0, #36]
	mov	r3, r7
	ldr	r5, [r0, #32]
	mov	r9, #0
	ldr	r8, [r0, #28]
	b	.L42
.L40:
	mov	r2, r4, asl #24
	mov	r1, r3, asl r7
	cmp	r2, r0
	sub	r7, r7, #1
	rsbls	r0, r2, r0
	ldrls	ip, [r6, #36]
	movhi	r1, #0
	orr	r9, r9, r1
	rsbls	r4, r4, ip
	cmn	r7, #1
	add	r2, r10, r4
	ldrb	r2, [r2, #24]	@ zero_extendqisi2
	mov	r8, r0, asl r2
	rsb	r5, r2, r5
	mov	r4, r4, asl r2
	str	r8, [r6, #28]
	str	r5, [r6, #32]
	str	r4, [r6, #36]
	beq	.L50
.L42:
	sub	r4, r4, #1
	cmp	r5, #0
	ubfx	r4, r4, #1, #24
	mov	r0, r8
	add	r4, r4, #1
	bge	.L40
	rsb	r1, r5, #24
	rsb	r2, r5, #16
	bic	r1, r1, #7
	mov	r0, r6
	rsb	r2, r1, r2
	str	r3, [fp, #-52]
	str	r2, [fp, #-48]
	add	r5, r1, r5
	bl	BsGet
	ldr	r2, [fp, #-48]
	ldr	r3, [fp, #-52]
	and	r2, r2, #7
	orr	r0, r8, r0, asl r2
	b	.L40
.L50:
	cmp	r9, #3
	beq	.L51
	mov	r0, r9
	sub	sp, fp, #40
	ldmfd	sp, {r4, r5, r6, r7, r8, r9, r10, fp, sp, pc}
.L51:
	sub	r4, r4, #1
	cmp	r5, #0
	ubfx	r4, r4, #1, #24
	add	r4, r4, #1
	movge	r0, r8
	blt	.L52
.L44:
	mov	r3, r4, asl #24
	cmp	r3, r0
	rsbls	r0, r3, r0
	ldrls	r2, [r6, #36]
	movls	r9, #4
	rsbls	r4, r4, r2
	add	r10, r10, r4
	ldrb	r3, [r10, #24]	@ zero_extendqisi2
	mov	r8, r0, asl r3
	rsb	r5, r3, r5
	mov	r4, r4, asl r3
	mov	r0, r9
	str	r8, [r6, #28]
	str	r5, [r6, #32]
	str	r4, [r6, #36]
	sub	sp, fp, #40
	ldmfd	sp, {r4, r5, r6, r7, r8, r9, r10, fp, sp, pc}
.L52:
	rsb	r1, r5, #24
	rsb	r7, r5, #16
	bic	r1, r1, #7
	mov	r0, r6
	rsb	r7, r1, r7
	add	r5, r1, r5
	bl	BsGet
	and	r7, r7, #7
	orr	r0, r8, r0, asl r7
	b	.L44
.L54:
	.align	2
.L53:
	.word	.LANCHOR0
	UNWIND(.fnend)
	.size	Vp9_ReadTxMode, .-Vp9_ReadTxMode
	.align	2
	.global	Vp9_ReaderHasError
	.type	Vp9_ReaderHasError, %function
Vp9_ReaderHasError:
	UNWIND(.fnstart)
	@ args = 0, pretend = 0, frame = 0
	@ frame_needed = 1, uses_anonymous_args = 0
	UNWIND(.movsp ip)
	mov	ip, sp
	stmfd	sp!, {fp, ip, lr, pc}
	UNWIND(.pad #4)
	UNWIND(.save {fp, ip, lr})
	UNWIND(.setfp fp, ip, #-4)
	sub	fp, ip, #4
	ldr	r0, [r0, #32]
	sub	r0, r0, #33
	cmn	r0, #-1073741790
	movhi	r0, #0
	movls	r0, #1
	ldmfd	sp, {fp, sp, pc}
	UNWIND(.fnend)
	.size	Vp9_ReaderHasError, .-Vp9_ReaderHasError
	.align	2
	.global	Vp9_DiffUpdateProb
	.type	Vp9_DiffUpdateProb, %function
Vp9_DiffUpdateProb:
	UNWIND(.fnstart)
	@ args = 0, pretend = 0, frame = 16
	@ frame_needed = 1, uses_anonymous_args = 0
	UNWIND(.movsp ip)
	mov	ip, sp
	stmfd	sp!, {r4, r5, r6, r7, r8, r9, r10, fp, ip, lr, pc}
	UNWIND(.pad #4)
	UNWIND(.save {r4, r5, r6, r7, r8, r9, r10, fp, ip, lr})
	UNWIND(.setfp fp, ip, #-4)
	sub	fp, ip, #4
	UNWIND(.pad #20)
	sub	sp, sp, #20
	ldr	r4, [r0, #36]
	ldr	r5, [r0, #32]
	mov	r6, r0
	sub	r4, r4, #1
	mov	r9, r1
	cmp	r5, #0
	ubfx	r4, r4, #1, #24
	add	r4, r4, #1
	blt	.L57
	ldr	r8, [r0, #28]
.L58:
	mov	r3, r4, asl #24
	cmp	r3, r8
	bhi	.L59
	ldr	r2, [r6, #36]
	rsb	r8, r3, r8
	ldr	r3, .L112
	rsb	r4, r4, r2
	add	r2, r3, r4
	ldrb	r1, [r2, #24]	@ zero_extendqisi2
	mov	r2, r4, asl r1
	rsb	r4, r1, r5
	cmp	r4, #0
	sub	r5, r2, #1
	ubfx	r5, r5, #1, #24
	mov	r8, r8, asl r1
	str	r2, [r6, #36]
	add	r5, r5, #1
	str	r4, [r6, #32]
	str	r8, [r6, #28]
	blt	.L106
.L61:
	mov	r1, r5, asl #24
	cmp	r1, r8
	bhi	.L66
	ldr	r2, [r6, #36]
	rsb	r8, r1, r8
	rsb	r5, r5, r2
	add	r2, r3, r5
	ldrb	ip, [r2, #24]	@ zero_extendqisi2
	mov	r2, r5, asl ip
	rsb	r5, ip, r4
	sub	r1, r2, #1
	cmp	r5, #0
	ubfx	r1, r1, #1, #24
	mov	r8, r8, asl ip
	str	r2, [r6, #36]
	add	r4, r1, #1
	str	r5, [r6, #32]
	str	r8, [r6, #28]
	blt	.L107
.L68:
	mov	r1, r4, asl #24
	cmp	r1, r8
	bhi	.L72
	ldr	r2, [r6, #36]
	rsb	r8, r1, r8
	mov	r7, #0
	mov	r10, #6
	rsb	r1, r4, r2
	mov	r2, #1
	add	r0, r3, r1
	ldrb	r4, [r0, #24]	@ zero_extendqisi2
	mov	r8, r8, asl r4
	rsb	r5, r4, r5
	str	r8, [r6, #28]
	mov	r4, r1, asl r4
	str	r5, [r6, #32]
	str	r4, [r6, #36]
	b	.L73
.L77:
	mov	r1, r4, asl #24
	mov	ip, r2, asl r10
	cmp	r1, r0
	sub	r10, r10, #1
	rsbls	r0, r1, r0
	ldrls	lr, [r6, #36]
	movhi	ip, #0
	orr	r7, r7, ip
	rsbls	r4, r4, lr
	cmn	r10, #1
	add	r1, r3, r4
	ldrb	r1, [r1, #24]	@ zero_extendqisi2
	mov	r8, r0, asl r1
	rsb	r5, r1, r5
	mov	r4, r4, asl r1
	str	r8, [r6, #28]
	str	r5, [r6, #32]
	str	r4, [r6, #36]
	beq	.L108
.L73:
	sub	r4, r4, #1
	cmp	r5, #0
	ubfx	r4, r4, #1, #24
	mov	r0, r8
	add	r4, r4, #1
	bge	.L77
	rsb	r1, r5, #24
	rsb	ip, r5, #16
	bic	r1, r1, #7
	mov	r0, r6
	rsb	ip, r1, ip
	str	r2, [fp, #-56]
	str	r3, [fp, #-52]
	add	r5, r1, r5
	str	ip, [fp, #-48]
	bl	BsGet
	ldr	ip, [fp, #-48]
	ldr	r3, [fp, #-52]
	and	ip, ip, #7
	ldr	r2, [fp, #-56]
	orr	r0, r8, r0, asl ip
	b	.L77
.L66:
	add	r1, r3, r5
	mov	r7, #0
	mov	r10, #3
	mov	r2, #1
	ldrb	r1, [r1, #24]	@ zero_extendqisi2
	mov	r8, r8, asl r1
	rsb	r4, r1, r4
	mov	r5, r5, asl r1
	str	r8, [r6, #28]
	str	r4, [r6, #32]
	str	r5, [r6, #36]
	b	.L71
.L69:
	mov	r1, r5, asl #24
	mov	ip, r2, asl r10
	cmp	r1, r0
	sub	r10, r10, #1
	rsbls	r0, r1, r0
	ldrls	lr, [r6, #36]
	movhi	ip, #0
	orr	r7, r7, ip
	rsbls	r5, r5, lr
	cmn	r10, #1
	add	r1, r3, r5
	ldrb	r1, [r1, #24]	@ zero_extendqisi2
	mov	r8, r0, asl r1
	rsb	r4, r1, r4
	mov	r5, r5, asl r1
	str	r8, [r6, #28]
	str	r4, [r6, #32]
	str	r5, [r6, #36]
	beq	.L109
.L71:
	sub	r5, r5, #1
	cmp	r4, #0
	ubfx	r5, r5, #1, #24
	mov	r0, r8
	add	r5, r5, #1
	bge	.L69
	rsb	r1, r4, #24
	rsb	ip, r4, #16
	bic	r1, r1, #7
	mov	r0, r6
	rsb	ip, r1, ip
	str	r2, [fp, #-56]
	str	r3, [fp, #-52]
	add	r4, r1, r4
	str	ip, [fp, #-48]
	bl	BsGet
	ldr	ip, [fp, #-48]
	ldr	r3, [fp, #-52]
	and	ip, ip, #7
	ldr	r2, [fp, #-56]
	orr	r0, r8, r0, asl ip
	b	.L69
.L59:
	ldr	r3, .L112
	mov	r7, #0
	mov	r10, #3
	mov	r2, #1
	add	r1, r3, r4
	ldrb	r1, [r1, #24]	@ zero_extendqisi2
	mov	r8, r8, asl r1
	rsb	r5, r1, r5
	mov	r4, r4, asl r1
	str	r8, [r6, #28]
	str	r5, [r6, #32]
	str	r4, [r6, #36]
	b	.L64
.L62:
	mov	r1, r4, asl #24
	mov	ip, r2, asl r10
	cmp	r1, r0
	sub	r10, r10, #1
	rsbls	r0, r1, r0
	ldrls	lr, [r6, #36]
	movhi	ip, #0
	orr	r7, r7, ip
	rsbls	r4, r4, lr
	cmn	r10, #1
	add	r1, r3, r4
	ldrb	r1, [r1, #24]	@ zero_extendqisi2
	mov	r8, r0, asl r1
	rsb	r5, r1, r5
	mov	r4, r4, asl r1
	str	r8, [r6, #28]
	str	r5, [r6, #32]
	str	r4, [r6, #36]
	beq	.L65
.L64:
	sub	r4, r4, #1
	cmp	r5, #0
	ubfx	r4, r4, #1, #24
	mov	r0, r8
	add	r4, r4, #1
	bge	.L62
	rsb	r1, r5, #24
	rsb	ip, r5, #16
	bic	r1, r1, #7
	mov	r0, r6
	rsb	ip, r1, ip
	str	r2, [fp, #-56]
	str	r3, [fp, #-52]
	add	r5, r1, r5
	str	ip, [fp, #-48]
	bl	BsGet
	ldr	ip, [fp, #-48]
	ldr	r3, [fp, #-52]
	and	ip, ip, #7
	ldr	r2, [fp, #-56]
	orr	r0, r8, r0, asl ip
	b	.L62
.L108:
	cmp	r7, #64
	ble	.L79
	sub	r4, r4, #1
	cmp	r5, #0
	ubfx	r4, r4, #1, #24
	mov	r7, r7, asl #1
	add	r4, r4, #1
	sub	r7, r7, #65
	movge	r0, r8
	blt	.L110
.L80:
	mov	r2, r4, asl #24
	cmp	r2, r0
	rsbls	r0, r2, r0
	ldrls	ip, [r6, #36]
	movls	r1, #1
	movhi	r1, #0
	add	r7, r7, r1
	rsbls	r4, r4, ip
	add	r2, r3, r4
	ldrb	r2, [r2, #24]	@ zero_extendqisi2
	mov	r8, r0, asl r2
	rsb	r5, r2, r5
	mov	r4, r4, asl r2
	str	r8, [r6, #28]
	str	r5, [r6, #32]
	str	r4, [r6, #36]
.L79:
	add	r7, r7, #64
.L65:
	ldrb	r2, [r9]	@ zero_extendqisi2
	add	r3, r3, r7
	sub	ip, r2, #1
	ldrb	r1, [r3, #280]	@ zero_extendqisi2
	mov	r0, ip, asl #1
	cmp	r0, #255
	bgt	.L82
	add	r3, r1, #1
	cmp	r3, r0
	bgt	.L83
	tst	r3, #1
	addne	r3, r1, #2
	addeq	r3, r3, r3, lsr #31
	subne	r3, ip, r3, asr #1
	addeq	r3, ip, r3, asr #1
.L83:
	add	r3, r3, #1
	strb	r3, [r9]
	sub	sp, fp, #40
	ldmfd	sp, {r4, r5, r6, r7, r8, r9, r10, fp, sp, pc}
.L82:
	rsb	r2, r2, #255
	add	r3, r1, #1
	cmp	r3, r2, asl #1
	bgt	.L86
	tst	r3, #1
	addne	r3, r1, #2
	addeq	r3, r3, r3, lsr #31
	subne	r3, r2, r3, asr #1
	addeq	r3, r2, r3, asr #1
.L86:
	rsb	r3, r3, #255
	strb	r3, [r9]
	sub	sp, fp, #40
	ldmfd	sp, {r4, r5, r6, r7, r8, r9, r10, fp, sp, pc}
.L109:
	add	r7, r7, #16
	b	.L65
.L72:
	add	r1, r3, r4
	mov	r7, #0
	mov	r10, #4
	mov	r2, #1
	ldrb	r1, [r1, #24]	@ zero_extendqisi2
	mov	r8, r8, asl r1
	rsb	r5, r1, r5
	str	r8, [r6, #28]
	mov	r1, r4, asl r1
	str	r5, [r6, #32]
	str	r1, [r6, #36]
	b	.L76
.L74:
	mov	r1, r4, asl #24
	mov	ip, r2, asl r10
	cmp	r1, r0
	sub	r10, r10, #1
	rsbls	r0, r1, r0
	ldrls	lr, [r6, #36]
	movhi	ip, #0
	orr	r7, r7, ip
	rsbls	r4, r4, lr
	cmn	r10, #1
	add	r1, r3, r4
	ldrb	r1, [r1, #24]	@ zero_extendqisi2
	mov	r8, r0, asl r1
	rsb	r5, r1, r5
	str	r8, [r6, #28]
	mov	r1, r4, asl r1
	str	r5, [r6, #32]
	str	r1, [r6, #36]
	beq	.L111
.L76:
	sub	r1, r1, #1
	cmp	r5, #0
	ubfx	r1, r1, #1, #24
	mov	r0, r8
	add	r4, r1, #1
	bge	.L74
	rsb	r1, r5, #24
	rsb	ip, r5, #16
	bic	r1, r1, #7
	mov	r0, r6
	rsb	ip, r1, ip
	str	r2, [fp, #-56]
	str	r3, [fp, #-52]
	add	r5, r1, r5
	str	ip, [fp, #-48]
	bl	BsGet
	ldr	ip, [fp, #-48]
	ldr	r3, [fp, #-52]
	and	ip, ip, #7
	ldr	r2, [fp, #-56]
	orr	r0, r8, r0, asl ip
	b	.L74
.L111:
	add	r7, r7, #32
	b	.L65
.L57:
	rsb	r10, r5, #24
	ldr	r7, [r0, #28]
	bic	r10, r10, #7
	rsb	r8, r5, #16
	rsb	r8, r10, r8
	add	r5, r5, r10
	mov	r1, r10
	and	r8, r8, #7
	bl	BsGet
	str	r5, [r6, #32]
	orr	r0, r7, r0, asl r8
	str	r0, [r6, #28]
	mov	r8, r0
	b	.L58
.L106:
	rsb	r10, r4, #24
	mov	r0, r6
	bic	r10, r10, #7
	str	r3, [fp, #-48]
	rsb	r7, r4, #16
	add	r4, r4, r10
	mov	r1, r10
	rsb	r7, r10, r7
	bl	BsGet
	and	r7, r7, #7
	str	r4, [r6, #32]
	ldr	r3, [fp, #-48]
	orr	r0, r8, r0, asl r7
	str	r0, [r6, #28]
	mov	r8, r0
	b	.L61
.L107:
	rsb	r10, r5, #24
	mov	r0, r6
	bic	r10, r10, #7
	str	r3, [fp, #-48]
	rsb	r7, r5, #16
	add	r5, r5, r10
	mov	r1, r10
	rsb	r7, r10, r7
	bl	BsGet
	and	r7, r7, #7
	str	r5, [r6, #32]
	ldr	r3, [fp, #-48]
	orr	r0, r8, r0, asl r7
	str	r0, [r6, #28]
	mov	r8, r0
	b	.L68
.L110:
	rsb	r1, r5, #24
	rsb	r10, r5, #16
	bic	r1, r1, #7
	mov	r0, r6
	str	r3, [fp, #-48]
	rsb	r10, r1, r10
	add	r5, r1, r5
	bl	BsGet
	and	r10, r10, #7
	ldr	r3, [fp, #-48]
	orr	r0, r8, r0, asl r10
	b	.L80
.L113:
	.align	2
.L112:
	.word	.LANCHOR0
	UNWIND(.fnend)
	.size	Vp9_DiffUpdateProb, .-Vp9_DiffUpdateProb
	.align	2
	.global	Vp9_ReadTxProbs
	.type	Vp9_ReadTxProbs, %function
Vp9_ReadTxProbs:
	UNWIND(.fnstart)
	@ args = 0, pretend = 0, frame = 24
	@ frame_needed = 1, uses_anonymous_args = 0
	UNWIND(.movsp ip)
	mov	ip, sp
	stmfd	sp!, {r4, r5, r6, r7, r8, r9, r10, fp, ip, lr, pc}
	UNWIND(.pad #4)
	UNWIND(.save {r4, r5, r6, r7, r8, r9, r10, fp, ip, lr})
	UNWIND(.setfp fp, ip, #-4)
	sub	fp, ip, #4
	UNWIND(.pad #28)
	sub	sp, sp, #28
	ldr	r7, .L400
	ldr	r4, [r1, #28]
	add	r8, r0, #10
	ldr	r3, [r1, #36]
	mov	r6, r1
	ldr	r5, [r1, #32]
	add	r2, r0, #12
	str	r0, [fp, #-52]
	str	r2, [fp, #-48]
.L145:
	sub	r10, r3, #1
	cmp	r5, #0
	mov	r3, r10, asl #8
	sub	r10, r3, r10, asl #2
	mov	r10, r10, lsr #8
	add	r10, r10, #1
	blt	.L354
.L115:
	mov	r9, r10, asl #24
	cmp	r9, r4
	bhi	.L116
	ldr	r3, [r6, #36]
	rsb	r9, r9, r4
	rsb	r10, r10, r3
	add	r3, r7, r10
	ldrb	r3, [r3, #24]	@ zero_extendqisi2
	mov	r10, r10, asl r3
	rsb	r5, r3, r5
	sub	r4, r10, #1
	cmp	r5, #0
	ubfx	r4, r4, #1, #24
	mov	r9, r9, asl r3
	str	r10, [r6, #36]
	add	r4, r4, #1
	str	r5, [r6, #32]
	str	r9, [r6, #28]
	blt	.L355
.L117:
	mov	r3, r4, asl #24
	cmp	r3, r9
	bhi	.L118
	ldr	r2, [r6, #36]
	rsb	r9, r3, r9
	rsb	r4, r4, r2
	add	r3, r7, r4
	ldrb	r0, [r3, #24]	@ zero_extendqisi2
	mov	r2, r4, asl r0
	rsb	r4, r0, r5
	cmp	r4, #0
	sub	r5, r2, #1
	ubfx	r5, r5, #1, #24
	mov	r9, r9, asl r0
	str	r2, [r6, #36]
	add	r5, r5, #1
	str	r4, [r6, #32]
	str	r9, [r6, #28]
	blt	.L356
.L120:
	mov	r3, r5, asl #24
	cmp	r3, r9
	bhi	.L125
	ldr	r1, [r6, #36]
	rsb	r3, r3, r9
	rsb	r5, r5, r1
	add	r2, r7, r5
	ldrb	r2, [r2, #24]	@ zero_extendqisi2
	mov	r1, r5, asl r2
	rsb	r5, r2, r4
	sub	r9, r1, #1
	cmp	r5, #0
	ubfx	r9, r9, #1, #24
	mov	r4, r3, asl r2
	str	r1, [r6, #36]
	add	r9, r9, #1
	str	r5, [r6, #32]
	str	r4, [r6, #28]
	blt	.L357
.L127:
	mov	r3, r9, asl #24
	cmp	r3, r4
	bhi	.L131
	ldr	r1, [r6, #36]
	rsb	r0, r3, r4
	mov	r2, #6
	mov	r3, #0
	rsb	r4, r9, r1
	str	r8, [fp, #-64]
	add	r1, r7, r4
	mov	ip, #1
	mov	r8, r3
	ldrb	r1, [r1, #24]	@ zero_extendqisi2
	rsb	r10, r1, r5
	mov	r9, r0, asl r1
	mov	r4, r4, asl r1
	str	r9, [r6, #28]
	str	r10, [r6, #32]
	mov	r5, r2
	str	r4, [r6, #36]
	b	.L132
.L136:
	mov	r2, r4, asl #24
	mov	r1, ip, asl r5
	cmp	r2, r0
	sub	r5, r5, #1
	rsbls	r0, r2, r0
	ldrls	lr, [r6, #36]
	movhi	r1, #0
	orr	r8, r8, r1
	rsbls	r4, r4, lr
	cmn	r5, #1
	add	r2, r7, r4
	ldrb	r2, [r2, #24]	@ zero_extendqisi2
	mov	r9, r0, asl r2
	rsb	r10, r2, r10
	mov	r4, r4, asl r2
	str	r9, [r6, #28]
	str	r10, [r6, #32]
	str	r4, [r6, #36]
	beq	.L358
.L132:
	sub	r4, r4, #1
	cmp	r10, #0
	ubfx	r4, r4, #1, #24
	mov	r0, r9
	add	r4, r4, #1
	bge	.L136
	rsb	r1, r10, #24
	rsb	r2, r10, #16
	bic	r1, r1, #7
	mov	r0, r6
	rsb	r2, r1, r2
	str	ip, [fp, #-60]
	str	r2, [fp, #-56]
	add	r10, r1, r10
	bl	BsGet
	ldr	r2, [fp, #-56]
	ldr	ip, [fp, #-60]
	and	r2, r2, #7
	orr	r0, r9, r0, asl r2
	b	.L136
.L116:
	add	r3, r7, r10
	ldrb	r3, [r3, #24]	@ zero_extendqisi2
	mov	r4, r4, asl r3
	rsb	r5, r3, r5
	str	r4, [r6, #28]
	mov	r3, r10, asl r3
	str	r5, [r6, #32]
	str	r3, [r6, #36]
.L271:
	ldr	r2, [fp, #-48]
	add	r8, r8, #1
	cmp	r8, r2
	bne	.L145
	ldr	r2, [fp, #-52]
	add	r1, r2, #4
	str	r1, [fp, #-48]
	mov	r8, r2
	str	r2, [fp, #-56]
.L206:
	sub	r10, r3, #1
	cmp	r5, #0
	mov	r3, r10, asl #8
	sub	r10, r3, r10, asl #2
	mov	r10, r10, lsr #8
	add	r10, r10, #1
	blt	.L359
.L146:
	mov	r9, r10, asl #24
	cmp	r9, r4
	bhi	.L147
	ldr	r3, [r6, #36]
	rsb	r9, r9, r4
	rsb	r10, r10, r3
	add	r3, r7, r10
	ldrb	r3, [r3, #24]	@ zero_extendqisi2
	rsb	r4, r3, r5
	mov	r10, r10, asl r3
	sub	r5, r10, #1
	cmp	r4, #0
	ubfx	r5, r5, #1, #24
	mov	r9, r9, asl r3
	str	r10, [r6, #36]
	add	r5, r5, #1
	str	r4, [r6, #32]
	str	r9, [r6, #28]
	blt	.L360
.L148:
	mov	r3, r5, asl #24
	cmp	r3, r9
	bhi	.L149
	ldr	r2, [r6, #36]
	rsb	r9, r3, r9
	rsb	r5, r5, r2
	add	r3, r7, r5
	ldrb	r0, [r3, #24]	@ zero_extendqisi2
	mov	r2, r5, asl r0
	rsb	r4, r0, r4
	sub	r5, r2, #1
	cmp	r4, #0
	ubfx	r5, r5, #1, #24
	mov	r9, r9, asl r0
	str	r2, [r6, #36]
	add	r5, r5, #1
	str	r4, [r6, #32]
	str	r9, [r6, #28]
	blt	.L361
.L151:
	mov	r3, r5, asl #24
	cmp	r3, r9
	bhi	.L156
	ldr	r1, [r6, #36]
	rsb	r3, r3, r9
	rsb	r5, r5, r1
	add	r2, r7, r5
	ldrb	r2, [r2, #24]	@ zero_extendqisi2
	rsb	r9, r2, r4
	mov	r1, r5, asl r2
	sub	r5, r1, #1
	cmp	r9, #0
	ubfx	r5, r5, #1, #24
	mov	r4, r3, asl r2
	str	r1, [r6, #36]
	add	r5, r5, #1
	str	r9, [r6, #32]
	str	r4, [r6, #28]
	blt	.L362
.L158:
	mov	r2, r5, asl #24
	cmp	r2, r4
	bhi	.L162
	ldr	r1, [r6, #36]
	rsb	r2, r2, r4
	mov	r10, #0
	mov	r3, #6
	rsb	r5, r5, r1
	str	r8, [fp, #-68]
	add	r1, r7, r5
	mov	r8, r10
	mov	ip, #1
	ldrb	r4, [r1, #24]	@ zero_extendqisi2
	mov	r2, r2, asl r4
	rsb	r9, r4, r9
	str	r2, [r6, #28]
	mov	r4, r5, asl r4
	str	r9, [r6, #32]
	mov	r5, r3
	str	r4, [r6, #36]
	mov	r10, r2
	b	.L163
.L167:
	mov	r2, r4, asl #24
	mov	r1, ip, asl r5
	cmp	r2, r0
	sub	r5, r5, #1
	rsbls	r0, r2, r0
	ldrls	lr, [r6, #36]
	movhi	r1, #0
	orr	r8, r8, r1
	rsbls	r4, r4, lr
	cmn	r5, #1
	add	r2, r7, r4
	ldrb	r2, [r2, #24]	@ zero_extendqisi2
	mov	r10, r0, asl r2
	rsb	r9, r2, r9
	mov	r4, r4, asl r2
	str	r10, [r6, #28]
	str	r9, [r6, #32]
	str	r4, [r6, #36]
	beq	.L363
.L163:
	sub	r4, r4, #1
	cmp	r9, #0
	ubfx	r4, r4, #1, #24
	mov	r0, r10
	add	r4, r4, #1
	bge	.L167
	rsb	r1, r9, #24
	rsb	r2, r9, #16
	bic	r1, r1, #7
	mov	r0, r6
	rsb	r2, r1, r2
	str	ip, [fp, #-64]
	str	r2, [fp, #-60]
	add	r9, r1, r9
	bl	BsGet
	ldr	r2, [fp, #-60]
	ldr	ip, [fp, #-64]
	and	r2, r2, #7
	orr	r0, r10, r0, asl r2
	b	.L167
.L147:
	add	r3, r7, r10
	ldrb	r3, [r3, #24]	@ zero_extendqisi2
	mov	r4, r4, asl r3
	rsb	r5, r3, r5
	mov	r10, r10, asl r3
	str	r4, [r6, #28]
	str	r5, [r6, #32]
	str	r10, [r6, #36]
.L272:
	sub	r10, r10, #1
	cmp	r5, #0
	mov	r3, r10, asl #8
	sub	r10, r3, r10, asl #2
	mov	r10, r10, lsr #8
	add	r10, r10, #1
	blt	.L364
.L176:
	mov	r9, r10, asl #24
	cmp	r9, r4
	bhi	.L177
	ldr	r3, [r6, #36]
	rsb	r9, r9, r4
	rsb	r10, r10, r3
	add	r3, r7, r10
	ldrb	r3, [r3, #24]	@ zero_extendqisi2
	rsb	r4, r3, r5
	mov	r10, r10, asl r3
	sub	r5, r10, #1
	cmp	r4, #0
	ubfx	r5, r5, #1, #24
	mov	r9, r9, asl r3
	str	r10, [r6, #36]
	add	r5, r5, #1
	str	r4, [r6, #32]
	str	r9, [r6, #28]
	blt	.L365
.L178:
	mov	r3, r5, asl #24
	cmp	r3, r9
	bhi	.L179
	ldr	r2, [r6, #36]
	rsb	r9, r3, r9
	rsb	r5, r5, r2
	add	r3, r7, r5
	ldrb	r0, [r3, #24]	@ zero_extendqisi2
	mov	r2, r5, asl r0
	rsb	r4, r0, r4
	sub	r5, r2, #1
	cmp	r4, #0
	ubfx	r5, r5, #1, #24
	mov	r9, r9, asl r0
	str	r2, [r6, #36]
	add	r5, r5, #1
	str	r4, [r6, #32]
	str	r9, [r6, #28]
	blt	.L366
.L181:
	mov	r3, r5, asl #24
	cmp	r3, r9
	bhi	.L186
	ldr	r1, [r6, #36]
	rsb	r3, r3, r9
	rsb	r5, r5, r1
	add	r2, r7, r5
	ldrb	r2, [r2, #24]	@ zero_extendqisi2
	rsb	r9, r2, r4
	mov	r1, r5, asl r2
	sub	r5, r1, #1
	cmp	r9, #0
	ubfx	r5, r5, #1, #24
	mov	r4, r3, asl r2
	str	r1, [r6, #36]
	add	r5, r5, #1
	str	r9, [r6, #32]
	str	r4, [r6, #28]
	blt	.L367
.L188:
	mov	r2, r5, asl #24
	cmp	r2, r4
	bhi	.L192
	ldr	r1, [r6, #36]
	rsb	r2, r2, r4
	mov	r10, #0
	mov	r3, #6
	rsb	r5, r5, r1
	str	r8, [fp, #-68]
	add	r1, r7, r5
	mov	r8, r10
	mov	ip, #1
	ldrb	r4, [r1, #24]	@ zero_extendqisi2
	mov	r2, r2, asl r4
	rsb	r9, r4, r9
	str	r2, [r6, #28]
	mov	r4, r5, asl r4
	str	r9, [r6, #32]
	mov	r5, r3
	str	r4, [r6, #36]
	mov	r10, r2
	b	.L193
.L197:
	mov	r2, r4, asl #24
	mov	r1, ip, asl r5
	cmp	r2, r0
	sub	r5, r5, #1
	rsbls	r0, r2, r0
	ldrls	lr, [r6, #36]
	movhi	r1, #0
	orr	r8, r8, r1
	rsbls	r4, r4, lr
	cmn	r5, #1
	add	r2, r7, r4
	ldrb	r2, [r2, #24]	@ zero_extendqisi2
	mov	r10, r0, asl r2
	rsb	r9, r2, r9
	mov	r4, r4, asl r2
	str	r10, [r6, #28]
	str	r9, [r6, #32]
	str	r4, [r6, #36]
	beq	.L368
.L193:
	sub	r4, r4, #1
	cmp	r9, #0
	ubfx	r4, r4, #1, #24
	mov	r0, r10
	add	r4, r4, #1
	bge	.L197
	rsb	r1, r9, #24
	rsb	r2, r9, #16
	bic	r1, r1, #7
	mov	r0, r6
	rsb	r2, r1, r2
	str	ip, [fp, #-64]
	str	r2, [fp, #-60]
	add	r9, r1, r9
	bl	BsGet
	ldr	r2, [fp, #-60]
	ldr	ip, [fp, #-64]
	and	r2, r2, #7
	orr	r0, r10, r0, asl r2
	b	.L197
.L177:
	add	r3, r7, r10
	ldrb	r3, [r3, #24]	@ zero_extendqisi2
	mov	r4, r4, asl r3
	rsb	r5, r3, r5
	str	r4, [r6, #28]
	mov	r3, r10, asl r3
	str	r5, [r6, #32]
	str	r3, [r6, #36]
.L273:
	ldr	r2, [fp, #-48]
	add	r8, r8, #2
	cmp	r8, r2
	bne	.L206
	ldr	r2, [fp, #-52]
	mov	r10, r3
	add	r8, r2, #6
	str	r8, [fp, #-48]
	ldr	r8, [fp, #-56]
.L270:
	sub	r10, r10, #1
	cmp	r5, #0
	mov	r2, r10, asl #8
	sub	r10, r2, r10, asl #2
	mov	r10, r10, lsr #8
	add	r10, r10, #1
	blt	.L369
.L207:
	mov	r9, r10, asl #24
	cmp	r9, r4
	bhi	.L208
	ldr	r3, [r6, #36]
	rsb	r9, r9, r4
	mov	r1, r8
	mov	r0, r6
	rsb	r10, r10, r3
	add	r3, r7, r10
	ldrb	r3, [r3, #24]	@ zero_extendqisi2
	mov	r9, r9, asl r3
	rsb	r4, r3, r5
	mov	r10, r10, asl r3
	str	r9, [r6, #28]
	str	r4, [r6, #32]
	str	r10, [r6, #36]
	bl	Vp9_DiffUpdateProb
	ldr	r9, [r6, #28]
	ldr	r10, [r6, #36]
	ldr	r4, [r6, #32]
.L274:
	sub	r10, r10, #1
	cmp	r4, #0
	mov	r3, r10, asl #8
	sub	r10, r3, r10, asl #2
	mov	r10, r10, lsr #8
	add	r10, r10, #1
	blt	.L370
.L209:
	mov	r5, r10, asl #24
	cmp	r5, r9
	bhi	.L210
	ldr	r3, [r6, #36]
	rsb	r9, r5, r9
	rsb	r10, r10, r3
	add	r3, r7, r10
	ldrb	r3, [r3, #24]	@ zero_extendqisi2
	mov	r10, r10, asl r3
	rsb	r4, r3, r4
	sub	r5, r10, #1
	cmp	r4, #0
	ubfx	r5, r5, #1, #24
	mov	r9, r9, asl r3
	str	r10, [r6, #36]
	add	r5, r5, #1
	str	r4, [r6, #32]
	str	r9, [r6, #28]
	blt	.L371
.L211:
	mov	r3, r5, asl #24
	cmp	r3, r9
	bhi	.L212
	ldr	r2, [r6, #36]
	rsb	r9, r3, r9
	rsb	r5, r5, r2
	add	r3, r7, r5
	ldrb	r0, [r3, #24]	@ zero_extendqisi2
	mov	r2, r5, asl r0
	rsb	r4, r0, r4
	sub	r5, r2, #1
	cmp	r4, #0
	ubfx	r5, r5, #1, #24
	mov	r9, r9, asl r0
	str	r2, [r6, #36]
	add	r5, r5, #1
	str	r4, [r6, #32]
	str	r9, [r6, #28]
	blt	.L372
.L214:
	mov	r3, r5, asl #24
	cmp	r3, r9
	bhi	.L219
	ldr	r1, [r6, #36]
	rsb	r3, r3, r9
	rsb	r5, r5, r1
	add	r2, r7, r5
	ldrb	r2, [r2, #24]	@ zero_extendqisi2
	rsb	r9, r2, r4
	mov	r1, r5, asl r2
	sub	r5, r1, #1
	cmp	r9, #0
	ubfx	r5, r5, #1, #24
	mov	r4, r3, asl r2
	str	r1, [r6, #36]
	add	r5, r5, #1
	str	r9, [r6, #32]
	str	r4, [r6, #28]
	blt	.L373
.L221:
	mov	r2, r5, asl #24
	cmp	r2, r4
	bhi	.L225
	ldr	r1, [r6, #36]
	rsb	r2, r2, r4
	mov	r10, #0
	mov	r3, #6
	rsb	r5, r5, r1
	str	r8, [fp, #-60]
	add	r1, r7, r5
	mov	r8, r10
	mov	ip, #1
	ldrb	r4, [r1, #24]	@ zero_extendqisi2
	mov	r2, r2, asl r4
	rsb	r9, r4, r9
	str	r2, [r6, #28]
	mov	r4, r5, asl r4
	str	r9, [r6, #32]
	mov	r5, r3
	str	r4, [r6, #36]
	mov	r10, r2
	b	.L226
.L230:
	mov	r2, r4, asl #24
	mov	r1, ip, asl r5
	cmp	r2, r0
	sub	r5, r5, #1
	rsbls	r0, r2, r0
	ldrls	lr, [r6, #36]
	movhi	r1, #0
	orr	r8, r8, r1
	rsbls	r4, r4, lr
	cmn	r5, #1
	add	r2, r7, r4
	ldrb	r2, [r2, #24]	@ zero_extendqisi2
	mov	r10, r0, asl r2
	rsb	r9, r2, r9
	mov	r4, r4, asl r2
	str	r10, [r6, #28]
	str	r9, [r6, #32]
	str	r4, [r6, #36]
	beq	.L374
.L226:
	sub	r4, r4, #1
	cmp	r9, #0
	ubfx	r4, r4, #1, #24
	mov	r0, r10
	add	r4, r4, #1
	bge	.L230
	rsb	r1, r9, #24
	rsb	r2, r9, #16
	bic	r1, r1, #7
	mov	r0, r6
	rsb	r2, r1, r2
	str	ip, [fp, #-56]
	str	r2, [fp, #-52]
	add	r9, r1, r9
	bl	BsGet
	ldr	r2, [fp, #-52]
	ldr	ip, [fp, #-56]
	and	r2, r2, #7
	orr	r0, r10, r0, asl r2
	b	.L230
.L208:
	add	r3, r7, r10
	ldrb	r3, [r3, #24]	@ zero_extendqisi2
	mov	r9, r4, asl r3
	mov	r10, r10, asl r3
	rsb	r4, r3, r5
	str	r9, [r6, #28]
	str	r4, [r6, #32]
	str	r10, [r6, #36]
	b	.L274
.L210:
	add	r3, r7, r10
	ldrb	r3, [r3, #24]	@ zero_extendqisi2
	mov	r5, r9, asl r3
	rsb	r4, r3, r4
	mov	r10, r10, asl r3
	str	r5, [r6, #28]
	str	r4, [r6, #32]
	str	r10, [r6, #36]
.L275:
	sub	r10, r10, #1
	cmp	r4, #0
	mov	r3, r10, asl #8
	sub	r10, r3, r10, asl #2
	mov	r10, r10, lsr #8
	add	r10, r10, #1
	blt	.L375
.L239:
	mov	r9, r10, asl #24
	cmp	r9, r5
	bhi	.L240
	ldr	r3, [r6, #36]
	rsb	r9, r9, r5
	rsb	r10, r10, r3
	add	r3, r7, r10
	ldrb	r3, [r3, #24]	@ zero_extendqisi2
	mov	r10, r10, asl r3
	rsb	r4, r3, r4
	sub	r5, r10, #1
	cmp	r4, #0
	ubfx	r5, r5, #1, #24
	mov	r9, r9, asl r3
	str	r10, [r6, #36]
	add	r5, r5, #1
	str	r4, [r6, #32]
	str	r9, [r6, #28]
	blt	.L376
.L241:
	mov	r3, r5, asl #24
	cmp	r3, r9
	bhi	.L242
	ldr	r2, [r6, #36]
	rsb	r9, r3, r9
	rsb	r5, r5, r2
	add	r3, r7, r5
	ldrb	r0, [r3, #24]	@ zero_extendqisi2
	mov	r2, r5, asl r0
	rsb	r4, r0, r4
	sub	r5, r2, #1
	cmp	r4, #0
	ubfx	r5, r5, #1, #24
	mov	r9, r9, asl r0
	str	r2, [r6, #36]
	add	r5, r5, #1
	str	r4, [r6, #32]
	str	r9, [r6, #28]
	blt	.L377
.L244:
	mov	r3, r5, asl #24
	cmp	r3, r9
	bhi	.L249
	ldr	r1, [r6, #36]
	rsb	r3, r3, r9
	rsb	r5, r5, r1
	add	r2, r7, r5
	ldrb	r2, [r2, #24]	@ zero_extendqisi2
	rsb	r9, r2, r4
	mov	r1, r5, asl r2
	sub	r5, r1, #1
	cmp	r9, #0
	ubfx	r5, r5, #1, #24
	mov	r4, r3, asl r2
	str	r1, [r6, #36]
	add	r5, r5, #1
	str	r9, [r6, #32]
	str	r4, [r6, #28]
	blt	.L378
.L251:
	mov	r2, r5, asl #24
	cmp	r2, r4
	bhi	.L255
	ldr	r1, [r6, #36]
	rsb	r2, r2, r4
	mov	r10, #0
	mov	r3, #6
	rsb	r5, r5, r1
	str	r8, [fp, #-60]
	add	r1, r7, r5
	mov	r8, r10
	mov	ip, #1
	ldrb	r4, [r1, #24]	@ zero_extendqisi2
	mov	r2, r2, asl r4
	rsb	r9, r4, r9
	str	r2, [r6, #28]
	mov	r4, r5, asl r4
	str	r9, [r6, #32]
	mov	r5, r3
	str	r4, [r6, #36]
	mov	r10, r2
	b	.L256
.L260:
	mov	r2, r4, asl #24
	mov	r1, ip, asl r5
	cmp	r2, r0
	sub	r5, r5, #1
	rsbls	r0, r2, r0
	ldrls	lr, [r6, #36]
	movhi	r1, #0
	orr	r8, r8, r1
	rsbls	r4, r4, lr
	cmn	r5, #1
	add	r2, r7, r4
	ldrb	r2, [r2, #24]	@ zero_extendqisi2
	mov	r10, r0, asl r2
	rsb	r9, r2, r9
	mov	r4, r4, asl r2
	str	r10, [r6, #28]
	str	r9, [r6, #32]
	str	r4, [r6, #36]
	beq	.L379
.L256:
	sub	r4, r4, #1
	cmp	r9, #0
	ubfx	r4, r4, #1, #24
	mov	r0, r10
	add	r4, r4, #1
	bge	.L260
	rsb	r1, r9, #24
	rsb	r2, r9, #16
	bic	r1, r1, #7
	mov	r0, r6
	rsb	r2, r1, r2
	str	ip, [fp, #-56]
	str	r2, [fp, #-52]
	add	r9, r1, r9
	bl	BsGet
	ldr	r2, [fp, #-52]
	ldr	ip, [fp, #-56]
	and	r2, r2, #7
	orr	r0, r10, r0, asl r2
	b	.L260
.L240:
	add	r3, r7, r10
	ldrb	r3, [r3, #24]	@ zero_extendqisi2
	mov	r5, r5, asl r3
	rsb	r4, r3, r4
	mov	r10, r10, asl r3
	str	r5, [r6, #28]
	str	r4, [r6, #32]
	str	r10, [r6, #36]
.L276:
	ldr	r3, [fp, #-48]
	add	r8, r8, #3
	cmp	r8, r3
	addne	r4, r6, #28
	ldmneia	r4, {r4, r5, r10}
	bne	.L270
.L114:
	sub	sp, fp, #40
	ldmfd	sp, {r4, r5, r6, r7, r8, r9, r10, fp, sp, pc}
.L212:
	add	r3, r7, r5
	mov	r10, #0
	mov	r2, #3
	str	r8, [fp, #-60]
	ldrb	r1, [r3, #24]	@ zero_extendqisi2
	mov	r8, r10
	mov	ip, #1
	mov	r9, r9, asl r1
	rsb	r4, r1, r4
	str	r9, [r6, #28]
	mov	r5, r5, asl r1
	mov	r10, r9
	str	r4, [r6, #32]
	str	r5, [r6, #36]
	mov	r9, r2
	b	.L217
.L215:
	mov	r2, r5, asl #24
	mov	r1, ip, asl r9
	cmp	r2, r0
	sub	r9, r9, #1
	rsbls	r0, r2, r0
	ldrls	lr, [r6, #36]
	movhi	r1, #0
	orr	r8, r8, r1
	rsbls	r5, r5, lr
	cmn	r9, #1
	add	r2, r7, r5
	ldrb	r2, [r2, #24]	@ zero_extendqisi2
	mov	r10, r0, asl r2
	rsb	r4, r2, r4
	mov	r5, r5, asl r2
	str	r10, [r6, #28]
	str	r4, [r6, #32]
	str	r5, [r6, #36]
	beq	.L380
.L217:
	sub	r5, r5, #1
	cmp	r4, #0
	ubfx	r5, r5, #1, #24
	mov	r0, r10
	add	r5, r5, #1
	bge	.L215
	rsb	r1, r4, #24
	rsb	r2, r4, #16
	bic	r1, r1, #7
	mov	r0, r6
	rsb	r2, r1, r2
	str	ip, [fp, #-56]
	str	r2, [fp, #-52]
	add	r4, r1, r4
	bl	BsGet
	ldr	r2, [fp, #-52]
	ldr	ip, [fp, #-56]
	and	r2, r2, #7
	orr	r0, r10, r0, asl r2
	b	.L215
.L179:
	add	r3, r7, r5
	mov	r10, #0
	mov	r2, #3
	str	r8, [fp, #-68]
	ldrb	r1, [r3, #24]	@ zero_extendqisi2
	mov	r8, r10
	mov	ip, #1
	mov	r9, r9, asl r1
	rsb	r4, r1, r4
	str	r9, [r6, #28]
	mov	r5, r5, asl r1
	mov	r10, r9
	str	r4, [r6, #32]
	str	r5, [r6, #36]
	mov	r9, r2
	b	.L184
.L182:
	mov	r2, r5, asl #24
	mov	r1, ip, asl r9
	cmp	r2, r0
	sub	r9, r9, #1
	rsbls	r0, r2, r0
	ldrls	lr, [r6, #36]
	movhi	r1, #0
	orr	r8, r8, r1
	rsbls	r5, r5, lr
	cmn	r9, #1
	add	r2, r7, r5
	ldrb	r2, [r2, #24]	@ zero_extendqisi2
	mov	r10, r0, asl r2
	rsb	r4, r2, r4
	mov	r5, r5, asl r2
	str	r10, [r6, #28]
	str	r4, [r6, #32]
	str	r5, [r6, #36]
	beq	.L381
.L184:
	sub	r5, r5, #1
	cmp	r4, #0
	ubfx	r5, r5, #1, #24
	mov	r0, r10
	add	r5, r5, #1
	bge	.L182
	rsb	r1, r4, #24
	rsb	r2, r4, #16
	bic	r1, r1, #7
	mov	r0, r6
	rsb	r2, r1, r2
	str	ip, [fp, #-64]
	str	r2, [fp, #-60]
	add	r4, r1, r4
	bl	BsGet
	ldr	r2, [fp, #-60]
	ldr	ip, [fp, #-64]
	and	r2, r2, #7
	orr	r0, r10, r0, asl r2
	b	.L182
.L149:
	add	r3, r7, r5
	mov	r10, #0
	mov	r2, #3
	str	r8, [fp, #-68]
	ldrb	r1, [r3, #24]	@ zero_extendqisi2
	mov	r8, r10
	mov	ip, #1
	mov	r9, r9, asl r1
	rsb	r4, r1, r4
	str	r9, [r6, #28]
	mov	r5, r5, asl r1
	mov	r10, r9
	str	r4, [r6, #32]
	str	r5, [r6, #36]
	mov	r9, r2
	b	.L154
.L152:
	mov	r2, r5, asl #24
	mov	r1, ip, asl r9
	cmp	r2, r0
	sub	r9, r9, #1
	rsbls	r0, r2, r0
	ldrls	lr, [r6, #36]
	movhi	r1, #0
	orr	r8, r8, r1
	rsbls	r5, r5, lr
	cmn	r9, #1
	add	r2, r7, r5
	ldrb	r2, [r2, #24]	@ zero_extendqisi2
	mov	r10, r0, asl r2
	rsb	r4, r2, r4
	mov	r5, r5, asl r2
	str	r10, [r6, #28]
	str	r4, [r6, #32]
	str	r5, [r6, #36]
	beq	.L382
.L154:
	sub	r5, r5, #1
	cmp	r4, #0
	ubfx	r5, r5, #1, #24
	mov	r0, r10
	add	r5, r5, #1
	bge	.L152
	rsb	r1, r4, #24
	rsb	r2, r4, #16
	bic	r1, r1, #7
	mov	r0, r6
	rsb	r2, r1, r2
	str	ip, [fp, #-64]
	str	r2, [fp, #-60]
	add	r4, r1, r4
	bl	BsGet
	ldr	r2, [fp, #-60]
	ldr	ip, [fp, #-64]
	and	r2, r2, #7
	orr	r0, r10, r0, asl r2
	b	.L152
.L118:
	add	r3, r7, r4
	mov	r10, #0
	mov	r2, #3
	str	r8, [fp, #-64]
	ldrb	r1, [r3, #24]	@ zero_extendqisi2
	mov	r8, r10
	mov	ip, #1
	mov	r9, r9, asl r1
	rsb	r5, r1, r5
	str	r9, [r6, #28]
	mov	r4, r4, asl r1
	mov	r10, r9
	str	r5, [r6, #32]
	str	r4, [r6, #36]
	mov	r9, r2
	b	.L123
.L121:
	mov	r2, r4, asl #24
	mov	r1, ip, asl r9
	cmp	r2, r0
	sub	r9, r9, #1
	rsbls	r0, r2, r0
	ldrls	lr, [r6, #36]
	movhi	r1, #0
	orr	r8, r8, r1
	rsbls	r4, r4, lr
	cmn	r9, #1
	add	r2, r7, r4
	ldrb	r2, [r2, #24]	@ zero_extendqisi2
	mov	r10, r0, asl r2
	rsb	r5, r2, r5
	mov	r4, r4, asl r2
	str	r10, [r6, #28]
	str	r5, [r6, #32]
	str	r4, [r6, #36]
	beq	.L383
.L123:
	sub	r4, r4, #1
	cmp	r5, #0
	ubfx	r4, r4, #1, #24
	mov	r0, r10
	add	r4, r4, #1
	bge	.L121
	rsb	r1, r5, #24
	rsb	r2, r5, #16
	bic	r1, r1, #7
	mov	r0, r6
	rsb	r2, r1, r2
	str	ip, [fp, #-60]
	str	r2, [fp, #-56]
	add	r5, r1, r5
	bl	BsGet
	ldr	r2, [fp, #-56]
	ldr	ip, [fp, #-60]
	and	r2, r2, #7
	orr	r0, r10, r0, asl r2
	b	.L121
.L242:
	add	r3, r7, r5
	mov	r10, #0
	mov	r2, #3
	str	r8, [fp, #-60]
	ldrb	r1, [r3, #24]	@ zero_extendqisi2
	mov	r8, r10
	mov	ip, #1
	mov	r9, r9, asl r1
	rsb	r4, r1, r4
	str	r9, [r6, #28]
	mov	r5, r5, asl r1
	mov	r10, r9
	str	r4, [r6, #32]
	str	r5, [r6, #36]
	mov	r9, r2
	b	.L247
.L245:
	mov	r2, r5, asl #24
	mov	r1, ip, asl r9
	cmp	r2, r0
	sub	r9, r9, #1
	rsbls	r0, r2, r0
	ldrls	lr, [r6, #36]
	movhi	r1, #0
	orr	r8, r8, r1
	rsbls	r5, r5, lr
	cmn	r9, #1
	add	r2, r7, r5
	ldrb	r2, [r2, #24]	@ zero_extendqisi2
	mov	r10, r0, asl r2
	rsb	r4, r2, r4
	mov	r5, r5, asl r2
	str	r10, [r6, #28]
	str	r4, [r6, #32]
	str	r5, [r6, #36]
	beq	.L384
.L247:
	sub	r5, r5, #1
	cmp	r4, #0
	ubfx	r5, r5, #1, #24
	mov	r0, r10
	add	r5, r5, #1
	bge	.L245
	rsb	r1, r4, #24
	rsb	r2, r4, #16
	bic	r1, r1, #7
	mov	r0, r6
	rsb	r2, r1, r2
	str	ip, [fp, #-56]
	str	r2, [fp, #-52]
	add	r4, r1, r4
	bl	BsGet
	ldr	r2, [fp, #-52]
	ldr	ip, [fp, #-56]
	and	r2, r2, #7
	orr	r0, r10, r0, asl r2
	b	.L245
.L401:
	.align	2
.L400:
	.word	.LANCHOR0
.L364:
	rsb	r2, r5, #24
	rsb	r9, r5, #16
	bic	r2, r2, #7
	mov	r0, r6
	rsb	r9, r2, r9
	str	r2, [fp, #-60]
	mov	r1, r2
	bl	BsGet
	and	r3, r9, #7
	ldr	r2, [fp, #-60]
	add	r5, r2, r5
	str	r5, [r6, #32]
	orr	r0, r4, r0, asl r3
	str	r0, [r6, #28]
	mov	r4, r0
	b	.L176
.L369:
	rsb	r3, r5, #24
	rsb	r9, r5, #16
	bic	r3, r3, #7
	mov	r0, r6
	rsb	r9, r3, r9
	str	r3, [fp, #-52]
	mov	r1, r3
	and	r9, r9, #7
	bl	BsGet
	ldr	r3, [fp, #-52]
	add	r5, r3, r5
	str	r5, [r6, #32]
	orr	r0, r4, r0, asl r9
	str	r0, [r6, #28]
	mov	r4, r0
	b	.L207
.L370:
	rsb	r3, r4, #24
	rsb	r5, r4, #16
	bic	r3, r3, #7
	mov	r0, r6
	rsb	r5, r3, r5
	str	r3, [fp, #-52]
	mov	r1, r3
	and	r5, r5, #7
	bl	BsGet
	ldr	r3, [fp, #-52]
	add	r4, r3, r4
	str	r4, [r6, #32]
	orr	r0, r9, r0, asl r5
	str	r0, [r6, #28]
	mov	r9, r0
	b	.L209
.L375:
	rsb	r2, r4, #24
	rsb	r9, r4, #16
	bic	r2, r2, #7
	mov	r0, r6
	rsb	r9, r2, r9
	str	r2, [fp, #-52]
	mov	r1, r2
	bl	BsGet
	and	r3, r9, #7
	ldr	r2, [fp, #-52]
	add	r4, r2, r4
	str	r4, [r6, #32]
	orr	r0, r5, r0, asl r3
	str	r0, [r6, #28]
	mov	r5, r0
	b	.L239
.L359:
	rsb	r3, r5, #24
	rsb	r9, r5, #16
	bic	r3, r3, #7
	mov	r0, r6
	rsb	r9, r3, r9
	str	r3, [fp, #-60]
	mov	r1, r3
	and	r9, r9, #7
	bl	BsGet
	ldr	r3, [fp, #-60]
	add	r5, r3, r5
	str	r5, [r6, #32]
	orr	r0, r4, r0, asl r9
	str	r0, [r6, #28]
	mov	r4, r0
	b	.L146
.L354:
	rsb	r3, r5, #24
	rsb	r9, r5, #16
	bic	r3, r3, #7
	mov	r0, r6
	rsb	r9, r3, r9
	str	r3, [fp, #-56]
	mov	r1, r3
	and	r9, r9, #7
	bl	BsGet
	ldr	r3, [fp, #-56]
	add	r5, r3, r5
	str	r5, [r6, #32]
	orr	r0, r4, r0, asl r9
	str	r0, [r6, #28]
	mov	r4, r0
	b	.L115
.L382:
	mov	r10, r8
	ldr	r8, [fp, #-68]
.L155:
	ldrb	r2, [r8, #6]	@ zero_extendqisi2
	add	r10, r7, r10
	sub	ip, r2, #1
	ldrb	r1, [r10, #280]	@ zero_extendqisi2
	mov	r0, ip, asl #1
	cmp	r0, #255
	bgt	.L170
	add	r3, r1, #1
	cmp	r3, r0
	bgt	.L171
	tst	r3, #1
	addne	r3, r1, #2
	addeq	r3, r3, r3, lsr #31
	subne	r3, ip, r3, asr #1
	addeq	r3, ip, r3, asr #1
.L171:
	add	r3, r3, #1
.L173:
	add	r4, r6, #28
	strb	r3, [r8, #6]
	ldmia	r4, {r4, r5, r10}
	b	.L272
.L170:
	rsb	r2, r2, #255
	add	r3, r1, #1
	cmp	r3, r2, asl #1
	ble	.L385
	rsb	r3, r3, #255
	b	.L173
.L383:
	mov	r10, r8
	ldr	r8, [fp, #-64]
.L124:
	ldrb	r2, [r8]	@ zero_extendqisi2
	add	r10, r7, r10
	sub	ip, r2, #1
	ldrb	r1, [r10, #280]	@ zero_extendqisi2
	mov	r0, ip, asl #1
	cmp	r0, #255
	bgt	.L139
	add	r3, r1, #1
	cmp	r3, r0
	bgt	.L140
	tst	r3, #1
	addne	r3, r1, #2
	addeq	r3, r3, r3, lsr #31
	subne	r3, ip, r3, asr #1
	addeq	r3, ip, r3, asr #1
.L140:
	add	r3, r3, #1
.L142:
	strb	r3, [r8]
	ldr	r4, [r6, #28]
	ldr	r3, [r6, #36]
	ldr	r5, [r6, #32]
	b	.L271
.L139:
	rsb	r2, r2, #255
	add	r3, r1, #1
	cmp	r3, r2, asl #1
	ble	.L386
	rsb	r3, r3, #255
	b	.L142
.L384:
	mov	r10, r8
	ldr	r8, [fp, #-60]
.L248:
	ldrb	r2, [r8, #2]	@ zero_extendqisi2
	add	r10, r7, r10
	sub	ip, r2, #1
	ldrb	r1, [r10, #280]	@ zero_extendqisi2
	mov	r0, ip, asl #1
	cmp	r0, #255
	bgt	.L263
	add	r3, r1, #1
	cmp	r3, r0
	bgt	.L264
	tst	r3, #1
	addne	r3, r1, #2
	addeq	r3, r3, r3, lsr #31
	subne	r3, ip, r3, asr #1
	addeq	r3, ip, r3, asr #1
.L264:
	add	r3, r3, #1
.L266:
	strb	r3, [r8, #2]
	b	.L276
.L263:
	rsb	r2, r2, #255
	add	r3, r1, #1
	cmp	r3, r2, asl #1
	ble	.L387
	rsb	r3, r3, #255
	b	.L266
.L381:
	mov	r10, r8
	ldr	r8, [fp, #-68]
.L185:
	ldrb	r2, [r8, #7]	@ zero_extendqisi2
	add	r10, r7, r10
	sub	ip, r2, #1
	ldrb	r1, [r10, #280]	@ zero_extendqisi2
	mov	r0, ip, asl #1
	cmp	r0, #255
	bgt	.L200
	add	r3, r1, #1
	cmp	r3, r0
	bgt	.L201
	tst	r3, #1
	addne	r3, r1, #2
	addeq	r3, r3, r3, lsr #31
	subne	r3, ip, r3, asr #1
	addeq	r3, ip, r3, asr #1
.L201:
	add	r3, r3, #1
.L203:
	strb	r3, [r8, #7]
	ldr	r4, [r6, #28]
	ldr	r3, [r6, #36]
	ldr	r5, [r6, #32]
	b	.L273
.L200:
	rsb	r2, r2, #255
	add	r3, r1, #1
	cmp	r3, r2, asl #1
	ble	.L388
	rsb	r3, r3, #255
	b	.L203
.L380:
	mov	r10, r8
	ldr	r8, [fp, #-60]
.L218:
	ldrb	r2, [r8, #1]	@ zero_extendqisi2
	add	r10, r7, r10
	sub	ip, r2, #1
	ldrb	r1, [r10, #280]	@ zero_extendqisi2
	mov	r0, ip, asl #1
	cmp	r0, #255
	bgt	.L233
	add	r3, r1, #1
	cmp	r3, r0
	bgt	.L234
	tst	r3, #1
	addne	r3, r1, #2
	addeq	r3, r3, r3, lsr #31
	subne	r3, ip, r3, asr #1
	addeq	r3, ip, r3, asr #1
.L234:
	add	r3, r3, #1
.L236:
	strb	r3, [r8, #1]
	ldr	r5, [r6, #28]
	ldr	r10, [r6, #36]
	ldr	r4, [r6, #32]
	b	.L275
.L233:
	rsb	r2, r2, #255
	add	r3, r1, #1
	cmp	r3, r2, asl #1
	ble	.L389
	rsb	r3, r3, #255
	b	.L236
.L386:
	tst	r3, #1
	addne	r3, r1, #2
	addeq	r3, r3, r3, lsr #31
	subne	r3, r2, r3, asr #1
	addeq	r3, r2, r3, asr #1
	rsb	r3, r3, #255
	b	.L142
.L385:
	tst	r3, #1
	addne	r3, r1, #2
	addeq	r3, r3, r3, lsr #31
	subne	r3, r2, r3, asr #1
	addeq	r3, r2, r3, asr #1
	rsb	r3, r3, #255
	b	.L173
.L388:
	tst	r3, #1
	addne	r3, r1, #2
	addeq	r3, r3, r3, lsr #31
	subne	r3, r2, r3, asr #1
	addeq	r3, r2, r3, asr #1
	rsb	r3, r3, #255
	b	.L203
.L387:
	tst	r3, #1
	addne	r3, r1, #2
	addeq	r3, r3, r3, lsr #31
	subne	r3, r2, r3, asr #1
	addeq	r3, r2, r3, asr #1
	rsb	r3, r3, #255
	b	.L266
.L389:
	tst	r3, #1
	addne	r3, r1, #2
	addeq	r3, r3, r3, lsr #31
	subne	r3, r2, r3, asr #1
	addeq	r3, r2, r3, asr #1
	rsb	r3, r3, #255
	b	.L236
.L162:
	add	r3, r7, r5
	mov	r10, #0
	mov	ip, #4
	str	r8, [fp, #-68]
	ldrb	r1, [r3, #24]	@ zero_extendqisi2
	mov	r8, r10
	mov	r2, #1
	mov	r3, r4, asl r1
	mov	r5, r5, asl r1
	rsb	r9, r1, r9
	str	r5, [r6, #36]
	mov	r4, r5
	str	r3, [r6, #28]
	str	r9, [r6, #32]
	mov	r10, r3
	mov	r5, ip
	b	.L166
.L164:
	mov	r1, r4, asl #24
	mov	ip, r2, asl r5
	cmp	r1, r0
	sub	r5, r5, #1
	rsbls	r0, r1, r0
	ldrls	lr, [r6, #36]
	movhi	ip, #0
	orr	r8, r8, ip
	rsbls	r4, r4, lr
	cmn	r5, #1
	add	r1, r7, r4
	ldrb	r1, [r1, #24]	@ zero_extendqisi2
	mov	r10, r0, asl r1
	rsb	r9, r1, r9
	mov	r4, r4, asl r1
	str	r10, [r6, #28]
	str	r9, [r6, #32]
	str	r4, [r6, #36]
	beq	.L390
.L166:
	sub	r4, r4, #1
	cmp	r9, #0
	ubfx	r4, r4, #1, #24
	mov	r0, r10
	add	r4, r4, #1
	bge	.L164
	rsb	r1, r9, #24
	rsb	ip, r9, #16
	bic	r1, r1, #7
	mov	r0, r6
	rsb	ip, r1, ip
	str	r2, [fp, #-64]
	str	ip, [fp, #-60]
	add	r9, r1, r9
	bl	BsGet
	ldr	ip, [fp, #-60]
	ldr	r2, [fp, #-64]
	and	ip, ip, #7
	orr	r0, r10, r0, asl ip
	b	.L164
.L192:
	add	r3, r7, r5
	mov	r10, #0
	mov	ip, #4
	str	r8, [fp, #-68]
	ldrb	r1, [r3, #24]	@ zero_extendqisi2
	mov	r8, r10
	mov	r2, #1
	mov	r3, r4, asl r1
	mov	r5, r5, asl r1
	rsb	r9, r1, r9
	str	r5, [r6, #36]
	mov	r4, r5
	str	r3, [r6, #28]
	str	r9, [r6, #32]
	mov	r10, r3
	mov	r5, ip
	b	.L196
.L194:
	mov	r1, r4, asl #24
	mov	ip, r2, asl r5
	cmp	r1, r0
	sub	r5, r5, #1
	rsbls	r0, r1, r0
	ldrls	lr, [r6, #36]
	movhi	ip, #0
	orr	r8, r8, ip
	rsbls	r4, r4, lr
	cmn	r5, #1
	add	r1, r7, r4
	ldrb	r1, [r1, #24]	@ zero_extendqisi2
	mov	r10, r0, asl r1
	rsb	r9, r1, r9
	mov	r4, r4, asl r1
	str	r10, [r6, #28]
	str	r9, [r6, #32]
	str	r4, [r6, #36]
	beq	.L391
.L196:
	sub	r4, r4, #1
	cmp	r9, #0
	ubfx	r4, r4, #1, #24
	mov	r0, r10
	add	r4, r4, #1
	bge	.L194
	rsb	r1, r9, #24
	rsb	ip, r9, #16
	bic	r1, r1, #7
	mov	r0, r6
	rsb	ip, r1, ip
	str	r2, [fp, #-64]
	str	ip, [fp, #-60]
	add	r9, r1, r9
	bl	BsGet
	ldr	ip, [fp, #-60]
	ldr	r2, [fp, #-64]
	and	ip, ip, #7
	orr	r0, r10, r0, asl ip
	b	.L194
.L255:
	add	r3, r7, r5
	mov	r10, #0
	mov	ip, #4
	str	r8, [fp, #-60]
	ldrb	r1, [r3, #24]	@ zero_extendqisi2
	mov	r8, r10
	mov	r2, #1
	mov	r3, r4, asl r1
	mov	r5, r5, asl r1
	rsb	r9, r1, r9
	str	r5, [r6, #36]
	mov	r4, r5
	str	r3, [r6, #28]
	str	r9, [r6, #32]
	mov	r10, r3
	mov	r5, ip
	b	.L259
.L257:
	mov	r1, r4, asl #24
	mov	ip, r2, asl r5
	cmp	r1, r0
	sub	r5, r5, #1
	rsbls	r0, r1, r0
	ldrls	lr, [r6, #36]
	movhi	ip, #0
	orr	r8, r8, ip
	rsbls	r4, r4, lr
	cmn	r5, #1
	add	r1, r7, r4
	ldrb	r1, [r1, #24]	@ zero_extendqisi2
	mov	r10, r0, asl r1
	rsb	r9, r1, r9
	mov	r4, r4, asl r1
	str	r10, [r6, #28]
	str	r9, [r6, #32]
	str	r4, [r6, #36]
	beq	.L392
.L259:
	sub	r4, r4, #1
	cmp	r9, #0
	ubfx	r4, r4, #1, #24
	mov	r0, r10
	add	r4, r4, #1
	bge	.L257
	rsb	r1, r9, #24
	rsb	ip, r9, #16
	bic	r1, r1, #7
	mov	r0, r6
	rsb	ip, r1, ip
	str	r2, [fp, #-56]
	str	ip, [fp, #-52]
	add	r9, r1, r9
	bl	BsGet
	ldr	ip, [fp, #-52]
	ldr	r2, [fp, #-56]
	and	ip, ip, #7
	orr	r0, r10, r0, asl ip
	b	.L257
.L131:
	add	r3, r7, r9
	mov	r10, #0
	mov	r2, #4
	str	r8, [fp, #-64]
	ldrb	r1, [r3, #24]	@ zero_extendqisi2
	mov	r8, r10
	mov	ip, #1
	mov	r3, r4, asl r1
	mov	r9, r9, asl r1
	rsb	r5, r1, r5
	str	r9, [r6, #36]
	mov	r4, r9
	str	r3, [r6, #28]
	str	r5, [r6, #32]
	mov	r10, r3
	mov	r9, r2
	b	.L135
.L133:
	mov	r2, r4, asl #24
	mov	r1, ip, asl r9
	cmp	r2, r0
	sub	r9, r9, #1
	rsbls	r0, r2, r0
	ldrls	lr, [r6, #36]
	movhi	r1, #0
	orr	r8, r8, r1
	rsbls	r4, r4, lr
	cmn	r9, #1
	add	r2, r7, r4
	ldrb	r2, [r2, #24]	@ zero_extendqisi2
	mov	r10, r0, asl r2
	rsb	r5, r2, r5
	mov	r4, r4, asl r2
	str	r10, [r6, #28]
	str	r5, [r6, #32]
	str	r4, [r6, #36]
	beq	.L393
.L135:
	sub	r4, r4, #1
	cmp	r5, #0
	ubfx	r4, r4, #1, #24
	mov	r0, r10
	add	r4, r4, #1
	bge	.L133
	rsb	r1, r5, #24
	rsb	r2, r5, #16
	bic	r1, r1, #7
	mov	r0, r6
	rsb	r2, r1, r2
	str	ip, [fp, #-60]
	str	r2, [fp, #-56]
	add	r5, r1, r5
	bl	BsGet
	ldr	r2, [fp, #-56]
	ldr	ip, [fp, #-60]
	and	r2, r2, #7
	orr	r0, r10, r0, asl r2
	b	.L133
.L225:
	add	r3, r7, r5
	mov	r10, #0
	mov	ip, #4
	str	r8, [fp, #-60]
	ldrb	r1, [r3, #24]	@ zero_extendqisi2
	mov	r8, r10
	mov	r2, #1
	mov	r3, r4, asl r1
	mov	r5, r5, asl r1
	rsb	r9, r1, r9
	str	r5, [r6, #36]
	mov	r4, r5
	str	r3, [r6, #28]
	str	r9, [r6, #32]
	mov	r10, r3
	mov	r5, ip
	b	.L229
.L227:
	mov	r1, r4, asl #24
	mov	ip, r2, asl r5
	cmp	r1, r0
	sub	r5, r5, #1
	rsbls	r0, r1, r0
	ldrls	lr, [r6, #36]
	movhi	ip, #0
	orr	r8, r8, ip
	rsbls	r4, r4, lr
	cmn	r5, #1
	add	r1, r7, r4
	ldrb	r1, [r1, #24]	@ zero_extendqisi2
	mov	r10, r0, asl r1
	rsb	r9, r1, r9
	mov	r4, r4, asl r1
	str	r10, [r6, #28]
	str	r9, [r6, #32]
	str	r4, [r6, #36]
	beq	.L394
.L229:
	sub	r4, r4, #1
	cmp	r9, #0
	ubfx	r4, r4, #1, #24
	mov	r0, r10
	add	r4, r4, #1
	bge	.L227
	rsb	r1, r9, #24
	rsb	ip, r9, #16
	bic	r1, r1, #7
	mov	r0, r6
	rsb	ip, r1, ip
	str	r2, [fp, #-56]
	str	ip, [fp, #-52]
	add	r9, r1, r9
	bl	BsGet
	ldr	ip, [fp, #-52]
	ldr	r2, [fp, #-56]
	and	ip, ip, #7
	orr	r0, r10, r0, asl ip
	b	.L227
.L156:
	add	r3, r7, r5
	mov	r10, #0
	mov	r2, #3
	str	r8, [fp, #-68]
	ldrb	r1, [r3, #24]	@ zero_extendqisi2
	mov	r8, r10
	mov	ip, #1
	mov	r9, r9, asl r1
	rsb	r4, r1, r4
	str	r9, [r6, #28]
	mov	r5, r5, asl r1
	mov	r10, r9
	str	r4, [r6, #32]
	str	r5, [r6, #36]
	mov	r9, r2
	b	.L161
.L159:
	mov	r2, r5, asl #24
	mov	r1, ip, asl r9
	cmp	r2, r0
	sub	r9, r9, #1
	rsbls	r0, r2, r0
	ldrls	lr, [r6, #36]
	movhi	r1, #0
	orr	r8, r8, r1
	rsbls	r5, r5, lr
	cmn	r9, #1
	add	r2, r7, r5
	ldrb	r2, [r2, #24]	@ zero_extendqisi2
	mov	r10, r0, asl r2
	rsb	r4, r2, r4
	mov	r5, r5, asl r2
	str	r10, [r6, #28]
	str	r4, [r6, #32]
	str	r5, [r6, #36]
	beq	.L395
.L161:
	sub	r5, r5, #1
	cmp	r4, #0
	ubfx	r5, r5, #1, #24
	mov	r0, r10
	add	r5, r5, #1
	bge	.L159
	rsb	r1, r4, #24
	rsb	r2, r4, #16
	bic	r1, r1, #7
	mov	r0, r6
	rsb	r2, r1, r2
	str	ip, [fp, #-64]
	str	r2, [fp, #-60]
	add	r4, r1, r4
	bl	BsGet
	ldr	r2, [fp, #-60]
	ldr	ip, [fp, #-64]
	and	r2, r2, #7
	orr	r0, r10, r0, asl r2
	b	.L159
.L125:
	add	r3, r7, r5
	mov	r10, #0
	mov	r2, #3
	str	r8, [fp, #-64]
	ldrb	r1, [r3, #24]	@ zero_extendqisi2
	mov	r8, r10
	mov	ip, #1
	mov	r9, r9, asl r1
	rsb	r4, r1, r4
	str	r9, [r6, #28]
	mov	r5, r5, asl r1
	mov	r10, r9
	str	r4, [r6, #32]
	str	r5, [r6, #36]
	mov	r9, r2
	b	.L130
.L128:
	mov	r2, r5, asl #24
	mov	r1, ip, asl r9
	cmp	r2, r0
	sub	r9, r9, #1
	rsbls	r0, r2, r0
	ldrls	lr, [r6, #36]
	movhi	r1, #0
	orr	r8, r8, r1
	rsbls	r5, r5, lr
	cmn	r9, #1
	add	r2, r7, r5
	ldrb	r2, [r2, #24]	@ zero_extendqisi2
	mov	r10, r0, asl r2
	rsb	r4, r2, r4
	mov	r5, r5, asl r2
	str	r10, [r6, #28]
	str	r4, [r6, #32]
	str	r5, [r6, #36]
	beq	.L396
.L130:
	sub	r5, r5, #1
	cmp	r4, #0
	ubfx	r5, r5, #1, #24
	mov	r0, r10
	add	r5, r5, #1
	bge	.L128
	rsb	r1, r4, #24
	rsb	r2, r4, #16
	bic	r1, r1, #7
	mov	r0, r6
	rsb	r2, r1, r2
	str	ip, [fp, #-60]
	str	r2, [fp, #-56]
	add	r4, r1, r4
	bl	BsGet
	ldr	r2, [fp, #-56]
	ldr	ip, [fp, #-60]
	and	r2, r2, #7
	orr	r0, r10, r0, asl r2
	b	.L128
.L186:
	add	r3, r7, r5
	mov	r10, #0
	mov	r2, #3
	str	r8, [fp, #-68]
	ldrb	r1, [r3, #24]	@ zero_extendqisi2
	mov	r8, r10
	mov	ip, #1
	mov	r9, r9, asl r1
	rsb	r4, r1, r4
	str	r9, [r6, #28]
	mov	r5, r5, asl r1
	mov	r10, r9
	str	r4, [r6, #32]
	str	r5, [r6, #36]
	mov	r9, r2
	b	.L191
.L189:
	mov	r2, r5, asl #24
	mov	r1, ip, asl r9
	cmp	r2, r0
	sub	r9, r9, #1
	rsbls	r0, r2, r0
	ldrls	lr, [r6, #36]
	movhi	r1, #0
	orr	r8, r8, r1
	rsbls	r5, r5, lr
	cmn	r9, #1
	add	r2, r7, r5
	ldrb	r2, [r2, #24]	@ zero_extendqisi2
	mov	r10, r0, asl r2
	rsb	r4, r2, r4
	mov	r5, r5, asl r2
	str	r10, [r6, #28]
	str	r4, [r6, #32]
	str	r5, [r6, #36]
	beq	.L397
.L191:
	sub	r5, r5, #1
	cmp	r4, #0
	ubfx	r5, r5, #1, #24
	mov	r0, r10
	add	r5, r5, #1
	bge	.L189
	rsb	r1, r4, #24
	rsb	r2, r4, #16
	bic	r1, r1, #7
	mov	r0, r6
	rsb	r2, r1, r2
	str	ip, [fp, #-64]
	str	r2, [fp, #-60]
	add	r4, r1, r4
	bl	BsGet
	ldr	r2, [fp, #-60]
	ldr	ip, [fp, #-64]
	and	r2, r2, #7
	orr	r0, r10, r0, asl r2
	b	.L189
.L219:
	add	r3, r7, r5
	mov	r10, #0
	mov	r2, #3
	str	r8, [fp, #-60]
	ldrb	r1, [r3, #24]	@ zero_extendqisi2
	mov	r8, r10
	mov	ip, #1
	mov	r9, r9, asl r1
	rsb	r4, r1, r4
	str	r9, [r6, #28]
	mov	r5, r5, asl r1
	mov	r10, r9
	str	r4, [r6, #32]
	str	r5, [r6, #36]
	mov	r9, r2
	b	.L224
.L222:
	mov	r2, r5, asl #24
	mov	r1, ip, asl r9
	cmp	r2, r0
	sub	r9, r9, #1
	rsbls	r0, r2, r0
	ldrls	lr, [r6, #36]
	movhi	r1, #0
	orr	r8, r8, r1
	rsbls	r5, r5, lr
	cmn	r9, #1
	add	r2, r7, r5
	ldrb	r2, [r2, #24]	@ zero_extendqisi2
	mov	r10, r0, asl r2
	rsb	r4, r2, r4
	mov	r5, r5, asl r2
	str	r10, [r6, #28]
	str	r4, [r6, #32]
	str	r5, [r6, #36]
	beq	.L398
.L224:
	sub	r5, r5, #1
	cmp	r4, #0
	ubfx	r5, r5, #1, #24
	mov	r0, r10
	add	r5, r5, #1
	bge	.L222
	rsb	r1, r4, #24
	rsb	r2, r4, #16
	bic	r1, r1, #7
	mov	r0, r6
	rsb	r2, r1, r2
	str	ip, [fp, #-56]
	str	r2, [fp, #-52]
	add	r4, r1, r4
	bl	BsGet
	ldr	r2, [fp, #-52]
	ldr	ip, [fp, #-56]
	and	r2, r2, #7
	orr	r0, r10, r0, asl r2
	b	.L222
.L249:
	add	r3, r7, r5
	mov	r10, #0
	mov	r2, #3
	str	r8, [fp, #-60]
	ldrb	r1, [r3, #24]	@ zero_extendqisi2
	mov	r8, r10
	mov	ip, #1
	mov	r9, r9, asl r1
	rsb	r4, r1, r4
	str	r9, [r6, #28]
	mov	r5, r5, asl r1
	mov	r10, r9
	str	r4, [r6, #32]
	str	r5, [r6, #36]
	mov	r9, r2
	b	.L254
.L252:
	mov	r2, r5, asl #24
	mov	r1, ip, asl r9
	cmp	r2, r0
	sub	r9, r9, #1
	rsbls	r0, r2, r0
	ldrls	lr, [r6, #36]
	movhi	r1, #0
	orr	r8, r8, r1
	rsbls	r5, r5, lr
	cmn	r9, #1
	add	r2, r7, r5
	ldrb	r2, [r2, #24]	@ zero_extendqisi2
	mov	r10, r0, asl r2
	rsb	r4, r2, r4
	mov	r5, r5, asl r2
	str	r10, [r6, #28]
	str	r4, [r6, #32]
	str	r5, [r6, #36]
	beq	.L399
.L254:
	sub	r5, r5, #1
	cmp	r4, #0
	ubfx	r5, r5, #1, #24
	mov	r0, r10
	add	r5, r5, #1
	bge	.L252
	rsb	r1, r4, #24
	rsb	r2, r4, #16
	bic	r1, r1, #7
	mov	r0, r6
	rsb	r2, r1, r2
	str	ip, [fp, #-56]
	str	r2, [fp, #-52]
	add	r4, r1, r4
	bl	BsGet
	ldr	r2, [fp, #-52]
	ldr	ip, [fp, #-56]
	and	r2, r2, #7
	orr	r0, r10, r0, asl r2
	b	.L252
.L399:
	mov	r10, r8
	ldr	r8, [fp, #-60]
	add	r10, r10, #16
	b	.L248
.L395:
	mov	r10, r8
	ldr	r8, [fp, #-68]
	add	r10, r10, #16
	b	.L155
.L398:
	mov	r10, r8
	ldr	r8, [fp, #-60]
	add	r10, r10, #16
	b	.L218
.L397:
	mov	r10, r8
	ldr	r8, [fp, #-68]
	add	r10, r10, #16
	b	.L185
.L396:
	mov	r10, r8
	ldr	r8, [fp, #-64]
	add	r10, r10, #16
	b	.L124
.L358:
	mov	r3, r8
	cmp	r3, #64
	ldr	r8, [fp, #-64]
	movle	r10, r3
	ble	.L138
	mov	r1, #128
	mov	r0, r6
	str	r3, [fp, #-56]
	bl	Vp9_Cabac_Read
	ldr	r3, [fp, #-56]
	add	r0, r0, r3, lsl #1
	sub	r10, r0, #65
.L138:
	add	r10, r10, #64
	b	.L124
.L374:
	mov	r10, r8
	cmp	r10, #64
	ldr	r8, [fp, #-60]
	ble	.L232
	mov	r1, #128
	mov	r0, r6
	bl	Vp9_Cabac_Read
	add	r0, r0, r10, lsl #1
	sub	r10, r0, #65
.L232:
	add	r10, r10, #64
	b	.L218
.L379:
	mov	r10, r8
	cmp	r10, #64
	ldr	r8, [fp, #-60]
	ble	.L262
	mov	r1, #128
	mov	r0, r6
	bl	Vp9_Cabac_Read
	add	r0, r0, r10, lsl #1
	sub	r10, r0, #65
.L262:
	add	r10, r10, #64
	b	.L248
.L368:
	mov	r10, r8
	cmp	r10, #64
	ldr	r8, [fp, #-68]
	ble	.L199
	mov	r1, #128
	mov	r0, r6
	bl	Vp9_Cabac_Read
	add	r0, r0, r10, lsl #1
	sub	r10, r0, #65
.L199:
	add	r10, r10, #64
	b	.L185
.L363:
	mov	r10, r8
	cmp	r10, #64
	ldr	r8, [fp, #-68]
	ble	.L169
	mov	r1, #128
	mov	r0, r6
	bl	Vp9_Cabac_Read
	add	r0, r0, r10, lsl #1
	sub	r10, r0, #65
.L169:
	add	r10, r10, #64
	b	.L155
.L393:
	mov	r10, r8
	ldr	r8, [fp, #-64]
	add	r10, r10, #32
	b	.L124
.L390:
	mov	r10, r8
	ldr	r8, [fp, #-68]
	add	r10, r10, #32
	b	.L155
.L394:
	mov	r10, r8
	ldr	r8, [fp, #-60]
	add	r10, r10, #32
	b	.L218
.L392:
	mov	r10, r8
	ldr	r8, [fp, #-60]
	add	r10, r10, #32
	b	.L248
.L391:
	mov	r10, r8
	ldr	r8, [fp, #-68]
	add	r10, r10, #32
	b	.L185
.L365:
	rsb	r3, r4, #24
	rsb	r10, r4, #16
	bic	r3, r3, #7
	mov	r0, r6
	rsb	r10, r3, r10
	str	r3, [fp, #-60]
	mov	r1, r3
	and	r10, r10, #7
	bl	BsGet
	ldr	r3, [fp, #-60]
	add	r4, r4, r3
	str	r4, [r6, #32]
	orr	r0, r9, r0, asl r10
	str	r0, [r6, #28]
	mov	r9, r0
	b	.L178
.L360:
	rsb	r3, r4, #24
	rsb	r10, r4, #16
	bic	r3, r3, #7
	mov	r0, r6
	rsb	r10, r3, r10
	str	r3, [fp, #-60]
	mov	r1, r3
	and	r10, r10, #7
	bl	BsGet
	ldr	r3, [fp, #-60]
	add	r4, r4, r3
	str	r4, [r6, #32]
	orr	r0, r9, r0, asl r10
	str	r0, [r6, #28]
	mov	r9, r0
	b	.L148
.L355:
	rsb	r2, r5, #24
	rsb	r10, r5, #16
	bic	r2, r2, #7
	mov	r0, r6
	rsb	r10, r2, r10
	str	r2, [fp, #-56]
	mov	r1, r2
	bl	BsGet
	and	r3, r10, #7
	ldr	r2, [fp, #-56]
	add	r5, r5, r2
	str	r5, [r6, #32]
	orr	r0, r9, r0, asl r3
	str	r0, [r6, #28]
	mov	r9, r0
	b	.L117
.L376:
	rsb	r3, r4, #24
	rsb	r10, r4, #16
	bic	r3, r3, #7
	mov	r0, r6
	rsb	r10, r3, r10
	str	r3, [fp, #-52]
	mov	r1, r3
	and	r10, r10, #7
	bl	BsGet
	ldr	r3, [fp, #-52]
	add	r4, r4, r3
	str	r4, [r6, #32]
	orr	r0, r9, r0, asl r10
	str	r0, [r6, #28]
	mov	r9, r0
	b	.L241
.L371:
	rsb	r3, r4, #24
	rsb	r10, r4, #16
	bic	r3, r3, #7
	mov	r0, r6
	rsb	r10, r3, r10
	str	r3, [fp, #-52]
	mov	r1, r3
	and	r10, r10, #7
	bl	BsGet
	ldr	r3, [fp, #-52]
	add	r4, r4, r3
	str	r4, [r6, #32]
	orr	r0, r9, r0, asl r10
	str	r0, [r6, #28]
	mov	r9, r0
	b	.L211
.L357:
	rsb	r2, r5, #24
	rsb	r10, r5, #16
	bic	r2, r2, #7
	mov	r0, r6
	rsb	r10, r2, r10
	str	r2, [fp, #-56]
	mov	r1, r2
	bl	BsGet
	ldr	r2, [fp, #-56]
	and	r3, r10, #7
	add	r10, r5, r2
	str	r10, [r6, #32]
	mov	r5, r10
	orr	r0, r4, r0, asl r3
	str	r0, [r6, #28]
	mov	r4, r0
	b	.L127
.L378:
	rsb	r2, r9, #24
	rsb	r10, r9, #16
	bic	r2, r2, #7
	mov	r0, r6
	rsb	r10, r2, r10
	str	r2, [fp, #-52]
	mov	r1, r2
	bl	BsGet
	and	r3, r10, #7
	ldr	r2, [fp, #-52]
	add	r9, r9, r2
	str	r9, [r6, #32]
	orr	r0, r4, r0, asl r3
	str	r0, [r6, #28]
	mov	r4, r0
	b	.L251
.L373:
	rsb	r2, r9, #24
	rsb	r10, r9, #16
	bic	r2, r2, #7
	mov	r0, r6
	rsb	r10, r2, r10
	str	r2, [fp, #-52]
	mov	r1, r2
	bl	BsGet
	and	r3, r10, #7
	ldr	r2, [fp, #-52]
	add	r9, r9, r2
	str	r9, [r6, #32]
	orr	r0, r4, r0, asl r3
	str	r0, [r6, #28]
	mov	r4, r0
	b	.L221
.L367:
	rsb	r2, r9, #24
	rsb	r10, r9, #16
	bic	r2, r2, #7
	mov	r0, r6
	rsb	r10, r2, r10
	str	r2, [fp, #-60]
	mov	r1, r2
	bl	BsGet
	and	r3, r10, #7
	ldr	r2, [fp, #-60]
	add	r9, r9, r2
	str	r9, [r6, #32]
	orr	r0, r4, r0, asl r3
	str	r0, [r6, #28]
	mov	r4, r0
	b	.L188
.L362:
	rsb	r2, r9, #24
	rsb	r10, r9, #16
	bic	r2, r2, #7
	mov	r0, r6
	rsb	r10, r2, r10
	str	r2, [fp, #-60]
	mov	r1, r2
	bl	BsGet
	and	r3, r10, #7
	ldr	r2, [fp, #-60]
	add	r9, r9, r2
	str	r9, [r6, #32]
	orr	r0, r4, r0, asl r3
	str	r0, [r6, #28]
	mov	r4, r0
	b	.L158
.L377:
	rsb	r3, r4, #24
	rsb	r10, r4, #16
	bic	r3, r3, #7
	mov	r0, r6
	rsb	r10, r3, r10
	str	r3, [fp, #-52]
	mov	r1, r3
	and	r10, r10, #7
	bl	BsGet
	ldr	r3, [fp, #-52]
	add	r4, r4, r3
	str	r4, [r6, #32]
	orr	r0, r9, r0, asl r10
	str	r0, [r6, #28]
	mov	r9, r0
	b	.L244
.L356:
	rsb	r2, r4, #24
	rsb	r10, r4, #16
	bic	r2, r2, #7
	mov	r0, r6
	rsb	r10, r2, r10
	str	r2, [fp, #-56]
	mov	r1, r2
	bl	BsGet
	and	r3, r10, #7
	ldr	r2, [fp, #-56]
	add	r4, r4, r2
	str	r4, [r6, #32]
	orr	r0, r9, r0, asl r3
	str	r0, [r6, #28]
	mov	r9, r0
	b	.L120
.L366:
	rsb	r3, r4, #24
	rsb	r10, r4, #16
	bic	r3, r3, #7
	mov	r0, r6
	rsb	r10, r3, r10
	str	r3, [fp, #-60]
	mov	r1, r3
	and	r10, r10, #7
	bl	BsGet
	ldr	r3, [fp, #-60]
	add	r4, r4, r3
	str	r4, [r6, #32]
	orr	r0, r9, r0, asl r10
	str	r0, [r6, #28]
	mov	r9, r0
	b	.L181
.L361:
	rsb	r3, r4, #24
	rsb	r10, r4, #16
	bic	r3, r3, #7
	mov	r0, r6
	rsb	r10, r3, r10
	str	r3, [fp, #-60]
	mov	r1, r3
	and	r10, r10, #7
	bl	BsGet
	ldr	r3, [fp, #-60]
	add	r4, r4, r3
	str	r4, [r6, #32]
	orr	r0, r9, r0, asl r10
	str	r0, [r6, #28]
	mov	r9, r0
	b	.L151
.L372:
	rsb	r3, r4, #24
	rsb	r10, r4, #16
	bic	r3, r3, #7
	mov	r0, r6
	rsb	r10, r3, r10
	str	r3, [fp, #-52]
	mov	r1, r3
	and	r10, r10, #7
	bl	BsGet
	ldr	r3, [fp, #-52]
	add	r4, r4, r3
	str	r4, [r6, #32]
	orr	r0, r9, r0, asl r10
	str	r0, [r6, #28]
	mov	r9, r0
	b	.L214
	UNWIND(.fnend)
	.size	Vp9_ReadTxProbs, .-Vp9_ReadTxProbs
	.align	2
	.global	Vp9_ReadCoefProbsCommon
	.type	Vp9_ReadCoefProbsCommon, %function
Vp9_ReadCoefProbsCommon:
	UNWIND(.fnstart)
	@ args = 0, pretend = 0, frame = 40
	@ frame_needed = 1, uses_anonymous_args = 0
	UNWIND(.movsp ip)
	mov	ip, sp
	stmfd	sp!, {r4, r5, r6, r7, r8, r9, r10, fp, ip, lr, pc}
	UNWIND(.pad #4)
	UNWIND(.save {r4, r5, r6, r7, r8, r9, r10, fp, ip, lr})
	UNWIND(.setfp fp, ip, #-4)
	sub	fp, ip, #4
	UNWIND(.pad #44)
	sub	sp, sp, #44
	ldr	r4, [r1, #36]
	ldr	ip, [r1, #32]
	mov	r6, r1
	sub	r4, r4, #1
	mov	r7, r0
	cmp	ip, #0
	ubfx	r4, r4, #1, #24
	add	r4, r4, #1
	blt	.L403
	ldr	r3, [r1, #28]
.L404:
	mov	r1, r4, asl #24
	cmp	r1, r3
	bhi	.L405
	ldr	r2, [r6, #36]
	rsb	r3, r1, r3
	ldr	r5, .L597
	add	r1, r7, #648
	rsb	r4, r4, r2
	add	r2, r1, #2
	str	r2, [fp, #-80]
	add	r2, r5, r4
	mov	r10, r6
	add	r1, r7, #218
	ldrb	r2, [r2, #24]	@ zero_extendqisi2
	str	r1, [fp, #-76]
	mov	r3, r3, asl r2
	rsb	r1, r2, ip
	mov	r4, r4, asl r2
	str	r3, [r6, #28]
	str	r1, [r6, #32]
	str	r4, [r6, #36]
.L406:
	ldr	r3, [fp, #-76]
	mov	r6, r10
	sub	r3, r3, #216
	str	r3, [fp, #-72]
.L511:
	ldr	r3, [fp, #-72]
	str	r3, [fp, #-56]
	mov	r3, #0
	str	r3, [fp, #-52]
.L509:
	ldr	r7, [fp, #-56]
	mov	r3, #0
	str	r3, [fp, #-48]
.L507:
	ldr	r3, [fp, #-52]
	ldr	r2, [fp, #-48]
	cmp	r3, #0
	moveq	r3, #3
	movne	r3, #6
	cmp	r2, r3
	bge	.L567
	ldr	r8, [r6, #36]
	ldr	r4, [r6, #32]
	sub	r8, r8, #1
	cmp	r4, #0
	mov	r3, r8, asl #8
	sub	r8, r3, r8, asl #2
	mov	r8, r8, lsr #8
	add	r8, r8, #1
	blt	.L407
	ldr	r10, [r6, #28]
.L408:
	mov	r9, r8, asl #24
	cmp	r9, r10
	bhi	.L409
	ldr	r3, [r6, #36]
	rsb	r10, r9, r10
	rsb	r8, r8, r3
	add	r3, r5, r8
	ldrb	r9, [r3, #24]	@ zero_extendqisi2
	mov	r3, r8, asl r9
	rsb	r4, r9, r4
	sub	r8, r3, #1
	cmp	r4, #0
	ubfx	r8, r8, #1, #24
	mov	r10, r10, asl r9
	str	r3, [r6, #36]
	add	r8, r8, #1
	str	r4, [r6, #32]
	str	r10, [r6, #28]
	blt	.L568
.L410:
	mov	r9, r8, asl #24
	cmp	r9, r10
	bhi	.L411
	ldr	r2, [r6, #36]
	rsb	r9, r9, r10
	rsb	r8, r8, r2
	add	r3, r5, r8
	ldrb	r0, [r3, #24]	@ zero_extendqisi2
	mov	r2, r8, asl r0
	rsb	r4, r0, r4
	sub	r8, r2, #1
	cmp	r4, #0
	ubfx	r8, r8, #1, #24
	mov	r9, r9, asl r0
	str	r2, [r6, #36]
	add	r8, r8, #1
	str	r4, [r6, #32]
	str	r9, [r6, #28]
	blt	.L569
.L413:
	mov	r3, r8, asl #24
	cmp	r3, r9
	bhi	.L418
	ldr	r1, [r6, #36]
	rsb	r3, r3, r9
	rsb	r8, r8, r1
	add	r2, r5, r8
	ldrb	r2, [r2, #24]	@ zero_extendqisi2
	rsb	r9, r2, r4
	mov	r1, r8, asl r2
	sub	r8, r1, #1
	cmp	r9, #0
	ubfx	r8, r8, #1, #24
	mov	r4, r3, asl r2
	str	r1, [r6, #36]
	add	r8, r8, #1
	str	r9, [r6, #32]
	str	r4, [r6, #28]
	blt	.L570
.L420:
	mov	r2, r8, asl #24
	cmp	r2, r4
	bhi	.L424
	ldr	r1, [r6, #36]
	rsb	r2, r2, r4
	mov	r10, #0
	mov	r3, #6
	rsb	r8, r8, r1
	str	r7, [fp, #-68]
	add	r1, r5, r8
	mov	r7, r10
	mov	ip, #1
	ldrb	r4, [r1, #24]	@ zero_extendqisi2
	mov	r2, r2, asl r4
	rsb	r9, r4, r9
	str	r2, [r6, #28]
	mov	r4, r8, asl r4
	str	r9, [r6, #32]
	mov	r8, r3
	str	r4, [r6, #36]
	mov	r10, r2
	b	.L425
.L429:
	mov	r2, r4, asl #24
	mov	r1, ip, asl r8
	cmp	r2, r0
	sub	r8, r8, #1
	rsbls	r0, r2, r0
	ldrls	lr, [r6, #36]
	movhi	r1, #0
	orr	r7, r7, r1
	rsbls	r4, r4, lr
	cmn	r8, #1
	add	r2, r5, r4
	ldrb	r2, [r2, #24]	@ zero_extendqisi2
	mov	r10, r0, asl r2
	rsb	r9, r2, r9
	mov	r4, r4, asl r2
	str	r10, [r6, #28]
	str	r9, [r6, #32]
	str	r4, [r6, #36]
	beq	.L571
.L425:
	sub	r4, r4, #1
	cmp	r9, #0
	ubfx	r4, r4, #1, #24
	mov	r0, r10
	add	r4, r4, #1
	bge	.L429
	rsb	r1, r9, #24
	rsb	r2, r9, #16
	bic	r1, r1, #7
	mov	r0, r6
	rsb	r2, r1, r2
	str	ip, [fp, #-64]
	str	r2, [fp, #-60]
	add	r9, r1, r9
	bl	BsGet
	ldr	r2, [fp, #-60]
	ldr	ip, [fp, #-64]
	and	r2, r2, #7
	orr	r0, r10, r0, asl r2
	b	.L429
.L409:
	add	r3, r5, r8
	ldrb	r3, [r3, #24]	@ zero_extendqisi2
	mov	r10, r10, asl r3
	rsb	r4, r3, r4
	mov	r8, r8, asl r3
	str	r10, [r6, #28]
	str	r4, [r6, #32]
	str	r8, [r6, #36]
.L512:
	sub	r8, r8, #1
	cmp	r4, #0
	mov	r3, r8, asl #8
	sub	r8, r3, r8, asl #2
	mov	r8, r8, lsr #8
	add	r8, r8, #1
	blt	.L572
.L440:
	mov	r9, r8, asl #24
	cmp	r9, r10
	bhi	.L441
	ldr	r3, [r6, #36]
	rsb	r10, r9, r10
	rsb	r8, r8, r3
	add	r3, r5, r8
	ldrb	r9, [r3, #24]	@ zero_extendqisi2
	mov	r3, r8, asl r9
	rsb	r4, r9, r4
	sub	r8, r3, #1
	cmp	r4, #0
	ubfx	r8, r8, #1, #24
	mov	r10, r10, asl r9
	str	r3, [r6, #36]
	add	r8, r8, #1
	str	r4, [r6, #32]
	str	r10, [r6, #28]
	blt	.L573
.L442:
	mov	r9, r8, asl #24
	cmp	r9, r10
	bhi	.L443
	ldr	r2, [r6, #36]
	rsb	r9, r9, r10
	rsb	r8, r8, r2
	add	r3, r5, r8
	ldrb	r0, [r3, #24]	@ zero_extendqisi2
	mov	r2, r8, asl r0
	rsb	r4, r0, r4
	sub	r8, r2, #1
	cmp	r4, #0
	ubfx	r8, r8, #1, #24
	mov	r9, r9, asl r0
	str	r2, [r6, #36]
	add	r8, r8, #1
	str	r4, [r6, #32]
	str	r9, [r6, #28]
	blt	.L574
.L445:
	mov	r3, r8, asl #24
	cmp	r3, r9
	bhi	.L450
	ldr	r1, [r6, #36]
	rsb	r3, r3, r9
	rsb	r8, r8, r1
	add	r2, r5, r8
	ldrb	r2, [r2, #24]	@ zero_extendqisi2
	rsb	r9, r2, r4
	mov	r1, r8, asl r2
	sub	r8, r1, #1
	cmp	r9, #0
	ubfx	r8, r8, #1, #24
	mov	r4, r3, asl r2
	str	r1, [r6, #36]
	add	r8, r8, #1
	str	r9, [r6, #32]
	str	r4, [r6, #28]
	blt	.L575
.L452:
	mov	r2, r8, asl #24
	cmp	r2, r4
	bhi	.L456
	ldr	r1, [r6, #36]
	rsb	r2, r2, r4
	mov	r10, #0
	mov	r3, #6
	rsb	r8, r8, r1
	str	r7, [fp, #-68]
	add	r1, r5, r8
	mov	r7, r10
	mov	ip, #1
	ldrb	r4, [r1, #24]	@ zero_extendqisi2
	mov	r2, r2, asl r4
	rsb	r9, r4, r9
	str	r2, [r6, #28]
	mov	r4, r8, asl r4
	str	r9, [r6, #32]
	mov	r8, r3
	str	r4, [r6, #36]
	mov	r10, r2
	b	.L457
.L461:
	mov	r2, r4, asl #24
	mov	r1, ip, asl r8
	cmp	r2, r0
	sub	r8, r8, #1
	rsbls	r0, r2, r0
	ldrls	lr, [r6, #36]
	movhi	r1, #0
	orr	r7, r7, r1
	rsbls	r4, r4, lr
	cmn	r8, #1
	add	r2, r5, r4
	ldrb	r2, [r2, #24]	@ zero_extendqisi2
	mov	r10, r0, asl r2
	rsb	r9, r2, r9
	mov	r4, r4, asl r2
	str	r10, [r6, #28]
	str	r9, [r6, #32]
	str	r4, [r6, #36]
	beq	.L576
.L457:
	sub	r4, r4, #1
	cmp	r9, #0
	ubfx	r4, r4, #1, #24
	mov	r0, r10
	add	r4, r4, #1
	bge	.L461
	rsb	r1, r9, #24
	rsb	r2, r9, #16
	bic	r1, r1, #7
	mov	r0, r6
	rsb	r2, r1, r2
	str	ip, [fp, #-64]
	str	r2, [fp, #-60]
	add	r9, r1, r9
	bl	BsGet
	ldr	r2, [fp, #-60]
	ldr	ip, [fp, #-64]
	and	r2, r2, #7
	orr	r0, r10, r0, asl r2
	b	.L461
.L441:
	add	r3, r5, r8
	ldrb	r3, [r3, #24]	@ zero_extendqisi2
	mov	r10, r10, asl r3
	rsb	r4, r3, r4
	mov	r8, r8, asl r3
	str	r10, [r6, #28]
	str	r4, [r6, #32]
	str	r8, [r6, #36]
.L513:
	sub	r8, r8, #1
	cmp	r4, #0
	mov	r3, r8, asl #8
	sub	r8, r3, r8, asl #2
	mov	r8, r8, lsr #8
	add	r8, r8, #1
	blt	.L577
.L472:
	mov	r9, r8, asl #24
	cmp	r9, r10
	bhi	.L473
	ldr	r3, [r6, #36]
	rsb	r10, r9, r10
	rsb	r8, r8, r3
	add	r3, r5, r8
	ldrb	r9, [r3, #24]	@ zero_extendqisi2
	mov	r3, r8, asl r9
	rsb	r4, r9, r4
	sub	r8, r3, #1
	cmp	r4, #0
	ubfx	r8, r8, #1, #24
	mov	r10, r10, asl r9
	str	r3, [r6, #36]
	add	r8, r8, #1
	str	r4, [r6, #32]
	str	r10, [r6, #28]
	blt	.L578
.L474:
	mov	r9, r8, asl #24
	cmp	r9, r10
	bhi	.L475
	ldr	r2, [r6, #36]
	rsb	r9, r9, r10
	rsb	r8, r8, r2
	add	r3, r5, r8
	ldrb	r0, [r3, #24]	@ zero_extendqisi2
	mov	r2, r8, asl r0
	rsb	r4, r0, r4
	sub	r8, r2, #1
	cmp	r4, #0
	ubfx	r8, r8, #1, #24
	mov	r9, r9, asl r0
	str	r2, [r6, #36]
	add	r8, r8, #1
	str	r4, [r6, #32]
	str	r9, [r6, #28]
	blt	.L579
.L477:
	mov	r3, r8, asl #24
	cmp	r3, r9
	bhi	.L482
	ldr	r1, [r6, #36]
	rsb	r3, r3, r9
	rsb	r8, r8, r1
	add	r2, r5, r8
	ldrb	r2, [r2, #24]	@ zero_extendqisi2
	rsb	r9, r2, r4
	mov	r1, r8, asl r2
	sub	r8, r1, #1
	cmp	r9, #0
	ubfx	r8, r8, #1, #24
	mov	r4, r3, asl r2
	str	r1, [r6, #36]
	add	r8, r8, #1
	str	r9, [r6, #32]
	str	r4, [r6, #28]
	blt	.L580
.L484:
	mov	r2, r8, asl #24
	cmp	r2, r4
	bhi	.L488
	ldr	r1, [r6, #36]
	rsb	r2, r2, r4
	mov	r10, #0
	mov	r3, #6
	rsb	r8, r8, r1
	str	r7, [fp, #-68]
	add	r1, r5, r8
	mov	r7, r10
	mov	ip, #1
	ldrb	r4, [r1, #24]	@ zero_extendqisi2
	mov	r2, r2, asl r4
	rsb	r9, r4, r9
	str	r2, [r6, #28]
	mov	r4, r8, asl r4
	str	r9, [r6, #32]
	mov	r8, r3
	str	r4, [r6, #36]
	mov	r10, r2
	b	.L489
.L493:
	mov	r2, r4, asl #24
	mov	r1, ip, asl r8
	cmp	r2, r0
	sub	r8, r8, #1
	rsbls	r0, r2, r0
	ldrls	lr, [r6, #36]
	movhi	r1, #0
	orr	r7, r7, r1
	rsbls	r4, r4, lr
	cmn	r8, #1
	add	r2, r5, r4
	ldrb	r2, [r2, #24]	@ zero_extendqisi2
	mov	r10, r0, asl r2
	rsb	r9, r2, r9
	mov	r4, r4, asl r2
	str	r10, [r6, #28]
	str	r9, [r6, #32]
	str	r4, [r6, #36]
	beq	.L581
.L489:
	sub	r4, r4, #1
	cmp	r9, #0
	ubfx	r4, r4, #1, #24
	mov	r0, r10
	add	r4, r4, #1
	bge	.L493
	rsb	r1, r9, #24
	rsb	r2, r9, #16
	bic	r1, r1, #7
	mov	r0, r6
	rsb	r2, r1, r2
	str	ip, [fp, #-64]
	str	r2, [fp, #-60]
	add	r9, r1, r9
	bl	BsGet
	ldr	r2, [fp, #-60]
	ldr	ip, [fp, #-64]
	and	r2, r2, #7
	orr	r0, r10, r0, asl r2
	b	.L493
.L473:
	add	r3, r5, r8
	ldrb	r3, [r3, #24]	@ zero_extendqisi2
	mov	r10, r10, asl r3
	rsb	r4, r3, r4
	mov	r8, r8, asl r3
	str	r10, [r6, #28]
	str	r4, [r6, #32]
	str	r8, [r6, #36]
.L514:
	ldr	r3, [fp, #-48]
	add	r7, r7, #3
	add	r3, r3, #1
	str	r3, [fp, #-48]
	b	.L507
.L577:
	rsb	r3, r4, #24
	rsb	r9, r4, #16
	bic	r3, r3, #7
	mov	r0, r6
	rsb	r9, r3, r9
	str	r3, [fp, #-60]
	mov	r1, r3
	bl	BsGet
	and	r2, r9, #7
	ldr	r3, [fp, #-60]
	add	r4, r3, r4
	str	r4, [r6, #32]
	orr	r0, r10, r0, asl r2
	str	r0, [r6, #28]
	mov	r10, r0
	b	.L472
.L572:
	rsb	r3, r4, #24
	rsb	r9, r4, #16
	bic	r3, r3, #7
	mov	r0, r6
	rsb	r9, r3, r9
	str	r3, [fp, #-60]
	mov	r1, r3
	bl	BsGet
	and	r2, r9, #7
	ldr	r3, [fp, #-60]
	add	r4, r3, r4
	str	r4, [r6, #32]
	orr	r0, r10, r0, asl r2
	str	r0, [r6, #28]
	mov	r10, r0
	b	.L440
.L407:
	rsb	r9, r4, #24
	rsb	r3, r4, #16
	bic	r9, r9, #7
	mov	r0, r6
	rsb	r3, r9, r3
	ldr	r10, [r6, #28]
	mov	r1, r9
	str	r3, [fp, #-60]
	bl	BsGet
	ldr	r3, [fp, #-60]
	add	r4, r4, r9
	str	r4, [r6, #32]
	and	r3, r3, #7
	orr	r0, r10, r0, asl r3
	str	r0, [r6, #28]
	mov	r10, r0
	b	.L408
.L475:
	add	r1, r5, r8
	mov	r3, #0
	mov	r2, #3
	str	r7, [fp, #-68]
	ldrb	r1, [r1, #24]	@ zero_extendqisi2
	mov	ip, #1
	mov	r7, r3
	mov	r9, r10, asl r1
	rsb	r4, r1, r4
	mov	r8, r8, asl r1
	str	r9, [r6, #28]
	str	r4, [r6, #32]
	mov	r10, r2
	str	r8, [r6, #36]
	b	.L480
.L478:
	mov	r2, r8, asl #24
	mov	r1, ip, asl r10
	cmp	r2, r0
	sub	r10, r10, #1
	rsbls	r0, r2, r0
	ldrls	lr, [r6, #36]
	movhi	r1, #0
	orr	r7, r7, r1
	rsbls	r8, r8, lr
	cmn	r10, #1
	add	r2, r5, r8
	ldrb	r2, [r2, #24]	@ zero_extendqisi2
	mov	r9, r0, asl r2
	rsb	r4, r2, r4
	mov	r8, r8, asl r2
	str	r9, [r6, #28]
	str	r4, [r6, #32]
	str	r8, [r6, #36]
	beq	.L582
.L480:
	sub	r8, r8, #1
	cmp	r4, #0
	ubfx	r8, r8, #1, #24
	mov	r0, r9
	add	r8, r8, #1
	bge	.L478
	rsb	r1, r4, #24
	rsb	r2, r4, #16
	bic	r1, r1, #7
	mov	r0, r6
	rsb	r2, r1, r2
	str	ip, [fp, #-64]
	str	r2, [fp, #-60]
	add	r4, r1, r4
	bl	BsGet
	ldr	r2, [fp, #-60]
	ldr	ip, [fp, #-64]
	and	r2, r2, #7
	orr	r0, r9, r0, asl r2
	b	.L478
.L443:
	add	r1, r5, r8
	mov	r3, #0
	mov	r2, #3
	str	r7, [fp, #-68]
	ldrb	r1, [r1, #24]	@ zero_extendqisi2
	mov	ip, #1
	mov	r7, r3
	mov	r9, r10, asl r1
	rsb	r4, r1, r4
	mov	r8, r8, asl r1
	str	r9, [r6, #28]
	str	r4, [r6, #32]
	mov	r10, r2
	str	r8, [r6, #36]
	b	.L448
.L446:
	mov	r2, r8, asl #24
	mov	r1, ip, asl r10
	cmp	r2, r0
	sub	r10, r10, #1
	rsbls	r0, r2, r0
	ldrls	lr, [r6, #36]
	movhi	r1, #0
	orr	r7, r7, r1
	rsbls	r8, r8, lr
	cmn	r10, #1
	add	r2, r5, r8
	ldrb	r2, [r2, #24]	@ zero_extendqisi2
	mov	r9, r0, asl r2
	rsb	r4, r2, r4
	mov	r8, r8, asl r2
	str	r9, [r6, #28]
	str	r4, [r6, #32]
	str	r8, [r6, #36]
	beq	.L583
.L448:
	sub	r8, r8, #1
	cmp	r4, #0
	ubfx	r8, r8, #1, #24
	mov	r0, r9
	add	r8, r8, #1
	bge	.L446
	rsb	r1, r4, #24
	rsb	r2, r4, #16
	bic	r1, r1, #7
	mov	r0, r6
	rsb	r2, r1, r2
	str	ip, [fp, #-64]
	str	r2, [fp, #-60]
	add	r4, r1, r4
	bl	BsGet
	ldr	r2, [fp, #-60]
	ldr	ip, [fp, #-64]
	and	r2, r2, #7
	orr	r0, r9, r0, asl r2
	b	.L446
.L411:
	add	r1, r5, r8
	mov	r3, #0
	mov	r2, #3
	str	r7, [fp, #-68]
	ldrb	r1, [r1, #24]	@ zero_extendqisi2
	mov	ip, #1
	mov	r7, r3
	mov	r9, r10, asl r1
	rsb	r4, r1, r4
	mov	r8, r8, asl r1
	str	r9, [r6, #28]
	str	r4, [r6, #32]
	mov	r10, r2
	str	r8, [r6, #36]
	b	.L416
.L414:
	mov	r2, r8, asl #24
	mov	r1, ip, asl r10
	cmp	r2, r0
	sub	r10, r10, #1
	rsbls	r0, r2, r0
	ldrls	lr, [r6, #36]
	movhi	r1, #0
	orr	r7, r7, r1
	rsbls	r8, r8, lr
	cmn	r10, #1
	add	r2, r5, r8
	ldrb	r2, [r2, #24]	@ zero_extendqisi2
	mov	r9, r0, asl r2
	rsb	r4, r2, r4
	mov	r8, r8, asl r2
	str	r9, [r6, #28]
	str	r4, [r6, #32]
	str	r8, [r6, #36]
	beq	.L584
.L416:
	sub	r8, r8, #1
	cmp	r4, #0
	ubfx	r8, r8, #1, #24
	mov	r0, r9
	add	r8, r8, #1
	bge	.L414
	rsb	r1, r4, #24
	rsb	r2, r4, #16
	bic	r1, r1, #7
	mov	r0, r6
	rsb	r2, r1, r2
	str	ip, [fp, #-64]
	str	r2, [fp, #-60]
	add	r4, r1, r4
	bl	BsGet
	ldr	r2, [fp, #-60]
	ldr	ip, [fp, #-64]
	and	r2, r2, #7
	orr	r0, r9, r0, asl r2
	b	.L414
.L584:
	mov	r3, r7
	ldr	r7, [fp, #-68]
.L417:
	ldrb	r2, [r7, #-2]	@ zero_extendqisi2
	add	r10, r5, r3
	sub	ip, r2, #1
	ldrb	r1, [r10, #280]	@ zero_extendqisi2
	mov	r0, ip, asl #1
	cmp	r0, #255
	bgt	.L434
	add	r3, r1, #1
	cmp	r3, r0
	bgt	.L435
	tst	r3, #1
	addne	r3, r1, #2
	addeq	r3, r3, r3, lsr #31
	subne	r3, ip, r3, asr #1
	addeq	r3, ip, r3, asr #1
.L435:
	add	r3, r3, #1
.L437:
	strb	r3, [r7, #-2]
	ldr	r8, [r6, #36]
	ldr	r4, [r6, #32]
	ldr	r10, [r6, #28]
	b	.L512
.L434:
	rsb	r2, r2, #255
	add	r3, r1, #1
	cmp	r3, r2, asl #1
	bgt	.L438
	tst	r3, #1
	addne	r3, r1, #2
	addeq	r3, r3, r3, lsr #31
	subne	r3, r2, r3, asr #1
	addeq	r3, r2, r3, asr #1
.L438:
	rsb	r3, r3, #255
	b	.L437
.L583:
	mov	r3, r7
	ldr	r7, [fp, #-68]
.L449:
	ldrb	r2, [r7, #-1]	@ zero_extendqisi2
	add	r10, r5, r3
	sub	ip, r2, #1
	ldrb	r1, [r10, #280]	@ zero_extendqisi2
	mov	r0, ip, asl #1
	cmp	r0, #255
	bgt	.L466
	add	r3, r1, #1
	cmp	r3, r0
	bgt	.L467
	tst	r3, #1
	addne	r3, r1, #2
	addeq	r3, r3, r3, lsr #31
	subne	r3, ip, r3, asr #1
	addeq	r3, ip, r3, asr #1
.L467:
	add	r3, r3, #1
.L469:
	strb	r3, [r7, #-1]
	ldr	r8, [r6, #36]
	ldr	r4, [r6, #32]
	ldr	r10, [r6, #28]
	b	.L513
.L466:
	rsb	r2, r2, #255
	add	r3, r1, #1
	cmp	r3, r2, asl #1
	bgt	.L470
	tst	r3, #1
	addne	r3, r1, #2
	addeq	r3, r3, r3, lsr #31
	subne	r3, r2, r3, asr #1
	addeq	r3, r2, r3, asr #1
.L470:
	rsb	r3, r3, #255
	b	.L469
.L582:
	mov	r3, r7
	ldr	r7, [fp, #-68]
.L481:
	ldrb	r2, [r7]	@ zero_extendqisi2
	add	r10, r5, r3
	sub	ip, r2, #1
	ldrb	r1, [r10, #280]	@ zero_extendqisi2
	mov	r0, ip, asl #1
	cmp	r0, #255
	bgt	.L498
	add	r3, r1, #1
	cmp	r3, r0
	bgt	.L499
	tst	r3, #1
	addne	r3, r1, #2
	addeq	r3, r3, r3, lsr #31
	subne	r3, ip, r3, asr #1
	addeq	r3, ip, r3, asr #1
.L499:
	add	r3, r3, #1
.L501:
	strb	r3, [r7]
	b	.L514
.L498:
	rsb	r2, r2, #255
	add	r3, r1, #1
	cmp	r3, r2, asl #1
	bgt	.L502
	tst	r3, #1
	addne	r3, r1, #2
	addeq	r3, r3, r3, lsr #31
	subne	r3, r2, r3, asr #1
	addeq	r3, r2, r3, asr #1
.L502:
	rsb	r3, r3, #255
	b	.L501
.L567:
	ldr	r3, [fp, #-52]
	ldr	r2, [fp, #-56]
	add	r3, r3, #1
	str	r3, [fp, #-52]
	cmp	r3, #6
	add	r2, r2, #18
	str	r2, [fp, #-56]
	bne	.L509
	ldr	r3, [fp, #-72]
	ldr	r2, [fp, #-76]
	add	r3, r3, #108
	str	r3, [fp, #-72]
	cmp	r2, r3
	bne	.L511
	ldr	r3, [fp, #-76]
	mov	r10, r6
	ldr	r2, [fp, #-80]
	add	r3, r3, #216
	str	r3, [fp, #-76]
	cmp	r3, r2
	bne	.L406
	sub	sp, fp, #40
	ldmfd	sp, {r4, r5, r6, r7, r8, r9, r10, fp, sp, pc}
.L450:
	add	r3, r5, r8
	mov	r10, #0
	mov	r2, #3
	str	r7, [fp, #-68]
	ldrb	r3, [r3, #24]	@ zero_extendqisi2
	mov	r7, r10
	mov	ip, #1
	mov	r9, r9, asl r3
	rsb	r4, r3, r4
	str	r9, [r6, #28]
	mov	r8, r8, asl r3
	mov	r10, r9
	str	r4, [r6, #32]
	str	r8, [r6, #36]
	mov	r9, r2
	b	.L455
.L453:
	mov	r2, r8, asl #24
	mov	r1, ip, asl r9
	cmp	r2, r0
	sub	r9, r9, #1
	rsbls	r0, r2, r0
	ldrls	lr, [r6, #36]
	movhi	r1, #0
	orr	r7, r7, r1
	rsbls	r8, r8, lr
	cmn	r9, #1
	add	r2, r5, r8
	ldrb	r2, [r2, #24]	@ zero_extendqisi2
	mov	r10, r0, asl r2
	rsb	r4, r2, r4
	mov	r8, r8, asl r2
	str	r10, [r6, #28]
	str	r4, [r6, #32]
	str	r8, [r6, #36]
	beq	.L585
.L455:
	sub	r8, r8, #1
	cmp	r4, #0
	ubfx	r8, r8, #1, #24
	mov	r0, r10
	add	r8, r8, #1
	bge	.L453
	rsb	r1, r4, #24
	rsb	r2, r4, #16
	bic	r1, r1, #7
	mov	r0, r6
	rsb	r2, r1, r2
	str	ip, [fp, #-64]
	str	r2, [fp, #-60]
	add	r4, r1, r4
	bl	BsGet
	ldr	r2, [fp, #-60]
	ldr	ip, [fp, #-64]
	and	r2, r2, #7
	orr	r0, r10, r0, asl r2
	b	.L453
.L418:
	add	r3, r5, r8
	mov	r10, #0
	mov	r2, #3
	str	r7, [fp, #-68]
	ldrb	r3, [r3, #24]	@ zero_extendqisi2
	mov	r7, r10
	mov	ip, #1
	mov	r9, r9, asl r3
	rsb	r4, r3, r4
	str	r9, [r6, #28]
	mov	r8, r8, asl r3
	mov	r10, r9
	str	r4, [r6, #32]
	str	r8, [r6, #36]
	mov	r9, r2
	b	.L423
.L421:
	mov	r2, r8, asl #24
	mov	r1, ip, asl r9
	cmp	r2, r0
	sub	r9, r9, #1
	rsbls	r0, r2, r0
	ldrls	lr, [r6, #36]
	movhi	r1, #0
	orr	r7, r7, r1
	rsbls	r8, r8, lr
	cmn	r9, #1
	add	r2, r5, r8
	ldrb	r2, [r2, #24]	@ zero_extendqisi2
	mov	r10, r0, asl r2
	rsb	r4, r2, r4
	mov	r8, r8, asl r2
	str	r10, [r6, #28]
	str	r4, [r6, #32]
	str	r8, [r6, #36]
	beq	.L586
.L423:
	sub	r8, r8, #1
	cmp	r4, #0
	ubfx	r8, r8, #1, #24
	mov	r0, r10
	add	r8, r8, #1
	bge	.L421
	rsb	r1, r4, #24
	rsb	r2, r4, #16
	bic	r1, r1, #7
	mov	r0, r6
	rsb	r2, r1, r2
	str	ip, [fp, #-64]
	str	r2, [fp, #-60]
	add	r4, r1, r4
	bl	BsGet
	ldr	r2, [fp, #-60]
	ldr	ip, [fp, #-64]
	and	r2, r2, #7
	orr	r0, r10, r0, asl r2
	b	.L421
.L482:
	add	r3, r5, r8
	mov	r10, #0
	mov	r2, #3
	str	r7, [fp, #-68]
	ldrb	r3, [r3, #24]	@ zero_extendqisi2
	mov	r7, r10
	mov	ip, #1
	mov	r9, r9, asl r3
	rsb	r4, r3, r4
	str	r9, [r6, #28]
	mov	r8, r8, asl r3
	mov	r10, r9
	str	r4, [r6, #32]
	str	r8, [r6, #36]
	mov	r9, r2
	b	.L487
.L485:
	mov	r2, r8, asl #24
	mov	r1, ip, asl r9
	cmp	r2, r0
	sub	r9, r9, #1
	rsbls	r0, r2, r0
	ldrls	lr, [r6, #36]
	movhi	r1, #0
	orr	r7, r7, r1
	rsbls	r8, r8, lr
	cmn	r9, #1
	add	r2, r5, r8
	ldrb	r2, [r2, #24]	@ zero_extendqisi2
	mov	r10, r0, asl r2
	rsb	r4, r2, r4
	mov	r8, r8, asl r2
	str	r10, [r6, #28]
	str	r4, [r6, #32]
	str	r8, [r6, #36]
	beq	.L587
.L487:
	sub	r8, r8, #1
	cmp	r4, #0
	ubfx	r8, r8, #1, #24
	mov	r0, r10
	add	r8, r8, #1
	bge	.L485
	rsb	r1, r4, #24
	rsb	r2, r4, #16
	bic	r1, r1, #7
	mov	r0, r6
	rsb	r2, r1, r2
	str	ip, [fp, #-64]
	str	r2, [fp, #-60]
	add	r4, r1, r4
	bl	BsGet
	ldr	r2, [fp, #-60]
	ldr	ip, [fp, #-64]
	and	r2, r2, #7
	orr	r0, r10, r0, asl r2
	b	.L485
.L587:
	mov	r10, r7
	ldr	r7, [fp, #-68]
	add	r3, r10, #16
	b	.L481
.L586:
	mov	r10, r7
	ldr	r7, [fp, #-68]
	add	r3, r10, #16
	b	.L417
.L585:
	mov	r10, r7
	ldr	r7, [fp, #-68]
	add	r3, r10, #16
	b	.L449
.L571:
	mov	r2, r10
	mov	r10, r7
	cmp	r10, #64
	ldr	r7, [fp, #-68]
	bgt	.L588
.L431:
	add	r3, r10, #64
	b	.L417
.L581:
	mov	r2, r10
	mov	r10, r7
	cmp	r10, #64
	ldr	r7, [fp, #-68]
	bgt	.L589
.L495:
	add	r3, r10, #64
	b	.L481
.L576:
	mov	r2, r10
	mov	r10, r7
	cmp	r10, #64
	ldr	r7, [fp, #-68]
	bgt	.L590
.L463:
	add	r3, r10, #64
	b	.L449
.L424:
	add	r3, r5, r8
	mov	r10, #0
	mov	ip, #4
	str	r7, [fp, #-68]
	ldrb	r1, [r3, #24]	@ zero_extendqisi2
	mov	r7, r10
	mov	r2, #1
	mov	r3, r4, asl r1
	mov	r8, r8, asl r1
	rsb	r9, r1, r9
	str	r8, [r6, #36]
	mov	r4, r8
	str	r3, [r6, #28]
	str	r9, [r6, #32]
	mov	r10, r3
	mov	r8, ip
	b	.L428
.L598:
	.align	2
.L597:
	.word	.LANCHOR0
.L426:
	mov	r1, r4, asl #24
	mov	ip, r2, asl r8
	cmp	r1, r0
	sub	r8, r8, #1
	rsbls	r0, r1, r0
	ldrls	lr, [r6, #36]
	movhi	ip, #0
	orr	r7, r7, ip
	rsbls	r4, r4, lr
	cmn	r8, #1
	add	r1, r5, r4
	ldrb	r1, [r1, #24]	@ zero_extendqisi2
	mov	r10, r0, asl r1
	rsb	r9, r1, r9
	mov	r4, r4, asl r1
	str	r10, [r6, #28]
	str	r9, [r6, #32]
	str	r4, [r6, #36]
	beq	.L591
.L428:
	sub	r4, r4, #1
	cmp	r9, #0
	ubfx	r4, r4, #1, #24
	mov	r0, r10
	add	r4, r4, #1
	bge	.L426
	rsb	r1, r9, #24
	rsb	ip, r9, #16
	bic	r1, r1, #7
	mov	r0, r6
	rsb	ip, r1, ip
	str	r2, [fp, #-64]
	str	ip, [fp, #-60]
	add	r9, r1, r9
	bl	BsGet
	ldr	ip, [fp, #-60]
	ldr	r2, [fp, #-64]
	and	ip, ip, #7
	orr	r0, r10, r0, asl ip
	b	.L426
.L488:
	add	r3, r5, r8
	mov	r10, #0
	mov	ip, #4
	str	r7, [fp, #-68]
	ldrb	r1, [r3, #24]	@ zero_extendqisi2
	mov	r7, r10
	mov	r2, #1
	mov	r3, r4, asl r1
	mov	r8, r8, asl r1
	rsb	r9, r1, r9
	str	r8, [r6, #36]
	mov	r4, r8
	str	r3, [r6, #28]
	str	r9, [r6, #32]
	mov	r10, r3
	mov	r8, ip
	b	.L492
.L490:
	mov	r1, r4, asl #24
	mov	ip, r2, asl r8
	cmp	r1, r0
	sub	r8, r8, #1
	rsbls	r0, r1, r0
	ldrls	lr, [r6, #36]
	movhi	ip, #0
	orr	r7, r7, ip
	rsbls	r4, r4, lr
	cmn	r8, #1
	add	r1, r5, r4
	ldrb	r1, [r1, #24]	@ zero_extendqisi2
	mov	r10, r0, asl r1
	rsb	r9, r1, r9
	mov	r4, r4, asl r1
	str	r10, [r6, #28]
	str	r9, [r6, #32]
	str	r4, [r6, #36]
	beq	.L592
.L492:
	sub	r4, r4, #1
	cmp	r9, #0
	ubfx	r4, r4, #1, #24
	mov	r0, r10
	add	r4, r4, #1
	bge	.L490
	rsb	r1, r9, #24
	rsb	ip, r9, #16
	bic	r1, r1, #7
	mov	r0, r6
	rsb	ip, r1, ip
	str	r2, [fp, #-64]
	str	ip, [fp, #-60]
	add	r9, r1, r9
	bl	BsGet
	ldr	ip, [fp, #-60]
	ldr	r2, [fp, #-64]
	and	ip, ip, #7
	orr	r0, r10, r0, asl ip
	b	.L490
.L456:
	add	r3, r5, r8
	mov	r10, #0
	mov	ip, #4
	str	r7, [fp, #-68]
	ldrb	r1, [r3, #24]	@ zero_extendqisi2
	mov	r7, r10
	mov	r2, #1
	mov	r3, r4, asl r1
	mov	r8, r8, asl r1
	rsb	r9, r1, r9
	str	r8, [r6, #36]
	mov	r4, r8
	str	r3, [r6, #28]
	str	r9, [r6, #32]
	mov	r10, r3
	mov	r8, ip
	b	.L460
.L458:
	mov	r1, r4, asl #24
	mov	ip, r2, asl r8
	cmp	r1, r0
	sub	r8, r8, #1
	rsbls	r0, r1, r0
	ldrls	lr, [r6, #36]
	movhi	ip, #0
	orr	r7, r7, ip
	rsbls	r4, r4, lr
	cmn	r8, #1
	add	r1, r5, r4
	ldrb	r1, [r1, #24]	@ zero_extendqisi2
	mov	r10, r0, asl r1
	rsb	r9, r1, r9
	mov	r4, r4, asl r1
	str	r10, [r6, #28]
	str	r9, [r6, #32]
	str	r4, [r6, #36]
	beq	.L593
.L460:
	sub	r4, r4, #1
	cmp	r9, #0
	ubfx	r4, r4, #1, #24
	mov	r0, r10
	add	r4, r4, #1
	bge	.L458
	rsb	r1, r9, #24
	rsb	ip, r9, #16
	bic	r1, r1, #7
	mov	r0, r6
	rsb	ip, r1, ip
	str	r2, [fp, #-64]
	str	ip, [fp, #-60]
	add	r9, r1, r9
	bl	BsGet
	ldr	ip, [fp, #-60]
	ldr	r2, [fp, #-64]
	and	ip, ip, #7
	orr	r0, r10, r0, asl ip
	b	.L458
.L593:
	mov	r10, r7
	ldr	r7, [fp, #-68]
	add	r3, r10, #32
	b	.L449
.L592:
	mov	r10, r7
	ldr	r7, [fp, #-68]
	add	r3, r10, #32
	b	.L481
.L591:
	mov	r10, r7
	ldr	r7, [fp, #-68]
	add	r3, r10, #32
	b	.L417
.L578:
	rsb	r3, r4, #24
	rsb	r9, r4, #16
	bic	r3, r3, #7
	mov	r0, r6
	rsb	r9, r3, r9
	str	r3, [fp, #-60]
	mov	r1, r3
	bl	BsGet
	and	r2, r9, #7
	ldr	r3, [fp, #-60]
	add	r4, r4, r3
	str	r4, [r6, #32]
	orr	r0, r10, r0, asl r2
	str	r0, [r6, #28]
	mov	r10, r0
	b	.L474
.L568:
	rsb	r3, r4, #24
	rsb	r9, r4, #16
	bic	r3, r3, #7
	mov	r0, r6
	rsb	r9, r3, r9
	str	r3, [fp, #-60]
	mov	r1, r3
	bl	BsGet
	and	r2, r9, #7
	ldr	r3, [fp, #-60]
	add	r4, r4, r3
	str	r4, [r6, #32]
	orr	r0, r10, r0, asl r2
	str	r0, [r6, #28]
	mov	r10, r0
	b	.L410
.L573:
	rsb	r3, r4, #24
	rsb	r9, r4, #16
	bic	r3, r3, #7
	mov	r0, r6
	rsb	r9, r3, r9
	str	r3, [fp, #-60]
	mov	r1, r3
	bl	BsGet
	and	r2, r9, #7
	ldr	r3, [fp, #-60]
	add	r4, r4, r3
	str	r4, [r6, #32]
	orr	r0, r10, r0, asl r2
	str	r0, [r6, #28]
	mov	r10, r0
	b	.L442
.L590:
	sub	r4, r4, #1
	cmp	r9, #0
	ubfx	r4, r4, #1, #24
	mov	r10, r10, asl #1
	add	r4, r4, #1
	sub	r10, r10, #65
	movge	r0, r2
	blt	.L594
.L464:
	mov	r3, r4, asl #24
	cmp	r3, r0
	rsbls	r0, r3, r0
	ldrls	r1, [r6, #36]
	movls	r3, #1
	movhi	r3, #0
	add	r10, r10, r3
	rsbls	r4, r4, r1
	add	r1, r5, r4
	ldrb	r3, [r1, #24]	@ zero_extendqisi2
	mov	r2, r0, asl r3
	rsb	r9, r3, r9
	mov	r4, r4, asl r3
	str	r2, [r6, #28]
	str	r9, [r6, #32]
	str	r4, [r6, #36]
	b	.L463
.L588:
	sub	r4, r4, #1
	cmp	r9, #0
	ubfx	r4, r4, #1, #24
	mov	r10, r10, asl #1
	add	r4, r4, #1
	sub	r10, r10, #65
	movge	r0, r2
	blt	.L595
.L432:
	mov	r3, r4, asl #24
	cmp	r3, r0
	rsbls	r0, r3, r0
	ldrls	r1, [r6, #36]
	movls	r3, #1
	movhi	r3, #0
	add	r10, r10, r3
	rsbls	r4, r4, r1
	add	r1, r5, r4
	ldrb	r3, [r1, #24]	@ zero_extendqisi2
	mov	r2, r0, asl r3
	rsb	r9, r3, r9
	mov	r4, r4, asl r3
	str	r2, [r6, #28]
	str	r9, [r6, #32]
	str	r4, [r6, #36]
	b	.L431
.L589:
	sub	r4, r4, #1
	cmp	r9, #0
	ubfx	r4, r4, #1, #24
	mov	r10, r10, asl #1
	add	r4, r4, #1
	sub	r10, r10, #65
	movge	r0, r2
	blt	.L596
.L496:
	mov	r3, r4, asl #24
	cmp	r3, r0
	rsbls	r0, r3, r0
	ldrls	r1, [r6, #36]
	movls	r3, #1
	movhi	r3, #0
	add	r10, r10, r3
	rsbls	r4, r4, r1
	add	r1, r5, r4
	ldrb	r3, [r1, #24]	@ zero_extendqisi2
	mov	r2, r0, asl r3
	rsb	r9, r3, r9
	mov	r4, r4, asl r3
	str	r2, [r6, #28]
	str	r9, [r6, #32]
	str	r4, [r6, #36]
	b	.L495
.L579:
	rsb	r3, r4, #24
	rsb	r10, r4, #16
	bic	r3, r3, #7
	mov	r0, r6
	rsb	r10, r3, r10
	str	r3, [fp, #-60]
	mov	r1, r3
	and	r10, r10, #7
	bl	BsGet
	ldr	r3, [fp, #-60]
	add	r4, r4, r3
	str	r4, [r6, #32]
	orr	r0, r9, r0, asl r10
	str	r0, [r6, #28]
	mov	r9, r0
	b	.L477
.L574:
	rsb	r3, r4, #24
	rsb	r10, r4, #16
	bic	r3, r3, #7
	mov	r0, r6
	rsb	r10, r3, r10
	str	r3, [fp, #-60]
	mov	r1, r3
	and	r10, r10, #7
	bl	BsGet
	ldr	r3, [fp, #-60]
	add	r4, r4, r3
	str	r4, [r6, #32]
	orr	r0, r9, r0, asl r10
	str	r0, [r6, #28]
	mov	r9, r0
	b	.L445
.L569:
	rsb	r3, r4, #24
	rsb	r10, r4, #16
	bic	r3, r3, #7
	mov	r0, r6
	rsb	r10, r3, r10
	str	r3, [fp, #-60]
	mov	r1, r3
	and	r10, r10, #7
	bl	BsGet
	ldr	r3, [fp, #-60]
	add	r4, r4, r3
	str	r4, [r6, #32]
	orr	r0, r9, r0, asl r10
	str	r0, [r6, #28]
	mov	r9, r0
	b	.L413
.L570:
	rsb	r2, r9, #24
	rsb	r10, r9, #16
	bic	r2, r2, #7
	mov	r0, r6
	rsb	r10, r2, r10
	str	r2, [fp, #-60]
	mov	r1, r2
	bl	BsGet
	and	r3, r10, #7
	ldr	r2, [fp, #-60]
	add	r9, r9, r2
	str	r9, [r6, #32]
	orr	r0, r4, r0, asl r3
	str	r0, [r6, #28]
	mov	r4, r0
	b	.L420
.L575:
	rsb	r2, r9, #24
	rsb	r10, r9, #16
	bic	r2, r2, #7
	mov	r0, r6
	rsb	r10, r2, r10
	str	r2, [fp, #-60]
	mov	r1, r2
	bl	BsGet
	and	r3, r10, #7
	ldr	r2, [fp, #-60]
	add	r9, r9, r2
	str	r9, [r6, #32]
	orr	r0, r4, r0, asl r3
	str	r0, [r6, #28]
	mov	r4, r0
	b	.L452
.L580:
	rsb	r2, r9, #24
	rsb	r10, r9, #16
	bic	r2, r2, #7
	mov	r0, r6
	rsb	r10, r2, r10
	str	r2, [fp, #-60]
	mov	r1, r2
	bl	BsGet
	and	r3, r10, #7
	ldr	r2, [fp, #-60]
	add	r9, r9, r2
	str	r9, [r6, #32]
	orr	r0, r4, r0, asl r3
	str	r0, [r6, #28]
	mov	r4, r0
	b	.L484
.L596:
	rsb	r1, r9, #24
	rsb	r8, r9, #16
	bic	r1, r1, #7
	mov	r0, r6
	str	r2, [fp, #-60]
	rsb	r8, r1, r8
	add	r9, r1, r9
	bl	BsGet
	ldr	r2, [fp, #-60]
	and	r8, r8, #7
	orr	r0, r2, r0, asl r8
	b	.L496
.L594:
	rsb	r1, r9, #24
	rsb	r8, r9, #16
	bic	r1, r1, #7
	mov	r0, r6
	str	r2, [fp, #-60]
	rsb	r8, r1, r8
	add	r9, r1, r9
	bl	BsGet
	ldr	r2, [fp, #-60]
	and	r8, r8, #7
	orr	r0, r2, r0, asl r8
	b	.L464
.L595:
	rsb	r1, r9, #24
	rsb	r8, r9, #16
	bic	r1, r1, #7
	mov	r0, r6
	str	r2, [fp, #-60]
	rsb	r8, r1, r8
	add	r9, r1, r9
	bl	BsGet
	ldr	r2, [fp, #-60]
	and	r8, r8, #7
	orr	r0, r2, r0, asl r8
	b	.L432
.L405:
	ldr	r2, .L597
	add	r2, r2, r4
	ldrb	r2, [r2, #24]	@ zero_extendqisi2
	mov	r3, r3, asl r2
	rsb	r5, r2, ip
	mov	r4, r4, asl r2
	str	r3, [r6, #28]
	str	r5, [r6, #32]
	str	r4, [r6, #36]
	sub	sp, fp, #40
	ldmfd	sp, {r4, r5, r6, r7, r8, r9, r10, fp, sp, pc}
.L403:
	rsb	r8, ip, #24
	ldr	r10, [r1, #28]
	bic	r8, r8, #7
	mov	r0, r1
	rsb	r9, ip, #16
	str	ip, [fp, #-48]
	mov	r1, r8
	rsb	r9, r8, r9
	bl	BsGet
	ldr	ip, [fp, #-48]
	and	r3, r9, #7
	add	r5, ip, r8
	str	r5, [r6, #32]
	mov	ip, r5
	orr	r0, r10, r0, asl r3
	str	r0, [r6, #28]
	mov	r3, r0
	b	.L404
	UNWIND(.fnend)
	.size	Vp9_ReadCoefProbsCommon, .-Vp9_ReadCoefProbsCommon
	.align	2
	.global	Vp9_ReadCoefProbs
	.type	Vp9_ReadCoefProbs, %function
Vp9_ReadCoefProbs:
	UNWIND(.fnstart)
	@ args = 0, pretend = 0, frame = 0
	@ frame_needed = 1, uses_anonymous_args = 0
	UNWIND(.movsp ip)
	mov	ip, sp
	stmfd	sp!, {r4, r5, r6, r7, fp, ip, lr, pc}
	UNWIND(.pad #4)
	UNWIND(.save {r4, r5, r6, r7, fp, ip, lr})
	UNWIND(.setfp fp, ip, #-4)
	sub	fp, ip, #4
	mov	r4, r1
	mov	r1, r2
	mov	r5, r2
	mov	r6, r0
	bl	Vp9_ReadCoefProbsCommon
	cmp	r4, #0
	ldmeqfd	sp, {r4, r5, r6, r7, fp, sp, pc}
	mov	r1, r5
	add	r0, r6, #432
	bl	Vp9_ReadCoefProbsCommon
	cmp	r4, #1
	bls	.L601
	mov	r1, r5
	add	r0, r6, #864
	bl	Vp9_ReadCoefProbsCommon
.L601:
	cmp	r4, #2
	ldmlsfd	sp, {r4, r5, r6, r7, fp, sp, pc}
	mov	r1, r5
	add	r0, r6, #1296
	sub	sp, fp, #28
	ldmfd	sp, {r4, r5, r6, r7, fp, sp, lr}
	b	Vp9_ReadCoefProbsCommon
	UNWIND(.fnend)
	.size	Vp9_ReadCoefProbs, .-Vp9_ReadCoefProbs
	.align	2
	.global	Vp9_ReadInterModeProbs
	.type	Vp9_ReadInterModeProbs, %function
Vp9_ReadInterModeProbs:
	UNWIND(.fnstart)
	@ args = 0, pretend = 0, frame = 16
	@ frame_needed = 1, uses_anonymous_args = 0
	UNWIND(.movsp ip)
	mov	ip, sp
	stmfd	sp!, {r4, r5, r6, r7, r8, r9, r10, fp, ip, lr, pc}
	UNWIND(.pad #4)
	UNWIND(.save {r4, r5, r6, r7, r8, r9, r10, fp, ip, lr})
	UNWIND(.setfp fp, ip, #-4)
	sub	fp, ip, #4
	UNWIND(.pad #20)
	sub	sp, sp, #20
	ldr	r6, .L771
	mov	r7, r0
	mov	r5, r1
	add	r3, r0, #21
	str	r3, [fp, #-48]
.L696:
	ldr	r3, [r5, #36]
	ldr	r4, [r5, #32]
	sub	r3, r3, #1
	cmp	r4, #0
	mov	r2, r3, asl #8
	sub	r3, r2, r3, asl #2
	mov	r3, r3, lsr #8
	add	r8, r3, #1
	blt	.L605
	ldr	r10, [r5, #28]
.L606:
	mov	r9, r8, asl #24
	cmp	r9, r10
	bhi	.L607
	ldr	r3, [r5, #36]
	rsb	r10, r9, r10
	rsb	r3, r8, r3
	add	r2, r6, r3
	ldrb	r9, [r2, #24]	@ zero_extendqisi2
	mov	r3, r3, asl r9
	rsb	r4, r9, r4
	sub	r8, r3, #1
	cmp	r4, #0
	ubfx	r8, r8, #1, #24
	mov	r9, r10, asl r9
	str	r3, [r5, #36]
	add	r8, r8, #1
	str	r4, [r5, #32]
	str	r9, [r5, #28]
	blt	.L748
.L608:
	mov	r10, r8, asl #24
	cmp	r10, r9
	bhi	.L609
	ldr	r2, [r5, #36]
	rsb	r9, r10, r9
	rsb	r8, r8, r2
	add	r3, r6, r8
	ldrb	r0, [r3, #24]	@ zero_extendqisi2
	mov	r2, r8, asl r0
	rsb	r4, r0, r4
	sub	r8, r2, #1
	cmp	r4, #0
	ubfx	r8, r8, #1, #24
	mov	r9, r9, asl r0
	str	r2, [r5, #36]
	add	r8, r8, #1
	str	r4, [r5, #32]
	str	r9, [r5, #28]
	blt	.L749
.L611:
	mov	r3, r8, asl #24
	cmp	r3, r9
	bhi	.L616
	ldr	r1, [r5, #36]
	rsb	r3, r3, r9
	rsb	r8, r8, r1
	add	r2, r6, r8
	ldrb	r2, [r2, #24]	@ zero_extendqisi2
	rsb	r9, r2, r4
	mov	r1, r8, asl r2
	sub	r8, r1, #1
	cmp	r9, #0
	ubfx	r8, r8, #1, #24
	mov	r4, r3, asl r2
	str	r1, [r5, #36]
	add	r8, r8, #1
	str	r9, [r5, #32]
	str	r4, [r5, #28]
	blt	.L750
.L618:
	mov	r2, r8, asl #24
	cmp	r2, r4
	bhi	.L622
	ldr	r1, [r5, #36]
	rsb	r2, r2, r4
	mov	r10, #0
	mov	r3, #6
	rsb	r8, r8, r1
	str	r7, [fp, #-60]
	add	r1, r6, r8
	mov	r7, r10
	mov	ip, #1
	ldrb	r4, [r1, #24]	@ zero_extendqisi2
	mov	r2, r2, asl r4
	rsb	r9, r4, r9
	str	r2, [r5, #28]
	mov	r4, r8, asl r4
	str	r9, [r5, #32]
	mov	r8, r3
	str	r4, [r5, #36]
	mov	r10, r2
	b	.L623
.L627:
	mov	r2, r4, asl #24
	mov	r1, ip, asl r8
	cmp	r2, r0
	sub	r8, r8, #1
	rsbls	r0, r2, r0
	ldrls	lr, [r5, #36]
	movhi	r1, #0
	orr	r7, r7, r1
	rsbls	r4, r4, lr
	cmn	r8, #1
	add	r2, r6, r4
	ldrb	r2, [r2, #24]	@ zero_extendqisi2
	mov	r10, r0, asl r2
	rsb	r9, r2, r9
	mov	r4, r4, asl r2
	str	r10, [r5, #28]
	str	r9, [r5, #32]
	str	r4, [r5, #36]
	beq	.L751
.L623:
	sub	r4, r4, #1
	cmp	r9, #0
	ubfx	r4, r4, #1, #24
	mov	r0, r10
	add	r4, r4, #1
	bge	.L627
	rsb	r1, r9, #24
	rsb	r2, r9, #16
	bic	r1, r1, #7
	mov	r0, r5
	rsb	r2, r1, r2
	str	ip, [fp, #-56]
	str	r2, [fp, #-52]
	add	r9, r1, r9
	bl	BsGet
	ldr	r2, [fp, #-52]
	ldr	ip, [fp, #-56]
	and	r2, r2, #7
	orr	r0, r10, r0, asl r2
	b	.L627
.L607:
	add	r3, r6, r8
	ldrb	r3, [r3, #24]	@ zero_extendqisi2
	mov	r10, r10, asl r3
	rsb	r4, r3, r4
	str	r10, [r5, #28]
	mov	r3, r8, asl r3
	str	r4, [r5, #32]
	str	r3, [r5, #36]
.L697:
	sub	r3, r3, #1
	cmp	r4, #0
	mov	r8, r3, asl #8
	sub	r8, r8, r3, asl #2
	mov	r8, r8, lsr #8
	add	r8, r8, #1
	blt	.L752
.L636:
	mov	r9, r8, asl #24
	cmp	r9, r10
	bhi	.L637
	ldr	r3, [r5, #36]
	rsb	r9, r9, r10
	rsb	r8, r8, r3
	add	r3, r6, r8
	ldrb	r2, [r3, #24]	@ zero_extendqisi2
	mov	r3, r8, asl r2
	rsb	r4, r2, r4
	sub	r8, r3, #1
	cmp	r4, #0
	ubfx	r8, r8, #1, #24
	mov	r9, r9, asl r2
	str	r3, [r5, #36]
	add	r8, r8, #1
	str	r4, [r5, #32]
	str	r9, [r5, #28]
	blt	.L753
.L638:
	mov	r2, r8, asl #24
	cmp	r2, r9
	bhi	.L639
	ldr	ip, [r5, #36]
	rsb	r9, r2, r9
	rsb	r8, r8, ip
	add	r3, r6, r8
	ldrb	r0, [r3, #24]	@ zero_extendqisi2
	mov	ip, r8, asl r0
	rsb	r4, r0, r4
	sub	r8, ip, #1
	cmp	r4, #0
	ubfx	r8, r8, #1, #24
	mov	r9, r9, asl r0
	str	ip, [r5, #36]
	add	r8, r8, #1
	str	r4, [r5, #32]
	str	r9, [r5, #28]
	blt	.L754
.L641:
	mov	r3, r8, asl #24
	cmp	r3, r9
	bhi	.L646
	ldr	r1, [r5, #36]
	rsb	r3, r3, r9
	rsb	r8, r8, r1
	add	r2, r6, r8
	ldrb	ip, [r2, #24]	@ zero_extendqisi2
	rsb	r9, ip, r4
	mov	r1, r8, asl ip
	sub	r8, r1, #1
	cmp	r9, #0
	ubfx	r8, r8, #1, #24
	mov	r4, r3, asl ip
	str	r1, [r5, #36]
	add	r8, r8, #1
	str	r9, [r5, #32]
	str	r4, [r5, #28]
	blt	.L755
.L648:
	mov	r2, r8, asl #24
	cmp	r2, r4
	bhi	.L652
	ldr	r1, [r5, #36]
	rsb	r2, r2, r4
	mov	r10, #0
	mov	r3, #6
	rsb	r8, r8, r1
	str	r7, [fp, #-60]
	add	r1, r6, r8
	mov	r7, r10
	mov	ip, #1
	ldrb	r4, [r1, #24]	@ zero_extendqisi2
	mov	r2, r2, asl r4
	rsb	r9, r4, r9
	str	r2, [r5, #28]
	mov	r4, r8, asl r4
	str	r9, [r5, #32]
	mov	r8, r3
	str	r4, [r5, #36]
	mov	r10, r2
	b	.L653
.L657:
	mov	r2, r4, asl #24
	mov	r1, ip, asl r8
	cmp	r2, r0
	sub	r8, r8, #1
	rsbls	r0, r2, r0
	ldrls	lr, [r5, #36]
	movhi	r1, #0
	orr	r7, r7, r1
	rsbls	r4, r4, lr
	cmn	r8, #1
	add	r2, r6, r4
	ldrb	r2, [r2, #24]	@ zero_extendqisi2
	mov	r10, r0, asl r2
	rsb	r9, r2, r9
	mov	r4, r4, asl r2
	str	r10, [r5, #28]
	str	r9, [r5, #32]
	str	r4, [r5, #36]
	beq	.L756
.L653:
	sub	r4, r4, #1
	cmp	r9, #0
	ubfx	r4, r4, #1, #24
	mov	r0, r10
	add	r4, r4, #1
	bge	.L657
	rsb	r1, r9, #24
	rsb	r2, r9, #16
	bic	r1, r1, #7
	mov	r0, r5
	rsb	r2, r1, r2
	str	ip, [fp, #-56]
	str	r2, [fp, #-52]
	add	r9, r1, r9
	bl	BsGet
	ldr	r2, [fp, #-52]
	ldr	ip, [fp, #-56]
	and	r2, r2, #7
	orr	r0, r10, r0, asl r2
	b	.L657
.L637:
	add	r3, r6, r8
	ldrb	r3, [r3, #24]	@ zero_extendqisi2
	mov	r10, r10, asl r3
	rsb	r4, r3, r4
	mov	r8, r8, asl r3
	str	r10, [r5, #28]
	str	r4, [r5, #32]
	str	r8, [r5, #36]
.L698:
	sub	r8, r8, #1
	cmp	r4, #0
	mov	r3, r8, asl #8
	sub	r8, r3, r8, asl #2
	mov	r8, r8, lsr #8
	add	r8, r8, #1
	blt	.L757
.L666:
	mov	r9, r8, asl #24
	cmp	r9, r10
	bhi	.L667
	ldr	r3, [r5, #36]
	rsb	r9, r9, r10
	rsb	r8, r8, r3
	add	r3, r6, r8
	ldrb	r2, [r3, #24]	@ zero_extendqisi2
	mov	r3, r8, asl r2
	rsb	r4, r2, r4
	sub	r8, r3, #1
	cmp	r4, #0
	ubfx	r8, r8, #1, #24
	mov	r9, r9, asl r2
	str	r3, [r5, #36]
	add	r8, r8, #1
	str	r4, [r5, #32]
	str	r9, [r5, #28]
	blt	.L758
.L668:
	mov	r2, r8, asl #24
	cmp	r2, r9
	bhi	.L669
	ldr	ip, [r5, #36]
	rsb	r9, r2, r9
	rsb	r8, r8, ip
	add	r3, r6, r8
	ldrb	r0, [r3, #24]	@ zero_extendqisi2
	mov	ip, r8, asl r0
	rsb	r4, r0, r4
	sub	r8, ip, #1
	cmp	r4, #0
	ubfx	r8, r8, #1, #24
	mov	r9, r9, asl r0
	str	ip, [r5, #36]
	add	r8, r8, #1
	str	r4, [r5, #32]
	str	r9, [r5, #28]
	blt	.L759
.L671:
	mov	r3, r8, asl #24
	cmp	r3, r9
	bhi	.L676
	ldr	r1, [r5, #36]
	rsb	r3, r3, r9
	rsb	r8, r8, r1
	add	r2, r6, r8
	ldrb	ip, [r2, #24]	@ zero_extendqisi2
	rsb	r9, ip, r4
	mov	r1, r8, asl ip
	sub	r8, r1, #1
	cmp	r9, #0
	ubfx	r8, r8, #1, #24
	mov	r4, r3, asl ip
	str	r1, [r5, #36]
	add	r8, r8, #1
	str	r9, [r5, #32]
	str	r4, [r5, #28]
	blt	.L760
.L678:
	mov	r2, r8, asl #24
	cmp	r2, r4
	bhi	.L682
	ldr	r1, [r5, #36]
	rsb	r2, r2, r4
	mov	r10, #0
	mov	r3, #6
	rsb	r8, r8, r1
	str	r7, [fp, #-60]
	add	r1, r6, r8
	mov	r7, r10
	mov	ip, #1
	ldrb	r4, [r1, #24]	@ zero_extendqisi2
	mov	r2, r2, asl r4
	rsb	r9, r4, r9
	str	r2, [r5, #28]
	mov	r4, r8, asl r4
	str	r9, [r5, #32]
	mov	r8, r3
	str	r4, [r5, #36]
	mov	r10, r2
	b	.L683
.L687:
	mov	r2, r4, asl #24
	mov	r1, ip, asl r8
	cmp	r2, r0
	sub	r8, r8, #1
	rsbls	r0, r2, r0
	ldrls	lr, [r5, #36]
	movhi	r1, #0
	orr	r7, r7, r1
	rsbls	r4, r4, lr
	cmn	r8, #1
	add	r2, r6, r4
	ldrb	r2, [r2, #24]	@ zero_extendqisi2
	mov	r10, r0, asl r2
	rsb	r9, r2, r9
	mov	r4, r4, asl r2
	str	r10, [r5, #28]
	str	r9, [r5, #32]
	str	r4, [r5, #36]
	beq	.L761
.L683:
	sub	r4, r4, #1
	cmp	r9, #0
	ubfx	r4, r4, #1, #24
	mov	r0, r10
	add	r4, r4, #1
	bge	.L687
	rsb	r1, r9, #24
	rsb	r2, r9, #16
	bic	r1, r1, #7
	mov	r0, r5
	rsb	r2, r1, r2
	str	ip, [fp, #-56]
	str	r2, [fp, #-52]
	add	r9, r1, r9
	bl	BsGet
	ldr	r2, [fp, #-52]
	ldr	ip, [fp, #-56]
	and	r2, r2, #7
	orr	r0, r10, r0, asl r2
	b	.L687
.L667:
	add	r3, r6, r8
	ldrb	r3, [r3, #24]	@ zero_extendqisi2
	mov	r10, r10, asl r3
	rsb	r4, r3, r4
	mov	r8, r8, asl r3
	str	r10, [r5, #28]
	str	r4, [r5, #32]
	str	r8, [r5, #36]
.L699:
	ldr	r3, [fp, #-48]
	add	r7, r7, #3
	cmp	r7, r3
	bne	.L696
	sub	sp, fp, #40
	ldmfd	sp, {r4, r5, r6, r7, r8, r9, r10, fp, sp, pc}
.L757:
	rsb	r2, r4, #24
	rsb	r9, r4, #16
	bic	r2, r2, #7
	mov	r0, r5
	rsb	r9, r2, r9
	str	r2, [fp, #-52]
	mov	r1, r2
	bl	BsGet
	and	r3, r9, #7
	ldr	r2, [fp, #-52]
	add	r4, r2, r4
	str	r4, [r5, #32]
	orr	r0, r10, r0, asl r3
	str	r0, [r5, #28]
	mov	r10, r0
	b	.L666
.L752:
	rsb	r2, r4, #24
	rsb	r9, r4, #16
	bic	r2, r2, #7
	mov	r0, r5
	rsb	r9, r2, r9
	str	r2, [fp, #-52]
	mov	r1, r2
	bl	BsGet
	and	r3, r9, #7
	ldr	r2, [fp, #-52]
	add	r4, r2, r4
	str	r4, [r5, #32]
	orr	r0, r10, r0, asl r3
	str	r0, [r5, #28]
	mov	r10, r0
	b	.L636
.L605:
	rsb	r9, r4, #24
	rsb	r3, r4, #16
	bic	r9, r9, #7
	mov	r0, r5
	rsb	r3, r9, r3
	ldr	r10, [r5, #28]
	mov	r1, r9
	str	r3, [fp, #-52]
	bl	BsGet
	ldr	r3, [fp, #-52]
	add	r4, r4, r9
	str	r4, [r5, #32]
	and	r3, r3, #7
	orr	r0, r10, r0, asl r3
	str	r0, [r5, #28]
	mov	r10, r0
	b	.L606
.L609:
	add	r3, r6, r8
	mov	r10, #0
	mov	r2, #3
	str	r7, [fp, #-60]
	ldrb	r1, [r3, #24]	@ zero_extendqisi2
	mov	r7, r10
	mov	ip, #1
	mov	r9, r9, asl r1
	rsb	r4, r1, r4
	str	r9, [r5, #28]
	mov	r8, r8, asl r1
	mov	r10, r9
	str	r4, [r5, #32]
	str	r8, [r5, #36]
	mov	r9, r2
	b	.L614
.L612:
	mov	r2, r8, asl #24
	mov	r1, ip, asl r9
	cmp	r2, r0
	sub	r9, r9, #1
	rsbls	r0, r2, r0
	ldrls	lr, [r5, #36]
	movhi	r1, #0
	orr	r7, r7, r1
	rsbls	r8, r8, lr
	cmn	r9, #1
	add	r2, r6, r8
	ldrb	r2, [r2, #24]	@ zero_extendqisi2
	mov	r10, r0, asl r2
	rsb	r4, r2, r4
	mov	r8, r8, asl r2
	str	r10, [r5, #28]
	str	r4, [r5, #32]
	str	r8, [r5, #36]
	beq	.L762
.L614:
	sub	r8, r8, #1
	cmp	r4, #0
	ubfx	r8, r8, #1, #24
	mov	r0, r10
	add	r8, r8, #1
	bge	.L612
	rsb	r1, r4, #24
	rsb	r2, r4, #16
	bic	r1, r1, #7
	mov	r0, r5
	rsb	r2, r1, r2
	str	ip, [fp, #-56]
	str	r2, [fp, #-52]
	add	r4, r1, r4
	bl	BsGet
	ldr	r2, [fp, #-52]
	ldr	ip, [fp, #-56]
	and	r2, r2, #7
	orr	r0, r10, r0, asl r2
	b	.L612
.L669:
	add	r3, r6, r8
	mov	r10, #0
	mov	r2, #3
	str	r7, [fp, #-60]
	ldrb	r1, [r3, #24]	@ zero_extendqisi2
	mov	r7, r10
	mov	ip, #1
	mov	r9, r9, asl r1
	rsb	r4, r1, r4
	str	r9, [r5, #28]
	mov	r8, r8, asl r1
	mov	r10, r9
	str	r4, [r5, #32]
	str	r8, [r5, #36]
	mov	r9, r2
	b	.L674
.L672:
	mov	r2, r8, asl #24
	mov	r1, ip, asl r9
	cmp	r2, r0
	sub	r9, r9, #1
	rsbls	r0, r2, r0
	ldrls	lr, [r5, #36]
	movhi	r1, #0
	orr	r7, r7, r1
	rsbls	r8, r8, lr
	cmn	r9, #1
	add	r2, r6, r8
	ldrb	r2, [r2, #24]	@ zero_extendqisi2
	mov	r10, r0, asl r2
	rsb	r4, r2, r4
	mov	r8, r8, asl r2
	str	r10, [r5, #28]
	str	r4, [r5, #32]
	str	r8, [r5, #36]
	beq	.L763
.L674:
	sub	r8, r8, #1
	cmp	r4, #0
	ubfx	r8, r8, #1, #24
	mov	r0, r10
	add	r8, r8, #1
	bge	.L672
	rsb	r1, r4, #24
	rsb	r2, r4, #16
	bic	r1, r1, #7
	mov	r0, r5
	rsb	r2, r1, r2
	str	ip, [fp, #-56]
	str	r2, [fp, #-52]
	add	r4, r1, r4
	bl	BsGet
	ldr	r2, [fp, #-52]
	ldr	ip, [fp, #-56]
	and	r2, r2, #7
	orr	r0, r10, r0, asl r2
	b	.L672
.L639:
	add	r3, r6, r8
	mov	r10, #0
	mov	r2, #3
	str	r7, [fp, #-60]
	ldrb	r1, [r3, #24]	@ zero_extendqisi2
	mov	r7, r10
	mov	ip, #1
	mov	r9, r9, asl r1
	rsb	r4, r1, r4
	str	r9, [r5, #28]
	mov	r8, r8, asl r1
	mov	r10, r9
	str	r4, [r5, #32]
	str	r8, [r5, #36]
	mov	r9, r2
	b	.L644
.L642:
	mov	r2, r8, asl #24
	mov	r1, ip, asl r9
	cmp	r2, r0
	sub	r9, r9, #1
	rsbls	r0, r2, r0
	ldrls	lr, [r5, #36]
	movhi	r1, #0
	orr	r7, r7, r1
	rsbls	r8, r8, lr
	cmn	r9, #1
	add	r2, r6, r8
	ldrb	r2, [r2, #24]	@ zero_extendqisi2
	mov	r10, r0, asl r2
	rsb	r4, r2, r4
	mov	r8, r8, asl r2
	str	r10, [r5, #28]
	str	r4, [r5, #32]
	str	r8, [r5, #36]
	beq	.L764
.L644:
	sub	r8, r8, #1
	cmp	r4, #0
	ubfx	r8, r8, #1, #24
	mov	r0, r10
	add	r8, r8, #1
	bge	.L642
	rsb	r1, r4, #24
	rsb	r2, r4, #16
	bic	r1, r1, #7
	mov	r0, r5
	rsb	r2, r1, r2
	str	ip, [fp, #-56]
	str	r2, [fp, #-52]
	add	r4, r1, r4
	bl	BsGet
	ldr	r2, [fp, #-52]
	ldr	ip, [fp, #-56]
	and	r2, r2, #7
	orr	r0, r10, r0, asl r2
	b	.L642
.L764:
	mov	r10, r7
	ldr	r7, [fp, #-60]
.L645:
	ldrb	r2, [r7, #1959]	@ zero_extendqisi2
	add	r10, r6, r10
	sub	ip, r2, #1
	ldrb	r1, [r10, #280]	@ zero_extendqisi2
	mov	r0, ip, asl #1
	cmp	r0, #255
	bgt	.L660
	add	r3, r1, #1
	cmp	r3, r0
	bgt	.L661
	tst	r3, #1
	addne	r3, r1, #2
	addeq	r3, r3, r3, lsr #31
	subne	r3, ip, r3, asr #1
	addeq	r3, ip, r3, asr #1
.L661:
	add	r3, r3, #1
.L663:
	strb	r3, [r7, #1959]
	ldr	r10, [r5, #28]
	ldr	r8, [r5, #36]
	ldr	r4, [r5, #32]
	b	.L698
.L660:
	rsb	r2, r2, #255
	add	r3, r1, #1
	cmp	r3, r2, asl #1
	bgt	.L664
	tst	r3, #1
	addne	r3, r1, #2
	addeq	r3, r3, r3, lsr #31
	subne	r3, r2, r3, asr #1
	addeq	r3, r2, r3, asr #1
.L664:
	rsb	r3, r3, #255
	b	.L663
.L763:
	mov	r10, r7
	ldr	r7, [fp, #-60]
.L675:
	ldrb	r2, [r7, #1960]	@ zero_extendqisi2
	add	r10, r6, r10
	sub	ip, r2, #1
	ldrb	r1, [r10, #280]	@ zero_extendqisi2
	mov	r0, ip, asl #1
	cmp	r0, #255
	bgt	.L690
	add	r3, r1, #1
	cmp	r3, r0
	bgt	.L691
	tst	r3, #1
	addne	r3, r1, #2
	addeq	r3, r3, r3, lsr #31
	subne	r3, ip, r3, asr #1
	addeq	r3, ip, r3, asr #1
.L691:
	add	r3, r3, #1
.L693:
	strb	r3, [r7, #1960]
	b	.L699
.L690:
	rsb	r2, r2, #255
	add	r3, r1, #1
	cmp	r3, r2, asl #1
	bgt	.L694
	tst	r3, #1
	addne	r3, r1, #2
	addeq	r3, r3, r3, lsr #31
	subne	r3, r2, r3, asr #1
	addeq	r3, r2, r3, asr #1
.L694:
	rsb	r3, r3, #255
	b	.L693
.L762:
	mov	r10, r7
	ldr	r7, [fp, #-60]
.L615:
	ldrb	r2, [r7, #1958]	@ zero_extendqisi2
	add	r10, r6, r10
	sub	ip, r2, #1
	ldrb	r1, [r10, #280]	@ zero_extendqisi2
	mov	r0, ip, asl #1
	cmp	r0, #255
	bgt	.L630
	add	r3, r1, #1
	cmp	r3, r0
	bgt	.L631
	tst	r3, #1
	addne	r3, r1, #2
	addeq	r3, r3, r3, lsr #31
	subne	r3, ip, r3, asr #1
	addeq	r3, ip, r3, asr #1
.L631:
	add	r3, r3, #1
.L633:
	strb	r3, [r7, #1958]
	ldr	r10, [r5, #28]
	ldr	r3, [r5, #36]
	ldr	r4, [r5, #32]
	b	.L697
.L630:
	rsb	r2, r2, #255
	add	r3, r1, #1
	cmp	r3, r2, asl #1
	bgt	.L634
	tst	r3, #1
	addne	r3, r1, #2
	addeq	r3, r3, r3, lsr #31
	subne	r3, r2, r3, asr #1
	addeq	r3, r2, r3, asr #1
.L634:
	rsb	r3, r3, #255
	b	.L633
.L622:
	add	r3, r6, r8
	mov	r10, #0
	mov	ip, #4
	str	r7, [fp, #-60]
	ldrb	r1, [r3, #24]	@ zero_extendqisi2
	mov	r7, r10
	mov	r2, #1
	mov	r3, r4, asl r1
	mov	r8, r8, asl r1
	rsb	r9, r1, r9
	str	r8, [r5, #36]
	mov	r4, r8
	str	r3, [r5, #28]
	str	r9, [r5, #32]
	mov	r10, r3
	mov	r8, ip
	b	.L626
.L624:
	mov	r1, r4, asl #24
	mov	ip, r2, asl r8
	cmp	r1, r0
	sub	r8, r8, #1
	rsbls	r0, r1, r0
	ldrls	lr, [r5, #36]
	movhi	ip, #0
	orr	r7, r7, ip
	rsbls	r4, r4, lr
	cmn	r8, #1
	add	r1, r6, r4
	ldrb	r1, [r1, #24]	@ zero_extendqisi2
	mov	r10, r0, asl r1
	rsb	r9, r1, r9
	mov	r4, r4, asl r1
	str	r10, [r5, #28]
	str	r9, [r5, #32]
	str	r4, [r5, #36]
	beq	.L765
.L626:
	sub	r4, r4, #1
	cmp	r9, #0
	ubfx	r4, r4, #1, #24
	mov	r0, r10
	add	r4, r4, #1
	bge	.L624
	rsb	r1, r9, #24
	rsb	ip, r9, #16
	bic	r1, r1, #7
	mov	r0, r5
	rsb	ip, r1, ip
	str	r2, [fp, #-56]
	str	ip, [fp, #-52]
	add	r9, r1, r9
	bl	BsGet
	ldr	ip, [fp, #-52]
	ldr	r2, [fp, #-56]
	and	ip, ip, #7
	orr	r0, r10, r0, asl ip
	b	.L624
.L682:
	add	r3, r6, r8
	mov	r10, #0
	mov	ip, #4
	str	r7, [fp, #-60]
	ldrb	r1, [r3, #24]	@ zero_extendqisi2
	mov	r7, r10
	mov	r2, #1
	mov	r3, r4, asl r1
	mov	r8, r8, asl r1
	rsb	r9, r1, r9
	str	r8, [r5, #36]
	mov	r4, r8
	str	r3, [r5, #28]
	str	r9, [r5, #32]
	mov	r10, r3
	mov	r8, ip
	b	.L686
.L684:
	mov	r1, r4, asl #24
	mov	ip, r2, asl r8
	cmp	r1, r0
	sub	r8, r8, #1
	rsbls	r0, r1, r0
	ldrls	lr, [r5, #36]
	movhi	ip, #0
	orr	r7, r7, ip
	rsbls	r4, r4, lr
	cmn	r8, #1
	add	r1, r6, r4
	ldrb	r1, [r1, #24]	@ zero_extendqisi2
	mov	r10, r0, asl r1
	rsb	r9, r1, r9
	mov	r4, r4, asl r1
	str	r10, [r5, #28]
	str	r9, [r5, #32]
	str	r4, [r5, #36]
	beq	.L766
.L686:
	sub	r4, r4, #1
	cmp	r9, #0
	ubfx	r4, r4, #1, #24
	mov	r0, r10
	add	r4, r4, #1
	bge	.L684
	rsb	r1, r9, #24
	rsb	ip, r9, #16
	bic	r1, r1, #7
	mov	r0, r5
	rsb	ip, r1, ip
	str	r2, [fp, #-56]
	str	ip, [fp, #-52]
	add	r9, r1, r9
	bl	BsGet
	ldr	ip, [fp, #-52]
	ldr	r2, [fp, #-56]
	and	ip, ip, #7
	orr	r0, r10, r0, asl ip
	b	.L684
.L652:
	add	r3, r6, r8
	mov	r10, #0
	mov	ip, #4
	str	r7, [fp, #-60]
	ldrb	r1, [r3, #24]	@ zero_extendqisi2
	mov	r7, r10
	mov	r2, #1
	mov	r3, r4, asl r1
	mov	r8, r8, asl r1
	rsb	r9, r1, r9
	str	r8, [r5, #36]
	mov	r4, r8
	str	r3, [r5, #28]
	str	r9, [r5, #32]
	mov	r10, r3
	mov	r8, ip
	b	.L656
.L654:
	mov	r1, r4, asl #24
	mov	ip, r2, asl r8
	cmp	r1, r0
	sub	r8, r8, #1
	rsbls	r0, r1, r0
	ldrls	lr, [r5, #36]
	movhi	ip, #0
	orr	r7, r7, ip
	rsbls	r4, r4, lr
	cmn	r8, #1
	add	r1, r6, r4
	ldrb	r1, [r1, #24]	@ zero_extendqisi2
	mov	r10, r0, asl r1
	rsb	r9, r1, r9
	mov	r4, r4, asl r1
	str	r10, [r5, #28]
	str	r9, [r5, #32]
	str	r4, [r5, #36]
	beq	.L767
.L656:
	sub	r4, r4, #1
	cmp	r9, #0
	ubfx	r4, r4, #1, #24
	mov	r0, r10
	add	r4, r4, #1
	bge	.L654
	rsb	r1, r9, #24
	rsb	ip, r9, #16
	bic	r1, r1, #7
	mov	r0, r5
	rsb	ip, r1, ip
	str	r2, [fp, #-56]
	str	ip, [fp, #-52]
	add	r9, r1, r9
	bl	BsGet
	ldr	ip, [fp, #-52]
	ldr	r2, [fp, #-56]
	and	ip, ip, #7
	orr	r0, r10, r0, asl ip
	b	.L654
.L676:
	add	r3, r6, r8
	mov	r10, #0
	mov	r2, #3
	str	r7, [fp, #-60]
	ldrb	r1, [r3, #24]	@ zero_extendqisi2
	mov	r7, r10
	mov	ip, #1
	mov	r9, r9, asl r1
	rsb	r4, r1, r4
	str	r9, [r5, #28]
	mov	r8, r8, asl r1
	mov	r10, r9
	str	r4, [r5, #32]
	str	r8, [r5, #36]
	mov	r9, r2
	b	.L681
.L679:
	mov	r2, r8, asl #24
	mov	r1, ip, asl r9
	cmp	r2, r0
	sub	r9, r9, #1
	rsbls	r0, r2, r0
	ldrls	lr, [r5, #36]
	movhi	r1, #0
	orr	r7, r7, r1
	rsbls	r8, r8, lr
	cmn	r9, #1
	add	r2, r6, r8
	ldrb	r2, [r2, #24]	@ zero_extendqisi2
	mov	r10, r0, asl r2
	rsb	r4, r2, r4
	mov	r8, r8, asl r2
	str	r10, [r5, #28]
	str	r4, [r5, #32]
	str	r8, [r5, #36]
	beq	.L768
.L681:
	sub	r8, r8, #1
	cmp	r4, #0
	ubfx	r8, r8, #1, #24
	mov	r0, r10
	add	r8, r8, #1
	bge	.L679
	rsb	r1, r4, #24
	rsb	r2, r4, #16
	bic	r1, r1, #7
	mov	r0, r5
	rsb	r2, r1, r2
	str	ip, [fp, #-56]
	str	r2, [fp, #-52]
	add	r4, r1, r4
	bl	BsGet
	ldr	r2, [fp, #-52]
	ldr	ip, [fp, #-56]
	and	r2, r2, #7
	orr	r0, r10, r0, asl r2
	b	.L679
.L646:
	add	r3, r6, r8
	mov	r10, #0
	mov	r2, #3
	str	r7, [fp, #-60]
	ldrb	r1, [r3, #24]	@ zero_extendqisi2
	mov	r7, r10
	mov	ip, #1
	mov	r9, r9, asl r1
	rsb	r4, r1, r4
	str	r9, [r5, #28]
	mov	r8, r8, asl r1
	mov	r10, r9
	str	r4, [r5, #32]
	str	r8, [r5, #36]
	mov	r9, r2
	b	.L651
.L649:
	mov	r2, r8, asl #24
	mov	r1, ip, asl r9
	cmp	r2, r0
	sub	r9, r9, #1
	rsbls	r0, r2, r0
	ldrls	lr, [r5, #36]
	movhi	r1, #0
	orr	r7, r7, r1
	rsbls	r8, r8, lr
	cmn	r9, #1
	add	r2, r6, r8
	ldrb	r2, [r2, #24]	@ zero_extendqisi2
	mov	r10, r0, asl r2
	rsb	r4, r2, r4
	mov	r8, r8, asl r2
	str	r10, [r5, #28]
	str	r4, [r5, #32]
	str	r8, [r5, #36]
	beq	.L769
.L651:
	sub	r8, r8, #1
	cmp	r4, #0
	ubfx	r8, r8, #1, #24
	mov	r0, r10
	add	r8, r8, #1
	bge	.L649
	rsb	r1, r4, #24
	rsb	r2, r4, #16
	bic	r1, r1, #7
	mov	r0, r5
	rsb	r2, r1, r2
	str	ip, [fp, #-56]
	str	r2, [fp, #-52]
	add	r4, r1, r4
	bl	BsGet
	ldr	r2, [fp, #-52]
	ldr	ip, [fp, #-56]
	and	r2, r2, #7
	orr	r0, r10, r0, asl r2
	b	.L649
.L616:
	add	r3, r6, r8
	mov	r10, #0
	mov	r2, #3
	str	r7, [fp, #-60]
	ldrb	r1, [r3, #24]	@ zero_extendqisi2
	mov	r7, r10
	mov	ip, #1
	mov	r9, r9, asl r1
	rsb	r4, r1, r4
	str	r9, [r5, #28]
	mov	r8, r8, asl r1
	mov	r10, r9
	str	r4, [r5, #32]
	str	r8, [r5, #36]
	mov	r9, r2
	b	.L621
.L772:
	.align	2
.L771:
	.word	.LANCHOR0
.L619:
	mov	r2, r8, asl #24
	mov	r1, ip, asl r9
	cmp	r2, r0
	sub	r9, r9, #1
	rsbls	r0, r2, r0
	ldrls	lr, [r5, #36]
	movhi	r1, #0
	orr	r7, r7, r1
	rsbls	r8, r8, lr
	cmn	r9, #1
	add	r2, r6, r8
	ldrb	r2, [r2, #24]	@ zero_extendqisi2
	mov	r10, r0, asl r2
	rsb	r4, r2, r4
	mov	r8, r8, asl r2
	str	r10, [r5, #28]
	str	r4, [r5, #32]
	str	r8, [r5, #36]
	beq	.L770
.L621:
	sub	r8, r8, #1
	cmp	r4, #0
	ubfx	r8, r8, #1, #24
	mov	r0, r10
	add	r8, r8, #1
	bge	.L619
	rsb	r1, r4, #24
	rsb	r2, r4, #16
	bic	r1, r1, #7
	mov	r0, r5
	rsb	r2, r1, r2
	str	ip, [fp, #-56]
	str	r2, [fp, #-52]
	add	r4, r1, r4
	bl	BsGet
	ldr	r2, [fp, #-52]
	ldr	ip, [fp, #-56]
	and	r2, r2, #7
	orr	r0, r10, r0, asl r2
	b	.L619
.L770:
	mov	r10, r7
	ldr	r7, [fp, #-60]
	add	r10, r10, #16
	b	.L615
.L769:
	mov	r10, r7
	ldr	r7, [fp, #-60]
	add	r10, r10, #16
	b	.L645
.L768:
	mov	r10, r7
	ldr	r7, [fp, #-60]
	add	r10, r10, #16
	b	.L675
.L761:
	mov	r10, r7
	cmp	r10, #64
	ldr	r7, [fp, #-60]
	ble	.L689
	mov	r1, #128
	mov	r0, r5
	bl	Vp9_Cabac_Read
	add	r0, r0, r10, lsl #1
	sub	r10, r0, #65
.L689:
	add	r10, r10, #64
	b	.L675
.L751:
	mov	r10, r7
	cmp	r10, #64
	ldr	r7, [fp, #-60]
	ble	.L629
	mov	r1, #128
	mov	r0, r5
	bl	Vp9_Cabac_Read
	add	r0, r0, r10, lsl #1
	sub	r10, r0, #65
.L629:
	add	r10, r10, #64
	b	.L615
.L756:
	mov	r10, r7
	cmp	r10, #64
	ldr	r7, [fp, #-60]
	ble	.L659
	mov	r1, #128
	mov	r0, r5
	bl	Vp9_Cabac_Read
	add	r0, r0, r10, lsl #1
	sub	r10, r0, #65
.L659:
	add	r10, r10, #64
	b	.L645
.L767:
	mov	r10, r7
	ldr	r7, [fp, #-60]
	add	r10, r10, #32
	b	.L645
.L766:
	mov	r10, r7
	ldr	r7, [fp, #-60]
	add	r10, r10, #32
	b	.L675
.L765:
	mov	r10, r7
	ldr	r7, [fp, #-60]
	add	r10, r10, #32
	b	.L615
.L753:
	rsb	r3, r4, #24
	rsb	r10, r4, #16
	bic	r3, r3, #7
	mov	r0, r5
	rsb	r10, r3, r10
	str	r3, [fp, #-52]
	mov	r1, r3
	and	r10, r10, #7
	bl	BsGet
	ldr	r3, [fp, #-52]
	add	r4, r4, r3
	str	r4, [r5, #32]
	orr	r0, r9, r0, asl r10
	str	r0, [r5, #28]
	mov	r9, r0
	b	.L638
.L758:
	rsb	r3, r4, #24
	rsb	r10, r4, #16
	bic	r3, r3, #7
	mov	r0, r5
	rsb	r10, r3, r10
	str	r3, [fp, #-52]
	mov	r1, r3
	and	r10, r10, #7
	bl	BsGet
	ldr	r3, [fp, #-52]
	add	r4, r4, r3
	str	r4, [r5, #32]
	orr	r0, r9, r0, asl r10
	str	r0, [r5, #28]
	mov	r9, r0
	b	.L668
.L748:
	rsb	r3, r4, #24
	rsb	r10, r4, #16
	bic	r3, r3, #7
	mov	r0, r5
	rsb	r10, r3, r10
	str	r3, [fp, #-52]
	mov	r1, r3
	and	r10, r10, #7
	bl	BsGet
	ldr	r3, [fp, #-52]
	add	r4, r4, r3
	str	r4, [r5, #32]
	orr	r0, r9, r0, asl r10
	str	r0, [r5, #28]
	mov	r9, r0
	b	.L608
.L749:
	rsb	r3, r4, #24
	rsb	r10, r4, #16
	bic	r3, r3, #7
	mov	r0, r5
	rsb	r10, r3, r10
	str	r3, [fp, #-52]
	mov	r1, r3
	and	r10, r10, #7
	bl	BsGet
	ldr	r3, [fp, #-52]
	add	r4, r4, r3
	str	r4, [r5, #32]
	orr	r0, r9, r0, asl r10
	str	r0, [r5, #28]
	mov	r9, r0
	b	.L611
.L759:
	rsb	r3, r4, #24
	rsb	r10, r4, #16
	bic	r3, r3, #7
	mov	r0, r5
	rsb	r10, r3, r10
	str	r3, [fp, #-52]
	mov	r1, r3
	and	r10, r10, #7
	bl	BsGet
	ldr	r3, [fp, #-52]
	add	r4, r4, r3
	str	r4, [r5, #32]
	orr	r0, r9, r0, asl r10
	str	r0, [r5, #28]
	mov	r9, r0
	b	.L671
.L754:
	rsb	r3, r4, #24
	rsb	r10, r4, #16
	bic	r3, r3, #7
	mov	r0, r5
	rsb	r10, r3, r10
	str	r3, [fp, #-52]
	mov	r1, r3
	and	r10, r10, #7
	bl	BsGet
	ldr	r3, [fp, #-52]
	add	r4, r4, r3
	str	r4, [r5, #32]
	orr	r0, r9, r0, asl r10
	str	r0, [r5, #28]
	mov	r9, r0
	b	.L641
.L755:
	rsb	r2, r9, #24
	rsb	r10, r9, #16
	bic	r2, r2, #7
	mov	r0, r5
	rsb	r10, r2, r10
	str	r2, [fp, #-52]
	mov	r1, r2
	bl	BsGet
	and	r3, r10, #7
	ldr	r2, [fp, #-52]
	add	r9, r9, r2
	str	r9, [r5, #32]
	orr	r0, r4, r0, asl r3
	str	r0, [r5, #28]
	mov	r4, r0
	b	.L648
.L750:
	rsb	r2, r9, #24
	rsb	r10, r9, #16
	bic	r2, r2, #7
	mov	r0, r5
	rsb	r10, r2, r10
	str	r2, [fp, #-52]
	mov	r1, r2
	bl	BsGet
	and	r3, r10, #7
	ldr	r2, [fp, #-52]
	add	r9, r9, r2
	str	r9, [r5, #32]
	orr	r0, r4, r0, asl r3
	str	r0, [r5, #28]
	mov	r4, r0
	b	.L618
.L760:
	rsb	r2, r9, #24
	rsb	r10, r9, #16
	bic	r2, r2, #7
	mov	r0, r5
	rsb	r10, r2, r10
	str	r2, [fp, #-52]
	mov	r1, r2
	bl	BsGet
	and	r3, r10, #7
	ldr	r2, [fp, #-52]
	add	r9, r9, r2
	str	r9, [r5, #32]
	orr	r0, r4, r0, asl r3
	str	r0, [r5, #28]
	mov	r4, r0
	b	.L678
	UNWIND(.fnend)
	.size	Vp9_ReadInterModeProbs, .-Vp9_ReadInterModeProbs
	.align	2
	.global	Vp9_ReadSwitchableInterpProbs
	.type	Vp9_ReadSwitchableInterpProbs, %function
Vp9_ReadSwitchableInterpProbs:
	UNWIND(.fnstart)
	@ args = 0, pretend = 0, frame = 16
	@ frame_needed = 1, uses_anonymous_args = 0
	UNWIND(.movsp ip)
	mov	ip, sp
	stmfd	sp!, {r4, r5, r6, r7, r8, r9, r10, fp, ip, lr, pc}
	UNWIND(.pad #4)
	UNWIND(.save {r4, r5, r6, r7, r8, r9, r10, fp, ip, lr})
	UNWIND(.setfp fp, ip, #-4)
	sub	fp, ip, #4
	UNWIND(.pad #20)
	sub	sp, sp, #20
	ldr	r6, .L888
	mov	r7, r0
	mov	r5, r1
	add	r3, r0, #8
	str	r3, [fp, #-48]
.L835:
	ldr	r8, [r5, #36]
	ldr	r4, [r5, #32]
	sub	r8, r8, #1
	cmp	r4, #0
	mov	r3, r8, asl #8
	sub	r8, r3, r8, asl #2
	mov	r8, r8, lsr #8
	add	r8, r8, #1
	blt	.L774
	ldr	r0, [r5, #28]
.L775:
	mov	r10, r8, asl #24
	cmp	r10, r0
	bhi	.L776
	ldr	r3, [r5, #36]
	rsb	r0, r10, r0
	rsb	r8, r8, r3
	add	r3, r6, r8
	ldrb	r9, [r3, #24]	@ zero_extendqisi2
	mov	r3, r8, asl r9
	rsb	r4, r9, r4
	sub	r8, r3, #1
	cmp	r4, #0
	ubfx	r8, r8, #1, #24
	mov	r9, r0, asl r9
	str	r3, [r5, #36]
	add	r8, r8, #1
	str	r4, [r5, #32]
	str	r9, [r5, #28]
	blt	.L871
.L777:
	mov	r0, r8, asl #24
	cmp	r0, r9
	bhi	.L778
	ldr	r2, [r5, #36]
	rsb	r9, r0, r9
	rsb	r8, r8, r2
	add	r3, r6, r8
	ldrb	r0, [r3, #24]	@ zero_extendqisi2
	mov	r2, r8, asl r0
	rsb	r4, r0, r4
	sub	r8, r2, #1
	cmp	r4, #0
	ubfx	r8, r8, #1, #24
	mov	r9, r9, asl r0
	str	r2, [r5, #36]
	add	r8, r8, #1
	str	r4, [r5, #32]
	str	r9, [r5, #28]
	blt	.L872
.L780:
	mov	r3, r8, asl #24
	cmp	r3, r9
	bhi	.L785
	ldr	r1, [r5, #36]
	rsb	r3, r3, r9
	rsb	r8, r8, r1
	add	r2, r6, r8
	ldrb	r2, [r2, #24]	@ zero_extendqisi2
	rsb	r9, r2, r4
	mov	r1, r8, asl r2
	sub	r8, r1, #1
	cmp	r9, #0
	ubfx	r8, r8, #1, #24
	mov	r4, r3, asl r2
	str	r1, [r5, #36]
	add	r8, r8, #1
	str	r9, [r5, #32]
	str	r4, [r5, #28]
	blt	.L873
.L787:
	mov	r2, r8, asl #24
	cmp	r2, r4
	bhi	.L791
	ldr	r1, [r5, #36]
	rsb	r2, r2, r4
	mov	r10, #0
	mov	r3, #6
	rsb	r8, r8, r1
	str	r7, [fp, #-60]
	add	r1, r6, r8
	mov	r7, r10
	mov	ip, #1
	ldrb	r4, [r1, #24]	@ zero_extendqisi2
	mov	r2, r2, asl r4
	rsb	r9, r4, r9
	str	r2, [r5, #28]
	mov	r4, r8, asl r4
	str	r9, [r5, #32]
	mov	r8, r3
	str	r4, [r5, #36]
	mov	r10, r2
	b	.L792
.L796:
	mov	r2, r4, asl #24
	mov	r1, ip, asl r8
	cmp	r2, r0
	sub	r8, r8, #1
	rsbls	r0, r2, r0
	ldrls	lr, [r5, #36]
	movhi	r1, #0
	orr	r7, r7, r1
	rsbls	r4, r4, lr
	cmn	r8, #1
	add	r2, r6, r4
	ldrb	r2, [r2, #24]	@ zero_extendqisi2
	mov	r10, r0, asl r2
	rsb	r9, r2, r9
	mov	r4, r4, asl r2
	str	r10, [r5, #28]
	str	r9, [r5, #32]
	str	r4, [r5, #36]
	beq	.L874
.L792:
	sub	r4, r4, #1
	cmp	r9, #0
	ubfx	r4, r4, #1, #24
	mov	r0, r10
	add	r4, r4, #1
	bge	.L796
	rsb	r1, r9, #24
	rsb	r2, r9, #16
	bic	r1, r1, #7
	mov	r0, r5
	rsb	r2, r1, r2
	str	ip, [fp, #-56]
	str	r2, [fp, #-52]
	add	r9, r1, r9
	bl	BsGet
	ldr	r2, [fp, #-52]
	ldr	ip, [fp, #-56]
	and	r2, r2, #7
	orr	r0, r10, r0, asl r2
	b	.L796
.L776:
	add	r3, r6, r8
	ldrb	r3, [r3, #24]	@ zero_extendqisi2
	mov	r10, r0, asl r3
	rsb	r4, r3, r4
	mov	r8, r8, asl r3
	str	r10, [r5, #28]
	str	r4, [r5, #32]
	str	r8, [r5, #36]
.L836:
	sub	r8, r8, #1
	cmp	r4, #0
	mov	r3, r8, asl #8
	sub	r8, r3, r8, asl #2
	mov	r8, r8, lsr #8
	add	r8, r8, #1
	blt	.L875
.L805:
	mov	r9, r8, asl #24
	cmp	r9, r10
	bhi	.L806
	ldr	r3, [r5, #36]
	rsb	r9, r9, r10
	rsb	r8, r8, r3
	add	r3, r6, r8
	ldrb	r2, [r3, #24]	@ zero_extendqisi2
	mov	r3, r8, asl r2
	rsb	r4, r2, r4
	sub	r8, r3, #1
	cmp	r4, #0
	ubfx	r8, r8, #1, #24
	mov	r9, r9, asl r2
	str	r3, [r5, #36]
	add	r8, r8, #1
	str	r4, [r5, #32]
	str	r9, [r5, #28]
	blt	.L876
.L807:
	mov	r2, r8, asl #24
	cmp	r2, r9
	bhi	.L808
	ldr	ip, [r5, #36]
	rsb	r9, r2, r9
	rsb	r8, r8, ip
	add	r3, r6, r8
	ldrb	r0, [r3, #24]	@ zero_extendqisi2
	mov	ip, r8, asl r0
	rsb	r4, r0, r4
	sub	r8, ip, #1
	cmp	r4, #0
	ubfx	r8, r8, #1, #24
	mov	r9, r9, asl r0
	str	ip, [r5, #36]
	add	r8, r8, #1
	str	r4, [r5, #32]
	str	r9, [r5, #28]
	blt	.L877
.L810:
	mov	r3, r8, asl #24
	cmp	r3, r9
	bhi	.L815
	ldr	r1, [r5, #36]
	rsb	r3, r3, r9
	rsb	r8, r8, r1
	add	r2, r6, r8
	ldrb	ip, [r2, #24]	@ zero_extendqisi2
	rsb	r9, ip, r4
	mov	r1, r8, asl ip
	sub	r8, r1, #1
	cmp	r9, #0
	ubfx	r8, r8, #1, #24
	mov	r4, r3, asl ip
	str	r1, [r5, #36]
	add	r8, r8, #1
	str	r9, [r5, #32]
	str	r4, [r5, #28]
	blt	.L878
.L817:
	mov	r2, r8, asl #24
	cmp	r2, r4
	bhi	.L821
	ldr	r1, [r5, #36]
	rsb	r2, r2, r4
	mov	r10, #0
	mov	r3, #6
	rsb	r8, r8, r1
	str	r7, [fp, #-60]
	add	r1, r6, r8
	mov	r7, r10
	mov	ip, #1
	ldrb	r4, [r1, #24]	@ zero_extendqisi2
	mov	r2, r2, asl r4
	rsb	r9, r4, r9
	str	r2, [r5, #28]
	mov	r4, r8, asl r4
	str	r9, [r5, #32]
	mov	r8, r3
	str	r4, [r5, #36]
	mov	r10, r2
	b	.L822
.L826:
	mov	r2, r4, asl #24
	mov	r1, ip, asl r8
	cmp	r2, r0
	sub	r8, r8, #1
	rsbls	r0, r2, r0
	ldrls	lr, [r5, #36]
	movhi	r1, #0
	orr	r7, r7, r1
	rsbls	r4, r4, lr
	cmn	r8, #1
	add	r2, r6, r4
	ldrb	r2, [r2, #24]	@ zero_extendqisi2
	mov	r10, r0, asl r2
	rsb	r9, r2, r9
	mov	r4, r4, asl r2
	str	r10, [r5, #28]
	str	r9, [r5, #32]
	str	r4, [r5, #36]
	beq	.L879
.L822:
	sub	r4, r4, #1
	cmp	r9, #0
	ubfx	r4, r4, #1, #24
	mov	r0, r10
	add	r4, r4, #1
	bge	.L826
	rsb	r1, r9, #24
	rsb	r2, r9, #16
	bic	r1, r1, #7
	mov	r0, r5
	rsb	r2, r1, r2
	str	ip, [fp, #-56]
	str	r2, [fp, #-52]
	add	r9, r1, r9
	bl	BsGet
	ldr	r2, [fp, #-52]
	ldr	ip, [fp, #-56]
	and	r2, r2, #7
	orr	r0, r10, r0, asl r2
	b	.L826
.L806:
	add	r3, r6, r8
	ldrb	r3, [r3, #24]	@ zero_extendqisi2
	mov	r10, r10, asl r3
	rsb	r4, r3, r4
	mov	r8, r8, asl r3
	str	r10, [r5, #28]
	str	r4, [r5, #32]
	str	r8, [r5, #36]
.L837:
	ldr	r3, [fp, #-48]
	add	r7, r7, #2
	cmp	r7, r3
	bne	.L835
	sub	sp, fp, #40
	ldmfd	sp, {r4, r5, r6, r7, r8, r9, r10, fp, sp, pc}
.L875:
	rsb	r2, r4, #24
	rsb	r9, r4, #16
	bic	r2, r2, #7
	mov	r0, r5
	rsb	r9, r2, r9
	str	r2, [fp, #-52]
	mov	r1, r2
	bl	BsGet
	and	r3, r9, #7
	ldr	r2, [fp, #-52]
	add	r4, r2, r4
	str	r4, [r5, #32]
	orr	r0, r10, r0, asl r3
	str	r0, [r5, #28]
	mov	r10, r0
	b	.L805
.L774:
	rsb	r9, r4, #24
	rsb	r3, r4, #16
	bic	r9, r9, #7
	mov	r0, r5
	rsb	r3, r9, r3
	ldr	r10, [r5, #28]
	mov	r1, r9
	str	r3, [fp, #-52]
	bl	BsGet
	ldr	r3, [fp, #-52]
	add	r4, r4, r9
	str	r4, [r5, #32]
	and	r3, r3, #7
	orr	r0, r10, r0, asl r3
	str	r0, [r5, #28]
	b	.L775
.L785:
	add	r3, r6, r8
	mov	r10, #0
	mov	r2, #3
	str	r7, [fp, #-60]
	ldrb	r1, [r3, #24]	@ zero_extendqisi2
	mov	r7, r10
	mov	ip, #1
	mov	r9, r9, asl r1
	rsb	r4, r1, r4
	str	r9, [r5, #28]
	mov	r8, r8, asl r1
	mov	r10, r9
	str	r4, [r5, #32]
	str	r8, [r5, #36]
	mov	r9, r2
	b	.L790
.L788:
	mov	r2, r8, asl #24
	mov	r1, ip, asl r9
	cmp	r2, r0
	sub	r9, r9, #1
	rsbls	r0, r2, r0
	ldrls	lr, [r5, #36]
	movhi	r1, #0
	orr	r7, r7, r1
	rsbls	r8, r8, lr
	cmn	r9, #1
	add	r2, r6, r8
	ldrb	r2, [r2, #24]	@ zero_extendqisi2
	mov	r10, r0, asl r2
	rsb	r4, r2, r4
	mov	r8, r8, asl r2
	str	r10, [r5, #28]
	str	r4, [r5, #32]
	str	r8, [r5, #36]
	beq	.L880
.L790:
	sub	r8, r8, #1
	cmp	r4, #0
	ubfx	r8, r8, #1, #24
	mov	r0, r10
	add	r8, r8, #1
	bge	.L788
	rsb	r1, r4, #24
	rsb	r2, r4, #16
	bic	r1, r1, #7
	mov	r0, r5
	rsb	r2, r1, r2
	str	ip, [fp, #-56]
	str	r2, [fp, #-52]
	add	r4, r1, r4
	bl	BsGet
	ldr	r2, [fp, #-52]
	ldr	ip, [fp, #-56]
	and	r2, r2, #7
	orr	r0, r10, r0, asl r2
	b	.L788
.L815:
	add	r3, r6, r8
	mov	r10, #0
	mov	r2, #3
	str	r7, [fp, #-60]
	ldrb	r1, [r3, #24]	@ zero_extendqisi2
	mov	r7, r10
	mov	ip, #1
	mov	r9, r9, asl r1
	rsb	r4, r1, r4
	str	r9, [r5, #28]
	mov	r8, r8, asl r1
	mov	r10, r9
	str	r4, [r5, #32]
	str	r8, [r5, #36]
	mov	r9, r2
	b	.L820
.L818:
	mov	r2, r8, asl #24
	mov	r1, ip, asl r9
	cmp	r2, r0
	sub	r9, r9, #1
	rsbls	r0, r2, r0
	ldrls	lr, [r5, #36]
	movhi	r1, #0
	orr	r7, r7, r1
	rsbls	r8, r8, lr
	cmn	r9, #1
	add	r2, r6, r8
	ldrb	r2, [r2, #24]	@ zero_extendqisi2
	mov	r10, r0, asl r2
	rsb	r4, r2, r4
	mov	r8, r8, asl r2
	str	r10, [r5, #28]
	str	r4, [r5, #32]
	str	r8, [r5, #36]
	beq	.L881
.L820:
	sub	r8, r8, #1
	cmp	r4, #0
	ubfx	r8, r8, #1, #24
	mov	r0, r10
	add	r8, r8, #1
	bge	.L818
	rsb	r1, r4, #24
	rsb	r2, r4, #16
	bic	r1, r1, #7
	mov	r0, r5
	rsb	r2, r1, r2
	str	ip, [fp, #-56]
	str	r2, [fp, #-52]
	add	r4, r1, r4
	bl	BsGet
	ldr	r2, [fp, #-52]
	ldr	ip, [fp, #-56]
	and	r2, r2, #7
	orr	r0, r10, r0, asl r2
	b	.L818
.L778:
	add	r3, r6, r8
	mov	r10, #0
	mov	r2, #3
	str	r7, [fp, #-60]
	ldrb	r1, [r3, #24]	@ zero_extendqisi2
	mov	r7, r10
	mov	ip, #1
	mov	r9, r9, asl r1
	rsb	r4, r1, r4
	str	r9, [r5, #28]
	mov	r8, r8, asl r1
	mov	r10, r9
	str	r4, [r5, #32]
	str	r8, [r5, #36]
	mov	r9, r2
	b	.L783
.L781:
	mov	r2, r8, asl #24
	mov	r1, ip, asl r9
	cmp	r2, r0
	sub	r9, r9, #1
	rsbls	r0, r2, r0
	ldrls	lr, [r5, #36]
	movhi	r1, #0
	orr	r7, r7, r1
	rsbls	r8, r8, lr
	cmn	r9, #1
	add	r2, r6, r8
	ldrb	r2, [r2, #24]	@ zero_extendqisi2
	mov	r10, r0, asl r2
	rsb	r4, r2, r4
	mov	r8, r8, asl r2
	str	r10, [r5, #28]
	str	r4, [r5, #32]
	str	r8, [r5, #36]
	beq	.L882
.L783:
	sub	r8, r8, #1
	cmp	r4, #0
	ubfx	r8, r8, #1, #24
	mov	r0, r10
	add	r8, r8, #1
	bge	.L781
	rsb	r1, r4, #24
	rsb	r2, r4, #16
	bic	r1, r1, #7
	mov	r0, r5
	rsb	r2, r1, r2
	str	ip, [fp, #-56]
	str	r2, [fp, #-52]
	add	r4, r1, r4
	bl	BsGet
	ldr	r2, [fp, #-52]
	ldr	ip, [fp, #-56]
	and	r2, r2, #7
	orr	r0, r10, r0, asl r2
	b	.L781
.L808:
	add	r3, r6, r8
	mov	r10, #0
	mov	r2, #3
	str	r7, [fp, #-60]
	ldrb	r1, [r3, #24]	@ zero_extendqisi2
	mov	r7, r10
	mov	ip, #1
	mov	r9, r9, asl r1
	rsb	r4, r1, r4
	str	r9, [r5, #28]
	mov	r8, r8, asl r1
	mov	r10, r9
	str	r4, [r5, #32]
	str	r8, [r5, #36]
	mov	r9, r2
	b	.L813
.L811:
	mov	r2, r8, asl #24
	mov	r1, ip, asl r9
	cmp	r2, r0
	sub	r9, r9, #1
	rsbls	r0, r2, r0
	ldrls	lr, [r5, #36]
	movhi	r1, #0
	orr	r7, r7, r1
	rsbls	r8, r8, lr
	cmn	r9, #1
	add	r2, r6, r8
	ldrb	r2, [r2, #24]	@ zero_extendqisi2
	mov	r10, r0, asl r2
	rsb	r4, r2, r4
	mov	r8, r8, asl r2
	str	r10, [r5, #28]
	str	r4, [r5, #32]
	str	r8, [r5, #36]
	beq	.L883
.L813:
	sub	r8, r8, #1
	cmp	r4, #0
	ubfx	r8, r8, #1, #24
	mov	r0, r10
	add	r8, r8, #1
	bge	.L811
	rsb	r1, r4, #24
	rsb	r2, r4, #16
	bic	r1, r1, #7
	mov	r0, r5
	rsb	r2, r1, r2
	str	ip, [fp, #-56]
	str	r2, [fp, #-52]
	add	r4, r1, r4
	bl	BsGet
	ldr	r2, [fp, #-52]
	ldr	ip, [fp, #-56]
	and	r2, r2, #7
	orr	r0, r10, r0, asl r2
	b	.L811
.L883:
	mov	r10, r7
	ldr	r7, [fp, #-60]
.L814:
	ldrb	r2, [r7, #1951]	@ zero_extendqisi2
	add	r10, r6, r10
	sub	ip, r2, #1
	ldrb	r1, [r10, #280]	@ zero_extendqisi2
	mov	r0, ip, asl #1
	cmp	r0, #255
	bgt	.L829
	add	r3, r1, #1
	cmp	r3, r0
	bgt	.L830
	tst	r3, #1
	addne	r3, r1, #2
	addeq	r3, r3, r3, lsr #31
	subne	r3, ip, r3, asr #1
	addeq	r3, ip, r3, asr #1
.L830:
	add	r3, r3, #1
.L832:
	strb	r3, [r7, #1951]
	b	.L837
.L829:
	rsb	r2, r2, #255
	add	r3, r1, #1
	cmp	r3, r2, asl #1
	bgt	.L833
	tst	r3, #1
	addne	r3, r1, #2
	addeq	r3, r3, r3, lsr #31
	subne	r3, r2, r3, asr #1
	addeq	r3, r2, r3, asr #1
.L833:
	rsb	r3, r3, #255
	b	.L832
.L882:
	mov	r10, r7
	ldr	r7, [fp, #-60]
.L784:
	ldrb	r2, [r7, #1950]	@ zero_extendqisi2
	add	r10, r6, r10
	sub	ip, r2, #1
	ldrb	r1, [r10, #280]	@ zero_extendqisi2
	mov	r0, ip, asl #1
	cmp	r0, #255
	bgt	.L799
	add	r3, r1, #1
	cmp	r3, r0
	bgt	.L800
	tst	r3, #1
	addne	r3, r1, #2
	addeq	r3, r3, r3, lsr #31
	subne	r3, ip, r3, asr #1
	addeq	r3, ip, r3, asr #1
.L800:
	add	r3, r3, #1
.L802:
	strb	r3, [r7, #1950]
	ldr	r10, [r5, #28]
	ldr	r8, [r5, #36]
	ldr	r4, [r5, #32]
	b	.L836
.L799:
	rsb	r2, r2, #255
	add	r3, r1, #1
	cmp	r3, r2, asl #1
	bgt	.L803
	tst	r3, #1
	addne	r3, r1, #2
	addeq	r3, r3, r3, lsr #31
	subne	r3, r2, r3, asr #1
	addeq	r3, r2, r3, asr #1
.L803:
	rsb	r3, r3, #255
	b	.L802
.L881:
	mov	r10, r7
	ldr	r7, [fp, #-60]
	add	r10, r10, #16
	b	.L814
.L880:
	mov	r10, r7
	ldr	r7, [fp, #-60]
	add	r10, r10, #16
	b	.L784
.L874:
	mov	r10, r7
	cmp	r10, #64
	ldr	r7, [fp, #-60]
	bgt	.L884
	add	r10, r10, #64
	b	.L784
.L879:
	mov	r10, r7
	cmp	r10, #64
	ldr	r7, [fp, #-60]
	addle	r10, r10, #64
	ble	.L814
.L885:
	mov	r1, #128
	mov	r0, r5
	bl	Vp9_Cabac_Read
	add	r0, r0, r10, lsl #1
	sub	r10, r0, #65
	add	r10, r10, #64
	b	.L814
.L884:
	mov	r1, #128
	mov	r0, r5
	bl	Vp9_Cabac_Read
	add	r0, r0, r10, lsl #1
	sub	r10, r0, #65
	add	r10, r10, #64
	b	.L784
.L791:
	add	r3, r6, r8
	mov	r10, #0
	mov	ip, #4
	str	r7, [fp, #-60]
	ldrb	r1, [r3, #24]	@ zero_extendqisi2
	mov	r7, r10
	mov	r2, #1
	mov	r3, r4, asl r1
	mov	r8, r8, asl r1
	rsb	r9, r1, r9
	str	r8, [r5, #36]
	mov	r4, r8
	str	r3, [r5, #28]
	str	r9, [r5, #32]
	mov	r10, r3
	mov	r8, ip
	b	.L795
.L793:
	mov	r1, r4, asl #24
	mov	ip, r2, asl r8
	cmp	r1, r0
	sub	r8, r8, #1
	rsbls	r0, r1, r0
	ldrls	lr, [r5, #36]
	movhi	ip, #0
	orr	r7, r7, ip
	rsbls	r4, r4, lr
	cmn	r8, #1
	add	r1, r6, r4
	ldrb	r1, [r1, #24]	@ zero_extendqisi2
	mov	r10, r0, asl r1
	rsb	r9, r1, r9
	mov	r4, r4, asl r1
	str	r10, [r5, #28]
	str	r9, [r5, #32]
	str	r4, [r5, #36]
	beq	.L886
.L795:
	sub	r4, r4, #1
	cmp	r9, #0
	ubfx	r4, r4, #1, #24
	mov	r0, r10
	add	r4, r4, #1
	bge	.L793
	rsb	r1, r9, #24
	rsb	ip, r9, #16
	bic	r1, r1, #7
	mov	r0, r5
	rsb	ip, r1, ip
	str	r2, [fp, #-56]
	str	ip, [fp, #-52]
	add	r9, r1, r9
	bl	BsGet
	ldr	ip, [fp, #-52]
	ldr	r2, [fp, #-56]
	and	ip, ip, #7
	orr	r0, r10, r0, asl ip
	b	.L793
.L821:
	add	r3, r6, r8
	mov	r10, #0
	mov	ip, #4
	str	r7, [fp, #-60]
	ldrb	r1, [r3, #24]	@ zero_extendqisi2
	mov	r7, r10
	mov	r2, #1
	mov	r3, r4, asl r1
	mov	r8, r8, asl r1
	rsb	r9, r1, r9
	str	r8, [r5, #36]
	mov	r4, r8
	str	r3, [r5, #28]
	str	r9, [r5, #32]
	mov	r10, r3
	mov	r8, ip
	b	.L825
.L823:
	mov	r1, r4, asl #24
	mov	ip, r2, asl r8
	cmp	r1, r0
	sub	r8, r8, #1
	rsbls	r0, r1, r0
	ldrls	lr, [r5, #36]
	movhi	ip, #0
	orr	r7, r7, ip
	rsbls	r4, r4, lr
	cmn	r8, #1
	add	r1, r6, r4
	ldrb	r1, [r1, #24]	@ zero_extendqisi2
	mov	r10, r0, asl r1
	rsb	r9, r1, r9
	mov	r4, r4, asl r1
	str	r10, [r5, #28]
	str	r9, [r5, #32]
	str	r4, [r5, #36]
	beq	.L887
.L825:
	sub	r4, r4, #1
	cmp	r9, #0
	ubfx	r4, r4, #1, #24
	mov	r0, r10
	add	r4, r4, #1
	bge	.L823
	rsb	r1, r9, #24
	rsb	ip, r9, #16
	bic	r1, r1, #7
	mov	r0, r5
	rsb	ip, r1, ip
	str	r2, [fp, #-56]
	str	ip, [fp, #-52]
	add	r9, r1, r9
	bl	BsGet
	ldr	ip, [fp, #-52]
	ldr	r2, [fp, #-56]
	and	ip, ip, #7
	orr	r0, r10, r0, asl ip
	b	.L823
.L886:
	mov	r10, r7
	ldr	r7, [fp, #-60]
	add	r10, r10, #32
	b	.L784
.L887:
	mov	r10, r7
	ldr	r7, [fp, #-60]
	add	r10, r10, #32
	b	.L814
.L876:
	rsb	r3, r4, #24
	rsb	r10, r4, #16
	bic	r3, r3, #7
	mov	r0, r5
	rsb	r10, r3, r10
	str	r3, [fp, #-52]
	mov	r1, r3
	and	r10, r10, #7
	bl	BsGet
	ldr	r3, [fp, #-52]
	add	r4, r4, r3
	str	r4, [r5, #32]
	orr	r0, r9, r0, asl r10
	str	r0, [r5, #28]
	mov	r9, r0
	b	.L807
.L871:
	rsb	r3, r4, #24
	rsb	r10, r4, #16
	bic	r3, r3, #7
	mov	r0, r5
	rsb	r10, r3, r10
	str	r3, [fp, #-52]
	mov	r1, r3
	and	r10, r10, #7
	bl	BsGet
	ldr	r3, [fp, #-52]
	add	r4, r4, r3
	str	r4, [r5, #32]
	orr	r0, r9, r0, asl r10
	str	r0, [r5, #28]
	mov	r9, r0
	b	.L777
.L872:
	rsb	r3, r4, #24
	rsb	r10, r4, #16
	bic	r3, r3, #7
	mov	r0, r5
	rsb	r10, r3, r10
	str	r3, [fp, #-52]
	mov	r1, r3
	and	r10, r10, #7
	bl	BsGet
	ldr	r3, [fp, #-52]
	add	r4, r4, r3
	str	r4, [r5, #32]
	orr	r0, r9, r0, asl r10
	str	r0, [r5, #28]
	mov	r9, r0
	b	.L780
.L877:
	rsb	r3, r4, #24
	rsb	r10, r4, #16
	bic	r3, r3, #7
	mov	r0, r5
	rsb	r10, r3, r10
	str	r3, [fp, #-52]
	mov	r1, r3
	and	r10, r10, #7
	bl	BsGet
	ldr	r3, [fp, #-52]
	add	r4, r4, r3
	str	r4, [r5, #32]
	orr	r0, r9, r0, asl r10
	str	r0, [r5, #28]
	mov	r9, r0
	b	.L810
.L873:
	rsb	r2, r9, #24
	rsb	r10, r9, #16
	bic	r2, r2, #7
	mov	r0, r5
	rsb	r10, r2, r10
	str	r2, [fp, #-52]
	mov	r1, r2
	bl	BsGet
	and	r3, r10, #7
	ldr	r2, [fp, #-52]
	add	r9, r9, r2
	str	r9, [r5, #32]
	orr	r0, r4, r0, asl r3
	str	r0, [r5, #28]
	mov	r4, r0
	b	.L787
.L878:
	rsb	r2, r9, #24
	rsb	r10, r9, #16
	bic	r2, r2, #7
	mov	r0, r5
	rsb	r10, r2, r10
	str	r2, [fp, #-52]
	mov	r1, r2
	bl	BsGet
	and	r3, r10, #7
	ldr	r2, [fp, #-52]
	add	r9, r9, r2
	str	r9, [r5, #32]
	orr	r0, r4, r0, asl r3
	str	r0, [r5, #28]
	mov	r4, r0
	b	.L817
.L889:
	.align	2
.L888:
	.word	.LANCHOR0
	UNWIND(.fnend)
	.size	Vp9_ReadSwitchableInterpProbs, .-Vp9_ReadSwitchableInterpProbs
	.align	2
	.global	Vp9_ReadCompPred
	.type	Vp9_ReadCompPred, %function
Vp9_ReadCompPred:
	UNWIND(.fnstart)
	@ args = 0, pretend = 0, frame = 32
	@ frame_needed = 1, uses_anonymous_args = 0
	UNWIND(.movsp ip)
	mov	ip, sp
	stmfd	sp!, {r4, r5, r6, r7, r8, r9, r10, fp, ip, lr, pc}
	UNWIND(.pad #4)
	UNWIND(.save {r4, r5, r6, r7, r8, r9, r10, fp, ip, lr})
	UNWIND(.setfp fp, ip, #-4)
	sub	fp, ip, #4
	UNWIND(.pad #36)
	sub	sp, sp, #36
	cmp	r2, #0
	str	r0, [fp, #-56]
	mov	r6, r1
	str	r3, [fp, #-60]
	bne	.L1053
	ldr	r4, [r1, #28]
	ldr	r3, [r1, #36]
	ldr	r5, [r1, #32]
	ldr	r7, .L1083
	str	r2, [fp, #-52]
.L899:
	ldr	r2, [fp, #-56]
	mov	r9, r4
	mov	r10, r3
	add	r1, r2, #10
	str	r1, [fp, #-48]
	mov	r8, r2
.L962:
	sub	r10, r10, #1
	cmp	r5, #0
	mov	r2, r10, asl #8
	sub	r10, r2, r10, asl #2
	mov	r10, r10, lsr #8
	add	r10, r10, #1
	blt	.L1054
.L901:
	mov	r0, r10, asl #24
	cmp	r0, r9
	bhi	.L902
	ldr	r3, [r6, #36]
	rsb	r9, r0, r9
	rsb	r10, r10, r3
	add	r3, r7, r10
	ldrb	r3, [r3, #24]	@ zero_extendqisi2
	rsb	r4, r3, r5
	mov	r10, r10, asl r3
	sub	r5, r10, #1
	cmp	r4, #0
	ubfx	r5, r5, #1, #24
	mov	r9, r9, asl r3
	str	r10, [r6, #36]
	add	r5, r5, #1
	str	r4, [r6, #32]
	str	r9, [r6, #28]
	blt	.L1055
.L903:
	mov	r3, r5, asl #24
	cmp	r3, r9
	bhi	.L904
	ldr	r2, [r6, #36]
	rsb	r9, r3, r9
	rsb	r5, r5, r2
	add	r3, r7, r5
	ldrb	r0, [r3, #24]	@ zero_extendqisi2
	mov	r2, r5, asl r0
	rsb	r4, r0, r4
	sub	r5, r2, #1
	cmp	r4, #0
	ubfx	r5, r5, #1, #24
	mov	r9, r9, asl r0
	str	r2, [r6, #36]
	add	r5, r5, #1
	str	r4, [r6, #32]
	str	r9, [r6, #28]
	blt	.L1056
.L906:
	mov	r3, r5, asl #24
	cmp	r3, r9
	bhi	.L911
	ldr	r1, [r6, #36]
	rsb	r3, r3, r9
	rsb	r5, r5, r1
	add	r2, r7, r5
	ldrb	r2, [r2, #24]	@ zero_extendqisi2
	rsb	r9, r2, r4
	mov	r1, r5, asl r2
	sub	r5, r1, #1
	cmp	r9, #0
	ubfx	r5, r5, #1, #24
	mov	r4, r3, asl r2
	str	r1, [r6, #36]
	add	r5, r5, #1
	str	r9, [r6, #32]
	str	r4, [r6, #28]
	blt	.L1057
.L913:
	mov	r2, r5, asl #24
	cmp	r2, r4
	bhi	.L917
	ldr	r1, [r6, #36]
	rsb	r2, r2, r4
	mov	r3, #6
	str	r8, [fp, #-72]
	rsb	r5, r5, r1
	mov	r8, r7
	add	r1, r7, r5
	mov	r10, #0
	mov	ip, #1
	ldrb	r4, [r1, #24]	@ zero_extendqisi2
	mov	r2, r2, asl r4
	rsb	r9, r4, r9
	str	r2, [r6, #28]
	mov	r4, r5, asl r4
	str	r9, [r6, #32]
	mov	r5, r3
	str	r4, [r6, #36]
	mov	r7, r2
	b	.L918
.L922:
	mov	r2, r4, asl #24
	mov	r1, ip, asl r5
	cmp	r2, r0
	sub	r5, r5, #1
	rsbls	r0, r2, r0
	ldrls	lr, [r6, #36]
	movhi	r1, #0
	orr	r10, r10, r1
	rsbls	r4, r4, lr
	cmn	r5, #1
	add	r2, r8, r4
	ldrb	r2, [r2, #24]	@ zero_extendqisi2
	mov	r7, r0, asl r2
	rsb	r9, r2, r9
	mov	r4, r4, asl r2
	str	r7, [r6, #28]
	str	r9, [r6, #32]
	str	r4, [r6, #36]
	beq	.L1058
.L918:
	sub	r4, r4, #1
	cmp	r9, #0
	ubfx	r4, r4, #1, #24
	mov	r0, r7
	add	r4, r4, #1
	bge	.L922
	rsb	r1, r9, #24
	rsb	r2, r9, #16
	bic	r1, r1, #7
	mov	r0, r6
	rsb	r2, r1, r2
	str	ip, [fp, #-68]
	str	r2, [fp, #-64]
	add	r9, r1, r9
	bl	BsGet
	ldr	r2, [fp, #-64]
	ldr	ip, [fp, #-68]
	and	r2, r2, #7
	orr	r0, r7, r0, asl r2
	b	.L922
.L902:
	add	r3, r7, r10
	ldrb	r3, [r3, #24]	@ zero_extendqisi2
	mov	r9, r9, asl r3
	rsb	r4, r3, r5
	mov	r10, r10, asl r3
	str	r9, [r6, #28]
	str	r4, [r6, #32]
	str	r10, [r6, #36]
.L997:
	sub	r10, r10, #1
	cmp	r4, #0
	mov	r3, r10, asl #8
	sub	r10, r3, r10, asl #2
	mov	r10, r10, lsr #8
	add	r10, r10, #1
	blt	.L1059
.L931:
	mov	r0, r10, asl #24
	cmp	r0, r9
	bhi	.L932
	ldr	r3, [r6, #36]
	rsb	r9, r0, r9
	rsb	r10, r10, r3
	add	r3, r7, r10
	ldrb	r3, [r3, #24]	@ zero_extendqisi2
	mov	r10, r10, asl r3
	rsb	r4, r3, r4
	sub	r5, r10, #1
	cmp	r4, #0
	ubfx	r5, r5, #1, #24
	mov	r9, r9, asl r3
	str	r10, [r6, #36]
	add	r5, r5, #1
	str	r4, [r6, #32]
	str	r9, [r6, #28]
	blt	.L1060
.L933:
	mov	r3, r5, asl #24
	cmp	r3, r9
	bhi	.L934
	ldr	r2, [r6, #36]
	rsb	r9, r3, r9
	rsb	r5, r5, r2
	add	r3, r7, r5
	ldrb	r0, [r3, #24]	@ zero_extendqisi2
	mov	r2, r5, asl r0
	rsb	r4, r0, r4
	sub	r5, r2, #1
	cmp	r4, #0
	ubfx	r5, r5, #1, #24
	mov	r9, r9, asl r0
	str	r2, [r6, #36]
	add	r5, r5, #1
	str	r4, [r6, #32]
	str	r9, [r6, #28]
	blt	.L1061
.L936:
	mov	r3, r5, asl #24
	cmp	r3, r9
	bhi	.L941
	ldr	r1, [r6, #36]
	rsb	r3, r3, r9
	rsb	r5, r5, r1
	add	r2, r7, r5
	ldrb	r2, [r2, #24]	@ zero_extendqisi2
	rsb	r9, r2, r4
	mov	r1, r5, asl r2
	sub	r5, r1, #1
	cmp	r9, #0
	ubfx	r5, r5, #1, #24
	mov	r4, r3, asl r2
	str	r1, [r6, #36]
	add	r5, r5, #1
	str	r9, [r6, #32]
	str	r4, [r6, #28]
	blt	.L1062
.L943:
	mov	r2, r5, asl #24
	cmp	r2, r4
	bhi	.L947
	ldr	r1, [r6, #36]
	rsb	r2, r2, r4
	mov	r3, #6
	str	r8, [fp, #-72]
	rsb	r5, r5, r1
	mov	r8, r7
	add	r1, r7, r5
	mov	r10, #0
	mov	ip, #1
	ldrb	r4, [r1, #24]	@ zero_extendqisi2
	mov	r2, r2, asl r4
	rsb	r9, r4, r9
	str	r2, [r6, #28]
	mov	r4, r5, asl r4
	str	r9, [r6, #32]
	mov	r5, r3
	str	r4, [r6, #36]
	mov	r7, r2
	b	.L948
.L952:
	mov	r2, r4, asl #24
	mov	r1, ip, asl r5
	cmp	r2, r0
	sub	r5, r5, #1
	rsbls	r0, r2, r0
	ldrls	lr, [r6, #36]
	movhi	r1, #0
	orr	r10, r10, r1
	rsbls	r4, r4, lr
	cmn	r5, #1
	add	r2, r8, r4
	ldrb	r2, [r2, #24]	@ zero_extendqisi2
	mov	r7, r0, asl r2
	rsb	r9, r2, r9
	mov	r4, r4, asl r2
	str	r7, [r6, #28]
	str	r9, [r6, #32]
	str	r4, [r6, #36]
	beq	.L1063
.L948:
	sub	r4, r4, #1
	cmp	r9, #0
	ubfx	r4, r4, #1, #24
	mov	r0, r7
	add	r4, r4, #1
	bge	.L952
	rsb	r1, r9, #24
	rsb	r2, r9, #16
	bic	r1, r1, #7
	mov	r0, r6
	rsb	r2, r1, r2
	str	ip, [fp, #-68]
	str	r2, [fp, #-64]
	add	r9, r1, r9
	bl	BsGet
	ldr	r2, [fp, #-64]
	ldr	ip, [fp, #-68]
	and	r2, r2, #7
	orr	r0, r7, r0, asl r2
	b	.L952
.L932:
	add	r3, r7, r10
	ldrb	r3, [r3, #24]	@ zero_extendqisi2
	mov	r9, r9, asl r3
	rsb	r4, r3, r4
	mov	r10, r10, asl r3
	str	r9, [r6, #28]
	str	r4, [r6, #32]
	str	r10, [r6, #36]
.L998:
	ldr	r3, [fp, #-48]
	add	r8, r8, #2
	cmp	r8, r3
	ldrne	r9, [r6, #28]
	ldrne	r10, [r6, #36]
	ldrne	r5, [r6, #32]
	bne	.L962
.L961:
	ldr	r3, [fp, #-52]
	cmp	r3, #0
	bne	.L1064
.L993:
	ldr	r3, [fp, #-60]
	ldr	r2, [fp, #-52]
	str	r2, [r3]
	sub	sp, fp, #40
	ldmfd	sp, {r4, r5, r6, r7, r8, r9, r10, fp, sp, pc}
.L1064:
	ldr	r4, [r6, #28]
	ldr	r3, [r6, #36]
	ldr	r5, [r6, #32]
.L900:
	ldr	r2, [fp, #-56]
	mov	r10, r3
	add	r8, r2, #1984
	add	r2, r2, #2000
	add	r8, r8, #14
	add	r2, r2, #3
	str	r2, [fp, #-48]
.L994:
	sub	r10, r10, #1
	cmp	r5, #0
	mov	r2, r10, asl #8
	sub	r10, r2, r10, asl #2
	mov	r10, r10, lsr #8
	add	r10, r10, #1
	blt	.L1065
.L963:
	mov	r9, r10, asl #24
	cmp	r9, r4
	bhi	.L964
	ldr	r3, [r6, #36]
	rsb	r9, r9, r4
	rsb	r10, r10, r3
	add	r3, r7, r10
	ldrb	r3, [r3, #24]	@ zero_extendqisi2
	mov	r10, r10, asl r3
	rsb	r5, r3, r5
	sub	r4, r10, #1
	cmp	r5, #0
	ubfx	r4, r4, #1, #24
	mov	r9, r9, asl r3
	str	r10, [r6, #36]
	add	r4, r4, #1
	str	r5, [r6, #32]
	str	r9, [r6, #28]
	blt	.L1066
.L965:
	mov	r3, r4, asl #24
	cmp	r3, r9
	bhi	.L966
	ldr	r2, [r6, #36]
	rsb	r9, r3, r9
	rsb	r4, r4, r2
	add	r3, r7, r4
	ldrb	r0, [r3, #24]	@ zero_extendqisi2
	mov	r2, r4, asl r0
	rsb	r4, r0, r5
	cmp	r4, #0
	sub	r5, r2, #1
	ubfx	r5, r5, #1, #24
	mov	r9, r9, asl r0
	str	r2, [r6, #36]
	add	r5, r5, #1
	str	r4, [r6, #32]
	str	r9, [r6, #28]
	blt	.L1067
.L968:
	mov	r3, r5, asl #24
	cmp	r3, r9
	bhi	.L973
	ldr	r1, [r6, #36]
	rsb	r3, r3, r9
	rsb	r5, r5, r1
	add	r2, r7, r5
	ldrb	r2, [r2, #24]	@ zero_extendqisi2
	mov	r1, r5, asl r2
	rsb	r5, r2, r4
	sub	r9, r1, #1
	cmp	r5, #0
	ubfx	r9, r9, #1, #24
	mov	r4, r3, asl r2
	str	r1, [r6, #36]
	add	r9, r9, #1
	str	r5, [r6, #32]
	str	r4, [r6, #28]
	blt	.L1068
.L975:
	mov	r3, r9, asl #24
	cmp	r3, r4
	bhi	.L979
	ldr	r1, [r6, #36]
	rsb	r0, r3, r4
	mov	r2, #6
	mov	r3, #0
	rsb	r4, r9, r1
	str	r8, [fp, #-68]
	add	r1, r7, r4
	mov	r8, r7
	mov	ip, #1
	mov	r7, r3
	ldrb	r1, [r1, #24]	@ zero_extendqisi2
	rsb	r10, r1, r5
	mov	r9, r0, asl r1
	mov	r4, r4, asl r1
	str	r9, [r6, #28]
	str	r10, [r6, #32]
	mov	r5, r2
	str	r4, [r6, #36]
	b	.L980
.L984:
	mov	r2, r4, asl #24
	mov	r1, ip, asl r5
	cmp	r2, r0
	sub	r5, r5, #1
	rsbls	r0, r2, r0
	ldrls	lr, [r6, #36]
	movhi	r1, #0
	orr	r7, r7, r1
	rsbls	r4, r4, lr
	cmn	r5, #1
	add	r2, r8, r4
	ldrb	r2, [r2, #24]	@ zero_extendqisi2
	mov	r9, r0, asl r2
	rsb	r10, r2, r10
	mov	r4, r4, asl r2
	str	r9, [r6, #28]
	str	r10, [r6, #32]
	str	r4, [r6, #36]
	beq	.L1069
.L980:
	sub	r4, r4, #1
	cmp	r10, #0
	ubfx	r4, r4, #1, #24
	mov	r0, r9
	add	r4, r4, #1
	bge	.L984
	rsb	r1, r10, #24
	rsb	r2, r10, #16
	bic	r1, r1, #7
	mov	r0, r6
	rsb	r2, r1, r2
	str	ip, [fp, #-64]
	str	r2, [fp, #-56]
	add	r10, r1, r10
	bl	BsGet
	ldr	r2, [fp, #-56]
	ldr	ip, [fp, #-64]
	and	r2, r2, #7
	orr	r0, r9, r0, asl r2
	b	.L984
.L941:
	add	r3, r7, r5
	mov	r2, #3
	str	r8, [fp, #-72]
	mov	r10, #0
	ldrb	r1, [r3, #24]	@ zero_extendqisi2
	mov	r8, r7
	mov	ip, #1
	mov	r9, r9, asl r1
	rsb	r4, r1, r4
	str	r9, [r6, #28]
	mov	r5, r5, asl r1
	mov	r7, r9
	str	r4, [r6, #32]
	str	r5, [r6, #36]
	mov	r9, r2
	b	.L946
.L944:
	mov	r2, r5, asl #24
	mov	r1, ip, asl r9
	cmp	r2, r0
	sub	r9, r9, #1
	rsbls	r0, r2, r0
	ldrls	lr, [r6, #36]
	movhi	r1, #0
	orr	r10, r10, r1
	rsbls	r5, r5, lr
	cmn	r9, #1
	add	r2, r8, r5
	ldrb	r2, [r2, #24]	@ zero_extendqisi2
	mov	r7, r0, asl r2
	rsb	r4, r2, r4
	mov	r5, r5, asl r2
	str	r7, [r6, #28]
	str	r4, [r6, #32]
	str	r5, [r6, #36]
	beq	.L1070
.L946:
	sub	r5, r5, #1
	cmp	r4, #0
	ubfx	r5, r5, #1, #24
	mov	r0, r7
	add	r5, r5, #1
	bge	.L944
	rsb	r1, r4, #24
	rsb	r2, r4, #16
	bic	r1, r1, #7
	mov	r0, r6
	rsb	r2, r1, r2
	str	ip, [fp, #-68]
	str	r2, [fp, #-64]
	add	r4, r1, r4
	bl	BsGet
	ldr	r2, [fp, #-64]
	ldr	ip, [fp, #-68]
	and	r2, r2, #7
	orr	r0, r7, r0, asl r2
	b	.L944
.L911:
	add	r3, r7, r5
	mov	r2, #3
	str	r8, [fp, #-72]
	mov	r10, #0
	ldrb	r1, [r3, #24]	@ zero_extendqisi2
	mov	r8, r7
	mov	ip, #1
	mov	r9, r9, asl r1
	rsb	r4, r1, r4
	str	r9, [r6, #28]
	mov	r5, r5, asl r1
	mov	r7, r9
	str	r4, [r6, #32]
	str	r5, [r6, #36]
	mov	r9, r2
	b	.L916
.L914:
	mov	r2, r5, asl #24
	mov	r1, ip, asl r9
	cmp	r2, r0
	sub	r9, r9, #1
	rsbls	r0, r2, r0
	ldrls	lr, [r6, #36]
	movhi	r1, #0
	orr	r10, r10, r1
	rsbls	r5, r5, lr
	cmn	r9, #1
	add	r2, r8, r5
	ldrb	r2, [r2, #24]	@ zero_extendqisi2
	mov	r7, r0, asl r2
	rsb	r4, r2, r4
	mov	r5, r5, asl r2
	str	r7, [r6, #28]
	str	r4, [r6, #32]
	str	r5, [r6, #36]
	beq	.L1071
.L916:
	sub	r5, r5, #1
	cmp	r4, #0
	ubfx	r5, r5, #1, #24
	mov	r0, r7
	add	r5, r5, #1
	bge	.L914
	rsb	r1, r4, #24
	rsb	r2, r4, #16
	bic	r1, r1, #7
	mov	r0, r6
	rsb	r2, r1, r2
	str	ip, [fp, #-68]
	str	r2, [fp, #-64]
	add	r4, r1, r4
	bl	BsGet
	ldr	r2, [fp, #-64]
	ldr	ip, [fp, #-68]
	and	r2, r2, #7
	orr	r0, r7, r0, asl r2
	b	.L914
.L964:
	add	r3, r7, r10
	ldrb	r3, [r3, #24]	@ zero_extendqisi2
	mov	r4, r4, asl r3
	rsb	r5, r3, r5
	mov	r10, r10, asl r3
	str	r4, [r6, #28]
	str	r5, [r6, #32]
	str	r10, [r6, #36]
.L999:
	ldr	r3, [fp, #-48]
	add	r8, r8, #1
	cmp	r8, r3
	beq	.L993
	add	r4, r6, #28
	ldmia	r4, {r4, r5, r10}
	b	.L994
.L1059:
	rsb	r3, r4, #24
	rsb	r5, r4, #16
	bic	r3, r3, #7
	mov	r0, r6
	rsb	r5, r3, r5
	str	r3, [fp, #-64]
	mov	r1, r3
	and	r5, r5, #7
	bl	BsGet
	ldr	r3, [fp, #-64]
	add	r4, r3, r4
	str	r4, [r6, #32]
	orr	r0, r9, r0, asl r5
	str	r0, [r6, #28]
	mov	r9, r0
	b	.L931
.L1054:
	rsb	r2, r5, #24
	rsb	r4, r5, #16
	bic	r2, r2, #7
	mov	r0, r6
	rsb	r4, r2, r4
	str	r2, [fp, #-64]
	mov	r1, r2
	bl	BsGet
	ldr	r2, [fp, #-64]
	and	r3, r4, #7
	add	r4, r2, r5
	str	r4, [r6, #32]
	mov	r5, r4
	orr	r0, r9, r0, asl r3
	str	r0, [r6, #28]
	mov	r9, r0
	b	.L901
.L934:
	add	r3, r7, r5
	mov	r2, #3
	str	r8, [fp, #-72]
	mov	r10, #0
	ldrb	r1, [r3, #24]	@ zero_extendqisi2
	mov	r8, r7
	mov	ip, #1
	mov	r9, r9, asl r1
	rsb	r4, r1, r4
	str	r9, [r6, #28]
	mov	r5, r5, asl r1
	mov	r7, r9
	str	r4, [r6, #32]
	str	r5, [r6, #36]
	mov	r9, r2
	b	.L939
.L937:
	mov	r2, r5, asl #24
	mov	r1, ip, asl r9
	cmp	r2, r0
	sub	r9, r9, #1
	rsbls	r0, r2, r0
	ldrls	lr, [r6, #36]
	movhi	r1, #0
	orr	r10, r10, r1
	rsbls	r5, r5, lr
	cmn	r9, #1
	add	r2, r8, r5
	ldrb	r2, [r2, #24]	@ zero_extendqisi2
	mov	r7, r0, asl r2
	rsb	r4, r2, r4
	mov	r5, r5, asl r2
	str	r7, [r6, #28]
	str	r4, [r6, #32]
	str	r5, [r6, #36]
	beq	.L1072
.L939:
	sub	r5, r5, #1
	cmp	r4, #0
	ubfx	r5, r5, #1, #24
	mov	r0, r7
	add	r5, r5, #1
	bge	.L937
	rsb	r1, r4, #24
	rsb	r2, r4, #16
	bic	r1, r1, #7
	mov	r0, r6
	rsb	r2, r1, r2
	str	ip, [fp, #-68]
	str	r2, [fp, #-64]
	add	r4, r1, r4
	bl	BsGet
	ldr	r2, [fp, #-64]
	ldr	ip, [fp, #-68]
	and	r2, r2, #7
	orr	r0, r7, r0, asl r2
	b	.L937
.L904:
	add	r3, r7, r5
	mov	r2, #3
	str	r8, [fp, #-72]
	mov	r10, #0
	ldrb	r1, [r3, #24]	@ zero_extendqisi2
	mov	r8, r7
	mov	ip, #1
	mov	r9, r9, asl r1
	rsb	r4, r1, r4
	str	r9, [r6, #28]
	mov	r5, r5, asl r1
	mov	r7, r9
	str	r4, [r6, #32]
	str	r5, [r6, #36]
	mov	r9, r2
	b	.L909
.L907:
	mov	r2, r5, asl #24
	mov	r1, ip, asl r9
	cmp	r2, r0
	sub	r9, r9, #1
	rsbls	r0, r2, r0
	ldrls	lr, [r6, #36]
	movhi	r1, #0
	orr	r10, r10, r1
	rsbls	r5, r5, lr
	cmn	r9, #1
	add	r2, r8, r5
	ldrb	r2, [r2, #24]	@ zero_extendqisi2
	mov	r7, r0, asl r2
	rsb	r4, r2, r4
	mov	r5, r5, asl r2
	str	r7, [r6, #28]
	str	r4, [r6, #32]
	str	r5, [r6, #36]
	beq	.L1073
.L909:
	sub	r5, r5, #1
	cmp	r4, #0
	ubfx	r5, r5, #1, #24
	mov	r0, r7
	add	r5, r5, #1
	bge	.L907
	rsb	r1, r4, #24
	rsb	r2, r4, #16
	bic	r1, r1, #7
	mov	r0, r6
	rsb	r2, r1, r2
	str	ip, [fp, #-68]
	str	r2, [fp, #-64]
	add	r4, r1, r4
	bl	BsGet
	ldr	r2, [fp, #-64]
	ldr	ip, [fp, #-68]
	and	r2, r2, #7
	orr	r0, r7, r0, asl r2
	b	.L907
.L1065:
	rsb	r3, r5, #24
	rsb	r9, r5, #16
	bic	r3, r3, #7
	mov	r0, r6
	rsb	r9, r3, r9
	str	r3, [fp, #-56]
	mov	r1, r3
	and	r9, r9, #7
	bl	BsGet
	ldr	r3, [fp, #-56]
	add	r5, r3, r5
	str	r5, [r6, #32]
	orr	r0, r4, r0, asl r9
	str	r0, [r6, #28]
	mov	r4, r0
	b	.L963
.L1073:
	mov	r7, r8
	ldr	r8, [fp, #-72]
.L910:
	ldrb	r2, [r8, #1988]	@ zero_extendqisi2
	add	r10, r7, r10
	sub	ip, r2, #1
	ldrb	r1, [r10, #280]	@ zero_extendqisi2
	mov	r0, ip, asl #1
	cmp	r0, #255
	bgt	.L925
	add	r3, r1, #1
	cmp	r3, r0
	bgt	.L926
	tst	r3, #1
	addne	r3, r1, #2
	addeq	r3, r3, r3, lsr #31
	subne	r3, ip, r3, asr #1
	addeq	r3, ip, r3, asr #1
.L926:
	add	r3, r3, #1
.L928:
	strb	r3, [r8, #1988]
	ldr	r9, [r6, #28]
	ldr	r10, [r6, #36]
	ldr	r4, [r6, #32]
	b	.L997
.L925:
	rsb	r2, r2, #255
	add	r3, r1, #1
	cmp	r3, r2, asl #1
	bgt	.L929
	tst	r3, #1
	addne	r3, r1, #2
	addeq	r3, r3, r3, lsr #31
	subne	r3, r2, r3, asr #1
	addeq	r3, r2, r3, asr #1
.L929:
	rsb	r3, r3, #255
	b	.L928
.L1072:
	mov	r7, r8
	ldr	r8, [fp, #-72]
.L940:
	ldrb	r2, [r8, #1989]	@ zero_extendqisi2
	add	r10, r7, r10
	sub	ip, r2, #1
	ldrb	r1, [r10, #280]	@ zero_extendqisi2
	mov	r0, ip, asl #1
	cmp	r0, #255
	bgt	.L955
	add	r3, r1, #1
	cmp	r3, r0
	bgt	.L956
	tst	r3, #1
	addne	r3, r1, #2
	addeq	r3, r3, r3, lsr #31
	subne	r3, ip, r3, asr #1
	addeq	r3, ip, r3, asr #1
.L956:
	add	r3, r3, #1
.L958:
	strb	r3, [r8, #1989]
	b	.L998
.L955:
	rsb	r2, r2, #255
	add	r3, r1, #1
	cmp	r3, r2, asl #1
	bgt	.L959
	tst	r3, #1
	addne	r3, r1, #2
	addeq	r3, r3, r3, lsr #31
	subne	r3, r2, r3, asr #1
	addeq	r3, r2, r3, asr #1
.L959:
	rsb	r3, r3, #255
	b	.L958
.L966:
	add	r3, r7, r4
	mov	r2, #3
	str	r8, [fp, #-68]
	mov	r10, #0
	ldrb	r1, [r3, #24]	@ zero_extendqisi2
	mov	r8, r7
	mov	ip, #1
	mov	r9, r9, asl r1
	rsb	r5, r1, r5
	str	r9, [r6, #28]
	mov	r4, r4, asl r1
	mov	r7, r9
	str	r5, [r6, #32]
	str	r4, [r6, #36]
	mov	r9, r2
	b	.L971
.L969:
	mov	r2, r4, asl #24
	mov	r1, ip, asl r9
	cmp	r2, r0
	sub	r9, r9, #1
	rsbls	r0, r2, r0
	ldrls	lr, [r6, #36]
	movhi	r1, #0
	orr	r10, r10, r1
	rsbls	r4, r4, lr
	cmn	r9, #1
	add	r2, r8, r4
	ldrb	r2, [r2, #24]	@ zero_extendqisi2
	mov	r7, r0, asl r2
	rsb	r5, r2, r5
	mov	r4, r4, asl r2
	str	r7, [r6, #28]
	str	r5, [r6, #32]
	str	r4, [r6, #36]
	beq	.L1074
.L971:
	sub	r4, r4, #1
	cmp	r5, #0
	ubfx	r4, r4, #1, #24
	mov	r0, r7
	add	r4, r4, #1
	bge	.L969
	rsb	r1, r5, #24
	rsb	r2, r5, #16
	bic	r1, r1, #7
	mov	r0, r6
	rsb	r2, r1, r2
	str	ip, [fp, #-64]
	str	r2, [fp, #-56]
	add	r5, r1, r5
	bl	BsGet
	ldr	r2, [fp, #-56]
	ldr	ip, [fp, #-64]
	and	r2, r2, #7
	orr	r0, r7, r0, asl r2
	b	.L969
.L1074:
	mov	r7, r8
	ldr	r8, [fp, #-68]
.L972:
	ldrb	r2, [r8]	@ zero_extendqisi2
	add	r10, r7, r10
	sub	ip, r2, #1
	ldrb	r1, [r10, #280]	@ zero_extendqisi2
	mov	r0, ip, asl #1
	cmp	r0, #255
	bgt	.L987
	add	r3, r1, #1
	cmp	r3, r0
	bgt	.L988
	tst	r3, #1
	addne	r3, r1, #2
	addeq	r3, r3, r3, lsr #31
	subne	r3, ip, r3, asr #1
	addeq	r3, ip, r3, asr #1
.L988:
	add	r3, r3, #1
.L990:
	strb	r3, [r8]
	b	.L999
.L987:
	rsb	r2, r2, #255
	add	r3, r1, #1
	cmp	r3, r2, asl #1
	bgt	.L991
	tst	r3, #1
	addne	r3, r1, #2
	addeq	r3, r3, r3, lsr #31
	subne	r3, r2, r3, asr #1
	addeq	r3, r2, r3, asr #1
.L991:
	rsb	r3, r3, #255
	b	.L990
.L1053:
	ldr	r8, [r1, #36]
	ldr	r5, [r1, #32]
	sub	r8, r8, #1
	cmp	r5, #0
	ubfx	r8, r8, #1, #24
	add	r8, r8, #1
	blt	.L892
	ldr	r0, [r1, #28]
.L893:
	mov	r4, r8, asl #24
	cmp	r4, r0
	bhi	.L894
	ldr	r3, [r6, #36]
	rsb	r4, r4, r0
	ldr	r7, .L1083
	mov	r1, #128
	rsb	r8, r8, r3
	mov	r0, r6
	add	r3, r7, r8
	ldrb	r3, [r3, #24]	@ zero_extendqisi2
	mov	r4, r4, asl r3
	rsb	r5, r3, r5
	mov	r8, r8, asl r3
	str	r4, [r6, #28]
	str	r5, [r6, #32]
	str	r8, [r6, #36]
	bl	Vp9_Cabac_Read
	ldr	r4, [r6, #28]
	ldr	r3, [r6, #36]
	ldr	r5, [r6, #32]
	add	r2, r0, #1
	str	r2, [fp, #-52]
	cmp	r2, #2
	bne	.L895
	ldr	r2, [fp, #-56]
	add	r10, r2, #1968
	add	r9, r2, #1984
	add	r10, r10, #15
	add	r9, r9, #4
	b	.L898
.L1076:
	ldr	r3, [r6, #36]
	rsb	r8, r8, r3
	add	r3, r7, r8
	ldrb	r3, [r3, #24]	@ zero_extendqisi2
	rsb	r5, r3, r5
	mov	r2, r2, asl r3
	mov	r8, r8, asl r3
	str	r5, [r6, #32]
	str	r2, [r6, #28]
	str	r8, [r6, #36]
	bl	Vp9_DiffUpdateProb
	ldr	r4, [r6, #28]
	ldr	r3, [r6, #36]
	ldr	r5, [r6, #32]
.L996:
	add	r10, r10, #1
	cmp	r10, r9
	beq	.L899
.L898:
	sub	r8, r3, #1
	cmp	r5, #0
	mov	r3, r8, asl #8
	sub	r8, r3, r8, asl #2
	mov	r8, r8, lsr #8
	add	r8, r8, #1
	blt	.L1075
.L896:
	mov	r3, r8, asl #24
	mov	r1, r10
	cmp	r3, r4
	mov	r0, r6
	rsb	r2, r3, r4
	bls	.L1076
	add	r3, r7, r8
	ldrb	r3, [r3, #24]	@ zero_extendqisi2
	mov	r4, r4, asl r3
	rsb	r5, r3, r5
	str	r4, [r6, #28]
	mov	r3, r8, asl r3
	str	r5, [r6, #32]
	str	r3, [r6, #36]
	b	.L996
.L1070:
	mov	r7, r8
	add	r10, r10, #16
	ldr	r8, [fp, #-72]
	b	.L940
.L1071:
	mov	r7, r8
	add	r10, r10, #16
	ldr	r8, [fp, #-72]
	b	.L910
.L1063:
	cmp	r10, #64
	mov	r7, r8
	ldr	r8, [fp, #-72]
	bgt	.L1077
.L954:
	add	r10, r10, #64
	b	.L940
.L1058:
	cmp	r10, #64
	mov	r7, r8
	ldr	r8, [fp, #-72]
	bgt	.L1078
.L924:
	add	r10, r10, #64
	b	.L910
.L973:
	add	r3, r7, r5
	mov	r2, #3
	str	r8, [fp, #-68]
	mov	r10, #0
	ldrb	r1, [r3, #24]	@ zero_extendqisi2
	mov	r8, r7
	mov	ip, #1
	mov	r9, r9, asl r1
	rsb	r4, r1, r4
	str	r9, [r6, #28]
	mov	r5, r5, asl r1
	mov	r7, r9
	str	r4, [r6, #32]
	str	r5, [r6, #36]
	mov	r9, r2
	b	.L978
.L976:
	mov	r2, r5, asl #24
	mov	r1, ip, asl r9
	cmp	r2, r0
	sub	r9, r9, #1
	rsbls	r0, r2, r0
	ldrls	lr, [r6, #36]
	movhi	r1, #0
	orr	r10, r10, r1
	rsbls	r5, r5, lr
	cmn	r9, #1
	add	r2, r8, r5
	ldrb	r2, [r2, #24]	@ zero_extendqisi2
	mov	r7, r0, asl r2
	rsb	r4, r2, r4
	mov	r5, r5, asl r2
	str	r7, [r6, #28]
	str	r4, [r6, #32]
	str	r5, [r6, #36]
	beq	.L1079
.L978:
	sub	r5, r5, #1
	cmp	r4, #0
	ubfx	r5, r5, #1, #24
	mov	r0, r7
	add	r5, r5, #1
	bge	.L976
	rsb	r1, r4, #24
	rsb	r2, r4, #16
	bic	r1, r1, #7
	mov	r0, r6
	rsb	r2, r1, r2
	str	ip, [fp, #-64]
	str	r2, [fp, #-56]
	add	r4, r1, r4
	bl	BsGet
	ldr	r2, [fp, #-56]
	ldr	ip, [fp, #-64]
	and	r2, r2, #7
	orr	r0, r7, r0, asl r2
	b	.L976
.L1084:
	.align	2
.L1083:
	.word	.LANCHOR0
.L894:
	ldr	r7, .L1083
	mov	r3, #0
	str	r3, [fp, #-52]
	add	r3, r7, r8
	ldrb	r3, [r3, #24]	@ zero_extendqisi2
	mov	r4, r0, asl r3
	rsb	r5, r3, r5
	str	r4, [r6, #28]
	mov	r3, r8, asl r3
	str	r5, [r6, #32]
	str	r3, [r6, #36]
	b	.L899
.L1077:
	mov	r1, #128
	mov	r0, r6
	bl	Vp9_Cabac_Read
	add	r0, r0, r10, lsl #1
	sub	r10, r0, #65
	b	.L954
.L1078:
	mov	r1, #128
	mov	r0, r6
	bl	Vp9_Cabac_Read
	add	r0, r0, r10, lsl #1
	sub	r10, r0, #65
	b	.L924
.L1079:
	mov	r7, r8
	add	r10, r10, #16
	ldr	r8, [fp, #-68]
	b	.L972
.L1075:
	rsb	r2, r5, #24
	rsb	r3, r5, #16
	bic	r2, r2, #7
	mov	r0, r6
	rsb	r3, r2, r3
	str	r2, [fp, #-48]
	mov	r1, r2
	str	r3, [fp, #-64]
	bl	BsGet
	ldr	r3, [fp, #-64]
	ldr	r2, [fp, #-48]
	and	r3, r3, #7
	add	r5, r2, r5
	str	r5, [r6, #32]
	orr	r0, r4, r0, asl r3
	str	r0, [r6, #28]
	mov	r4, r0
	b	.L896
.L1069:
	mov	r3, r7
	cmp	r3, #64
	mov	r7, r8
	ldr	r8, [fp, #-68]
	movle	r10, r3
	ble	.L986
	mov	r1, #128
	mov	r0, r6
	str	r3, [fp, #-56]
	bl	Vp9_Cabac_Read
	ldr	r3, [fp, #-56]
	add	r0, r0, r3, lsl #1
	sub	r10, r0, #65
.L986:
	add	r10, r10, #64
	b	.L972
.L917:
	add	r3, r7, r5
	mov	ip, #4
	str	r8, [fp, #-72]
	mov	r10, #0
	ldrb	r1, [r3, #24]	@ zero_extendqisi2
	mov	r8, r7
	mov	r2, #1
	mov	r3, r4, asl r1
	mov	r5, r5, asl r1
	rsb	r9, r1, r9
	str	r5, [r6, #36]
	mov	r4, r5
	str	r3, [r6, #28]
	str	r9, [r6, #32]
	mov	r5, ip
	mov	r7, r3
	b	.L921
.L919:
	mov	r1, r4, asl #24
	mov	ip, r2, asl r5
	cmp	r1, r0
	sub	r5, r5, #1
	rsbls	r0, r1, r0
	ldrls	lr, [r6, #36]
	movhi	ip, #0
	orr	r10, r10, ip
	rsbls	r4, r4, lr
	cmn	r5, #1
	add	r1, r8, r4
	ldrb	r1, [r1, #24]	@ zero_extendqisi2
	mov	r7, r0, asl r1
	rsb	r9, r1, r9
	mov	r4, r4, asl r1
	str	r7, [r6, #28]
	str	r9, [r6, #32]
	str	r4, [r6, #36]
	beq	.L1080
.L921:
	sub	r4, r4, #1
	cmp	r9, #0
	ubfx	r4, r4, #1, #24
	mov	r0, r7
	add	r4, r4, #1
	bge	.L919
	rsb	r1, r9, #24
	rsb	ip, r9, #16
	bic	r1, r1, #7
	mov	r0, r6
	rsb	ip, r1, ip
	str	r2, [fp, #-68]
	str	ip, [fp, #-64]
	add	r9, r1, r9
	bl	BsGet
	ldr	ip, [fp, #-64]
	ldr	r2, [fp, #-68]
	and	ip, ip, #7
	orr	r0, r7, r0, asl ip
	b	.L919
.L947:
	add	r3, r7, r5
	mov	ip, #4
	str	r8, [fp, #-72]
	mov	r10, #0
	ldrb	r1, [r3, #24]	@ zero_extendqisi2
	mov	r8, r7
	mov	r2, #1
	mov	r3, r4, asl r1
	mov	r5, r5, asl r1
	rsb	r9, r1, r9
	str	r5, [r6, #36]
	mov	r4, r5
	str	r3, [r6, #28]
	str	r9, [r6, #32]
	mov	r5, ip
	mov	r7, r3
	b	.L951
.L949:
	mov	r1, r4, asl #24
	mov	ip, r2, asl r5
	cmp	r1, r0
	sub	r5, r5, #1
	rsbls	r0, r1, r0
	ldrls	lr, [r6, #36]
	movhi	ip, #0
	orr	r10, r10, ip
	rsbls	r4, r4, lr
	cmn	r5, #1
	add	r1, r8, r4
	ldrb	r1, [r1, #24]	@ zero_extendqisi2
	mov	r7, r0, asl r1
	rsb	r9, r1, r9
	mov	r4, r4, asl r1
	str	r7, [r6, #28]
	str	r9, [r6, #32]
	str	r4, [r6, #36]
	beq	.L1081
.L951:
	sub	r4, r4, #1
	cmp	r9, #0
	ubfx	r4, r4, #1, #24
	mov	r0, r7
	add	r4, r4, #1
	bge	.L949
	rsb	r1, r9, #24
	rsb	ip, r9, #16
	bic	r1, r1, #7
	mov	r0, r6
	rsb	ip, r1, ip
	str	r2, [fp, #-68]
	str	ip, [fp, #-64]
	add	r9, r1, r9
	bl	BsGet
	ldr	ip, [fp, #-64]
	ldr	r2, [fp, #-68]
	and	ip, ip, #7
	orr	r0, r7, r0, asl ip
	b	.L949
.L1081:
	mov	r7, r8
	add	r10, r10, #32
	ldr	r8, [fp, #-72]
	b	.L940
.L1080:
	mov	r7, r8
	add	r10, r10, #32
	ldr	r8, [fp, #-72]
	b	.L910
.L1060:
	rsb	r3, r4, #24
	rsb	r10, r4, #16
	bic	r3, r3, #7
	mov	r0, r6
	rsb	r10, r3, r10
	str	r3, [fp, #-64]
	mov	r1, r3
	and	r10, r10, #7
	bl	BsGet
	ldr	r3, [fp, #-64]
	add	r4, r4, r3
	str	r4, [r6, #32]
	orr	r0, r9, r0, asl r10
	str	r0, [r6, #28]
	mov	r9, r0
	b	.L933
.L1055:
	rsb	r3, r4, #24
	rsb	r10, r4, #16
	bic	r3, r3, #7
	mov	r0, r6
	rsb	r10, r3, r10
	str	r3, [fp, #-64]
	mov	r1, r3
	and	r10, r10, #7
	bl	BsGet
	ldr	r3, [fp, #-64]
	add	r4, r4, r3
	str	r4, [r6, #32]
	orr	r0, r9, r0, asl r10
	str	r0, [r6, #28]
	mov	r9, r0
	b	.L903
.L979:
	add	r3, r7, r9
	mov	r2, #4
	str	r8, [fp, #-68]
	mov	r10, #0
	ldrb	r1, [r3, #24]	@ zero_extendqisi2
	mov	r8, r7
	mov	ip, #1
	mov	r3, r4, asl r1
	mov	r9, r9, asl r1
	rsb	r5, r1, r5
	str	r9, [r6, #36]
	mov	r4, r9
	str	r3, [r6, #28]
	str	r5, [r6, #32]
	mov	r9, r2
	mov	r7, r3
	b	.L983
.L981:
	mov	r2, r4, asl #24
	mov	r1, ip, asl r9
	cmp	r2, r0
	sub	r9, r9, #1
	rsbls	r0, r2, r0
	ldrls	lr, [r6, #36]
	movhi	r1, #0
	orr	r10, r10, r1
	rsbls	r4, r4, lr
	cmn	r9, #1
	add	r2, r8, r4
	ldrb	r2, [r2, #24]	@ zero_extendqisi2
	mov	r7, r0, asl r2
	rsb	r5, r2, r5
	mov	r4, r4, asl r2
	str	r7, [r6, #28]
	str	r5, [r6, #32]
	str	r4, [r6, #36]
	beq	.L1082
.L983:
	sub	r4, r4, #1
	cmp	r5, #0
	ubfx	r4, r4, #1, #24
	mov	r0, r7
	add	r4, r4, #1
	bge	.L981
	rsb	r1, r5, #24
	rsb	r2, r5, #16
	bic	r1, r1, #7
	mov	r0, r6
	rsb	r2, r1, r2
	str	ip, [fp, #-64]
	str	r2, [fp, #-56]
	add	r5, r1, r5
	bl	BsGet
	ldr	r2, [fp, #-56]
	ldr	ip, [fp, #-64]
	and	r2, r2, #7
	orr	r0, r7, r0, asl r2
	b	.L981
.L1082:
	mov	r7, r8
	add	r10, r10, #32
	ldr	r8, [fp, #-68]
	b	.L972
.L1066:
	rsb	r2, r5, #24
	rsb	r10, r5, #16
	bic	r2, r2, #7
	mov	r0, r6
	rsb	r10, r2, r10
	str	r2, [fp, #-56]
	mov	r1, r2
	bl	BsGet
	and	r3, r10, #7
	ldr	r2, [fp, #-56]
	add	r5, r5, r2
	str	r5, [r6, #32]
	orr	r0, r9, r0, asl r3
	str	r0, [r6, #28]
	mov	r9, r0
	b	.L965
.L1056:
	rsb	r3, r4, #24
	rsb	r10, r4, #16
	bic	r3, r3, #7
	mov	r0, r6
	rsb	r10, r3, r10
	str	r3, [fp, #-64]
	mov	r1, r3
	and	r10, r10, #7
	bl	BsGet
	ldr	r3, [fp, #-64]
	add	r4, r4, r3
	str	r4, [r6, #32]
	orr	r0, r9, r0, asl r10
	str	r0, [r6, #28]
	mov	r9, r0
	b	.L906
.L1061:
	rsb	r3, r4, #24
	rsb	r10, r4, #16
	bic	r3, r3, #7
	mov	r0, r6
	rsb	r10, r3, r10
	str	r3, [fp, #-64]
	mov	r1, r3
	and	r10, r10, #7
	bl	BsGet
	ldr	r3, [fp, #-64]
	add	r4, r4, r3
	str	r4, [r6, #32]
	orr	r0, r9, r0, asl r10
	str	r0, [r6, #28]
	mov	r9, r0
	b	.L936
.L1067:
	rsb	r2, r4, #24
	rsb	r10, r4, #16
	bic	r2, r2, #7
	mov	r0, r6
	rsb	r10, r2, r10
	str	r2, [fp, #-56]
	mov	r1, r2
	bl	BsGet
	and	r3, r10, #7
	ldr	r2, [fp, #-56]
	add	r4, r4, r2
	str	r4, [r6, #32]
	orr	r0, r9, r0, asl r3
	str	r0, [r6, #28]
	mov	r9, r0
	b	.L968
.L1062:
	rsb	r2, r9, #24
	rsb	r10, r9, #16
	bic	r2, r2, #7
	mov	r0, r6
	rsb	r10, r2, r10
	str	r2, [fp, #-64]
	mov	r1, r2
	bl	BsGet
	and	r3, r10, #7
	ldr	r2, [fp, #-64]
	add	r9, r9, r2
	str	r9, [r6, #32]
	orr	r0, r4, r0, asl r3
	str	r0, [r6, #28]
	mov	r4, r0
	b	.L943
.L1057:
	rsb	r2, r9, #24
	rsb	r10, r9, #16
	bic	r2, r2, #7
	mov	r0, r6
	rsb	r10, r2, r10
	str	r2, [fp, #-64]
	mov	r1, r2
	bl	BsGet
	and	r3, r10, #7
	ldr	r2, [fp, #-64]
	add	r9, r9, r2
	str	r9, [r6, #32]
	orr	r0, r4, r0, asl r3
	str	r0, [r6, #28]
	mov	r4, r0
	b	.L913
.L1068:
	rsb	r2, r5, #24
	rsb	r10, r5, #16
	bic	r2, r2, #7
	mov	r0, r6
	rsb	r10, r2, r10
	str	r2, [fp, #-56]
	mov	r1, r2
	bl	BsGet
	ldr	r2, [fp, #-56]
	and	r3, r10, #7
	add	r10, r5, r2
	str	r10, [r6, #32]
	mov	r5, r10
	orr	r0, r4, r0, asl r3
	str	r0, [r6, #28]
	mov	r4, r0
	b	.L975
.L892:
	rsb	r7, r5, #24
	ldr	r4, [r1, #28]
	bic	r7, r7, #7
	mov	r0, r1
	rsb	r9, r5, #16
	add	r5, r5, r7
	mov	r1, r7
	rsb	r9, r7, r9
	bl	BsGet
	and	r9, r9, #7
	str	r5, [r6, #32]
	orr	r0, r4, r0, asl r9
	str	r0, [r6, #28]
	b	.L893
.L895:
	ldr	r2, [fp, #-52]
	cmp	r2, #1
	beq	.L900
	b	.L899
	UNWIND(.fnend)
	.size	Vp9_ReadCompPred, .-Vp9_ReadCompPred
	.align	2
	.global	Vp9_ReadMvProbs
	.type	Vp9_ReadMvProbs, %function
Vp9_ReadMvProbs:
	UNWIND(.fnstart)
	@ args = 0, pretend = 0, frame = 40
	@ frame_needed = 1, uses_anonymous_args = 0
	UNWIND(.movsp ip)
	mov	ip, sp
	stmfd	sp!, {r4, r5, r6, r7, r8, r9, r10, fp, ip, lr, pc}
	UNWIND(.pad #4)
	UNWIND(.save {r4, r5, r6, r7, r8, r9, r10, fp, ip, lr})
	UNWIND(.setfp fp, ip, #-4)
	sub	fp, ip, #4
	UNWIND(.pad #44)
	sub	sp, sp, #44
	ldr	r4, [r0, #36]
	ldr	r5, [r0, #32]
	mov	r3, r1
	ldr	r6, [r0, #28]
	mov	ip, r0
	mov	r9, r3
	mov	r7, r0
	str	r1, [fp, #-76]
	add	r1, r1, #3
	str	r2, [fp, #-80]
	str	r1, [fp, #-48]
	str	r3, [fp, #-84]
.L1091:
	sub	r3, r4, #1
	cmp	r5, #0
	mov	r4, r3, asl #8
	sub	r3, r4, r3, asl #2
	mov	r3, r3, lsr #8
	add	r4, r3, #1
	blt	.L1190
.L1086:
	mov	r2, r4, asl #24
	cmp	r2, r6
	bhi	.L1087
	ldr	r3, [r7, #36]
	rsb	r6, r2, r6
	ldr	r1, .L1208
	mov	r10, #0
	rsb	r3, r4, r3
	mov	r8, #6
	add	r1, r1, r3
	mov	r2, #1
	str	r9, [fp, #-56]
	ldrb	r4, [r1, #24]	@ zero_extendqisi2
	mov	r6, r6, asl r4
	rsb	r5, r4, r5
	str	r6, [r7, #28]
	mov	r4, r3, asl r4
	str	r5, [r7, #32]
	str	r4, [r7, #36]
	b	.L1090
.L1088:
	mov	r3, r4, asl #24
	mov	r1, r2, asl r8
	cmp	r3, r0
	sub	r8, r8, #1
	rsbls	r0, r3, r0
	ldr	r3, .L1208
	ldrls	ip, [r7, #36]
	movhi	r1, #0
	orr	r10, r10, r1
	rsbls	r4, r4, ip
	cmn	r8, #1
	add	r3, r3, r4
	ldrb	r3, [r3, #24]	@ zero_extendqisi2
	mov	r6, r0, asl r3
	rsb	r5, r3, r5
	mov	r4, r4, asl r3
	str	r6, [r7, #28]
	str	r5, [r7, #32]
	str	r4, [r7, #36]
	beq	.L1191
.L1090:
	sub	r4, r4, #1
	cmp	r5, #0
	ubfx	r4, r4, #1, #24
	mov	r0, r6
	add	r4, r4, #1
	bge	.L1088
	rsb	r1, r5, #24
	rsb	r3, r5, #16
	bic	r1, r1, #7
	mov	r0, r7
	str	r2, [fp, #-52]
	rsb	r9, r1, r3
	add	r5, r1, r5
	bl	BsGet
	and	r3, r9, #7
	ldr	r2, [fp, #-52]
	orr	r0, r6, r0, asl r3
	b	.L1088
.L1087:
	ldr	r3, .L1208
	add	r3, r3, r4
	ldrb	r3, [r3, #24]	@ zero_extendqisi2
	mov	r6, r6, asl r3
	rsb	r5, r3, r5
	mov	r4, r4, asl r3
	str	r6, [r7, #28]
	str	r5, [r7, #32]
	str	r4, [r7, #36]
.L1144:
	ldr	r3, [fp, #-48]
	add	r9, r9, #1
	cmp	r9, r3
	bne	.L1091
	ldr	r3, [fp, #-76]
	mov	ip, r7
	add	r2, r3, #25
	add	r3, r3, #91
	str	r2, [fp, #-48]
	str	r3, [fp, #-64]
.L1114:
	sub	r4, r4, #1
	cmp	r5, #0
	mov	r3, r4, asl #8
	sub	r4, r3, r4, asl #2
	mov	r4, r4, lsr #8
	add	r4, r4, #1
	blt	.L1192
.L1092:
	mov	r2, r4, asl #24
	cmp	r2, r6
	bhi	.L1093
	ldr	r3, [r7, #36]
	rsb	r6, r2, r6
	mov	r9, #0
	mov	r8, #6
	rsb	r4, r4, r3
	ldr	r3, .L1208
	mov	r10, #1
	add	r3, r3, r4
	ldrb	r3, [r3, #24]	@ zero_extendqisi2
	mov	r6, r6, asl r3
	rsb	r5, r3, r5
	mov	r4, r4, asl r3
	str	r6, [r7, #28]
	str	r5, [r7, #32]
	str	r4, [r7, #36]
	b	.L1096
.L1094:
	mov	r3, r4, asl #24
	mov	r2, r10, asl r8
	cmp	r3, r0
	sub	r8, r8, #1
	rsbls	r0, r3, r0
	ldr	r3, .L1208
	ldrls	r1, [r7, #36]
	movhi	r2, #0
	orr	r9, r9, r2
	rsbls	r4, r4, r1
	cmn	r8, #1
	add	r3, r3, r4
	ldrb	r3, [r3, #24]	@ zero_extendqisi2
	mov	r6, r0, asl r3
	rsb	r5, r3, r5
	mov	r4, r4, asl r3
	str	r6, [r7, #28]
	str	r5, [r7, #32]
	str	r4, [r7, #36]
	beq	.L1193
.L1096:
	sub	r4, r4, #1
	cmp	r5, #0
	ubfx	r4, r4, #1, #24
	mov	r0, r6
	add	r4, r4, #1
	bge	.L1094
	rsb	r1, r5, #24
	rsb	r3, r5, #16
	bic	r1, r1, #7
	mov	r0, r7
	rsb	r3, r1, r3
	add	r5, r1, r5
	str	r3, [fp, #-52]
	bl	BsGet
	ldr	r3, [fp, #-52]
	and	r3, r3, #7
	orr	r0, r6, r0, asl r3
	b	.L1094
.L1191:
	ldr	r9, [fp, #-56]
	mov	r3, r10, asl #1
	orr	r3, r3, #1
	strb	r3, [r9]
	ldr	r4, [r7, #36]
	ldr	r5, [r7, #32]
	ldr	r6, [r7, #28]
	b	.L1144
.L1093:
	ldr	r3, .L1208
	add	r3, r3, r4
	ldrb	r3, [r3, #24]	@ zero_extendqisi2
	mov	r6, r6, asl r3
	rsb	r5, r3, r5
	mov	r4, r4, asl r3
	str	r6, [r7, #28]
	str	r5, [r7, #32]
	str	r4, [r7, #36]
.L1145:
	ldr	r3, [fp, #-48]
	sub	r10, r3, #21
	sub	r3, r3, #11
	str	r3, [fp, #-52]
	mov	r9, r10
.L1102:
	sub	r4, r4, #1
	cmp	r5, #0
	mov	r3, r4, asl #8
	sub	r4, r3, r4, asl #2
	mov	r4, r4, lsr #8
	add	r4, r4, #1
	blt	.L1194
.L1097:
	mov	r2, r4, asl #24
	cmp	r2, r6
	bhi	.L1098
	ldr	r3, [r7, #36]
	rsb	r6, r2, r6
	ldr	r1, .L1208
	mov	r10, #0
	rsb	r3, r4, r3
	mov	r8, #6
	add	r1, r1, r3
	mov	r2, #1
	str	r9, [fp, #-60]
	ldrb	r4, [r1, #24]	@ zero_extendqisi2
	mov	r6, r6, asl r4
	rsb	r5, r4, r5
	str	r6, [r7, #28]
	mov	r4, r3, asl r4
	str	r5, [r7, #32]
	str	r4, [r7, #36]
	b	.L1101
.L1099:
	mov	r3, r4, asl #24
	mov	r1, r2, asl r8
	cmp	r3, r0
	sub	r8, r8, #1
	rsbls	r0, r3, r0
	ldr	r3, .L1208
	ldrls	ip, [r7, #36]
	movhi	r1, #0
	orr	r10, r10, r1
	rsbls	r4, r4, ip
	cmn	r8, #1
	add	r3, r3, r4
	ldrb	r3, [r3, #24]	@ zero_extendqisi2
	mov	r6, r0, asl r3
	rsb	r5, r3, r5
	mov	r4, r4, asl r3
	str	r6, [r7, #28]
	str	r5, [r7, #32]
	str	r4, [r7, #36]
	beq	.L1195
.L1101:
	sub	r4, r4, #1
	cmp	r5, #0
	ubfx	r4, r4, #1, #24
	mov	r0, r6
	add	r4, r4, #1
	bge	.L1099
	rsb	r1, r5, #24
	rsb	r3, r5, #16
	bic	r1, r1, #7
	mov	r0, r7
	str	r2, [fp, #-56]
	rsb	r9, r1, r3
	add	r5, r1, r5
	bl	BsGet
	and	r3, r9, #7
	ldr	r2, [fp, #-56]
	orr	r0, r6, r0, asl r3
	b	.L1099
.L1098:
	ldr	r3, .L1208
	add	r3, r3, r4
	ldrb	r3, [r3, #24]	@ zero_extendqisi2
	mov	r6, r6, asl r3
	rsb	r5, r3, r5
	mov	r4, r4, asl r3
	str	r6, [r7, #28]
	str	r5, [r7, #32]
	str	r4, [r7, #36]
.L1146:
	ldr	r3, [fp, #-52]
	add	r9, r9, #1
	cmp	r9, r3
	bne	.L1102
	sub	r4, r4, #1
	cmp	r5, #0
	mov	r3, r4, asl #8
	sub	r4, r3, r4, asl #2
	mov	r4, r4, lsr #8
	add	r4, r4, #1
	blt	.L1196
.L1103:
	mov	r2, r4, asl #24
	cmp	r2, r6
	bhi	.L1104
	ldr	r3, [r7, #36]
	rsb	r6, r2, r6
	mov	r9, #0
	mov	r8, #6
	rsb	r4, r4, r3
	ldr	r3, .L1208
	mov	r10, #1
	add	r3, r3, r4
	ldrb	r3, [r3, #24]	@ zero_extendqisi2
	mov	r6, r6, asl r3
	rsb	r5, r3, r5
	mov	r4, r4, asl r3
	str	r6, [r7, #28]
	str	r5, [r7, #32]
	str	r4, [r7, #36]
	b	.L1107
.L1105:
	mov	r3, r4, asl #24
	mov	r2, r10, asl r8
	cmp	r3, r0
	sub	r8, r8, #1
	rsbls	r0, r3, r0
	ldr	r3, .L1208
	ldrls	r1, [r7, #36]
	movhi	r2, #0
	orr	r9, r9, r2
	rsbls	r4, r4, r1
	cmn	r8, #1
	add	r3, r3, r4
	ldrb	r3, [r3, #24]	@ zero_extendqisi2
	mov	r6, r0, asl r3
	rsb	r5, r3, r5
	mov	r4, r4, asl r3
	str	r6, [r7, #28]
	str	r5, [r7, #32]
	str	r4, [r7, #36]
	beq	.L1197
.L1107:
	sub	r4, r4, #1
	cmp	r5, #0
	ubfx	r4, r4, #1, #24
	mov	r0, r6
	add	r4, r4, #1
	bge	.L1105
	rsb	r1, r5, #24
	rsb	r3, r5, #16
	bic	r1, r1, #7
	mov	r0, r7
	rsb	r3, r1, r3
	add	r5, r1, r5
	str	r3, [fp, #-52]
	bl	BsGet
	ldr	r3, [fp, #-52]
	and	r3, r3, #7
	orr	r0, r6, r0, asl r3
	b	.L1105
.L1195:
	ldr	r9, [fp, #-60]
	mov	r10, r10, asl #1
	orr	r10, r10, #1
	strb	r10, [r9]
	ldr	r4, [r7, #36]
	ldr	r5, [r7, #32]
	ldr	r6, [r7, #28]
	b	.L1146
.L1194:
	rsb	r10, r5, #24
	mov	r0, r7
	bic	r10, r10, #7
	rsb	r8, r5, #16
	rsb	r8, r10, r8
	add	r5, r10, r5
	mov	r1, r10
	and	r8, r8, #7
	bl	BsGet
	str	r5, [r7, #32]
	orr	r0, r6, r0, asl r8
	str	r0, [r7, #28]
	mov	r6, r0
	b	.L1097
.L1104:
	ldr	r3, .L1208
	add	r3, r3, r4
	ldrb	r3, [r3, #24]	@ zero_extendqisi2
	mov	r6, r6, asl r3
	rsb	r5, r3, r5
	mov	r4, r4, asl r3
	str	r6, [r7, #28]
	str	r5, [r7, #32]
	str	r4, [r7, #36]
.L1147:
	ldr	r3, [fp, #-48]
	sub	r2, r3, #10
	mov	r9, r2
.L1113:
	sub	r4, r4, #1
	cmp	r5, #0
	mov	r3, r4, asl #8
	sub	r4, r3, r4, asl #2
	mov	r4, r4, lsr #8
	add	r4, r4, #1
	blt	.L1198
.L1108:
	mov	r1, r4, asl #24
	cmp	r1, r6
	bhi	.L1109
	ldr	r3, [r7, #36]
	rsb	r6, r1, r6
	ldr	r2, .L1208
	mov	r10, #0
	rsb	r3, r4, r3
	mov	r8, #6
	add	r1, r2, r3
	mov	ip, #1
	str	r9, [fp, #-56]
	ldrb	r4, [r1, #24]	@ zero_extendqisi2
	mov	r6, r6, asl r4
	rsb	r5, r4, r5
	str	r6, [r7, #28]
	mov	r4, r3, asl r4
	str	r5, [r7, #32]
	str	r4, [r7, #36]
	b	.L1112
.L1110:
	mov	r3, r4, asl #24
	mov	r2, ip, asl r8
	cmp	r3, r0
	sub	r8, r8, #1
	rsbls	r0, r3, r0
	ldr	r3, .L1208
	ldrls	r1, [r7, #36]
	movhi	r2, #0
	orr	r10, r10, r2
	rsbls	r4, r4, r1
	cmn	r8, #1
	add	r3, r3, r4
	ldrb	r3, [r3, #24]	@ zero_extendqisi2
	mov	r6, r0, asl r3
	rsb	r5, r3, r5
	mov	r4, r4, asl r3
	str	r6, [r7, #28]
	str	r5, [r7, #32]
	str	r4, [r7, #36]
	beq	.L1199
.L1112:
	sub	r4, r4, #1
	cmp	r5, #0
	ubfx	r4, r4, #1, #24
	mov	r0, r6
	add	r4, r4, #1
	bge	.L1110
	rsb	r1, r5, #24
	rsb	r3, r5, #16
	bic	r1, r1, #7
	mov	r0, r7
	str	ip, [fp, #-52]
	rsb	r9, r1, r3
	add	r5, r1, r5
	bl	BsGet
	and	r3, r9, #7
	ldr	ip, [fp, #-52]
	orr	r0, r6, r0, asl r3
	b	.L1110
.L1109:
	ldr	r3, .L1208
	add	r3, r3, r4
	ldrb	r3, [r3, #24]	@ zero_extendqisi2
	mov	r6, r6, asl r3
	rsb	r5, r3, r5
	mov	r4, r4, asl r3
	str	r6, [r7, #28]
	str	r5, [r7, #32]
	str	r4, [r7, #36]
.L1148:
	ldr	r3, [fp, #-48]
	add	r9, r9, #1
	cmp	r9, r3
	bne	.L1113
	ldr	r2, [fp, #-64]
	add	r3, r9, #33
	str	r3, [fp, #-48]
	cmp	r3, r2
	bne	.L1114
	ldr	r3, [fp, #-76]
	mov	r10, #1
	add	r2, r3, #31
	add	r3, r3, #97
	str	r2, [fp, #-68]
	str	r3, [fp, #-72]
.L1115:
	ldr	r3, [fp, #-68]
	sub	r3, r3, #6
	str	r3, [fp, #-48]
	mov	r3, #2
	str	r3, [fp, #-64]
.L1130:
	ldr	ip, [fp, #-48]
	mov	r2, #0
.L1121:
	sub	r4, r4, #1
	cmp	r5, #0
	mov	r3, r4, asl #8
	sub	r4, r3, r4, asl #2
	mov	r4, r4, lsr #8
	add	r4, r4, #1
	blt	.L1200
.L1116:
	mov	r1, r4, asl #24
	cmp	r1, r6
	bhi	.L1117
	ldr	r3, [r7, #36]
	rsb	r6, r1, r6
	ldr	r1, .L1208
	mov	r9, #0
	rsb	r3, r4, r3
	mov	r8, #6
	add	r1, r1, r3
	str	r2, [fp, #-56]
	str	ip, [fp, #-60]
	ldrb	r4, [r1, #24]	@ zero_extendqisi2
	mov	r6, r6, asl r4
	rsb	r5, r4, r5
	mov	r4, r3, asl r4
	str	r6, [r7, #28]
	mov	r3, r6
	str	r5, [r7, #32]
	mov	r6, r9
	str	r4, [r7, #36]
	mov	r9, r3
	b	.L1120
.L1118:
	mov	r3, r4, asl #24
	mov	r1, r10, asl r8
	cmp	r3, r0
	sub	r8, r8, #1
	rsbls	r0, r3, r0
	ldr	r3, .L1208
	ldrls	ip, [r7, #36]
	movhi	r1, #0
	orr	r6, r6, r1
	rsbls	r4, r4, ip
	cmn	r8, #1
	add	r3, r3, r4
	ldrb	r1, [r3, #24]	@ zero_extendqisi2
	mov	r9, r0, asl r1
	rsb	r5, r1, r5
	mov	r4, r4, asl r1
	str	r9, [r7, #28]
	str	r5, [r7, #32]
	str	r4, [r7, #36]
	beq	.L1201
.L1120:
	sub	r4, r4, #1
	cmp	r5, #0
	ubfx	r4, r4, #1, #24
	mov	r0, r9
	add	r4, r4, #1
	bge	.L1118
	rsb	r1, r5, #24
	rsb	ip, r5, #16
	bic	r1, r1, #7
	mov	r0, r7
	rsb	ip, r1, ip
	add	r5, r1, r5
	str	ip, [fp, #-52]
	bl	BsGet
	ldr	ip, [fp, #-52]
	and	ip, ip, #7
	orr	r0, r9, r0, asl ip
	b	.L1118
.L1199:
	ldr	r9, [fp, #-56]
	mov	r10, r10, asl #1
	orr	r10, r10, #1
	strb	r10, [r9]
	ldr	r4, [r7, #36]
	ldr	r5, [r7, #32]
	ldr	r6, [r7, #28]
	b	.L1148
.L1117:
	ldr	r3, .L1208
	add	r3, r3, r4
	ldrb	r3, [r3, #24]	@ zero_extendqisi2
	mov	r6, r6, asl r3
	rsb	r5, r3, r5
	mov	r4, r4, asl r3
	str	r6, [r7, #28]
	str	r5, [r7, #32]
	str	r4, [r7, #36]
.L1149:
	add	r2, r2, #1
	add	ip, ip, #1
	cmp	r2, #3
	bne	.L1121
	ldr	r3, [fp, #-64]
	subs	r3, r3, #1
	str	r3, [fp, #-64]
	ldr	r3, [fp, #-48]
	add	r3, r3, #3
	str	r3, [fp, #-48]
	bne	.L1130
	ldr	r3, [fp, #-64]
	ldr	r2, [fp, #-68]
.L1122:
	sub	r4, r4, #1
	cmp	r5, #0
	mov	r1, r4, asl #8
	sub	r4, r1, r4, asl #2
	mov	r4, r4, lsr #8
	add	r4, r4, #1
	blt	.L1202
.L1123:
	mov	r0, r4, asl #24
	cmp	r0, r6
	bhi	.L1124
	ldr	r1, [r7, #36]
	rsb	r6, r0, r6
	ldr	r0, .L1208
	mov	r9, #0
	rsb	r1, r4, r1
	str	r3, [fp, #-52]
	add	r0, r0, r1
	mov	r8, #6
	str	r2, [fp, #-56]
	ldrb	r4, [r0, #24]	@ zero_extendqisi2
	mov	r6, r6, asl r4
	rsb	r5, r4, r5
	str	r6, [r7, #28]
	mov	r4, r1, asl r4
	mov	r3, r6
	str	r5, [r7, #32]
	mov	r6, r9
	str	r4, [r7, #36]
	mov	r9, r3
	b	.L1127
.L1125:
	mov	r3, r4, asl #24
	mov	r1, r10, asl r8
	cmp	r3, r0
	sub	r8, r8, #1
	rsbls	r0, r3, r0
	ldr	r3, .L1208
	ldrls	ip, [r7, #36]
	movhi	r1, #0
	orr	r6, r6, r1
	rsbls	r4, r4, ip
	cmn	r8, #1
	add	r3, r3, r4
	ldrb	r1, [r3, #24]	@ zero_extendqisi2
	mov	r9, r0, asl r1
	rsb	r5, r1, r5
	mov	r4, r4, asl r1
	str	r9, [r7, #28]
	str	r5, [r7, #32]
	str	r4, [r7, #36]
	beq	.L1203
.L1127:
	sub	r4, r4, #1
	cmp	r5, #0
	ubfx	r4, r4, #1, #24
	mov	r0, r9
	add	r4, r4, #1
	bge	.L1125
	rsb	r1, r5, #24
	rsb	ip, r5, #16
	bic	r1, r1, #7
	mov	r0, r7
	rsb	ip, r1, ip
	add	r5, r1, r5
	str	ip, [fp, #-48]
	bl	BsGet
	ldr	ip, [fp, #-48]
	and	ip, ip, #7
	orr	r0, r9, r0, asl ip
	b	.L1125
.L1201:
	ldr	ip, [fp, #-60]
	mov	r9, r6, asl #1
	orr	r9, r9, #1
	ldr	r2, [fp, #-56]
	strb	r9, [ip]
	ldr	r4, [r7, #36]
	ldr	r5, [r7, #32]
	ldr	r6, [r7, #28]
	b	.L1149
.L1198:
	rsb	r10, r5, #24
	mov	r0, r7
	bic	r10, r10, #7
	rsb	r8, r5, #16
	rsb	r8, r10, r8
	add	r5, r10, r5
	mov	r1, r10
	and	r8, r8, #7
	bl	BsGet
	str	r5, [r7, #32]
	orr	r0, r6, r0, asl r8
	str	r0, [r7, #28]
	mov	r6, r0
	b	.L1108
.L1124:
	ldr	r1, .L1208
	add	r3, r3, #1
	cmp	r3, #3
	add	r2, r2, #1
	add	r1, r1, r4
	ldrb	r1, [r1, #24]	@ zero_extendqisi2
	mov	r6, r6, asl r1
	rsb	r5, r1, r5
	mov	r4, r4, asl r1
	str	r6, [r7, #28]
	str	r5, [r7, #32]
	str	r4, [r7, #36]
	beq	.L1128
.L1204:
	ldr	r4, [r7, #36]
	ldr	r5, [r7, #32]
	ldr	r6, [r7, #28]
	b	.L1122
.L1203:
	ldr	r3, [fp, #-52]
	mov	r9, r6, asl #1
	ldr	r2, [fp, #-56]
	orr	r9, r9, #1
	add	r3, r3, #1
	cmp	r3, #3
	add	r2, r2, #1
	strb	r9, [r2, #-1]
	bne	.L1204
.L1128:
	ldr	r3, [fp, #-68]
	ldr	r2, [fp, #-72]
	add	r3, r3, #33
	str	r3, [fp, #-68]
	cmp	r3, r2
	beq	.L1129
	ldr	r4, [r7, #36]
	ldr	r5, [r7, #32]
	ldr	r6, [r7, #28]
	b	.L1115
.L1200:
	rsb	r9, r5, #24
	mov	r0, r7
	bic	r9, r9, #7
	str	ip, [fp, #-56]
	str	r2, [fp, #-52]
	rsb	r8, r5, #16
	mov	r1, r9
	rsb	r8, r9, r8
	bl	BsGet
	and	r8, r8, #7
	add	r5, r9, r5
	ldr	ip, [fp, #-56]
	str	r5, [r7, #32]
	ldr	r2, [fp, #-52]
	orr	r0, r6, r0, asl r8
	str	r0, [r7, #28]
	mov	r6, r0
	b	.L1116
.L1202:
	rsb	r9, r5, #24
	mov	r0, r7
	bic	r9, r9, #7
	str	r2, [fp, #-52]
	str	r3, [fp, #-48]
	rsb	r8, r5, #16
	mov	r1, r9
	rsb	r8, r9, r8
	bl	BsGet
	and	r8, r8, #7
	add	r5, r9, r5
	ldr	r2, [fp, #-52]
	str	r5, [r7, #32]
	ldr	r3, [fp, #-48]
	orr	r0, r6, r0, asl r8
	str	r0, [r7, #28]
	mov	r6, r0
	b	.L1123
.L1197:
	ldr	r2, [fp, #-48]
	mov	r3, r9, asl #1
	orr	r3, r3, #1
	strb	r3, [r2, #-11]
	ldr	r4, [r7, #36]
	ldr	r5, [r7, #32]
	ldr	r6, [r7, #28]
	b	.L1147
.L1193:
	ldr	r2, [fp, #-48]
	mov	r3, r9, asl #1
	orr	r3, r3, #1
	strb	r3, [r2, #-22]
	ldr	r4, [r7, #36]
	ldr	r5, [r7, #32]
	ldr	r6, [r7, #28]
	b	.L1145
.L1129:
	ldr	r3, [fp, #-80]
	mov	ip, r7
	cmp	r3, #0
	beq	.L1085
	ldr	r3, [fp, #-76]
	add	r6, r3, #66
	str	r6, [fp, #-48]
	ldr	r6, [fp, #-84]
.L1142:
	ldr	r3, [r7, #36]
	ldr	r5, [r7, #32]
	sub	r2, r3, #1
	cmp	r5, #0
	mov	r3, r2, asl #8
	sub	r3, r3, r2, asl #2
	mov	r3, r3, lsr #8
	add	r4, r3, #1
	blt	.L1131
	ldr	r8, [r7, #28]
.L1132:
	mov	r2, r4, asl #24
	cmp	r2, r8
	bhi	.L1133
	ldr	r3, [r7, #36]
	rsb	r8, r2, r8
	ldr	r1, .L1208
	mov	r10, #0
	rsb	r3, r4, r3
	mov	r9, #6
	add	r1, r1, r3
	mov	r2, #1
	str	r6, [fp, #-56]
	ldrb	r4, [r1, #24]	@ zero_extendqisi2
	mov	r8, r8, asl r4
	rsb	r5, r4, r5
	str	r8, [r7, #28]
	mov	r4, r3, asl r4
	str	r5, [r7, #32]
	str	r4, [r7, #36]
	b	.L1136
.L1134:
	mov	r3, r4, asl #24
	mov	r1, r2, asl r9
	cmp	r3, r0
	sub	r9, r9, #1
	rsbls	r0, r3, r0
	ldr	r3, .L1208
	ldrls	ip, [r7, #36]
	movhi	r1, #0
	orr	r10, r10, r1
	rsbls	r4, r4, ip
	cmn	r9, #1
	add	r3, r3, r4
	ldrb	r3, [r3, #24]	@ zero_extendqisi2
	mov	r8, r0, asl r3
	rsb	r5, r3, r5
	mov	r4, r4, asl r3
	str	r8, [r7, #28]
	str	r5, [r7, #32]
	str	r4, [r7, #36]
	beq	.L1205
.L1136:
	sub	r4, r4, #1
	cmp	r5, #0
	ubfx	r4, r4, #1, #24
	mov	r0, r8
	add	r4, r4, #1
	bge	.L1134
	rsb	r1, r5, #24
	rsb	r3, r5, #16
	bic	r1, r1, #7
	mov	r0, r7
	str	r2, [fp, #-52]
	rsb	r6, r1, r3
	add	r5, r1, r5
	bl	BsGet
	and	r3, r6, #7
	ldr	r2, [fp, #-52]
	orr	r0, r8, r0, asl r3
	b	.L1134
.L1138:
	ldr	r3, .L1208
	add	r3, r3, r4
	ldrb	r3, [r3, #24]	@ zero_extendqisi2
	mov	r8, r8, asl r3
	rsb	r5, r3, r5
	str	r8, [r7, #28]
	mov	r3, r4, asl r3
	str	r5, [r7, #32]
	str	r3, [r7, #36]
.L1152:
	ldr	r3, [fp, #-48]
	add	r6, r6, #33
	cmp	r6, r3
	bne	.L1142
.L1085:
	sub	sp, fp, #40
	ldmfd	sp, {r4, r5, r6, r7, r8, r9, r10, fp, sp, pc}
.L1133:
	ldr	r3, .L1208
	add	r3, r3, r4
	ldrb	r3, [r3, #24]	@ zero_extendqisi2
	mov	r8, r8, asl r3
	rsb	r5, r3, r5
	str	r8, [r7, #28]
	mov	r3, r4, asl r3
	str	r5, [r7, #32]
	str	r3, [r7, #36]
.L1151:
	sub	r3, r3, #1
	cmp	r5, #0
	mov	r2, r3, asl #8
	sub	r3, r2, r3, asl #2
	mov	r3, r3, lsr #8
	add	r4, r3, #1
	blt	.L1206
.L1137:
	mov	r2, r4, asl #24
	cmp	r2, r8
	bhi	.L1138
	ldr	r3, [r7, #36]
	rsb	r8, r2, r8
	ldr	r1, .L1208
	mov	r10, #0
	rsb	r3, r4, r3
	mov	r9, #6
	add	r1, r1, r3
	mov	r2, #1
	str	r6, [fp, #-56]
	ldrb	r4, [r1, #24]	@ zero_extendqisi2
	mov	r8, r8, asl r4
	rsb	r5, r4, r5
	str	r8, [r7, #28]
	mov	r4, r3, asl r4
	str	r5, [r7, #32]
	str	r4, [r7, #36]
	b	.L1141
.L1139:
	mov	r3, r4, asl #24
	mov	r1, r2, asl r9
	cmp	r3, r0
	sub	r9, r9, #1
	rsbls	r0, r3, r0
	ldr	r3, .L1208
	ldrls	ip, [r7, #36]
	movhi	r1, #0
	orr	r10, r10, r1
	rsbls	r4, r4, ip
	cmn	r9, #1
	add	r3, r3, r4
	ldrb	r3, [r3, #24]	@ zero_extendqisi2
	mov	r8, r0, asl r3
	rsb	r5, r3, r5
	mov	r4, r4, asl r3
	str	r8, [r7, #28]
	str	r5, [r7, #32]
	str	r4, [r7, #36]
	beq	.L1207
.L1141:
	sub	r4, r4, #1
	cmp	r5, #0
	ubfx	r4, r4, #1, #24
	mov	r0, r8
	add	r4, r4, #1
	bge	.L1139
	rsb	r1, r5, #24
	rsb	r3, r5, #16
	bic	r1, r1, #7
	mov	r0, r7
	str	r2, [fp, #-52]
	rsb	r6, r1, r3
	add	r5, r1, r5
	bl	BsGet
	and	r3, r6, #7
	ldr	r2, [fp, #-52]
	orr	r0, r8, r0, asl r3
	b	.L1139
.L1207:
	ldr	r6, [fp, #-56]
	mov	r3, r10, asl #1
	orr	r3, r3, #1
	strb	r3, [r6, #35]
	b	.L1152
.L1205:
	ldr	r6, [fp, #-56]
	mov	r3, r10, asl #1
	orr	r3, r3, #1
	strb	r3, [r6, #34]
	ldr	r3, [r7, #36]
	ldr	r5, [r7, #32]
	ldr	r8, [r7, #28]
	b	.L1151
.L1190:
	rsb	r10, r5, #24
	mov	r0, r7
	bic	r10, r10, #7
	rsb	r8, r5, #16
	rsb	r8, r10, r8
	add	r5, r10, r5
	mov	r1, r10
	and	r8, r8, #7
	bl	BsGet
	str	r5, [r7, #32]
	orr	r0, r6, r0, asl r8
	str	r0, [r7, #28]
	mov	r6, r0
	b	.L1086
.L1196:
	rsb	r9, r5, #24
	mov	r0, r7
	bic	r9, r9, #7
	rsb	r8, r5, #16
	rsb	r8, r9, r8
	add	r5, r9, r5
	mov	r1, r9
	and	r8, r8, #7
	bl	BsGet
	str	r5, [r7, #32]
	orr	r0, r6, r0, asl r8
	str	r0, [r7, #28]
	mov	r6, r0
	b	.L1103
.L1192:
	rsb	r9, r5, #24
	mov	r0, r7
	bic	r9, r9, #7
	rsb	r8, r5, #16
	rsb	r8, r9, r8
	add	r5, r9, r5
	mov	r1, r9
	and	r8, r8, #7
	bl	BsGet
	str	r5, [r7, #32]
	orr	r0, r6, r0, asl r8
	str	r0, [r7, #28]
	mov	r6, r0
	b	.L1092
.L1131:
	rsb	r9, r5, #24
	mov	r0, r7
	bic	r9, r9, #7
	ldr	r8, [r7, #28]
	rsb	r10, r5, #16
	add	r5, r5, r9
	mov	r1, r9
	rsb	r10, r9, r10
	bl	BsGet
	and	r10, r10, #7
	str	r5, [r7, #32]
	orr	r0, r8, r0, asl r10
	str	r0, [r7, #28]
	mov	r8, r0
	b	.L1132
.L1206:
	rsb	r10, r5, #24
	mov	r0, r7
	bic	r10, r10, #7
	rsb	r9, r5, #16
	rsb	r9, r10, r9
	add	r5, r10, r5
	mov	r1, r10
	and	r9, r9, #7
	bl	BsGet
	str	r5, [r7, #32]
	orr	r0, r8, r0, asl r9
	str	r0, [r7, #28]
	mov	r8, r0
	b	.L1137
.L1209:
	.align	2
.L1208:
	.word	.LANCHOR0
	UNWIND(.fnend)
	.size	Vp9_ReadMvProbs, .-Vp9_ReadMvProbs
	.align	2
	.global	Vp9_PrepareReadModeInfo
	.type	Vp9_PrepareReadModeInfo, %function
Vp9_PrepareReadModeInfo:
	UNWIND(.fnstart)
	@ args = 16, pretend = 0, frame = 40
	@ frame_needed = 1, uses_anonymous_args = 0
	UNWIND(.movsp ip)
	mov	ip, sp
	stmfd	sp!, {r4, r5, r6, r7, r8, r9, r10, fp, ip, lr, pc}
	UNWIND(.pad #4)
	UNWIND(.save {r4, r5, r6, r7, r8, r9, r10, fp, ip, lr})
	UNWIND(.setfp fp, ip, #-4)
	sub	fp, ip, #4
	UNWIND(.pad #44)
	sub	sp, sp, #44
	add	r10, r0, #2000
	add	r10, r10, #15
	ldr	r7, .L1360
	str	r0, [fp, #-72]
	mov	r6, r1
	add	r0, r0, #2016
	mov	r8, r10
	add	r0, r0, #2
	mov	r9, r3
	str	r0, [fp, #-76]
	mov	r3, #0
	str	r2, [fp, #-56]
	str	r3, [fp, #-48]
.L1214:
	ldr	r4, [r6, #36]
	ldr	r5, [r6, #32]
	sub	r4, r4, #1
	cmp	r5, #0
	mov	r2, r4, asl #8
	sub	r4, r2, r4, asl #2
	mov	r4, r4, lsr #8
	add	r4, r4, #1
	blt	.L1211
	ldr	r10, [r6, #28]
.L1212:
	mov	ip, r4, asl #24
	mov	r1, r8
	cmp	ip, r10
	mov	r0, r6
	rsb	r2, ip, r10
	bhi	.L1213
	ldr	ip, [r6, #36]
	rsb	r4, r4, ip
	add	ip, r7, r4
	ldrb	ip, [ip, #24]	@ zero_extendqisi2
	mov	r2, r2, asl ip
	rsb	r5, ip, r5
	mov	r4, r4, asl ip
	str	r2, [r6, #28]
	str	r5, [r6, #32]
	str	r4, [r6, #36]
	bl	Vp9_DiffUpdateProb
.L1291:
	ldr	r3, [fp, #-76]
	add	r8, r8, #1
	cmp	r8, r3
	bne	.L1214
	ldr	r8, [fp, #-56]
	adds	r8, r8, #0
	movne	r8, #1
	cmp	r9, #0
	movne	r8, #0
	cmp	r8, #0
	bne	.L1337
.L1215:
	ldr	r3, [fp, #-48]
	ldr	r2, [fp, #16]
	str	r3, [r2]
	sub	sp, fp, #40
	ldmfd	sp, {r4, r5, r6, r7, r8, r9, r10, fp, sp, pc}
.L1213:
	add	r2, r7, r4
	ldrb	r2, [r2, #24]	@ zero_extendqisi2
	mov	r10, r10, asl r2
	rsb	r5, r2, r5
	mov	r4, r4, asl r2
	str	r10, [r6, #28]
	str	r5, [r6, #32]
	str	r4, [r6, #36]
	b	.L1291
.L1211:
	rsb	r2, r5, #24
	rsb	ip, r5, #16
	bic	r2, r2, #7
	mov	r0, r6
	rsb	ip, r2, ip
	ldr	r10, [r6, #28]
	mov	r1, r2
	str	ip, [fp, #-64]
	str	r2, [fp, #-60]
	bl	BsGet
	ldr	ip, [fp, #-64]
	ldr	r2, [fp, #-60]
	and	ip, ip, #7
	add	r5, r5, r2
	str	r5, [r6, #32]
	orr	r0, r10, r0, asl ip
	str	r0, [r6, #28]
	mov	r10, r0
	b	.L1212
.L1337:
	mov	r1, r6
	ldr	r0, [fp, #-72]
	bl	Vp9_ReadInterModeProbs
	ldr	r3, [fp, #4]
	cmp	r3, #4
	beq	.L1338
.L1216:
	ldr	r3, [fp, #-72]
	add	r10, r3, #1968
	mov	r3, r10
	add	r3, r3, #15
	add	r10, r10, #11
	mov	r5, r3
.L1220:
	ldr	r4, [r6, #36]
	ldr	r8, [r6, #32]
	sub	r4, r4, #1
	cmp	r8, #0
	mov	r3, r4, asl #8
	sub	r4, r3, r4, asl #2
	mov	r4, r4, lsr #8
	add	r4, r4, #1
	blt	.L1217
	ldr	r3, [r6, #28]
.L1218:
	mov	r2, r4, asl #24
	mov	r1, r10
	cmp	r2, r3
	mov	r0, r6
	rsb	ip, r2, r3
	bhi	.L1219
	ldr	r3, [r6, #36]
	rsb	r4, r4, r3
	add	r3, r7, r4
	ldrb	r3, [r3, #24]	@ zero_extendqisi2
	mov	ip, ip, asl r3
	rsb	r8, r3, r8
	mov	r4, r4, asl r3
	str	ip, [r6, #28]
	str	r8, [r6, #32]
	str	r4, [r6, #36]
	bl	Vp9_DiffUpdateProb
.L1292:
	add	r10, r10, #1
	cmp	r10, r5
	bne	.L1220
	ldr	ip, [fp, #-72]
	sub	r3, fp, #48
	ldr	r2, [fp, #8]
	mov	r1, r6
	add	lr, ip, #1728
	mov	r0, ip
	add	ip, ip, #1760
	mov	r4, lr
	mov	r5, ip
	bl	Vp9_ReadCompPred
	add	r3, r4, #9
	mov	lr, r4
	add	r4, r6, #28
	str	r3, [fp, #-56]
	add	r3, r5, #13
	str	r3, [fp, #-80]
	ldmia	r4, {r4, r5, r9}
	mov	r8, r5
.L1221:
	ldr	r3, [fp, #-56]
	sub	r10, r3, #9
.L1254:
	sub	r5, r9, #1
	cmp	r8, #0
	mov	r3, r5, asl #8
	sub	r5, r3, r5, asl #2
	mov	r5, r5, lsr #8
	add	r5, r5, #1
	blt	.L1339
.L1222:
	mov	r9, r5, asl #24
	cmp	r9, r4
	bhi	.L1223
	ldr	r3, [r6, #36]
	rsb	r9, r9, r4
	rsb	r5, r5, r3
	add	r3, r7, r5
	ldrb	r2, [r3, #24]	@ zero_extendqisi2
	mov	r3, r5, asl r2
	rsb	r5, r2, r8
	sub	r4, r3, #1
	cmp	r5, #0
	ubfx	r4, r4, #1, #24
	mov	r9, r9, asl r2
	str	r3, [r6, #36]
	add	r4, r4, #1
	str	r5, [r6, #32]
	str	r9, [r6, #28]
	blt	.L1340
.L1224:
	mov	r2, r4, asl #24
	cmp	r2, r9
	bhi	.L1225
	ldr	r3, [r6, #36]
	rsb	r9, r2, r9
	rsb	r4, r4, r3
	add	r3, r7, r4
	ldrb	r0, [r3, #24]	@ zero_extendqisi2
	mov	r3, r4, asl r0
	rsb	r4, r0, r5
	cmp	r4, #0
	sub	r5, r3, #1
	ubfx	r5, r5, #1, #24
	mov	r9, r9, asl r0
	str	r3, [r6, #36]
	add	r5, r5, #1
	str	r4, [r6, #32]
	str	r9, [r6, #28]
	blt	.L1341
.L1227:
	mov	r3, r5, asl #24
	cmp	r3, r9
	bhi	.L1232
	ldr	r1, [r6, #36]
	rsb	r3, r3, r9
	rsb	r5, r5, r1
	add	r2, r7, r5
	ldrb	r2, [r2, #24]	@ zero_extendqisi2
	rsb	r9, r2, r4
	mov	r1, r5, asl r2
	sub	r5, r1, #1
	cmp	r9, #0
	ubfx	r5, r5, #1, #24
	mov	r4, r3, asl r2
	str	r1, [r6, #36]
	add	r5, r5, #1
	str	r9, [r6, #32]
	str	r4, [r6, #28]
	blt	.L1342
.L1234:
	mov	r2, r5, asl #24
	cmp	r2, r4
	bhi	.L1238
	ldr	r1, [r6, #36]
	rsb	r2, r2, r4
	mov	r8, #0
	mov	r3, #6
	rsb	r5, r5, r1
	str	r10, [fp, #-68]
	add	r1, r7, r5
	mov	r10, r8
	mov	ip, #1
	ldrb	r4, [r1, #24]	@ zero_extendqisi2
	mov	r2, r2, asl r4
	rsb	r9, r4, r9
	str	r2, [r6, #28]
	mov	r4, r5, asl r4
	str	r9, [r6, #32]
	mov	r5, r3
	str	r4, [r6, #36]
	mov	r8, r2
	b	.L1239
.L1243:
	mov	r2, r4, asl #24
	mov	r1, ip, asl r5
	cmp	r2, r0
	sub	r5, r5, #1
	rsbls	r0, r2, r0
	ldrls	lr, [r6, #36]
	movhi	r1, #0
	orr	r10, r10, r1
	rsbls	r4, r4, lr
	cmn	r5, #1
	add	r2, r7, r4
	ldrb	r2, [r2, #24]	@ zero_extendqisi2
	mov	r8, r0, asl r2
	rsb	r9, r2, r9
	mov	r4, r4, asl r2
	str	r8, [r6, #28]
	str	r9, [r6, #32]
	str	r4, [r6, #36]
	beq	.L1343
.L1239:
	sub	r4, r4, #1
	cmp	r9, #0
	ubfx	r4, r4, #1, #24
	mov	r0, r8
	add	r4, r4, #1
	bge	.L1243
	rsb	r1, r9, #24
	rsb	r2, r9, #16
	bic	r1, r1, #7
	mov	r0, r6
	rsb	r2, r1, r2
	str	ip, [fp, #-64]
	str	r2, [fp, #-60]
	add	r9, r1, r9
	bl	BsGet
	ldr	r2, [fp, #-60]
	ldr	ip, [fp, #-64]
	and	r2, r2, #7
	orr	r0, r8, r0, asl r2
	b	.L1243
.L1223:
	add	r3, r7, r5
	ldrb	r9, [r3, #24]	@ zero_extendqisi2
	mov	r4, r4, asl r9
	rsb	r8, r9, r8
	str	r4, [r6, #28]
	mov	r9, r5, asl r9
	str	r8, [r6, #32]
	str	r9, [r6, #36]
.L1293:
	ldr	r3, [fp, #-56]
	add	r10, r10, #1
	cmp	r10, r3
	bne	.L1254
	ldr	r2, [fp, #-80]
	add	r3, r10, #9
	str	r3, [fp, #-56]
	cmp	r3, r2
	bne	.L1221
	ldr	r3, [fp, #-72]
	add	r2, r3, #1888
	add	r3, r3, #1936
	add	r3, r3, #14
	str	r3, [fp, #-64]
	mov	r3, r9
	add	r2, r2, #14
	str	r2, [fp, #-60]
.L1255:
	ldr	r2, [fp, #-60]
	mov	r10, #0
	mov	r9, r3
	str	r2, [fp, #-56]
.L1290:
	sub	r9, r9, #1
	cmp	r8, #0
	mov	r2, r9, asl #8
	sub	r9, r2, r9, asl #2
	mov	r9, r9, lsr #8
	add	r9, r9, #1
	blt	.L1344
.L1256:
	mov	r0, r9, asl #24
	cmp	r0, r4
	bhi	.L1257
	ldr	r3, [r6, #36]
	rsb	r0, r0, r4
	rsb	r3, r9, r3
	add	r2, r7, r3
	ldrb	r2, [r2, #24]	@ zero_extendqisi2
	mov	r3, r3, asl r2
	rsb	r5, r2, r8
	sub	r4, r3, #1
	cmp	r5, #0
	ubfx	r4, r4, #1, #24
	mov	r9, r0, asl r2
	str	r3, [r6, #36]
	add	r4, r4, #1
	str	r5, [r6, #32]
	str	r9, [r6, #28]
	blt	.L1345
.L1258:
	mov	r2, r4, asl #24
	cmp	r2, r9
	bhi	.L1259
	ldr	ip, [r6, #36]
	rsb	r9, r2, r9
	rsb	r4, r4, ip
	add	r3, r7, r4
	ldrb	r0, [r3, #24]	@ zero_extendqisi2
	mov	ip, r4, asl r0
	rsb	r4, r0, r5
	cmp	r4, #0
	sub	r5, ip, #1
	ubfx	r5, r5, #1, #24
	mov	r9, r9, asl r0
	str	ip, [r6, #36]
	add	r5, r5, #1
	str	r4, [r6, #32]
	str	r9, [r6, #28]
	blt	.L1346
.L1261:
	mov	r3, r5, asl #24
	cmp	r3, r9
	bhi	.L1266
	ldr	r1, [r6, #36]
	rsb	r3, r3, r9
	rsb	r5, r5, r1
	add	r2, r7, r5
	ldrb	ip, [r2, #24]	@ zero_extendqisi2
	mov	r1, r5, asl ip
	rsb	r5, ip, r4
	sub	r9, r1, #1
	cmp	r5, #0
	ubfx	r9, r9, #1, #24
	mov	r4, r3, asl ip
	str	r1, [r6, #36]
	add	r9, r9, #1
	str	r5, [r6, #32]
	str	r4, [r6, #28]
	blt	.L1347
.L1268:
	mov	r3, r9, asl #24
	cmp	r3, r4
	bhi	.L1272
	ldr	r1, [r6, #36]
	rsb	r0, r3, r4
	mov	r2, #6
	mov	r3, #0
	rsb	r4, r9, r1
	str	r10, [fp, #-80]
	add	r1, r7, r4
	mov	ip, #1
	mov	r10, r3
	ldrb	r1, [r1, #24]	@ zero_extendqisi2
	rsb	r8, r1, r5
	mov	r9, r0, asl r1
	mov	r4, r4, asl r1
	str	r9, [r6, #28]
	str	r8, [r6, #32]
	mov	r5, r2
	str	r4, [r6, #36]
	b	.L1273
.L1277:
	mov	r2, r4, asl #24
	mov	r1, ip, asl r5
	cmp	r2, r0
	sub	r5, r5, #1
	rsbls	r0, r2, r0
	ldrls	lr, [r6, #36]
	movhi	r1, #0
	orr	r10, r10, r1
	rsbls	r4, r4, lr
	cmn	r5, #1
	add	r2, r7, r4
	ldrb	r2, [r2, #24]	@ zero_extendqisi2
	mov	r9, r0, asl r2
	rsb	r8, r2, r8
	mov	r4, r4, asl r2
	str	r9, [r6, #28]
	str	r8, [r6, #32]
	str	r4, [r6, #36]
	beq	.L1348
.L1273:
	sub	r4, r4, #1
	cmp	r8, #0
	ubfx	r4, r4, #1, #24
	mov	r0, r9
	add	r4, r4, #1
	bge	.L1277
	rsb	r1, r8, #24
	rsb	r2, r8, #16
	bic	r1, r1, #7
	mov	r0, r6
	rsb	r2, r1, r2
	str	ip, [fp, #-72]
	str	r2, [fp, #-68]
	add	r8, r1, r8
	bl	BsGet
	ldr	r2, [fp, #-68]
	ldr	ip, [fp, #-72]
	and	r2, r2, #7
	orr	r0, r9, r0, asl r2
	b	.L1277
.L1257:
	add	r3, r7, r9
	ldrb	r3, [r3, #24]	@ zero_extendqisi2
	mov	r4, r4, asl r3
	rsb	r5, r3, r8
	mov	r9, r9, asl r3
	str	r4, [r6, #28]
	str	r5, [r6, #32]
	str	r9, [r6, #36]
.L1294:
	add	r10, r10, #1
	ldr	r3, [fp, #-56]
	cmp	r10, #3
	add	r3, r3, #1
	str	r3, [fp, #-56]
	addne	r4, r6, #28
	ldmneia	r4, {r4, r8, r9}
	bne	.L1290
.L1349:
	ldr	r3, [fp, #-60]
	ldr	r2, [fp, #-64]
	add	r3, r3, #3
	str	r3, [fp, #-60]
	cmp	r3, r2
	beq	.L1289
	ldr	r4, [r6, #28]
	ldr	r3, [r6, #36]
	ldr	r8, [r6, #32]
	b	.L1255
.L1344:
	rsb	r2, r8, #24
	rsb	r5, r8, #16
	bic	r2, r2, #7
	mov	r0, r6
	rsb	r5, r2, r5
	str	r2, [fp, #-68]
	mov	r1, r2
	bl	BsGet
	ldr	r2, [fp, #-68]
	and	r3, r5, #7
	add	r5, r2, r8
	str	r5, [r6, #32]
	mov	r8, r5
	orr	r0, r4, r0, asl r3
	str	r0, [r6, #28]
	mov	r4, r0
	b	.L1256
.L1259:
	add	r3, r7, r4
	mov	r8, #0
	mov	r2, #3
	str	r10, [fp, #-80]
	ldrb	r1, [r3, #24]	@ zero_extendqisi2
	mov	r10, r8
	mov	ip, #1
	mov	r9, r9, asl r1
	rsb	r5, r1, r5
	str	r9, [r6, #28]
	mov	r4, r4, asl r1
	mov	r8, r9
	str	r5, [r6, #32]
	str	r4, [r6, #36]
	mov	r9, r2
	b	.L1264
.L1262:
	mov	r2, r4, asl #24
	mov	r1, ip, asl r9
	cmp	r2, r0
	sub	r9, r9, #1
	rsbls	r0, r2, r0
	ldrls	lr, [r6, #36]
	movhi	r1, #0
	orr	r10, r10, r1
	rsbls	r4, r4, lr
	cmn	r9, #1
	add	r2, r7, r4
	ldrb	r2, [r2, #24]	@ zero_extendqisi2
	mov	r8, r0, asl r2
	rsb	r5, r2, r5
	mov	r4, r4, asl r2
	str	r8, [r6, #28]
	str	r5, [r6, #32]
	str	r4, [r6, #36]
	beq	.L1350
.L1264:
	sub	r4, r4, #1
	cmp	r5, #0
	ubfx	r4, r4, #1, #24
	mov	r0, r8
	add	r4, r4, #1
	bge	.L1262
	rsb	r1, r5, #24
	rsb	r2, r5, #16
	bic	r1, r1, #7
	mov	r0, r6
	rsb	r2, r1, r2
	str	ip, [fp, #-72]
	str	r2, [fp, #-68]
	add	r5, r1, r5
	bl	BsGet
	ldr	r2, [fp, #-68]
	ldr	ip, [fp, #-72]
	and	r2, r2, #7
	orr	r0, r8, r0, asl r2
	b	.L1262
.L1350:
	mov	r8, r10
	ldr	r10, [fp, #-80]
.L1265:
	ldr	r3, [fp, #-56]
	add	r8, r7, r8
	ldrb	r1, [r8, #280]	@ zero_extendqisi2
	ldrb	r2, [r3]	@ zero_extendqisi2
	sub	ip, r2, #1
	mov	r0, ip, asl #1
	cmp	r0, #255
	bgt	.L1282
	add	r3, r1, #1
	cmp	r3, r0
	bgt	.L1283
	tst	r3, #1
	addne	r3, r1, #2
	addeq	r3, r3, r3, lsr #31
	subne	r3, ip, r3, asr #1
	addeq	r3, ip, r3, asr #1
.L1283:
	add	r3, r3, #1
.L1285:
	ldr	r2, [fp, #-56]
	strb	r3, [r2]
	b	.L1294
.L1282:
	rsb	r2, r2, #255
	add	r3, r1, #1
	cmp	r3, r2, asl #1
	bgt	.L1286
	tst	r3, #1
	addne	r3, r1, #2
	addeq	r3, r3, r3, lsr #31
	subne	r3, r2, r3, asr #1
	addeq	r3, r2, r3, asr #1
.L1286:
	rsb	r3, r3, #255
	b	.L1285
.L1339:
	rsb	r3, r8, #24
	rsb	r9, r8, #16
	bic	r3, r3, #7
	mov	r0, r6
	rsb	r9, r3, r9
	str	r3, [fp, #-60]
	mov	r1, r3
	and	r9, r9, #7
	bl	BsGet
	ldr	r3, [fp, #-60]
	add	r8, r3, r8
	str	r8, [r6, #32]
	orr	r0, r4, r0, asl r9
	str	r0, [r6, #28]
	mov	r4, r0
	b	.L1222
.L1225:
	add	r3, r7, r4
	mov	r8, #0
	mov	r2, #3
	str	r10, [fp, #-68]
	ldrb	r1, [r3, #24]	@ zero_extendqisi2
	mov	r10, r8
	mov	ip, #1
	mov	r9, r9, asl r1
	rsb	r5, r1, r5
	str	r9, [r6, #28]
	mov	r4, r4, asl r1
	mov	r8, r9
	str	r5, [r6, #32]
	str	r4, [r6, #36]
	mov	r9, r2
	b	.L1230
.L1228:
	mov	r2, r4, asl #24
	mov	r1, ip, asl r9
	cmp	r2, r0
	sub	r9, r9, #1
	rsbls	r0, r2, r0
	ldrls	lr, [r6, #36]
	movhi	r1, #0
	orr	r10, r10, r1
	rsbls	r4, r4, lr
	cmn	r9, #1
	add	r2, r7, r4
	ldrb	r2, [r2, #24]	@ zero_extendqisi2
	mov	r8, r0, asl r2
	rsb	r5, r2, r5
	mov	r4, r4, asl r2
	str	r8, [r6, #28]
	str	r5, [r6, #32]
	str	r4, [r6, #36]
	beq	.L1351
.L1230:
	sub	r4, r4, #1
	cmp	r5, #0
	ubfx	r4, r4, #1, #24
	mov	r0, r8
	add	r4, r4, #1
	bge	.L1228
	rsb	r1, r5, #24
	rsb	r2, r5, #16
	bic	r1, r1, #7
	mov	r0, r6
	rsb	r2, r1, r2
	str	ip, [fp, #-64]
	str	r2, [fp, #-60]
	add	r5, r1, r5
	bl	BsGet
	ldr	r2, [fp, #-60]
	ldr	ip, [fp, #-64]
	and	r2, r2, #7
	orr	r0, r8, r0, asl r2
	b	.L1228
.L1351:
	mov	r8, r10
	ldr	r10, [fp, #-68]
.L1231:
	ldrb	r2, [r10]	@ zero_extendqisi2
	add	r8, r7, r8
	sub	ip, r2, #1
	ldrb	r1, [r8, #280]	@ zero_extendqisi2
	mov	r0, ip, asl #1
	cmp	r0, #255
	bgt	.L1248
	add	r3, r1, #1
	cmp	r3, r0
	bgt	.L1249
	tst	r3, #1
	addne	r3, r1, #2
	addeq	r3, r3, r3, lsr #31
	subne	r3, ip, r3, asr #1
	addeq	r3, ip, r3, asr #1
.L1249:
	add	r3, r3, #1
.L1251:
	add	r4, r6, #28
	strb	r3, [r10]
	ldmia	r4, {r4, r8, r9}
	b	.L1293
.L1248:
	rsb	r2, r2, #255
	add	r3, r1, #1
	cmp	r3, r2, asl #1
	bgt	.L1252
	tst	r3, #1
	addne	r3, r1, #2
	addeq	r3, r3, r3, lsr #31
	subne	r3, r2, r3, asr #1
	addeq	r3, r2, r3, asr #1
.L1252:
	rsb	r3, r3, #255
	b	.L1251
.L1266:
	add	r3, r7, r5
	mov	r8, #0
	mov	r2, #3
	str	r10, [fp, #-80]
	ldrb	r1, [r3, #24]	@ zero_extendqisi2
	mov	r10, r8
	mov	ip, #1
	mov	r9, r9, asl r1
	rsb	r4, r1, r4
	str	r9, [r6, #28]
	mov	r5, r5, asl r1
	mov	r8, r9
	str	r4, [r6, #32]
	str	r5, [r6, #36]
	mov	r9, r2
	b	.L1271
.L1269:
	mov	r2, r5, asl #24
	mov	r1, ip, asl r9
	cmp	r2, r0
	sub	r9, r9, #1
	rsbls	r0, r2, r0
	ldrls	lr, [r6, #36]
	movhi	r1, #0
	orr	r10, r10, r1
	rsbls	r5, r5, lr
	cmn	r9, #1
	add	r2, r7, r5
	ldrb	r2, [r2, #24]	@ zero_extendqisi2
	mov	r8, r0, asl r2
	rsb	r4, r2, r4
	mov	r5, r5, asl r2
	str	r8, [r6, #28]
	str	r4, [r6, #32]
	str	r5, [r6, #36]
	beq	.L1352
.L1271:
	sub	r5, r5, #1
	cmp	r4, #0
	ubfx	r5, r5, #1, #24
	mov	r0, r8
	add	r5, r5, #1
	bge	.L1269
	rsb	r1, r4, #24
	rsb	r2, r4, #16
	bic	r1, r1, #7
	mov	r0, r6
	rsb	r2, r1, r2
	str	ip, [fp, #-72]
	str	r2, [fp, #-68]
	add	r4, r1, r4
	bl	BsGet
	ldr	r2, [fp, #-68]
	ldr	ip, [fp, #-72]
	and	r2, r2, #7
	orr	r0, r8, r0, asl r2
	b	.L1269
.L1352:
	mov	r8, r10
	ldr	r10, [fp, #-80]
	add	r8, r8, #16
	b	.L1265
.L1348:
	mov	r3, r10
	cmp	r3, #64
	ldr	r10, [fp, #-80]
	bgt	.L1353
.L1279:
	add	r8, r3, #64
	b	.L1265
.L1232:
	add	r3, r7, r5
	mov	r8, #0
	mov	r2, #3
	str	r10, [fp, #-68]
	ldrb	r1, [r3, #24]	@ zero_extendqisi2
	mov	r10, r8
	mov	ip, #1
	mov	r9, r9, asl r1
	rsb	r4, r1, r4
	str	r9, [r6, #28]
	mov	r5, r5, asl r1
	mov	r8, r9
	str	r4, [r6, #32]
	str	r5, [r6, #36]
	mov	r9, r2
	b	.L1237
.L1235:
	mov	r2, r5, asl #24
	mov	r1, ip, asl r9
	cmp	r2, r0
	sub	r9, r9, #1
	rsbls	r0, r2, r0
	ldrls	lr, [r6, #36]
	movhi	r1, #0
	orr	r10, r10, r1
	rsbls	r5, r5, lr
	cmn	r9, #1
	add	r2, r7, r5
	ldrb	r2, [r2, #24]	@ zero_extendqisi2
	mov	r8, r0, asl r2
	rsb	r4, r2, r4
	mov	r5, r5, asl r2
	str	r8, [r6, #28]
	str	r4, [r6, #32]
	str	r5, [r6, #36]
	beq	.L1354
.L1237:
	sub	r5, r5, #1
	cmp	r4, #0
	ubfx	r5, r5, #1, #24
	mov	r0, r8
	add	r5, r5, #1
	bge	.L1235
	rsb	r1, r4, #24
	rsb	r2, r4, #16
	bic	r1, r1, #7
	mov	r0, r6
	rsb	r2, r1, r2
	str	ip, [fp, #-64]
	str	r2, [fp, #-60]
	add	r4, r1, r4
	bl	BsGet
	ldr	r2, [fp, #-60]
	ldr	ip, [fp, #-64]
	and	r2, r2, #7
	orr	r0, r8, r0, asl r2
	b	.L1235
.L1354:
	mov	r8, r10
	ldr	r10, [fp, #-68]
	add	r8, r8, #16
	b	.L1231
.L1343:
	mov	r2, r8
	mov	r8, r10
	cmp	r8, #64
	ldr	r10, [fp, #-68]
	bgt	.L1355
.L1245:
	add	r8, r8, #64
	b	.L1231
.L1272:
	add	r3, r7, r9
	mov	r8, #0
	mov	r2, #4
	str	r10, [fp, #-80]
	ldrb	r1, [r3, #24]	@ zero_extendqisi2
	mov	r10, r8
	mov	ip, #1
	mov	r3, r4, asl r1
	mov	r9, r9, asl r1
	rsb	r5, r1, r5
	str	r9, [r6, #36]
	mov	r4, r9
	str	r3, [r6, #28]
	str	r5, [r6, #32]
	mov	r8, r3
	mov	r9, r2
	b	.L1276
.L1274:
	mov	r2, r4, asl #24
	mov	r1, ip, asl r9
	cmp	r2, r0
	sub	r9, r9, #1
	rsbls	r0, r2, r0
	ldrls	lr, [r6, #36]
	movhi	r1, #0
	orr	r10, r10, r1
	rsbls	r4, r4, lr
	cmn	r9, #1
	add	r2, r7, r4
	ldrb	r2, [r2, #24]	@ zero_extendqisi2
	mov	r8, r0, asl r2
	rsb	r5, r2, r5
	mov	r4, r4, asl r2
	str	r8, [r6, #28]
	str	r5, [r6, #32]
	str	r4, [r6, #36]
	beq	.L1356
.L1276:
	sub	r4, r4, #1
	cmp	r5, #0
	ubfx	r4, r4, #1, #24
	mov	r0, r8
	add	r4, r4, #1
	bge	.L1274
	rsb	r1, r5, #24
	rsb	r2, r5, #16
	bic	r1, r1, #7
	mov	r0, r6
	rsb	r2, r1, r2
	str	ip, [fp, #-72]
	str	r2, [fp, #-68]
	add	r5, r1, r5
	bl	BsGet
	ldr	r2, [fp, #-68]
	ldr	ip, [fp, #-72]
	and	r2, r2, #7
	orr	r0, r8, r0, asl r2
	b	.L1274
.L1356:
	mov	r8, r10
	ldr	r10, [fp, #-80]
	add	r8, r8, #32
	b	.L1265
.L1345:
	rsb	r3, r5, #24
	rsb	r8, r5, #16
	bic	r3, r3, #7
	mov	r0, r6
	rsb	r8, r3, r8
	str	r3, [fp, #-68]
	mov	r1, r3
	bl	BsGet
	and	r2, r8, #7
	ldr	r3, [fp, #-68]
	add	r5, r5, r3
	str	r5, [r6, #32]
	orr	r0, r9, r0, asl r2
	str	r0, [r6, #28]
	mov	r9, r0
	b	.L1258
.L1219:
	add	r2, r7, r4
	ldrb	r2, [r2, #24]	@ zero_extendqisi2
	mov	r3, r3, asl r2
	rsb	r8, r2, r8
	mov	r4, r4, asl r2
	str	r3, [r6, #28]
	str	r8, [r6, #32]
	str	r4, [r6, #36]
	b	.L1292
.L1238:
	add	r3, r7, r5
	mov	r8, #0
	mov	ip, #4
	str	r10, [fp, #-68]
	ldrb	r1, [r3, #24]	@ zero_extendqisi2
	mov	r10, r8
	mov	r2, #1
	mov	r3, r4, asl r1
	rsb	r9, r1, r9
	mov	r4, r5, asl r1
	str	r3, [r6, #28]
	str	r9, [r6, #32]
	mov	r5, ip
	str	r4, [r6, #36]
	mov	r8, r3
	b	.L1242
.L1240:
	mov	r1, r4, asl #24
	mov	ip, r2, asl r5
	cmp	r1, r0
	sub	r5, r5, #1
	rsbls	r0, r1, r0
	ldrls	lr, [r6, #36]
	movhi	ip, #0
	orr	r10, r10, ip
	rsbls	r4, r4, lr
	cmn	r5, #1
	add	r1, r7, r4
	ldrb	r1, [r1, #24]	@ zero_extendqisi2
	mov	r8, r0, asl r1
	rsb	r9, r1, r9
	mov	r4, r4, asl r1
	str	r8, [r6, #28]
	str	r9, [r6, #32]
	str	r4, [r6, #36]
	beq	.L1357
.L1242:
	sub	r4, r4, #1
	cmp	r9, #0
	ubfx	r4, r4, #1, #24
	mov	r0, r8
	add	r4, r4, #1
	bge	.L1240
	rsb	r1, r9, #24
	rsb	ip, r9, #16
	bic	r1, r1, #7
	mov	r0, r6
	rsb	ip, r1, ip
	str	r2, [fp, #-64]
	str	ip, [fp, #-60]
	add	r9, r1, r9
	bl	BsGet
	ldr	ip, [fp, #-60]
	ldr	r2, [fp, #-64]
	and	ip, ip, #7
	orr	r0, r8, r0, asl ip
	b	.L1240
.L1357:
	mov	r8, r10
	ldr	r10, [fp, #-68]
	add	r8, r8, #32
	b	.L1231
.L1340:
	rsb	r3, r5, #24
	rsb	r8, r5, #16
	bic	r3, r3, #7
	mov	r0, r6
	rsb	r8, r3, r8
	str	r3, [fp, #-60]
	mov	r1, r3
	bl	BsGet
	and	r2, r8, #7
	ldr	r3, [fp, #-60]
	add	r5, r5, r3
	str	r5, [r6, #32]
	orr	r0, r9, r0, asl r2
	str	r0, [r6, #28]
	mov	r9, r0
	b	.L1224
.L1353:
	sub	r4, r4, #1
	cmp	r8, #0
	ubfx	r4, r4, #1, #24
	mov	r3, r3, asl #1
	add	r4, r4, #1
	sub	r5, r3, #65
	movge	r0, r9
	blt	.L1358
.L1280:
	mov	r3, r4, asl #24
	cmp	r3, r0
	rsbls	r0, r3, r0
	ldrls	r2, [r6, #36]
	movls	r3, #1
	movhi	r3, #0
	add	r3, r5, r3
	rsbls	r4, r4, r2
	add	r2, r7, r4
	ldrb	r1, [r2, #24]	@ zero_extendqisi2
	mov	r9, r0, asl r1
	rsb	r2, r1, r8
	mov	r4, r4, asl r1
	str	r9, [r6, #28]
	str	r2, [r6, #32]
	str	r4, [r6, #36]
	b	.L1279
.L1346:
	rsb	r2, r4, #24
	rsb	r8, r4, #16
	bic	r2, r2, #7
	mov	r0, r6
	rsb	r8, r2, r8
	str	r2, [fp, #-68]
	mov	r1, r2
	bl	BsGet
	and	r3, r8, #7
	ldr	r2, [fp, #-68]
	add	r4, r4, r2
	str	r4, [r6, #32]
	orr	r0, r9, r0, asl r3
	str	r0, [r6, #28]
	mov	r9, r0
	b	.L1261
.L1289:
	ldr	r1, [fp, #-76]
	mov	r0, r6
	ldr	r2, [fp, #12]
	bl	Vp9_ReadMvProbs
	b	.L1215
.L1355:
	sub	r4, r4, #1
	cmp	r9, #0
	ubfx	r4, r4, #1, #24
	mov	r8, r8, asl #1
	add	r4, r4, #1
	sub	r5, r8, #65
	movge	r0, r2
	blt	.L1359
.L1246:
	mov	r3, r4, asl #24
	cmp	r3, r0
	rsbls	r0, r3, r0
	ldrls	r1, [r6, #36]
	movls	r8, #1
	movhi	r8, #0
	add	r8, r5, r8
	rsbls	r4, r4, r1
	add	r3, r7, r4
	ldrb	r3, [r3, #24]	@ zero_extendqisi2
	mov	r2, r0, asl r3
	rsb	r9, r3, r9
	mov	r4, r4, asl r3
	str	r2, [r6, #28]
	str	r9, [r6, #32]
	str	r4, [r6, #36]
	b	.L1245
.L1361:
	.align	2
.L1360:
	.word	.LANCHOR0
.L1341:
	rsb	r2, r4, #24
	rsb	r8, r4, #16
	bic	r2, r2, #7
	mov	r0, r6
	rsb	r8, r2, r8
	str	r2, [fp, #-60]
	mov	r1, r2
	bl	BsGet
	and	r3, r8, #7
	ldr	r2, [fp, #-60]
	add	r4, r4, r2
	str	r4, [r6, #32]
	orr	r0, r9, r0, asl r3
	str	r0, [r6, #28]
	mov	r9, r0
	b	.L1227
.L1347:
	rsb	r2, r5, #24
	rsb	r8, r5, #16
	bic	r2, r2, #7
	mov	r0, r6
	rsb	r8, r2, r8
	str	r2, [fp, #-68]
	mov	r1, r2
	bl	BsGet
	ldr	r2, [fp, #-68]
	and	r3, r8, #7
	add	r8, r5, r2
	str	r8, [r6, #32]
	mov	r5, r8
	orr	r0, r4, r0, asl r3
	str	r0, [r6, #28]
	mov	r4, r0
	b	.L1268
.L1217:
	rsb	r2, r8, #24
	rsb	r3, r8, #16
	bic	r2, r2, #7
	mov	r0, r6
	rsb	r3, r2, r3
	ldr	r9, [r6, #28]
	mov	r1, r2
	str	r3, [fp, #-60]
	str	r2, [fp, #-56]
	bl	BsGet
	ldr	r3, [fp, #-60]
	ldr	r2, [fp, #-56]
	and	r3, r3, #7
	add	r8, r8, r2
	str	r8, [r6, #32]
	orr	r0, r9, r0, asl r3
	str	r0, [r6, #28]
	mov	r3, r0
	b	.L1218
.L1342:
	rsb	r2, r9, #24
	rsb	r8, r9, #16
	bic	r2, r2, #7
	mov	r0, r6
	rsb	r8, r2, r8
	str	r2, [fp, #-60]
	mov	r1, r2
	bl	BsGet
	and	r3, r8, #7
	ldr	r2, [fp, #-60]
	add	r9, r9, r2
	str	r9, [r6, #32]
	orr	r0, r4, r0, asl r3
	str	r0, [r6, #28]
	mov	r4, r0
	b	.L1234
.L1358:
	rsb	r1, r8, #24
	rsb	r3, r8, #16
	bic	r1, r1, #7
	mov	r0, r6
	rsb	r3, r1, r3
	add	r8, r1, r8
	str	r3, [fp, #-68]
	bl	BsGet
	ldr	r3, [fp, #-68]
	and	r3, r3, #7
	orr	r0, r9, r0, asl r3
	b	.L1280
.L1338:
	mov	r1, r6
	ldr	r0, [fp, #-72]
	bl	Vp9_ReadSwitchableInterpProbs
	b	.L1216
.L1359:
	rsb	r1, r9, #24
	rsb	r8, r9, #16
	bic	r1, r1, #7
	mov	r0, r6
	str	r2, [fp, #-60]
	rsb	r8, r1, r8
	add	r9, r1, r9
	bl	BsGet
	ldr	r2, [fp, #-60]
	and	r8, r8, #7
	orr	r0, r2, r0, asl r8
	b	.L1246
	UNWIND(.fnend)
	.size	Vp9_PrepareReadModeInfo, .-Vp9_PrepareReadModeInfo
	.global	__aeabi_idiv
	.align	2
	.global	Vp9_AdaptCoefProbs
	.type	Vp9_AdaptCoefProbs, %function
Vp9_AdaptCoefProbs:
	UNWIND(.fnstart)
	@ args = 8, pretend = 0, frame = 72
	@ frame_needed = 1, uses_anonymous_args = 0
	UNWIND(.movsp ip)
	mov	ip, sp
	stmfd	sp!, {r4, r5, r6, r7, r8, r9, r10, fp, ip, lr, pc}
	UNWIND(.pad #4)
	UNWIND(.save {r4, r5, r6, r7, r8, r9, r10, fp, ip, lr})
	UNWIND(.setfp fp, ip, #-4)
	sub	fp, ip, #4
	UNWIND(.pad #76)
	sub	sp, sp, #76
	mov	lr, #432
	mul	lr, lr, r3
	mov	ip, r3, asl #9
	add	ip, ip, r3, lsl #6
	ldr	r9, [fp, #4]
	mov	r4, r3, asl #11
	add	ip, ip, #9216
	add	r3, r4, r3, lsl #8
	add	ip, ip, #8
	add	r0, r0, lr
	add	r3, r2, r3
	str	r0, [fp, #-92]
	add	r0, r2, ip
	str	r3, [fp, #-116]
	add	r3, r1, lr
	str	r0, [fp, #-112]
	str	r3, [fp, #-96]
	mov	r3, #0
	str	r3, [fp, #-84]
.L1363:
	ldr	r3, [fp, #-112]
	str	r3, [fp, #-100]
	ldr	r3, [fp, #-116]
	str	r3, [fp, #-108]
	mov	r3, #0
	str	r3, [fp, #-104]
.L1374:
	mov	r3, #0
	str	r3, [fp, #-72]
	str	r3, [fp, #-64]
	ldr	r3, [fp, #-108]
	ldr	r2, [fp, #-100]
	str	r3, [fp, #-76]
	ldr	r3, [fp, #-104]
	str	r2, [fp, #-80]
	add	r3, r3, #2
	str	r3, [fp, #-88]
.L1372:
	ldr	r2, [fp, #-72]
	ldr	r3, [fp, #-88]
	ldr	r7, [fp, #-76]
	add	r3, r3, r2
	ldr	r2, [fp, #-80]
	str	r2, [fp, #-56]
	ldr	r2, [fp, #-84]
	add	r3, r3, r2
	ldr	r2, [fp, #-92]
	add	r10, r2, r3
	ldr	r2, [fp, #-96]
	str	r10, [fp, #-48]
	add	r8, r2, r3
	mov	r3, #0
	str	r3, [fp, #-52]
	b	.L1370
.L1368:
	ldr	r2, [fp, #-56]
	ldr	r4, [r7, #8]
	ldr	r6, [r7]
	ldr	r3, [r2, #4]!
	ldrb	r10, [r8, #-2]	@ zero_extendqisi2
	subs	r1, r3, #0
	str	r2, [fp, #-56]
	ldr	r2, [r7, #4]
	moveq	r5, #128
	add	r4, r2, r4
	str	r2, [fp, #-60]
	ldr	r2, [r7, #12]
	beq	.L1364
	mov	r0, r1, asr #1
	str	r3, [fp, #-68]
	add	r0, r0, r2, lsl #8
	bl	__aeabi_idiv
	ldr	r3, [fp, #-68]
	cmp	r0, #1
	movlt	r0, #1
	cmp	r0, #255
	movge	r0, #255
	uxtb	r5, r0
.L1364:
	cmp	r9, r3
	mov	r1, r9
	movcs	r0, r3
	ldr	r3, [fp, #8]
	movcc	r0, r9
	mul	r0, r3, r0
	bl	__aeabi_uidiv
	adds	r3, r4, r6
	moveq	r6, #128
	rsb	r2, r0, #256
	mul	r10, r2, r10
	ldr	r2, [fp, #-48]
	add	r10, r10, #128
	mla	r10, r0, r5, r10
	mov	r10, r10, lsr #8
	strb	r10, [r2, #-2]
	ldrb	r5, [r8, #-1]	@ zero_extendqisi2
	beq	.L1365
	mov	r0, r3, asr #1
	mov	r1, r3
	add	r0, r0, r6, lsl #8
	str	r3, [fp, #-68]
	bl	__aeabi_idiv
	ldr	r3, [fp, #-68]
	cmp	r0, #1
	movlt	r0, #1
	cmp	r0, #255
	movge	r0, #255
	uxtb	r6, r0
.L1365:
	cmp	r3, r9
	mov	r1, r9
	movcc	r0, r3
	ldr	r3, [fp, #8]
	movcs	r0, r9
	mul	r0, r3, r0
	bl	__aeabi_uidiv
	cmp	r4, #0
	rsb	r3, r0, #256
	mul	r5, r5, r3
	ldr	r3, [fp, #-48]
	add	r5, r5, #128
	mla	r6, r0, r6, r5
	mov	r6, r6, lsr #8
	strb	r6, [r3, #-1]
	moveq	r6, #128
	ldrb	r5, [r8]	@ zero_extendqisi2
	beq	.L1366
	ldr	r3, [fp, #-60]
	mov	r0, r4, asr #1
	mov	r1, r4
	add	r0, r0, r3, lsl #8
	bl	__aeabi_idiv
	cmp	r0, #1
	movlt	r0, #1
	cmp	r0, #255
	movge	r0, #255
	uxtb	r6, r0
.L1366:
	ldr	r3, [fp, #-52]
	cmp	r4, r9
	mov	r1, r9
	add	r8, r8, #3
	add	r3, r3, #1
	str	r3, [fp, #-52]
	ldr	r3, [fp, #8]
	movcc	r0, r4
	movcs	r0, r9
	add	r7, r7, #16
	mul	r0, r3, r0
	bl	__aeabi_uidiv
	rsb	r3, r0, #256
	mul	r5, r5, r3
	ldr	r3, [fp, #-48]
	add	r5, r5, #128
	mla	r6, r0, r6, r5
	ubfx	r6, r6, #8, #8
	strb	r6, [r3], #3
	str	r3, [fp, #-48]
.L1370:
	ldr	r3, [fp, #-64]
	ldr	r2, [fp, #-52]
	cmp	r3, #0
	moveq	r3, #3
	movne	r3, #6
	cmp	r2, r3
	blt	.L1368
	ldr	r3, [fp, #-64]
	ldr	r2, [fp, #-72]
	add	r3, r3, #1
	str	r3, [fp, #-64]
	cmp	r3, #6
	ldr	r3, [fp, #-76]
	add	r2, r2, #18
	str	r2, [fp, #-72]
	add	r3, r3, #96
	str	r3, [fp, #-76]
	ldr	r3, [fp, #-80]
	add	r3, r3, #24
	str	r3, [fp, #-80]
	bne	.L1372
	ldr	r3, [fp, #-104]
	ldr	r2, [fp, #-108]
	add	r3, r3, #108
	str	r3, [fp, #-104]
	cmp	r3, #216
	ldr	r3, [fp, #-100]
	add	r2, r2, #576
	str	r2, [fp, #-108]
	add	r3, r3, #144
	str	r3, [fp, #-100]
	bne	.L1374
	ldr	r3, [fp, #-84]
	ldr	r2, [fp, #-116]
	add	r3, r3, #216
	str	r3, [fp, #-84]
	cmp	r3, #432
	ldr	r3, [fp, #-112]
	add	r2, r2, #1152
	str	r2, [fp, #-116]
	add	r3, r3, #288
	str	r3, [fp, #-112]
	bne	.L1363
	sub	sp, fp, #40
	ldmfd	sp, {r4, r5, r6, r7, r8, r9, r10, fp, sp, pc}
	UNWIND(.fnend)
	.size	Vp9_AdaptCoefProbs, .-Vp9_AdaptCoefProbs
	.align	2
	.global	Vp9_AdaptResidualProbs
	.type	Vp9_AdaptResidualProbs, %function
Vp9_AdaptResidualProbs:
	UNWIND(.fnstart)
	@ args = 12, pretend = 0, frame = 0
	@ frame_needed = 1, uses_anonymous_args = 0
	UNWIND(.movsp ip)
	mov	ip, sp
	stmfd	sp!, {r4, r5, r6, r7, r8, r9, fp, ip, lr, pc}
	UNWIND(.pad #4)
	UNWIND(.save {r4, r5, r6, r7, r8, r9, fp, ip, lr})
	UNWIND(.setfp fp, ip, #-4)
	sub	fp, ip, #4
	UNWIND(.pad #8)
	sub	sp, sp, #8
	ldr	r5, [fp, #12]
	ldr	ip, [fp, #8]
	mov	r7, r0
	clz	r3, r5
	ldr	r5, [fp, #4]
	adds	ip, ip, #0
	mov	r6, r1
	mov	r3, r3, lsr #5
	mov	r8, r2
	movne	ip, #1
	cmp	r5, #0
	orreq	ip, ip, #1
	cmp	r3, ip
	mov	r4, #0
	mov	r9, #24
	movhi	r5, #128
	movls	r5, #112
.L1381:
	mov	r3, r4
	str	r5, [sp, #4]
	str	r9, [sp]
	add	r4, r4, #1
	mov	r2, r8
	mov	r1, r6
	mov	r0, r7
	bl	Vp9_AdaptCoefProbs
	cmp	r4, #4
	bne	.L1381
	sub	sp, fp, #36
	ldmfd	sp, {r4, r5, r6, r7, r8, r9, fp, sp, pc}
	UNWIND(.fnend)
	.size	Vp9_AdaptResidualProbs, .-Vp9_AdaptResidualProbs
	.align	2
	.global	Vp9_AdaptProbs
	.type	Vp9_AdaptProbs, %function
Vp9_AdaptProbs:
	UNWIND(.fnstart)
	@ args = 4, pretend = 0, frame = 8
	@ frame_needed = 1, uses_anonymous_args = 0
	UNWIND(.movsp ip)
	mov	ip, sp
	stmfd	sp!, {r4, r5, r6, r7, r8, r9, fp, ip, lr, pc}
	UNWIND(.pad #4)
	UNWIND(.save {r4, r5, r6, r7, r8, r9, fp, ip, lr})
	UNWIND(.setfp fp, ip, #-4)
	sub	fp, ip, #4
	UNWIND(.pad #16)
	sub	sp, sp, #16
	mov	r4, r0
	ldrsb	r0, [r1, r0]
	mov	r5, r1
	mov	r7, r2
	mov	r8, r3
	cmp	r0, #0
	ldr	r6, [fp, #4]
	ble	.L1389
	str	r6, [sp]
	bl	Vp9_AdaptProbs
	add	r3, r5, r4
	mov	r9, r0
	ldrsb	r0, [r3, #1]
	cmp	r0, #0
	ble	.L1390
.L1387:
	mov	r1, r5
	str	r6, [sp]
	mov	r3, r8
	mov	r2, r7
	bl	Vp9_AdaptProbs
	mov	r5, r0
.L1388:
	ldrb	r0, [r8, r4, lsr #1]	@ zero_extendqisi2
	sub	r1, fp, #44
	str	r9, [fp, #-44]
	str	r5, [fp, #-40]
	bl	Vp9_ModeMvMergeProbs
	strb	r0, [r7, r4, lsr #1]
	add	r0, r5, r9
	sub	sp, fp, #36
	ldmfd	sp, {r4, r5, r6, r7, r8, r9, fp, sp, pc}
.L1389:
	mov	r0, r0, asl #2
	add	r3, r5, r4
	rsb	r0, r0, #0
	ldr	r9, [r6, r0]
	ldrsb	r0, [r3, #1]
	cmp	r0, #0
	bgt	.L1387
.L1390:
	mov	r0, r0, asl #2
	rsb	r0, r0, #0
	ldr	r5, [r6, r0]
	b	.L1388
	UNWIND(.fnend)
	.size	Vp9_AdaptProbs, .-Vp9_AdaptProbs
	.align	2
	.global	Vp9_AdaptModeProbs
	.type	Vp9_AdaptModeProbs, %function
Vp9_AdaptModeProbs:
	UNWIND(.fnstart)
	@ args = 4, pretend = 0, frame = 80
	@ frame_needed = 1, uses_anonymous_args = 0
	UNWIND(.movsp ip)
	mov	ip, sp
	stmfd	sp!, {r4, r5, r6, r7, r8, r9, r10, fp, ip, lr, pc}
	UNWIND(.pad #4)
	UNWIND(.save {r4, r5, r6, r7, r8, r9, r10, fp, ip, lr})
	UNWIND(.setfp fp, ip, #-4)
	sub	fp, ip, #4
	UNWIND(.pad #92)
	sub	sp, sp, #92
	add	r10, r0, #1968
	add	r8, r1, #1968
	add	r4, r2, #8192
	add	r8, r8, #10
	add	r10, r10, #10
	mov	r6, r0
	mov	r7, r1
	mov	r9, r3
	mov	r5, #0
.L1392:
	ldr	r1, [r4, #3348]
	ldrb	r0, [r8, #1]!	@ zero_extendqisi2
	add	r1, r1, r5, lsl #3
	add	r5, r5, #1
	bl	Vp9_ModeMvMergeProbs
	cmp	r5, #4
	strb	r0, [r10, #1]!
	bne	.L1392
	add	r8, r7, #1968
	add	r10, r6, #1968
	add	r8, r8, #14
	add	r10, r10, #14
	mov	r5, #0
.L1393:
	ldr	r1, [r4, #3352]
	ldrb	r0, [r8, #1]!	@ zero_extendqisi2
	add	r1, r1, r5, lsl #3
	add	r5, r5, #1
	bl	Vp9_ModeMvMergeProbs
	cmp	r5, #5
	strb	r0, [r10, #1]!
	bne	.L1393
	add	r8, r7, #1984
	add	r10, r6, #1984
	add	r8, r8, #13
	add	r10, r10, #13
	mov	r5, #0
.L1394:
	ldr	r1, [r4, #3360]
	ldrb	r0, [r8, #1]!	@ zero_extendqisi2
	add	r1, r1, r5, lsl #3
	add	r5, r5, #1
	bl	Vp9_ModeMvMergeProbs
	cmp	r5, #5
	strb	r0, [r10, #1]!
	bne	.L1394
	mov	r10, r6
	mov	r8, r7
	mov	r5, #8
	str	r7, [fp, #-100]
	str	r6, [fp, #-96]
.L1395:
	ldr	r1, [r4, #3356]
	sub	r3, r5, #8
	ldrb	r0, [r8, #1988]	@ zero_extendqisi2
	add	r10, r10, #2
	add	r1, r1, r3
	add	r8, r8, #2
	bl	Vp9_ModeMvMergeProbs
	strb	r0, [r10, #1986]
	ldr	r1, [r4, #3356]
	ldrb	r0, [r8, #1987]	@ zero_extendqisi2
	add	r1, r1, r5
	add	r5, r5, #16
	bl	Vp9_ModeMvMergeProbs
	cmp	r5, #88
	strb	r0, [r10, #1987]
	bne	.L1395
	mov	r8, #0
	mov	r5, r8
.L1396:
	ldr	r0, [r4, #3344]
	add	r2, r8, #1952
	add	r2, r2, #6
	ldr	r1, .L1436
	add	r0, r0, r5
	add	r3, r7, r2
	str	r0, [sp]
	add	r2, r6, r2
	add	r5, r5, #16
	mov	r0, #0
	bl	Vp9_AdaptProbs
	cmp	r5, #112
	add	r8, r8, #3
	bne	.L1396
	mov	r8, #0
	mov	r5, r8
.L1397:
	ldr	r0, [r4, #1024]
	add	r2, r8, #1728
	add	r3, r7, r2
	ldr	r1, .L1436+4
	add	r0, r0, r5
	add	r2, r6, r2
	str	r0, [sp]
	add	r5, r5, #40
	mov	r0, #0
	add	r8, r8, #9
	bl	Vp9_AdaptProbs
	cmp	r5, #160
	bne	.L1397
	mov	r8, #0
	mov	r5, r8
.L1398:
	ldr	r0, [r4, #1028]
	add	r2, r8, #1760
	add	r2, r2, #4
	ldr	r1, .L1436+4
	add	r0, r0, r5
	add	r3, r7, r2
	str	r0, [sp]
	add	r2, r6, r2
	add	r5, r5, #40
	mov	r0, #0
	bl	Vp9_AdaptProbs
	cmp	r5, #400
	add	r8, r8, #9
	bne	.L1398
	mov	r8, #0
	mov	r5, r8
.L1399:
	ldr	r0, [r4, #1032]
	add	r2, r8, #1888
	add	r2, r2, #14
	ldr	r1, .L1436+8
	add	r0, r0, r5
	add	r3, r7, r2
	str	r0, [sp]
	add	r2, r6, r2
	add	r5, r5, #16
	mov	r0, #0
	bl	Vp9_AdaptProbs
	cmp	r5, #256
	add	r8, r8, #3
	bne	.L1399
	cmp	r9, #4
	beq	.L1434
	ldr	r3, [fp, #4]
	cmp	r3, #4
	beq	.L1435
.L1410:
	add	r7, r7, #2000
	add	r6, r6, #2000
	add	r7, r7, #14
	add	r6, r6, #14
	mov	r5, #0
.L1406:
	ldr	r1, [r4, #3376]
	ldrb	r0, [r7, #1]!	@ zero_extendqisi2
	add	r1, r1, r5, lsl #3
	add	r5, r5, #1
	bl	Vp9_ModeMvMergeProbs
	cmp	r5, #3
	strb	r0, [r6, #1]!
	bne	.L1406
	sub	sp, fp, #40
	ldmfd	sp, {r4, r5, r6, r7, r8, r9, r10, fp, sp, pc}
.L1434:
	mov	r9, #0
	mov	r5, r9
.L1401:
	ldr	ip, [r4, #3340]
	add	r2, r9, #1936
	add	r2, r2, #14
	ldr	r1, .L1436+12
	add	ip, ip, r5
	add	r3, r7, r2
	mov	r0, #0
	add	r2, r6, r2
	str	ip, [sp]
	add	r5, r5, #12
	bl	Vp9_AdaptProbs
	cmp	r5, #48
	add	r9, r9, #2
	bne	.L1401
	ldr	r3, [fp, #4]
	cmp	r3, #4
	bne	.L1410
.L1435:
	mov	r8, #0
	add	r3, r7, #2000
	add	r2, r6, #2000
	str	r6, [fp, #-120]
	str	r7, [fp, #-124]
	mov	r7, r8
	ldr	r6, [fp, #-96]
	mov	r1, r3
	ldr	r8, [fp, #-100]
	add	r3, r3, #12
	str	r3, [fp, #-116]
	add	r3, r2, #12
	str	r3, [fp, #-112]
	add	r3, r1, #2
	str	r3, [fp, #-108]
	add	r3, r2, #2
	str	r3, [fp, #-104]
.L1405:
	ldr	r3, [fp, #-116]
	sub	r1, fp, #92
	ldr	ip, [r4, #3372]
	mov	r5, r7, asl #4
	ldr	r10, [fp, #-104]
	ldrb	r0, [r3, #1]!	@ zero_extendqisi2
	ldr	r9, [fp, #-108]
	str	r3, [fp, #-116]
	ldr	r3, [ip, r7, asl #3]
	add	ip, ip, r7, lsl #3
	str	r3, [fp, #-92]
	ldr	r3, [ip, #4]
	str	r3, [fp, #-88]
	bl	Vp9_ModeMvMergeProbs
	ldr	r3, [fp, #-112]
	sub	ip, r5, r7, asl #2
	sub	r1, fp, #84
	str	r5, [fp, #-96]
	mov	r5, #0
	strb	r0, [r3, #1]!
	ldr	r0, [r4, #3368]
	str	r3, [fp, #-112]
	ldr	lr, [r0, ip]
	add	r0, r0, ip
	str	lr, [fp, #-84]
	ldmib	r0, {ip, lr}
	add	ip, ip, lr
	str	ip, [fp, #-80]
	ldr	ip, [r0, #4]
	str	ip, [fp, #-76]
	ldr	ip, [r0, #8]
	ldrb	r0, [r8, #2009]	@ zero_extendqisi2
	str	ip, [fp, #-72]
	bl	Vp9_ModeMvMergeProbs
	sub	r1, fp, #76
	strb	r0, [r6, #2009]
	ldrb	r0, [r8, #2010]	@ zero_extendqisi2
	bl	Vp9_ModeMvMergeProbs
	ldr	r3, [fp, #-96]
	strb	r0, [r6, #2010]
	ldr	r1, [r4, #3364]
	add	r3, r1, r3
	ldr	r1, [r1, r7, asl #4]
	str	r1, [fp, #-68]
	ldmib	r3, {r0, r1}
	add	r1, r1, r0
	ldr	r0, [r3, #12]
	add	r1, r1, r0
	str	r1, [fp, #-64]
	ldr	r1, [r3, #4]
	str	r1, [fp, #-60]
	ldr	r1, [r3, #8]
	add	r1, r1, r0
	str	r1, [fp, #-56]
	ldr	r1, [r3, #8]
	str	r1, [fp, #-52]
	ldr	r3, [r3, #12]
	str	r3, [fp, #-48]
.L1404:
	sub	r3, fp, #68
	ldrb	r0, [r9, #1]!	@ zero_extendqisi2
	add	r1, r3, r5
	add	r5, r5, #8
	bl	Vp9_ModeMvMergeProbs
	cmp	r5, #24
	strb	r0, [r10, #1]!
	bne	.L1404
	ldr	r3, [fp, #-108]
	add	r7, r7, #1
	cmp	r7, #2
	add	r8, r8, #2
	add	r3, r3, #3
	str	r3, [fp, #-108]
	ldr	r3, [fp, #-104]
	add	r6, r6, #2
	add	r3, r3, #3
	str	r3, [fp, #-104]
	bne	.L1405
	ldr	r6, [fp, #-120]
	ldr	r7, [fp, #-124]
	b	.L1410
.L1437:
	.align	2
.L1436:
	.word	.LANCHOR0+536
	.word	.LANCHOR0+544
	.word	.LANCHOR0+564
	.word	.LANCHOR0+572
	UNWIND(.fnend)
	.size	Vp9_AdaptModeProbs, .-Vp9_AdaptModeProbs
	.align	2
	.global	Vp9_AdaptMvProbs
	.type	Vp9_AdaptMvProbs, %function
Vp9_AdaptMvProbs:
	UNWIND(.fnstart)
	@ args = 0, pretend = 0, frame = 64
	@ frame_needed = 1, uses_anonymous_args = 0
	UNWIND(.movsp ip)
	mov	ip, sp
	stmfd	sp!, {r4, r5, r6, r7, r8, r9, r10, fp, ip, lr, pc}
	UNWIND(.pad #4)
	UNWIND(.save {r4, r5, r6, r7, r8, r9, r10, fp, ip, lr})
	UNWIND(.setfp fp, ip, #-4)
	sub	fp, ip, #4
	UNWIND(.pad #76)
	sub	sp, sp, #76
	mov	r7, r0
	mov	r8, r1
	mov	r4, r2
	str	r2, [fp, #-100]
	sub	r0, fp, #88
	mov	r2, #6
	ldr	r1, .L1447
	str	r3, [fp, #-104]
	bl	memcpy
	mov	r2, #20
	ldr	r1, .L1447+4
	sub	r0, fp, #64
	bl	memcpy
	mov	r2, #6
	ldr	r1, .L1447
	sub	r0, fp, #80
	bl	memcpy
	add	r1, r4, #8192
	add	r3, r8, #2016
	add	r2, r7, #2016
	ldr	ip, [r1, #3380]
	add	r3, r3, #2
	sub	r1, fp, #88
	add	r2, r2, #2
	mov	r0, #0
	str	ip, [sp]
	bl	Vp9_AdaptProbs
	mov	r3, #0
	str	r3, [fp, #-96]
.L1441:
	ldr	r2, [fp, #-96]
	mov	r4, #0
	ldr	r3, [fp, #-100]
	mov	r6, r8
	ldrb	r0, [r8, #2021]	@ zero_extendqisi2
	mov	r5, r7
	add	r9, r3, r2, lsl #5
	add	r3, r9, #11520
	add	r10, r9, #11584
	add	r10, r10, #4
	ldr	r1, [r3, #56]
	bl	Vp9_ModeMvMergeProbs
	add	lr, r9, #11520
	add	lr, lr, #60
	add	r3, r8, #2016
	add	r2, r7, #2016
	add	r3, r3, #6
	add	r2, r2, #6
	sub	r1, fp, #64
	strb	r0, [r7, #2021]
	mov	r0, r4
	ldr	lr, [lr]
	str	lr, [sp]
	bl	Vp9_AdaptProbs
	add	r3, r9, #11584
	ldrb	r0, [r6, #2032]!	@ zero_extendqisi2
	sub	r1, fp, #72
	ldr	r3, [r3]
	ldmia	r3, {r2, r3}
	str	r2, [fp, #-72]
	str	r3, [fp, #-68]
	bl	Vp9_ModeMvMergeProbs
	strb	r0, [r5, #2032]!
.L1439:
	ldr	r1, [r10]
	ldrb	r0, [r6, #1]!	@ zero_extendqisi2
	add	r1, r1, r4, lsl #3
	add	r4, r4, #1
	bl	Vp9_ModeMvMergeProbs
	cmp	r4, #10
	strb	r0, [r5, #1]!
	bne	.L1439
	add	r4, r9, #11584
	add	r3, r8, #2032
	add	r2, r7, #2032
	add	r3, r3, #11
	ldr	ip, [r4, #8]
	add	r2, r2, #11
	sub	r1, fp, #80
	mov	r0, #0
	str	ip, [sp]
	bl	Vp9_AdaptProbs
	ldr	r1, [r4, #8]
	add	r3, r8, #2032
	add	r2, r7, #2032
	add	r1, r1, #16
	add	r3, r3, #14
	str	r1, [sp]
	add	r2, r2, #14
	sub	r1, fp, #80
	mov	r0, #0
	bl	Vp9_AdaptProbs
	add	r1, r9, #11584
	add	r3, r8, #2048
	add	r2, r7, #2048
	ldr	ip, [r1, #12]
	add	r3, r3, #1
	add	r2, r2, #1
	sub	r1, fp, #80
	mov	r0, #0
	str	ip, [sp]
	bl	Vp9_AdaptProbs
	ldr	r3, [fp, #-104]
	cmp	r3, #0
	beq	.L1440
	add	r3, r9, #11584
	ldrb	r0, [r8, #2052]	@ zero_extendqisi2
	add	r9, r9, #11584
	ldr	r1, [r3, #16]
	bl	Vp9_ModeMvMergeProbs
	strb	r0, [r7, #2052]
	ldr	r1, [r9, #20]
	ldrb	r0, [r8, #2053]	@ zero_extendqisi2
	bl	Vp9_ModeMvMergeProbs
	strb	r0, [r7, #2053]
.L1440:
	ldr	r3, [fp, #-96]
	add	r8, r8, #33
	add	r7, r7, #33
	add	r3, r3, #1
	str	r3, [fp, #-96]
	cmp	r3, #2
	bne	.L1441
	sub	sp, fp, #40
	ldmfd	sp, {r4, r5, r6, r7, r8, r9, r10, fp, sp, pc}
.L1448:
	.align	2
.L1447:
	.word	.LANCHOR0+576
	.word	.LANCHOR0+584
	UNWIND(.fnend)
	.size	Vp9_AdaptMvProbs, .-Vp9_AdaptMvProbs
	.align	2
	.global	Lf_Init_Lut
	.type	Lf_Init_Lut, %function
Lf_Init_Lut:
	UNWIND(.fnstart)
	@ args = 0, pretend = 0, frame = 0
	@ frame_needed = 1, uses_anonymous_args = 0
	UNWIND(.movsp ip)
	mov	ip, sp
	stmfd	sp!, {fp, ip, lr, pc}
	UNWIND(.pad #4)
	UNWIND(.save {fp, ip, lr})
	UNWIND(.setfp fp, ip, #-4)
	sub	fp, ip, #4
	mov	r3, #0
	mov	r2, #1
	strb	r3, [r0, #64]
	strb	r3, [r0, #67]
	strb	r3, [r0, #68]
	strb	r3, [r0, #69]
	strb	r3, [r0, #70]
	strb	r3, [r0, #71]
	strb	r3, [r0, #72]
	strb	r3, [r0, #65]
	strb	r3, [r0, #66]
	strb	r3, [r0, #73]
	strb	r3, [r0, #76]
	strb	r2, [r0, #74]
	strb	r2, [r0, #75]
	strb	r2, [r0, #77]
	ldmfd	sp, {fp, sp, pc}
	UNWIND(.fnend)
	.size	Lf_Init_Lut, .-Lf_Init_Lut
	.align	2
	.global	VP9_Loop_Filter_Init
	.type	VP9_Loop_Filter_Init, %function
VP9_Loop_Filter_Init:
	UNWIND(.fnstart)
	@ args = 0, pretend = 0, frame = 0
	@ frame_needed = 1, uses_anonymous_args = 0
	UNWIND(.movsp ip)
	mov	ip, sp
	stmfd	sp!, {fp, ip, lr, pc}
	UNWIND(.pad #4)
	UNWIND(.save {fp, ip, lr})
	UNWIND(.setfp fp, ip, #-4)
	sub	fp, ip, #4
	mov	r3, #0
	mov	r2, #1
	strb	r3, [r1, #64]
	strb	r3, [r1, #67]
	strb	r3, [r1, #68]
	strb	r3, [r1, #69]
	strb	r3, [r1, #70]
	strb	r3, [r1, #71]
	strb	r3, [r1, #72]
	strb	r3, [r1, #65]
	strb	r3, [r1, #66]
	strb	r3, [r1, #73]
	strb	r3, [r1, #76]
	strb	r2, [r1, #74]
	strb	r2, [r1, #75]
	strb	r2, [r1, #77]
	ldmfd	sp, {fp, sp, pc}
	UNWIND(.fnend)
	.size	VP9_Loop_Filter_Init, .-VP9_Loop_Filter_Init
	.align	2
	.global	VP9_InitDecPara
	.type	VP9_InitDecPara, %function
VP9_InitDecPara:
	UNWIND(.fnstart)
	@ args = 0, pretend = 0, frame = 0
	@ frame_needed = 1, uses_anonymous_args = 0
	UNWIND(.movsp ip)
	mov	ip, sp
	stmfd	sp!, {r4, r5, r6, r7, fp, ip, lr, pc}
	UNWIND(.pad #4)
	UNWIND(.save {r4, r5, r6, r7, fp, ip, lr})
	UNWIND(.setfp fp, ip, #-4)
	sub	fp, ip, #4
	ldr	r7, .L1452
	movw	r6, #6196
	movt	r6, 4
	add	r6, r0, r6
	mov	r5, r0
	add	r4, r5, #266240
	add	r5, r5, #270336
	movw	r2, #2860
	mov	r1, #0
	ldr	r3, [r7, #48]
	mov	r0, r6
	blx	r3
	mov	r3, #3
	add	r0, r5, #864
	str	r3, [r5, #444]
	mov	r5, #0
	bl	ResetVoQueue
	ldr	r3, [r7, #48]
	mov	r2, #2
	add	r0, r6, #56
	str	r2, [r4, #2328]
	str	r5, [r4, #2324]
	mov	r1, r5
	mov	r2, #16
	blx	r3
	mov	r3, #1
	strb	r5, [r4, #2412]
	strb	r5, [r4, #2415]
	strb	r5, [r4, #2416]
	strb	r5, [r4, #2417]
	strb	r5, [r4, #2418]
	strb	r5, [r4, #2419]
	strb	r5, [r4, #2420]
	strb	r5, [r4, #2413]
	strb	r5, [r4, #2414]
	strb	r5, [r4, #2421]
	strb	r5, [r4, #2424]
	strb	r3, [r4, #2422]
	strb	r3, [r4, #2423]
	strb	r3, [r4, #2425]
	ldmfd	sp, {r4, r5, r6, r7, fp, sp, pc}
.L1453:
	.align	2
.L1452:
	.word	vfmw_Osal_Func_Ptr_S
	UNWIND(.fnend)
	.size	VP9_InitDecPara, .-VP9_InitDecPara
	.align	2
	.global	VP9DEC_Init
	.type	VP9DEC_Init, %function
VP9DEC_Init:
	UNWIND(.fnstart)
	@ args = 0, pretend = 0, frame = 0
	@ frame_needed = 1, uses_anonymous_args = 0
	UNWIND(.movsp ip)
	mov	ip, sp
	stmfd	sp!, {r3, r4, r5, r6, r7, r8, r9, r10, fp, ip, lr, pc}
	UNWIND(.pad #4)
	UNWIND(.save {r3, r4, r5, r6, r7, r8, r9, r10, fp, ip, lr})
	UNWIND(.setfp fp, ip, #-4)
	sub	fp, ip, #4
	mov	r5, r0
	mov	r8, r1
	add	r4, r5, #270336
	ldr	r1, .L1467
	mov	r0, #2
	ldr	r10, .L1467+4
	bl	dprint_vfmw
	ldr	r3, [r8, #608]
	ldr	r7, [r4, #1208]
	add	r6, r5, #290816
	cmp	r3, #1
	movw	r2, #31672
	movt	r2, 4
	mov	r1, #0
	ldr	r3, [r10, #48]
	mov	r0, r5
	ldreq	r9, [r6, #2844]
	movne	r9, #0
	blx	r3
	add	r0, r4, #864
	str	r7, [r4, #1208]
	bl	ResetVoQueue
	str	r8, [r5]
	mov	r0, r5
	bl	VCTRL_GetChanIDByCtx
	cmn	r0, #1
	str	r0, [r6, #2980]
	beq	.L1466
	add	r4, r5, #266240
	mvn	r3, #0
	mov	r7, #0
	mov	r2, #3
	str	r3, [r4, #2040]
	ldr	r3, [r5]
	ldr	r1, [r3, #8]
	str	r2, [r4, #2096]
	str	r2, [r4, #2044]
	str	r1, [r4, #2036]
	str	r7, [r4, #2048]
	ldr	r0, [r3, #48]
	str	r0, [r4, #2052]
	ldr	r3, [r3, #52]
	str	r3, [r4, #2056]
	bl	MEM_Phy2Vir
	mov	r3, #2048
	str	r3, [r4, #2064]
	mov	r2, #32
	mov	r1, #0
	str	r0, [r4, #2060]
	movw	r0, #31564
	str	r7, [r6, #2856]
	movt	r0, 4
	str	r7, [r6, #2860]
	add	r0, r5, r0
	str	r7, [r6, #2884]
	str	r7, [r6, #2888]
	str	r7, [r6, #2924]
	str	r7, [r6, #2928]
	ldr	r3, [r8, #608]
	cmp	r3, #1
	ldr	r3, [r10, #48]
	streq	r9, [r6, #2844]
	blx	r3
	mov	r0, r5
	bl	VP9_InitDecPara
	movw	r1, #6264
	movw	lr, #6300
	movt	r1, 4
	movt	lr, 4
	add	r1, r5, r1
	add	lr, r5, lr
	mov	ip, #0
	mov	r3, r1
	mov	r2, lr
.L1459:
	str	ip, [r3, #4]!
	cmp	r3, lr
	str	ip, [r2, #4]!
	bne	.L1459
	movw	r3, #6380
	add	r0, r4, #2320
	movt	r3, 4
	add	r3, r5, r3
	mvn	r2, #0
.L1460:
	str	r2, [r3, #4]!
	cmp	r3, r0
	bne	.L1460
	add	r2, r4, #2240
	mov	r3, #0
	mov	r0, #1
.L1461:
	str	r3, [r2, #4]!
	add	r3, r3, #1
	cmp	r3, #8
	str	r0, [r1, #4]!
	bne	.L1461
	mov	r0, #0
	ldmfd	sp, {r3, r4, r5, r6, r7, r8, r9, r10, fp, sp, pc}
.L1466:
	ldr	r1, .L1467+8
	mov	r0, #0
	bl	dprint_vfmw
	mvn	r0, #19
	ldmfd	sp, {r3, r4, r5, r6, r7, r8, r9, r10, fp, sp, pc}
.L1468:
	.align	2
.L1467:
	.word	.LC3
	.word	vfmw_Osal_Func_Ptr_S
	.word	.LC4
	UNWIND(.fnend)
	.size	VP9DEC_Init, .-VP9DEC_Init
	.align	2
	.global	Vp9_ParseSuperFrameIndex
	.type	Vp9_ParseSuperFrameIndex, %function
Vp9_ParseSuperFrameIndex:
	UNWIND(.fnstart)
	@ args = 0, pretend = 0, frame = 0
	@ frame_needed = 1, uses_anonymous_args = 0
	UNWIND(.movsp ip)
	mov	ip, sp
	stmfd	sp!, {r4, r5, r6, r7, r8, r9, fp, ip, lr, pc}
	UNWIND(.pad #4)
	UNWIND(.save {r4, r5, r6, r7, r8, r9, fp, ip, lr})
	UNWIND(.setfp fp, ip, #-4)
	sub	fp, ip, #4
	cmp	r1, #0
	ble	.L1481
	add	ip, r0, r1
	mov	r5, #0
	ldrb	ip, [ip, #-1]	@ zero_extendqisi2
	str	r5, [r3]
	and	lr, ip, #224
	cmp	lr, #192
	ldmnefd	sp, {r4, r5, r6, r7, r8, r9, fp, sp, pc}
	and	r6, ip, #7
	ubfx	r8, ip, #3, #2
	add	r6, r6, #1
	add	r7, r8, #1
	mul	r4, r6, r7
	add	r4, r4, #2
	cmp	r1, r4
	ldmltfd	sp, {r4, r5, r6, r7, r8, r9, fp, sp, pc}
	rsb	lr, r4, r1
	ldrb	lr, [r0, lr]	@ zero_extendqisi2
	cmp	lr, ip
	ldmnefd	sp, {r4, r5, r6, r7, r8, r9, fp, sp, pc}
	add	r1, r1, #1
	cmp	r6, r5
	rsb	r1, r4, r1
	add	r4, r0, r1
	beq	.L1472
	sub	r9, r2, #4
.L1473:
	cmp	r7, #0
	beq	.L1476
	mov	r2, #0
	sub	r1, r4, #1
	add	lr, r4, r8
	mov	r0, r2
.L1474:
	ldrb	ip, [r1, #1]!	@ zero_extendqisi2
	cmp	r1, lr
	orr	r0, r0, ip, asl r2
	add	r2, r2, #8
	bne	.L1474
	add	r4, r4, r7
.L1475:
	add	r5, r5, #1
	str	r0, [r9, #4]!
	cmp	r6, r5
	bhi	.L1473
.L1472:
	str	r6, [r3]
	ldmfd	sp, {r4, r5, r6, r7, r8, r9, fp, sp, pc}
.L1481:
	ldr	r1, .L1482
	mov	r0, #1
	sub	sp, fp, #36
	ldmfd	sp, {r4, r5, r6, r7, r8, r9, fp, sp, lr}
	b	dprint_vfmw
.L1476:
	mov	r0, r7
	b	.L1475
.L1483:
	.align	2
.L1482:
	.word	.LC5
	UNWIND(.fnend)
	.size	Vp9_ParseSuperFrameIndex, .-Vp9_ParseSuperFrameIndex
	.align	2
	.global	VP9_GetImageBuffer
	.type	VP9_GetImageBuffer, %function
VP9_GetImageBuffer:
	UNWIND(.fnstart)
	@ args = 0, pretend = 0, frame = 0
	@ frame_needed = 1, uses_anonymous_args = 0
	UNWIND(.movsp ip)
	mov	ip, sp
	stmfd	sp!, {r4, r5, r6, r7, fp, ip, lr, pc}
	UNWIND(.pad #4)
	UNWIND(.save {r4, r5, r6, r7, fp, ip, lr})
	UNWIND(.setfp fp, ip, #-4)
	sub	fp, ip, #4
	UNWIND(.pad #8)
	sub	sp, sp, #8
	add	r5, r0, #270336
	add	r4, r0, #290816
	add	r6, r0, #266240
	ldr	r3, [r5, #464]
	ldr	r0, [r4, #2980]
	cmp	r3, #1
	moveq	r1, #0
	movne	r1, #1
	bl	FSP_NewLogicFs
	cmp	r0, #0
	str	r0, [r6, #2084]
	blt	.L1496
	mov	r1, r0
	ldr	r0, [r4, #2980]
	bl	FSP_GetLogicFs
	subs	r7, r0, #0
	beq	.L1497
	ldr	r2, [r6, #2084]
	mov	r0, #18
	ldr	r1, .L1500
	bl	dprint_vfmw
	ldr	r2, [r7, #640]
	cmp	r2, #0
	beq	.L1495
	ldr	r3, [r7, #644]
	cmp	r3, #0
	beq	.L1495
	ldr	r1, [r7, #648]
	cmp	r1, #0
	beq	.L1495
	ldr	ip, [r1, #16]
	mov	r0, #18
	ldr	r3, [r3, #16]
	ldr	r2, [r2, #16]
	ldr	r1, .L1500+4
	str	ip, [sp]
	bl	dprint_vfmw
	ldr	r3, [r5, #464]
	cmp	r3, #1
	beq	.L1498
	ldr	r2, [r7, #640]
	mov	r3, #0
	mov	r0, r3
	str	r3, [r2, #4]
	b	.L1488
.L1495:
	mvn	r0, #0
.L1488:
	sub	sp, fp, #28
	ldmfd	sp, {r4, r5, r6, r7, fp, sp, pc}
.L1496:
	ldr	r1, .L1500+8
	mov	r0, #0
	bl	dprint_vfmw
	add	r1, r5, #864
	ldr	r0, [r4, #2980]
	bl	FSP_ClearNotInVoQueue
	mvn	r0, #0
	sub	sp, fp, #28
	ldmfd	sp, {r4, r5, r6, r7, fp, sp, pc}
.L1497:
	movw	r2, #2054
	ldr	r1, .L1500+12
	mov	r0, #22
	bl	dprint_vfmw
	mvn	r0, #0
	sub	sp, fp, #28
	ldmfd	sp, {r4, r5, r6, r7, fp, sp, pc}
.L1498:
	ldr	r3, [r5, #468]
	cmp	r3, #8
	bls	.L1491
	ldr	r2, .L1500+16
	mov	r0, #0
	ldr	r1, .L1500+20
	bl	dprint_vfmw
	mvn	r0, #0
	b	.L1488
.L1491:
	add	r6, r6, r3, lsl #2
	ldr	r0, [r4, #2980]
	ldr	r1, [r6, #2288]
	bl	FSP_GetLogicFs
	subs	r3, r0, #0
	beq	.L1499
	ldr	ip, [r3, #640]
	add	r1, r3, #8
	mov	r2, #624
	add	r0, r7, #8
	str	ip, [r7, #640]
	ldr	lr, [r3, #640]
	str	lr, [r7, #644]
	ldr	r3, [r3, #648]
	str	r3, [r7, #648]
	ldr	r3, [ip, #88]
	str	r3, [r7, #632]
	bl	memcpy
	ldrsb	r2, [r7, #3]
	mov	r3, #0
	strb	r3, [r7, #2]
	mov	r0, r3
	str	r2, [r7, #164]
	b	.L1488
.L1499:
	ldr	r3, .L1500+24
	movw	r2, #2077
	ldr	r1, .L1500+28
	bl	dprint_vfmw
	mvn	r0, #0
	b	.L1488
.L1501:
	.align	2
.L1500:
	.word	.LC8
	.word	.LC9
	.word	.LC6
	.word	.LC7
	.word	.LANCHOR0+604
	.word	.LC10
	.word	.LC11
	.word	.LC12
	UNWIND(.fnend)
	.size	VP9_GetImageBuffer, .-VP9_GetImageBuffer
	.align	2
	.global	VP9_FreeCurFb
	.type	VP9_FreeCurFb, %function
VP9_FreeCurFb:
	UNWIND(.fnstart)
	@ args = 0, pretend = 0, frame = 0
	@ frame_needed = 1, uses_anonymous_args = 0
	UNWIND(.movsp ip)
	mov	ip, sp
	stmfd	sp!, {fp, ip, lr, pc}
	UNWIND(.pad #4)
	UNWIND(.save {fp, ip, lr})
	UNWIND(.setfp fp, ip, #-4)
	sub	fp, ip, #4
	add	r3, r0, #290816
	ldr	r3, [r3, #2880]
	cmp	r3, #8
	addls	r0, r0, r3, lsl #2
	addls	r0, r0, #266240
	movls	r3, #0
	strls	r3, [r0, #2172]
	ldmfd	sp, {fp, sp, pc}
	UNWIND(.fnend)
	.size	VP9_FreeCurFb, .-VP9_FreeCurFb
	.align	2
	.global	VP9_SetImgFormat
	.type	VP9_SetImgFormat, %function
VP9_SetImgFormat:
	UNWIND(.fnstart)
	@ args = 0, pretend = 0, frame = 16
	@ frame_needed = 1, uses_anonymous_args = 0
	UNWIND(.movsp ip)
	mov	ip, sp
	stmfd	sp!, {r4, r5, r6, r7, r8, r9, r10, fp, ip, lr, pc}
	UNWIND(.pad #4)
	UNWIND(.save {r4, r5, r6, r7, r8, r9, r10, fp, ip, lr})
	UNWIND(.setfp fp, ip, #-4)
	sub	fp, ip, #4
	UNWIND(.pad #20)
	sub	sp, sp, #20
	subs	r3, r0, #0
	str	r3, [fp, #-48]
	beq	.L1504
	add	r7, r3, #266240
	mov	r5, r3
	add	r3, r3, #290816
	ldr	r1, [r7, #2084]
	ldr	r0, [r3, #2980]
	bl	FSP_GetFsImagePtr
	subs	r4, r0, #0
	beq	.L1504
	ldr	lr, [r5]
	add	ip, r4, #608
	mvn	r8, #0
	mvn	r9, #0
	mov	r1, #0
	ldrd	r2, [lr, #56]
	strd	r2, [ip, #-8]
	ldr	ip, [r5]
	strd	r8, [ip, #56]
	ldr	r2, [r7, #2092]
	and	r2, r2, #3
	orr	r3, r2, #7168
	orr	r3, r3, #32
	str	r3, [r4, #108]
	ldr	ip, [r5]
	ldr	ip, [ip, #592]
	str	r2, [r4, #100]
	cmp	ip, #1
	str	r2, [r4, #104]
	moveq	r2, #262144
	movne	r2, r1
	orr	r3, r2, r3
	str	r3, [r4, #108]
	bl	SetAspectRatio
	ldr	lr, [r7, #2112]
	str	lr, [r4, #112]
	ldr	r2, [r7, #2116]
	str	r2, [r4, #116]
	ldr	r3, [r5]
	ldr	r3, [r3, #28]
	cmp	r3, #25
	addne	r6, r4, #512
	beq	.L1518
.L1509:
	add	r3, lr, #255
	add	r1, r2, #63
	bic	r3, r3, #255
	bic	r5, r1, #63
	mov	r0, r3, asl #4
	str	r0, [r4, #140]
	ldr	r0, [r7, #1956]
	mul	ip, r5, r3
	cmp	r0, #1
	movne	r1, #0
	movne	r10, r1
	beq	.L1519
.L1510:
	ldr	r8, [fp, #-48]
	mov	r9, lr, lsr #1
	str	r9, [fp, #-52]
	add	r7, r3, #3
	cmp	r3, #0
	ldr	r0, [r4, #44]
	ldr	r8, [r8]
	movlt	r3, r7
	add	r7, ip, ip, lsl #1
	mov	r3, r3, asr #2
	ldr	r8, [r8, #884]
	add	r7, r0, r7, asr #1
	add	r0, ip, r0
	mla	r5, r3, r5, r7
	str	r8, [r4, #176]
	mov	r8, r2, lsr #1
	str	r8, [fp, #-56]
	ldr	r8, [fp, #-48]
	mov	r3, r3, asl #5
	ldr	r9, [r8]
	ldr	r9, [r9, #884]
	str	r10, [r4, #144]
	str	r1, [r4, #148]
	str	r9, [r4, #180]
	str	r0, [r4, #48]
	ldrd	r0, [r6, #-8]
	adds	r8, r0, ip
	adc	r9, r1, ip, asr #31
	mov	r0, r8
	mov	r1, r9
	ldr	r9, [fp, #-52]
	strd	r0, [r6]
	str	r2, [r4, #124]
	ldr	r2, [fp, #-56]
	str	r7, [r4, #68]
	str	lr, [r4, #120]
	str	r9, [r4, #128]
	str	r2, [r4, #132]
	str	r5, [r4, #72]
	str	r3, [r4, #152]
.L1504:
	sub	sp, fp, #40
	ldmfd	sp, {r4, r5, r6, r7, r8, r9, r10, fp, sp, pc}
.L1519:
	add	r10, lr, #508
	mov	r1, r1, lsr #6
	add	r10, r10, #3
	bic	r10, r10, #508
	mov	r1, r1, asl #5
	bic	r10, r10, #3
	mov	r10, r10, lsr #5
	mul	r1, r10, r1
	add	ip, ip, r1
	b	.L1510
.L1518:
	ldr	ip, [r4, #140]
	add	r2, r2, #15
	ldr	r5, [r4, #44]
	add	r6, r4, #512
	mov	r2, r2, lsr #4
	add	lr, r4, #528
	mov	r1, ip, asl #4
	add	r10, r5, ip
	mul	r1, r2, r1
	add	r0, r1, r5
	str	r0, [r4, #48]
	ldrd	r2, [r6, #-8]
	add	ip, r0, ip
	str	r0, [fp, #-52]
	adds	r8, r2, r1
	adc	r9, r3, r1, asr #31
	strd	r8, [r6]
	str	r0, [r4, #32]
	mov	r8, lr
	str	r5, [r4, #28]
	str	ip, [r4, #40]
	str	r10, [r4, #36]
	strd	r2, [lr, #-8]
	str	r5, [r4, #60]
	bl	MEM_Phy2Vir
	mov	r3, #0
	str	r0, [r4, #528]
	str	r3, [r8, #4]
	ldr	r3, [r4, #32]
	ldr	lr, [r4, #112]
	ldr	r2, [r4, #116]
	str	r3, [r4, #64]
	b	.L1509
	UNWIND(.fnend)
	.size	VP9_SetImgFormat, .-VP9_SetImgFormat
	.align	2
	.global	VP9DEC_RecycleImage
	.type	VP9DEC_RecycleImage, %function
VP9DEC_RecycleImage:
	UNWIND(.fnstart)
	@ args = 0, pretend = 0, frame = 0
	@ frame_needed = 1, uses_anonymous_args = 0
	UNWIND(.movsp ip)
	mov	ip, sp
	stmfd	sp!, {r4, r5, r6, r7, r8, r9, fp, ip, lr, pc}
	UNWIND(.pad #4)
	UNWIND(.save {r4, r5, r6, r7, r8, r9, fp, ip, lr})
	UNWIND(.setfp fp, ip, #-4)
	sub	fp, ip, #4
	add	r4, r0, #290816
	mov	r5, r1
	mov	r2, #0
	ldr	r0, [r4, #2980]
	bl	FSP_SetDisplay
	mov	r1, r5
	ldr	r0, [r4, #2980]
	bl	FSP_GetFsImagePtr
	cmp	r0, #0
	beq	.L1521
	add	r5, r0, #576
	add	r8, r0, #560
	ldr	r1, [r0, #560]
	mov	r6, #0
	ldr	r0, [r4, #2980]
	mov	r7, #0
	bl	FreeUsdByDec
	strd	r6, [r8]
	ldr	r0, [r4, #2980]
	ldr	r1, [r5, #-8]
	bl	FreeUsdByDec
	strd	r6, [r5, #-8]
.L1521:
	mov	r0, #0
	ldmfd	sp, {r4, r5, r6, r7, r8, r9, fp, sp, pc}
	UNWIND(.fnend)
	.size	VP9DEC_RecycleImage, .-VP9DEC_RecycleImage
	.align	2
	.global	VP9DEC_GetRemainImg
	.type	VP9DEC_GetRemainImg, %function
VP9DEC_GetRemainImg:
	UNWIND(.fnstart)
	@ args = 0, pretend = 0, frame = 0
	@ frame_needed = 1, uses_anonymous_args = 0
	UNWIND(.movsp ip)
	mov	ip, sp
	stmfd	sp!, {fp, ip, lr, pc}
	UNWIND(.pad #4)
	UNWIND(.save {fp, ip, lr})
	UNWIND(.setfp fp, ip, #-4)
	sub	fp, ip, #4
	add	r0, r0, #270336
	add	r0, r0, #864
	sub	sp, fp, #12
	ldmia	sp, {fp, sp, lr}
	b	GetVoLastImageID
	UNWIND(.fnend)
	.size	VP9DEC_GetRemainImg, .-VP9DEC_GetRemainImg
	.align	2
	.global	VP9DEC_GetImageBuffer
	.type	VP9DEC_GetImageBuffer, %function
VP9DEC_GetImageBuffer:
	UNWIND(.fnstart)
	@ args = 0, pretend = 0, frame = 0
	@ frame_needed = 1, uses_anonymous_args = 0
	UNWIND(.movsp ip)
	mov	ip, sp
	stmfd	sp!, {r4, r5, fp, ip, lr, pc}
	UNWIND(.pad #4)
	UNWIND(.save {r4, r5, fp, ip, lr})
	UNWIND(.setfp fp, ip, #-4)
	sub	fp, ip, #4
	add	r4, r0, #290816
	mov	r5, r0
	ldr	r0, [r4, #2980]
	bl	FSP_IsNewFsAvalible
	cmp	r0, #1
	ldmeqfd	sp, {r4, r5, fp, sp, pc}
	ldr	r0, [r4, #2980]
	bl	FSP_IsNewFsAvalible
	cmn	r0, #1
	beq	.L1532
	mov	r0, #0
	ldmfd	sp, {r4, r5, fp, sp, pc}
.L1532:
	add	r1, r5, #270336
	ldr	r0, [r4, #2980]
	add	r1, r1, #864
	bl	FSP_ClearNotInVoQueue
	mov	r0, #0
	ldmfd	sp, {r4, r5, fp, sp, pc}
	UNWIND(.fnend)
	.size	VP9DEC_GetImageBuffer, .-VP9DEC_GetImageBuffer
	.align	2
	.global	Check_Sync_Code
	.type	Check_Sync_Code, %function
Check_Sync_Code:
	UNWIND(.fnstart)
	@ args = 0, pretend = 0, frame = 0
	@ frame_needed = 1, uses_anonymous_args = 0
	UNWIND(.movsp ip)
	mov	ip, sp
	stmfd	sp!, {r4, r5, fp, ip, lr, pc}
	UNWIND(.pad #4)
	UNWIND(.save {r4, r5, fp, ip, lr})
	UNWIND(.setfp fp, ip, #-4)
	sub	fp, ip, #4
	mov	r1, #8
	mov	r4, r0
	bl	BsGet
	cmp	r0, #73
	beq	.L1534
.L1535:
	ldr	r1, .L1536
	mov	r0, #1
	sub	sp, fp, #20
	ldmfd	sp, {r4, r5, fp, sp, lr}
	b	dprint_vfmw
.L1534:
	mov	r1, #8
	mov	r0, r4
	bl	BsGet
	cmp	r0, #131
	bne	.L1535
	mov	r0, r4
	mov	r1, #8
	bl	BsGet
	cmp	r0, #66
	bne	.L1535
	ldmfd	sp, {r4, r5, fp, sp, pc}
.L1537:
	.align	2
.L1536:
	.word	.LC13
	UNWIND(.fnend)
	.size	Check_Sync_Code, .-Check_Sync_Code
	.align	2
	.global	Read_Frame_Size
	.type	Read_Frame_Size, %function
Read_Frame_Size:
	UNWIND(.fnstart)
	@ args = 0, pretend = 0, frame = 0
	@ frame_needed = 1, uses_anonymous_args = 0
	UNWIND(.movsp ip)
	mov	ip, sp
	stmfd	sp!, {r4, r5, r6, r7, fp, ip, lr, pc}
	UNWIND(.pad #4)
	UNWIND(.save {r4, r5, r6, r7, fp, ip, lr})
	UNWIND(.setfp fp, ip, #-4)
	sub	fp, ip, #4
	mov	r5, r1
	mov	r1, #16
	mov	r4, r2
	mov	r6, r0
	bl	BsGet
	mov	r1, #16
	add	r3, r0, #1
	mov	r0, r6
	str	r3, [r5]
	bl	BsGet
	add	r0, r0, #1
	str	r0, [r4]
	ldmfd	sp, {r4, r5, r6, r7, fp, sp, pc}
	UNWIND(.fnend)
	.size	Read_Frame_Size, .-Read_Frame_Size
	.align	2
	.global	get_free_fb
	.type	get_free_fb, %function
get_free_fb:
	UNWIND(.fnstart)
	@ args = 0, pretend = 0, frame = 0
	@ frame_needed = 1, uses_anonymous_args = 0
	UNWIND(.movsp ip)
	mov	ip, sp
	stmfd	sp!, {fp, ip, lr, pc}
	UNWIND(.pad #4)
	UNWIND(.save {fp, ip, lr})
	UNWIND(.setfp fp, ip, #-4)
	sub	fp, ip, #4
	ldr	r0, [r1, #72]
	cmp	r0, #0
	beq	.L1540
	add	r3, r1, #72
	mov	r0, #1
.L1541:
	ldr	r2, [r3, #4]!
	cmp	r2, #0
	beq	.L1540
	add	r0, r0, #1
	cmp	r0, #9
	bne	.L1541
	mvn	r0, #0
	ldmfd	sp, {fp, sp, pc}
.L1540:
	add	r3, r0, #18
	mov	r2, #1
	str	r2, [r1, r3, asl #2]
	ldmfd	sp, {fp, sp, pc}
	UNWIND(.fnend)
	.size	get_free_fb, .-get_free_fb
	.align	2
	.global	Setup_Display_Size
	.type	Setup_Display_Size, %function
Setup_Display_Size:
	UNWIND(.fnstart)
	@ args = 0, pretend = 0, frame = 8
	@ frame_needed = 1, uses_anonymous_args = 0
	UNWIND(.movsp ip)
	mov	ip, sp
	stmfd	sp!, {r4, fp, ip, lr, pc}
	UNWIND(.pad #4)
	UNWIND(.save {r4, fp, ip, lr})
	UNWIND(.setfp fp, ip, #-4)
	sub	fp, ip, #4
	UNWIND(.pad #12)
	sub	sp, sp, #12
	mov	r3, r1
	ldr	lr, [r3, #52]
	mov	r1, #1
	ldr	ip, [r3, #56]
	mov	r2, #0
	mov	r4, r0
	str	r2, [fp, #-28]
	str	lr, [r3, #60]
	str	ip, [r3, #64]
	str	r2, [fp, #-24]
	bl	BsGet
	cmp	r0, #0
	beq	.L1549
	mov	r0, r4
	sub	r2, fp, #24
	sub	r1, fp, #28
	bl	Read_Frame_Size
.L1549:
	sub	sp, fp, #16
	ldmfd	sp, {r4, fp, sp, pc}
	UNWIND(.fnend)
	.size	Setup_Display_Size, .-Setup_Display_Size
	.align	2
	.global	VP9_Update_CP_Size
	.type	VP9_Update_CP_Size, %function
VP9_Update_CP_Size:
	UNWIND(.fnstart)
	@ args = 0, pretend = 0, frame = 0
	@ frame_needed = 1, uses_anonymous_args = 0
	UNWIND(.movsp ip)
	mov	ip, sp
	stmfd	sp!, {r4, r5, fp, ip, lr, pc}
	UNWIND(.pad #4)
	UNWIND(.save {r4, r5, fp, ip, lr})
	UNWIND(.setfp fp, ip, #-4)
	sub	fp, ip, #4
	ldr	lr, [r0, #2484]
	ldr	ip, [r0, #2488]
	ldr	r3, [r0, #2432]
	add	r1, lr, #7
	add	r2, ip, #7
	bic	r1, r1, #7
	bic	r2, r2, #7
	add	r3, r0, r3, lsl #4
	mov	r5, r1, asr #3
	mov	r4, r2, asr #3
	str	r5, [r0, #2524]
	str	r4, [r0, #2528]
	str	r1, [r3, #2668]
	str	r2, [r3, #2672]
	str	lr, [r3, #2676]
	str	ip, [r3, #2680]
	ldmfd	sp, {r4, r5, fp, sp, pc}
	UNWIND(.fnend)
	.size	VP9_Update_CP_Size, .-VP9_Update_CP_Size
	.align	2
	.global	Setup_Frame_Size
	.type	Setup_Frame_Size, %function
Setup_Frame_Size:
	UNWIND(.fnstart)
	@ args = 0, pretend = 0, frame = 0
	@ frame_needed = 1, uses_anonymous_args = 0
	UNWIND(.movsp ip)
	mov	ip, sp
	stmfd	sp!, {r4, r5, r6, r7, fp, ip, lr, pc}
	UNWIND(.pad #4)
	UNWIND(.save {r4, r5, r6, r7, fp, ip, lr})
	UNWIND(.setfp fp, ip, #-4)
	sub	fp, ip, #4
	ldr	ip, [r1, #2484]
	mov	r4, r1
	ldr	r3, [r1, #2488]
	add	r5, r1, #2432
	add	r2, r5, #56
	add	r1, r5, #52
	str	ip, [r4, #2504]
	mov	r6, r0
	str	r3, [r4, #2508]
	bl	Read_Frame_Size
	ldr	r7, [r4, #2484]
	ldr	lr, [r4, #2488]
	mov	r1, r5
	ldr	r3, [r4, #2432]
	add	ip, r7, #7
	add	r2, lr, #7
	bic	ip, ip, #7
	bic	r2, r2, #7
	mov	r0, r6
	add	r3, r4, r3, lsl #4
	mov	r6, ip, asr #3
	mov	r5, r2, asr #3
	str	r6, [r4, #2524]
	str	r5, [r4, #2528]
	str	ip, [r3, #2668]
	str	r2, [r3, #2672]
	str	r7, [r3, #2676]
	str	lr, [r3, #2680]
	sub	sp, fp, #28
	ldmfd	sp, {r4, r5, r6, r7, fp, sp, lr}
	b	Setup_Display_Size
	UNWIND(.fnend)
	.size	Setup_Frame_Size, .-Setup_Frame_Size
	.align	2
	.global	setup_frame_size_with_refs
	.type	setup_frame_size_with_refs, %function
setup_frame_size_with_refs:
	UNWIND(.fnstart)
	@ args = 0, pretend = 0, frame = 0
	@ frame_needed = 1, uses_anonymous_args = 0
	UNWIND(.movsp ip)
	mov	ip, sp
	stmfd	sp!, {r4, r5, r6, r7, fp, ip, lr, pc}
	UNWIND(.pad #4)
	UNWIND(.save {r4, r5, r6, r7, fp, ip, lr})
	UNWIND(.setfp fp, ip, #-4)
	sub	fp, ip, #4
	add	r7, r1, #2432
	mov	r4, r1
	mov	r6, r0
	mov	r5, #0
.L1559:
	mov	r1, #1
	mov	r0, r6
	bl	BsGet
	cmp	r0, #0
	bne	.L1564
	add	r5, r5, #1
	cmp	r5, #3
	bne	.L1559
	ldr	ip, [r4, #2484]
	add	r2, r7, #56
	ldr	r3, [r4, #2488]
	add	r1, r7, #52
	mov	r0, r6
	str	ip, [r4, #2504]
	str	r3, [r4, #2508]
	bl	Read_Frame_Size
	ldr	r5, [r4, #2484]
	ldr	lr, [r4, #2488]
.L1558:
	ldr	r3, [r4, #2432]
	add	ip, r5, #7
	add	r2, lr, #7
	bic	ip, ip, #7
	bic	r2, r2, #7
	mov	r1, r7
	add	r3, r4, r3, lsl #4
	mov	r0, r6
	mov	r7, ip, asr #3
	mov	r6, r2, asr #3
	str	r7, [r4, #2524]
	str	r6, [r4, #2528]
	str	ip, [r3, #2668]
	str	r5, [r3, #2676]
	str	lr, [r3, #2680]
	str	r2, [r3, #2672]
	sub	sp, fp, #28
	ldmfd	sp, {r4, r5, r6, r7, fp, sp, lr}
	b	Setup_Display_Size
.L1564:
	add	r5, r5, #44
	ldr	r1, [r4, #2484]
	ldr	r2, [r4, #2488]
	ldr	r3, [r4, r5, asl #2]
	str	r1, [r4, #2504]
	str	r2, [r4, #2508]
	add	r3, r4, r3, lsl #4
	ldr	r5, [r3, #2676]
	str	r5, [r4, #2484]
	ldr	lr, [r3, #2680]
	str	lr, [r4, #2488]
	b	.L1558
	UNWIND(.fnend)
	.size	setup_frame_size_with_refs, .-setup_frame_size_with_refs
	.align	2
	.global	Set_Default_Lf_Deltas
	.type	Set_Default_Lf_Deltas, %function
Set_Default_Lf_Deltas:
	UNWIND(.fnstart)
	@ args = 0, pretend = 0, frame = 0
	@ frame_needed = 1, uses_anonymous_args = 0
	UNWIND(.movsp ip)
	mov	ip, sp
	stmfd	sp!, {fp, ip, lr, pc}
	UNWIND(.pad #4)
	UNWIND(.save {fp, ip, lr})
	UNWIND(.setfp fp, ip, #-4)
	sub	fp, ip, #4
	mov	r2, #1
	mov	r3, #0
	mvn	r1, #0
	strb	r2, [r0]
	strb	r2, [r0, #1]
	strb	r2, [r0, #2]
	strb	r3, [r0, #3]
	strb	r3, [r0, #6]
	strb	r3, [r0, #7]
	strb	r1, [r0, #4]
	strb	r1, [r0, #5]
	ldmfd	sp, {fp, sp, pc}
	UNWIND(.fnend)
	.size	Set_Default_Lf_Deltas, .-Set_Default_Lf_Deltas
	.align	2
	.global	VP9_Clearall_Segfeatures
	.type	VP9_Clearall_Segfeatures, %function
VP9_Clearall_Segfeatures:
	UNWIND(.fnstart)
	@ args = 0, pretend = 0, frame = 0
	@ frame_needed = 1, uses_anonymous_args = 0
	UNWIND(.movsp ip)
	mov	ip, sp
	stmfd	sp!, {r4, r5, fp, ip, lr, pc}
	UNWIND(.pad #4)
	UNWIND(.save {r4, r5, fp, ip, lr})
	UNWIND(.setfp fp, ip, #-4)
	sub	fp, ip, #4
	ldr	r5, .L1567
	mov	r4, r0
	mov	r2, #64
	mov	r1, #0
	add	r0, r0, #16
	ldr	r3, [r5, #48]
	blx	r3
	ldr	r3, [r5, #48]
	add	r0, r4, #80
	mov	r2, #32
	mov	r1, #0
	sub	sp, fp, #20
	ldmfd	sp, {r4, r5, fp, sp, lr}
	bx	r3
.L1568:
	.align	2
.L1567:
	.word	vfmw_Osal_Func_Ptr_S
	UNWIND(.fnend)
	.size	VP9_Clearall_Segfeatures, .-VP9_Clearall_Segfeatures
	.align	2
	.global	VP9_Setup_Past_Independence
	.type	VP9_Setup_Past_Independence, %function
VP9_Setup_Past_Independence:
	UNWIND(.fnstart)
	@ args = 0, pretend = 0, frame = 0
	@ frame_needed = 1, uses_anonymous_args = 0
	UNWIND(.movsp ip)
	mov	ip, sp
	stmfd	sp!, {r4, r5, fp, ip, lr, pc}
	UNWIND(.pad #4)
	UNWIND(.save {r4, r5, fp, ip, lr})
	UNWIND(.setfp fp, ip, #-4)
	sub	fp, ip, #4
	ldr	r5, .L1570
	mov	r4, r0
	add	r0, r0, #2624
	mov	r2, #32
	mov	r1, #0
	add	r0, r0, #12
	ldr	r3, [r5, #48]
	blx	r3
	ldr	r5, [r5, #48]
	mov	r3, #0
	mov	ip, #1
	mvn	lr, #0
	mov	r1, r3
	strb	r3, [r4, #2559]
	add	r0, r4, #56
	strb	r3, [r4, #331]
	mov	r2, #16
	strb	r3, [r4, #334]
	strb	r3, [r4, #335]
	mov	r3, r5
	strb	ip, [r4, #328]
	strb	ip, [r4, #329]
	strb	ip, [r4, #330]
	strb	lr, [r4, #332]
	strb	lr, [r4, #333]
	sub	sp, fp, #20
	ldmfd	sp, {r4, r5, fp, sp, lr}
	bx	r3
.L1571:
	.align	2
.L1570:
	.word	vfmw_Osal_Func_Ptr_S
	UNWIND(.fnend)
	.size	VP9_Setup_Past_Independence, .-VP9_Setup_Past_Independence
	.align	2
	.global	Setup_LoopFilter
	.type	Setup_LoopFilter, %function
Setup_LoopFilter:
	UNWIND(.fnstart)
	@ args = 0, pretend = 0, frame = 0
	@ frame_needed = 1, uses_anonymous_args = 0
	UNWIND(.movsp ip)
	mov	ip, sp
	stmfd	sp!, {r4, r5, r6, r7, fp, ip, lr, pc}
	UNWIND(.pad #4)
	UNWIND(.save {r4, r5, r6, r7, fp, ip, lr})
	UNWIND(.setfp fp, ip, #-4)
	sub	fp, ip, #4
	mov	r4, r1
	mov	r1, #6
	mov	r5, r0
	bl	BsGet
	mov	r1, #3
	str	r0, [r4, #8]
	mov	r0, r5
	bl	BsGet
	mov	r3, #0
	mov	r1, #1
	strb	r3, [r4, #1]
	str	r0, [r4, #12]
	mov	r0, r5
	bl	BsGet
	uxtb	r0, r0
	strb	r0, [r4]
	cmp	r0, #0
	ldmeqfd	sp, {r4, r5, r6, r7, fp, sp, pc}
	mov	r1, #1
	mov	r0, r5
	bl	BsGet
	uxtb	r0, r0
	strb	r0, [r4, #1]
	cmp	r0, #0
	ldmeqfd	sp, {r4, r5, r6, r7, fp, sp, pc}
	add	r6, r4, #2
	add	r7, r4, #6
.L1576:
	mov	r1, #1
	mov	r0, r5
	bl	BsGet
	cmp	r0, #0
	bne	.L1590
.L1575:
	add	r6, r6, #1
	cmp	r6, r7
	bne	.L1576
	add	r4, r4, #8
.L1578:
	mov	r1, #1
	mov	r0, r5
	bl	BsGet
	cmp	r0, #0
	bne	.L1591
.L1577:
	add	r7, r7, #1
	cmp	r7, r4
	bne	.L1578
	ldmfd	sp, {r4, r5, r6, r7, fp, sp, pc}
.L1590:
	ldr	r2, .L1592
	mov	r1, #6
	mov	r0, r5
	bl	VP9_s_v
	strb	r0, [r6]
	b	.L1575
.L1591:
	ldr	r2, .L1592+4
	mov	r1, #6
	mov	r0, r5
	bl	VP9_s_v
	strb	r0, [r7]
	b	.L1577
.L1593:
	.align	2
.L1592:
	.word	.LC14
	.word	.LC15
	UNWIND(.fnend)
	.size	Setup_LoopFilter, .-Setup_LoopFilter
	.align	2
	.global	Read_Delta_Q
	.type	Read_Delta_Q, %function
Read_Delta_Q:
	UNWIND(.fnstart)
	@ args = 0, pretend = 0, frame = 0
	@ frame_needed = 1, uses_anonymous_args = 0
	UNWIND(.movsp ip)
	mov	ip, sp
	stmfd	sp!, {r4, r5, r6, r7, fp, ip, lr, pc}
	UNWIND(.pad #4)
	UNWIND(.save {r4, r5, r6, r7, fp, ip, lr})
	UNWIND(.setfp fp, ip, #-4)
	sub	fp, ip, #4
	mov	r4, r1
	mov	r1, #1
	ldr	r5, [r4]
	mov	r6, r0
	bl	BsGet
	cmp	r0, #0
	beq	.L1595
	mov	r0, r6
	ldr	r2, .L1599
	mov	r1, #4
	bl	VP9_s_v
.L1595:
	str	r0, [r4]
	subs	r0, r0, r5
	movne	r0, #1
	ldmfd	sp, {r4, r5, r6, r7, fp, sp, pc}
.L1600:
	.align	2
.L1599:
	.word	.LC16
	UNWIND(.fnend)
	.size	Read_Delta_Q, .-Read_Delta_Q
	.align	2
	.global	Setup_Quantization
	.type	Setup_Quantization, %function
Setup_Quantization:
	UNWIND(.fnstart)
	@ args = 0, pretend = 0, frame = 0
	@ frame_needed = 1, uses_anonymous_args = 0
	UNWIND(.movsp ip)
	mov	ip, sp
	stmfd	sp!, {r4, r5, fp, ip, lr, pc}
	UNWIND(.pad #4)
	UNWIND(.save {r4, r5, fp, ip, lr})
	UNWIND(.setfp fp, ip, #-4)
	sub	fp, ip, #4
	mov	r4, r1
	mov	r1, #8
	mov	r5, r0
	bl	BsGet
	add	r1, r4, #236
	str	r0, [r4, #232]
	mov	r0, r5
	bl	Read_Delta_Q
	add	r1, r4, #240
	mov	r0, r5
	bl	Read_Delta_Q
	mov	r0, r5
	add	r1, r4, #244
	bl	Read_Delta_Q
	ldr	r3, [r4, #232]
	cmp	r3, #0
	movne	r3, #0
	bne	.L1602
	ldr	r2, [r4, #236]
	cmp	r2, #0
	bne	.L1602
	ldr	r2, [r4, #240]
	cmp	r2, #0
	ldreq	r3, [r4, #244]
	clzeq	r3, r3
	moveq	r3, r3, lsr #5
.L1602:
	str	r3, [r4, #44]
	ldmfd	sp, {r4, r5, fp, sp, pc}
	UNWIND(.fnend)
	.size	Setup_Quantization, .-Setup_Quantization
	.align	2
	.global	VP9_Enable_Segfeature
	.type	VP9_Enable_Segfeature, %function
VP9_Enable_Segfeature:
	UNWIND(.fnstart)
	@ args = 0, pretend = 0, frame = 0
	@ frame_needed = 1, uses_anonymous_args = 0
	UNWIND(.movsp ip)
	mov	ip, sp
	stmfd	sp!, {fp, ip, lr, pc}
	UNWIND(.pad #4)
	UNWIND(.save {fp, ip, lr})
	UNWIND(.setfp fp, ip, #-4)
	sub	fp, ip, #4
	add	r1, r0, r1, lsl #2
	mov	r0, #1
	ldr	r3, [r1, #80]
	orr	r2, r3, r0, asl r2
	str	r2, [r1, #80]
	ldmfd	sp, {fp, sp, pc}
	UNWIND(.fnend)
	.size	VP9_Enable_Segfeature, .-VP9_Enable_Segfeature
	.align	2
	.global	VP9_Seg_Feature_Data_Max
	.type	VP9_Seg_Feature_Data_Max, %function
VP9_Seg_Feature_Data_Max:
	UNWIND(.fnstart)
	@ args = 0, pretend = 0, frame = 0
	@ frame_needed = 1, uses_anonymous_args = 0
	UNWIND(.movsp ip)
	mov	ip, sp
	stmfd	sp!, {fp, ip, lr, pc}
	UNWIND(.pad #4)
	UNWIND(.save {fp, ip, lr})
	UNWIND(.setfp fp, ip, #-4)
	sub	fp, ip, #4
	ldr	r3, .L1607
	add	r0, r3, r0, lsl #2
	ldr	r0, [r0, #624]
	ldmfd	sp, {fp, sp, pc}
.L1608:
	.align	2
.L1607:
	.word	.LANCHOR0
	UNWIND(.fnend)
	.size	VP9_Seg_Feature_Data_Max, .-VP9_Seg_Feature_Data_Max
	.align	2
	.global	Get_Unsigned_Bits
	.type	Get_Unsigned_Bits, %function
Get_Unsigned_Bits:
	UNWIND(.fnstart)
	@ args = 0, pretend = 0, frame = 0
	@ frame_needed = 1, uses_anonymous_args = 0
	UNWIND(.movsp ip)
	mov	ip, sp
	stmfd	sp!, {fp, ip, lr, pc}
	UNWIND(.pad #4)
	UNWIND(.save {fp, ip, lr})
	UNWIND(.setfp fp, ip, #-4)
	sub	fp, ip, #4
	cmp	r0, #1
	bls	.L1613
	subs	r3, r0, #1
	beq	.L1614
	mov	r0, #0
.L1612:
	movs	r3, r3, lsr #1
	add	r0, r0, #1
	bne	.L1612
	ldmfd	sp, {fp, sp, pc}
.L1613:
	mov	r0, #0
	ldmfd	sp, {fp, sp, pc}
.L1614:
	mov	r0, r3
	ldmfd	sp, {fp, sp, pc}
	UNWIND(.fnend)
	.size	Get_Unsigned_Bits, .-Get_Unsigned_Bits
	.align	2
	.global	Decode_Unsigned_Max
	.type	Decode_Unsigned_Max, %function
Decode_Unsigned_Max:
	UNWIND(.fnstart)
	@ args = 0, pretend = 0, frame = 0
	@ frame_needed = 1, uses_anonymous_args = 0
	UNWIND(.movsp ip)
	mov	ip, sp
	stmfd	sp!, {r4, r5, fp, ip, lr, pc}
	UNWIND(.pad #4)
	UNWIND(.save {r4, r5, fp, ip, lr})
	UNWIND(.setfp fp, ip, #-4)
	sub	fp, ip, #4
	cmp	r1, #1
	mov	r4, r1
	movls	r1, #0
	bls	.L1617
	subs	r3, r4, #1
	beq	.L1621
	mov	r2, #0
.L1619:
	movs	r3, r3, lsr #1
	add	r2, r2, #1
	bne	.L1619
.L1618:
	mov	r1, r2
.L1617:
	bl	BsGet
	cmp	r0, r4
	movge	r0, r4
	ldmfd	sp, {r4, r5, fp, sp, pc}
.L1621:
	mov	r2, r3
	b	.L1618
	UNWIND(.fnend)
	.size	Decode_Unsigned_Max, .-Decode_Unsigned_Max
	.align	2
	.global	VP9_Is_Segfeature_Signed
	.type	VP9_Is_Segfeature_Signed, %function
VP9_Is_Segfeature_Signed:
	UNWIND(.fnstart)
	@ args = 0, pretend = 0, frame = 0
	@ frame_needed = 1, uses_anonymous_args = 0
	UNWIND(.movsp ip)
	mov	ip, sp
	stmfd	sp!, {fp, ip, lr, pc}
	UNWIND(.pad #4)
	UNWIND(.save {fp, ip, lr})
	UNWIND(.setfp fp, ip, #-4)
	sub	fp, ip, #4
	ldr	r3, .L1624
	add	r0, r3, r0, lsl #2
	ldr	r0, [r0, #640]
	ldmfd	sp, {fp, sp, pc}
.L1625:
	.align	2
.L1624:
	.word	.LANCHOR0
	UNWIND(.fnend)
	.size	VP9_Is_Segfeature_Signed, .-VP9_Is_Segfeature_Signed
	.align	2
	.global	VP9_Set_Segdata
	.type	VP9_Set_Segdata, %function
VP9_Set_Segdata:
	UNWIND(.fnstart)
	@ args = 0, pretend = 0, frame = 0
	@ frame_needed = 1, uses_anonymous_args = 0
	UNWIND(.movsp ip)
	mov	ip, sp
	stmfd	sp!, {r3, r4, r5, r6, r7, r8, r9, r10, fp, ip, lr, pc}
	UNWIND(.pad #4)
	UNWIND(.save {r3, r4, r5, r6, r7, r8, r9, r10, fp, ip, lr})
	UNWIND(.setfp fp, ip, #-4)
	sub	fp, ip, #4
	ldr	r7, .L1635
	mov	r9, r2, asl #2
	mov	r5, r3
	mov	r4, r2
	add	r3, r7, r9
	mov	r6, r0
	mov	r10, r1
	ldr	r8, [r3, #624]
	cmp	r8, r5
	blt	.L1632
.L1627:
	cmp	r5, #0
	blt	.L1633
.L1629:
	add	r4, r4, r10, lsl #2
	add	r4, r6, r4, lsl #1
	strh	r5, [r4, #16]	@ movhi
	ldmfd	sp, {r3, r4, r5, r6, r7, r8, r9, r10, fp, sp, pc}
.L1633:
	add	r7, r7, r9
	ldr	r0, [r7, #640]
	cmp	r0, #0
	beq	.L1634
.L1630:
	rsb	r3, r5, #0
	cmp	r8, r3
	bge	.L1629
	movw	r3, #2797
	ldr	r2, .L1635+4
	ldr	r1, .L1635+8
	mov	r0, #0
	bl	dprint_vfmw
	b	.L1629
.L1632:
	movw	r3, #2786
	add	r2, r7, #656
	ldr	r1, .L1635+8
	mov	r0, #0
	bl	dprint_vfmw
	b	.L1627
.L1634:
	movw	r3, #2792
	ldr	r2, .L1635+4
	ldr	r1, .L1635+8
	bl	dprint_vfmw
	b	.L1630
.L1636:
	.align	2
.L1635:
	.word	.LANCHOR0
	.word	.LANCHOR0+656
	.word	.LC17
	UNWIND(.fnend)
	.size	VP9_Set_Segdata, .-VP9_Set_Segdata
	.align	2
	.global	Mi_Cols_Aligned_To_Sb
	.type	Mi_Cols_Aligned_To_Sb, %function
Mi_Cols_Aligned_To_Sb:
	UNWIND(.fnstart)
	@ args = 0, pretend = 0, frame = 0
	@ frame_needed = 1, uses_anonymous_args = 0
	UNWIND(.movsp ip)
	mov	ip, sp
	stmfd	sp!, {fp, ip, lr, pc}
	UNWIND(.pad #4)
	UNWIND(.save {fp, ip, lr})
	UNWIND(.setfp fp, ip, #-4)
	sub	fp, ip, #4
	add	r0, r0, #7
	bic	r0, r0, #7
	ldmfd	sp, {fp, sp, pc}
	UNWIND(.fnend)
	.size	Mi_Cols_Aligned_To_Sb, .-Mi_Cols_Aligned_To_Sb
	.align	2
	.global	To_Sbs
	.type	To_Sbs, %function
To_Sbs:
	UNWIND(.fnstart)
	@ args = 0, pretend = 0, frame = 0
	@ frame_needed = 1, uses_anonymous_args = 0
	UNWIND(.movsp ip)
	mov	ip, sp
	stmfd	sp!, {fp, ip, lr, pc}
	UNWIND(.pad #4)
	UNWIND(.save {fp, ip, lr})
	UNWIND(.setfp fp, ip, #-4)
	sub	fp, ip, #4
	add	r0, r0, #7
	mov	r0, r0, asr #3
	ldmfd	sp, {fp, sp, pc}
	UNWIND(.fnend)
	.size	To_Sbs, .-To_Sbs
	.align	2
	.global	VP9_Get_Tile_N_Bits
	.type	VP9_Get_Tile_N_Bits, %function
VP9_Get_Tile_N_Bits:
	UNWIND(.fnstart)
	@ args = 0, pretend = 0, frame = 0
	@ frame_needed = 1, uses_anonymous_args = 0
	UNWIND(.movsp ip)
	mov	ip, sp
	stmfd	sp!, {fp, ip, lr, pc}
	UNWIND(.pad #4)
	UNWIND(.save {fp, ip, lr})
	UNWIND(.setfp fp, ip, #-4)
	sub	fp, ip, #4
	add	r0, r0, #7
	mov	r3, #0
	mov	r0, r0, asr #3
	cmp	r0, #3
	ble	.L1640
.L1641:
	add	r3, r3, #1
	mov	ip, r0, asr r3
	cmp	ip, #3
	bgt	.L1641
	sub	r3, r3, #1
	bic	r3, r3, r3, asr #31
.L1640:
	cmp	r0, #64
	mov	ip, #0
	ble	.L1642
	mov	lr, #64
.L1643:
	add	ip, ip, #1
	cmp	r0, lr, asl ip
	bgt	.L1643
.L1642:
	str	ip, [r1]
	str	r3, [r2]
	ldmfd	sp, {fp, sp, pc}
	UNWIND(.fnend)
	.size	VP9_Get_Tile_N_Bits, .-VP9_Get_Tile_N_Bits
	.align	2
	.global	Setup_Tile_Info
	.type	Setup_Tile_Info, %function
Setup_Tile_Info:
	UNWIND(.fnstart)
	@ args = 0, pretend = 0, frame = 0
	@ frame_needed = 1, uses_anonymous_args = 0
	UNWIND(.movsp ip)
	mov	ip, sp
	stmfd	sp!, {r4, r5, r6, r7, fp, ip, lr, pc}
	UNWIND(.pad #4)
	UNWIND(.save {r4, r5, r6, r7, fp, ip, lr})
	UNWIND(.setfp fp, ip, #-4)
	sub	fp, ip, #4
	ldr	r2, [r1, #92]
	mov	r6, r1
	mov	r5, r0
	add	r2, r2, #7
	mov	r2, r2, asr #3
	cmp	r2, #3
	ble	.L1649
	mov	r4, #0
	b	.L1650
.L1661:
	mov	r4, r3
.L1650:
	add	r3, r4, #1
	mov	r1, r2, asr r3
	cmp	r1, #3
	bgt	.L1661
	cmp	r2, #64
	bic	r4, r4, r4, asr #31
	ble	.L1672
.L1659:
	mov	r3, #0
	mov	r1, #64
.L1652:
	add	r3, r3, #1
	cmp	r2, r1, asl r3
	bgt	.L1652
.L1651:
	subs	r4, r4, r3
	str	r3, [r6, #100]
	bne	.L1655
	b	.L1654
.L1657:
	ldr	r3, [r6, #100]
	subs	r4, r4, #1
	add	r3, r3, #1
	str	r3, [r6, #100]
	beq	.L1654
.L1655:
	mov	r1, #1
	mov	r0, r5
	bl	BsGet
	cmp	r0, #0
	bne	.L1657
.L1654:
	mov	r1, #1
	mov	r0, r5
	bl	BsGet
	cmp	r0, #0
	str	r0, [r6, #104]
	ldmeqfd	sp, {r4, r5, r6, r7, fp, sp, pc}
	mov	r0, r5
	mov	r1, #1
	bl	BsGet
	ldr	r3, [r6, #104]
	add	r0, r3, r0
	str	r0, [r6, #104]
	ldmfd	sp, {r4, r5, r6, r7, fp, sp, pc}
.L1649:
	cmp	r2, #64
	movgt	r4, #0
	bgt	.L1659
	mov	r3, #0
	str	r3, [r6, #100]
	b	.L1654
.L1672:
	mov	r3, #0
	b	.L1651
	UNWIND(.fnend)
	.size	Setup_Tile_Info, .-Setup_Tile_Info
	.align	2
	.global	Setup_Segmentation
	.type	Setup_Segmentation, %function
Setup_Segmentation:
	UNWIND(.fnstart)
	@ args = 0, pretend = 0, frame = 8
	@ frame_needed = 1, uses_anonymous_args = 0
	UNWIND(.movsp ip)
	mov	ip, sp
	stmfd	sp!, {r4, r5, r6, r7, r8, r9, r10, fp, ip, lr, pc}
	UNWIND(.pad #4)
	UNWIND(.save {r4, r5, r6, r7, r8, r9, r10, fp, ip, lr})
	UNWIND(.setfp fp, ip, #-4)
	sub	fp, ip, #4
	UNWIND(.pad #12)
	sub	sp, sp, #12
	mov	r5, r1
	mov	r3, #0
	mov	r1, #1
	strb	r3, [r5, #1]
	mov	r6, r0
	strb	r3, [r5, #2]
	bl	BsGet
	uxtb	r0, r0
	strb	r0, [r5]
	cmp	r0, #0
	bne	.L1710
.L1674:
	sub	sp, fp, #40
	ldmfd	sp, {r4, r5, r6, r7, r8, r9, r10, fp, sp, pc}
.L1710:
	mov	r1, #1
	mov	r0, r6
	bl	BsGet
	uxtb	r0, r0
	strb	r0, [r5, #1]
	cmp	r0, #0
	beq	.L1677
	add	r4, r5, #4
	add	r7, r5, #11
	b	.L1679
.L1678:
	strb	r3, [r4, #1]!
	cmp	r4, r7
	beq	.L1711
.L1679:
	mov	r1, #1
	mov	r0, r6
	bl	BsGet
	mov	r3, #255
	cmp	r0, #0
	beq	.L1678
	mov	r1, #8
	mov	r0, r6
	bl	BsGet
	uxtb	r3, r0
	strb	r3, [r4, #1]!
	cmp	r4, r7
	bne	.L1679
.L1711:
	mov	r1, #1
	mov	r0, r6
	bl	BsGet
	uxtb	r0, r0
	strb	r0, [r5, #4]
	cmp	r0, #0
	addne	r4, r5, #14
	bne	.L1682
	mvn	r3, #0
	strb	r3, [r5, #12]
	strb	r3, [r5, #13]
	strb	r3, [r5, #14]
.L1677:
	mov	r1, #1
	mov	r0, r6
	bl	BsGet
	uxtb	r0, r0
	strb	r0, [r5, #2]
	cmp	r0, #0
	beq	.L1674
	mov	r1, #1
	mov	r0, r6
	bl	BsGet
	add	r8, r5, #80
	mov	r7, #0
	ldr	r10, .L1714
	strb	r0, [r5, #3]
	mov	r0, r5
	bl	VP9_Clearall_Segfeatures
.L1684:
	mov	r4, #0
	mov	r9, #1
.L1687:
	mov	r1, #1
	mov	r0, r6
	bl	BsGet
	cmp	r0, #0
	moveq	r3, r0
	bne	.L1712
.L1686:
	mov	r2, r4
	mov	r1, r7
	add	r4, r4, #1
	mov	r0, r5
	bl	VP9_Set_Segdata
	cmp	r4, #4
	bne	.L1687
	add	r7, r7, #1
	add	r8, r8, #4
	cmp	r7, #8
	bne	.L1684
	sub	sp, fp, #40
	ldmfd	sp, {r4, r5, r6, r7, r8, r9, r10, fp, sp, pc}
.L1712:
	ldr	r3, [r8]
	mov	r0, r6
	ldr	r1, [r10, r4, asl #2]
	orr	r3, r3, r9, asl r4
	str	r3, [r8]
	bl	Decode_Unsigned_Max
	ldr	r2, .L1714+4
	ldr	r2, [r2, r4, asl #2]
	cmp	r2, #0
	mov	r3, r0
	beq	.L1686
	str	r0, [fp, #-48]
	mov	r1, #1
	mov	r0, r6
	bl	BsGet
	ldr	r3, [fp, #-48]
	adds	r0, r0, #0
	movne	r0, #1
	rsb	r2, r0, #0
	eor	r3, r3, r2
	add	r3, r3, r0
	b	.L1686
.L1682:
	mov	r1, #1
	mov	r0, r6
	bl	BsGet
	mov	r3, #255
	cmp	r0, #0
	bne	.L1713
.L1681:
	strb	r3, [r7, #1]!
	cmp	r7, r4
	bne	.L1682
	b	.L1677
.L1713:
	mov	r1, #8
	mov	r0, r6
	bl	BsGet
	uxtb	r3, r0
	b	.L1681
.L1715:
	.align	2
.L1714:
	.word	.LANCHOR0+624
	.word	.LANCHOR0+640
	UNWIND(.fnend)
	.size	Setup_Segmentation, .-Setup_Segmentation
	.align	2
	.global	read_interp_filter_type
	.type	read_interp_filter_type, %function
read_interp_filter_type:
	UNWIND(.fnstart)
	@ args = 0, pretend = 0, frame = 16
	@ frame_needed = 1, uses_anonymous_args = 0
	UNWIND(.movsp ip)
	mov	ip, sp
	stmfd	sp!, {r4, fp, ip, lr, pc}
	UNWIND(.pad #4)
	UNWIND(.save {r4, fp, ip, lr})
	UNWIND(.setfp fp, ip, #-4)
	sub	fp, ip, #4
	UNWIND(.pad #20)
	sub	sp, sp, #20
	ldr	r3, .L1720
	mov	r4, r0
	sub	ip, fp, #20
	ldmia	r3, {r0, r1, r2, r3}
	stmdb	ip, {r0, r1, r2, r3}
	mov	r0, r4
	mov	r1, #1
	bl	BsGet
	cmp	r0, #0
	movne	r0, #4
	beq	.L1719
	sub	sp, fp, #16
	ldmfd	sp, {r4, fp, sp, pc}
.L1719:
	mov	r0, r4
	mov	r1, #2
	bl	BsGet
	sub	r3, fp, #20
	add	r0, r3, r0, lsl #2
	ldr	r0, [r0, #-16]
	sub	sp, fp, #16
	ldmfd	sp, {r4, fp, sp, pc}
.L1721:
	.align	2
.L1720:
	.word	.LANCHOR0+672
	UNWIND(.fnend)
	.size	read_interp_filter_type, .-read_interp_filter_type
	.align	2
	.global	setup_inter_inter
	.type	setup_inter_inter, %function
setup_inter_inter:
	UNWIND(.fnstart)
	@ args = 0, pretend = 0, frame = 0
	@ frame_needed = 1, uses_anonymous_args = 0
	UNWIND(.movsp ip)
	mov	ip, sp
	stmfd	sp!, {fp, ip, lr, pc}
	UNWIND(.pad #4)
	UNWIND(.save {fp, ip, lr})
	UNWIND(.setfp fp, ip, #-4)
	sub	fp, ip, #4
	ldr	r3, [r0, #60]
	ldr	r1, [r0, #68]
	ldr	r2, [r0, #64]
	cmp	r2, r3
	cmpeq	r3, r1
	movne	r3, #1
	moveq	r3, #0
	str	r3, [r0, #52]
	ldmfd	sp, {fp, sp, pc}
	UNWIND(.fnend)
	.size	setup_inter_inter, .-setup_inter_inter
	.align	2
	.global	ref_cnt_fb
	.type	ref_cnt_fb, %function
ref_cnt_fb:
	UNWIND(.fnstart)
	@ args = 0, pretend = 0, frame = 0
	@ frame_needed = 1, uses_anonymous_args = 0
	UNWIND(.movsp ip)
	mov	ip, sp
	stmfd	sp!, {fp, ip, lr, pc}
	UNWIND(.pad #4)
	UNWIND(.save {fp, ip, lr})
	UNWIND(.setfp fp, ip, #-4)
	sub	fp, ip, #4
	ldr	ip, [r1]
	ldr	r3, [r0, ip, asl #2]
	cmp	r3, #0
	subgt	r3, r3, #1
	strgt	r3, [r0, ip, asl #2]
	str	r2, [r1]
	ldr	r3, [r0, r2, asl #2]
	add	r3, r3, #1
	str	r3, [r0, r2, asl #2]
	ldmfd	sp, {fp, sp, pc}
	UNWIND(.fnend)
	.size	ref_cnt_fb, .-ref_cnt_fb
	.align	2
	.global	VP9_get_fixed_point_scale_factor
	.type	VP9_get_fixed_point_scale_factor, %function
VP9_get_fixed_point_scale_factor:
	UNWIND(.fnstart)
	@ args = 0, pretend = 0, frame = 0
	@ frame_needed = 1, uses_anonymous_args = 0
	UNWIND(.movsp ip)
	mov	ip, sp
	stmfd	sp!, {fp, ip, lr, pc}
	UNWIND(.pad #4)
	UNWIND(.save {fp, ip, lr})
	UNWIND(.setfp fp, ip, #-4)
	sub	fp, ip, #4
	UNWIND(.pad #8)
	sub	sp, sp, #8
	subs	r3, r1, #0
	beq	.L1728
	mov	r0, r0, asl #14
	bl	__aeabi_idiv
.L1727:
	sub	sp, fp, #12
	ldmfd	sp, {fp, sp, pc}
.L1728:
	str	r3, [sp]
	mov	r0, #1
	movw	r3, #2977
	ldr	r2, .L1729
	ldr	r1, .L1729+4
	bl	dprint_vfmw
	mvn	r0, #0
	b	.L1727
.L1730:
	.align	2
.L1729:
	.word	.LANCHOR0+688
	.word	.LC18
	UNWIND(.fnend)
	.size	VP9_get_fixed_point_scale_factor, .-VP9_get_fixed_point_scale_factor
	.align	2
	.global	check_scale_factors
	.type	check_scale_factors, %function
check_scale_factors:
	UNWIND(.fnstart)
	@ args = 0, pretend = 0, frame = 0
	@ frame_needed = 1, uses_anonymous_args = 0
	UNWIND(.movsp ip)
	mov	ip, sp
	stmfd	sp!, {fp, ip, lr, pc}
	UNWIND(.pad #4)
	UNWIND(.save {fp, ip, lr})
	UNWIND(.setfp fp, ip, #-4)
	sub	fp, ip, #4
	cmp	r0, r2, asl #1
	bgt	.L1735
	cmp	r1, r3, asl #1
	bgt	.L1735
	cmp	r2, r0, asl #4
	bgt	.L1735
	cmp	r3, r1, asl #4
	movle	r0, #1
	movgt	r0, #0
	ldmfd	sp, {fp, sp, pc}
.L1735:
	mov	r0, #0
	ldmfd	sp, {fp, sp, pc}
	UNWIND(.fnend)
	.size	check_scale_factors, .-check_scale_factors
	.align	2
	.global	VP9_scaled_val
	.type	VP9_scaled_val, %function
VP9_scaled_val:
	UNWIND(.fnstart)
	@ args = 0, pretend = 0, frame = 0
	@ frame_needed = 1, uses_anonymous_args = 0
	UNWIND(.movsp ip)
	mov	ip, sp
	stmfd	sp!, {fp, ip, lr, pc}
	UNWIND(.pad #4)
	UNWIND(.save {fp, ip, lr})
	UNWIND(.setfp fp, ip, #-4)
	sub	fp, ip, #4
	smull	r2, r3, r0, r1
	mov	r0, r2, lsr #14
	orr	r0, r0, r3, asl #18
	ldmfd	sp, {fp, sp, pc}
	UNWIND(.fnend)
	.size	VP9_scaled_val, .-VP9_scaled_val
	.align	2
	.global	vp9_setup_scale_factors
	.type	vp9_setup_scale_factors, %function
vp9_setup_scale_factors:
	UNWIND(.fnstart)
	@ args = 4, pretend = 0, frame = 0
	@ frame_needed = 1, uses_anonymous_args = 0
	UNWIND(.movsp ip)
	mov	ip, sp
	stmfd	sp!, {r4, r5, r6, r7, fp, ip, lr, pc}
	UNWIND(.pad #4)
	UNWIND(.save {r4, r5, r6, r7, fp, ip, lr})
	UNWIND(.setfp fp, ip, #-4)
	sub	fp, ip, #4
	UNWIND(.pad #8)
	sub	sp, sp, #8
	cmp	r1, r3, asl #1
	mov	ip, r1
	mov	r4, r0
	mov	r7, r2
	ldr	r6, [fp, #4]
	bgt	.L1738
	cmp	r2, r6, asl #1
	ble	.L1748
.L1738:
	mvn	r2, #0
	mov	r3, #16
	str	r2, [r4]
	stmib	r4, {r2, r3}
	str	r3, [r4, #12]
	sub	sp, fp, #28
	ldmfd	sp, {r4, r5, r6, r7, fp, sp, pc}
.L1748:
	cmp	r3, r1, asl #4
	bgt	.L1738
	cmp	r6, r2, asl #4
	bgt	.L1738
	cmp	r3, #0
	beq	.L1749
	mov	r1, r3
	mov	r0, ip, asl #14
	bl	__aeabi_idiv
	cmp	r6, #0
	mov	r5, r0
	str	r5, [r4]
	beq	.L1750
.L1741:
	mov	r1, r6
	mov	r0, r7, asl #14
	bl	__aeabi_idiv
	mov	r7, r0, asr #31
	ubfx	r3, r0, #10, #18
	mov	r1, r7, asl #4
	orr	r1, r1, r0, lsr #28
	orr	r1, r3, r1, asl #18
.L1742:
	mov	r7, r5, asr #31
	ubfx	r3, r5, #10, #18
	str	r0, [r4, #4]
	mov	r2, r7, asl #4
	str	r1, [r4, #12]
	orr	r2, r2, r5, lsr #28
	orr	r3, r3, r2, asl #18
	str	r3, [r4, #8]
	sub	sp, fp, #28
	ldmfd	sp, {r4, r5, r6, r7, fp, sp, pc}
.L1749:
	str	r3, [sp]
	mov	r0, #1
	movw	r3, #2977
	ldr	r2, .L1751
	ldr	r1, .L1751+4
	mvn	r5, #0
	bl	dprint_vfmw
	cmp	r6, #0
	str	r5, [r4]
	bne	.L1741
.L1750:
	ldr	r1, .L1751+4
	movw	r3, #2977
	str	r6, [sp]
	mov	r0, #1
	ldr	r2, .L1751
	bl	dprint_vfmw
	mvn	r1, #0
	mov	r0, r1
	ldr	r5, [r4]
	b	.L1742
.L1752:
	.align	2
.L1751:
	.word	.LANCHOR0+688
	.word	.LC18
	UNWIND(.fnend)
	.size	vp9_setup_scale_factors, .-vp9_setup_scale_factors
	.align	2
	.global	Vp9_Vfmw_ReadProfile
	.type	Vp9_Vfmw_ReadProfile, %function
Vp9_Vfmw_ReadProfile:
	UNWIND(.fnstart)
	@ args = 0, pretend = 0, frame = 0
	@ frame_needed = 1, uses_anonymous_args = 0
	UNWIND(.movsp ip)
	mov	ip, sp
	stmfd	sp!, {r4, r5, fp, ip, lr, pc}
	UNWIND(.pad #4)
	UNWIND(.save {r4, r5, fp, ip, lr})
	UNWIND(.setfp fp, ip, #-4)
	sub	fp, ip, #4
	mov	r1, #1
	mov	r5, r0
	bl	BsGet
	mov	r1, #1
	mov	r4, r0
	mov	r0, r5
	bl	BsGet
	orr	r4, r4, r0, asl #1
	cmp	r4, #2
	ble	.L1754
	mov	r0, r5
	mov	r1, #1
	bl	BsGet
	add	r4, r0, r4
.L1754:
	mov	r0, r4
	ldmfd	sp, {r4, r5, fp, sp, pc}
	UNWIND(.fnend)
	.size	Vp9_Vfmw_ReadProfile, .-Vp9_Vfmw_ReadProfile
	.align	2
	.global	Vp9_ReadBitDepthColorSpaceSampling
	.type	Vp9_ReadBitDepthColorSpaceSampling, %function
Vp9_ReadBitDepthColorSpaceSampling:
	UNWIND(.fnstart)
	@ args = 0, pretend = 0, frame = 0
	@ frame_needed = 1, uses_anonymous_args = 0
	UNWIND(.movsp ip)
	mov	ip, sp
	stmfd	sp!, {r4, r5, r6, r7, fp, ip, lr, pc}
	UNWIND(.pad #4)
	UNWIND(.save {r4, r5, r6, r7, fp, ip, lr})
	UNWIND(.setfp fp, ip, #-4)
	sub	fp, ip, #4
	ldr	r3, [r1, #2444]
	mov	r2, #8
	mov	r4, r1
	mov	r5, r0
	cmp	r3, #1
	str	r2, [r1, #2500]
	bls	.L1756
	mov	r1, #1
	bl	BsGet
	cmp	r0, #0
	movne	r3, #12
	moveq	r3, #10
	str	r3, [r4, #2500]
.L1756:
	mov	r1, #3
	mov	r0, r5
	bl	BsGet
	cmp	r0, #7
	str	r0, [r4, #2448]
	beq	.L1758
	mov	r1, #1
	mov	r0, r5
	bl	BsGet
	ldr	r6, [r4, #2444]
	bic	r6, r6, #2
	cmp	r6, #1
	movne	r3, #1
	str	r0, [r4, #2452]
	strne	r3, [r4, #2480]
	strne	r3, [r4, #2476]
	ldmnefd	sp, {r4, r5, r6, r7, fp, sp, pc}
	mov	r1, r6
	mov	r0, r5
	bl	BsGet
	mov	r1, r6
	str	r0, [r4, #2476]
	mov	r0, r5
	bl	BsGet
	mov	r1, r6
	str	r0, [r4, #2480]
	mov	r0, r5
	sub	sp, fp, #28
	ldmfd	sp, {r4, r5, r6, r7, fp, sp, lr}
	b	BsGet
.L1758:
	ldr	r1, [r4, #2444]
	bic	r1, r1, #2
	cmp	r1, #1
	beq	.L1764
	movw	r3, #3074
	ldr	r2, .L1765
	ldr	r1, .L1765+4
	mov	r0, #1
	sub	sp, fp, #28
	ldmfd	sp, {r4, r5, r6, r7, fp, sp, lr}
	b	dprint_vfmw
.L1764:
	mov	r3, #0
	mov	r0, r5
	str	r3, [r4, #2480]
	str	r3, [r4, #2476]
	sub	sp, fp, #28
	ldmfd	sp, {r4, r5, r6, r7, fp, sp, lr}
	b	BsGet
.L1766:
	.align	2
.L1765:
	.word	.LANCHOR0+724
	.word	.LC19
	UNWIND(.fnend)
	.size	Vp9_ReadBitDepthColorSpaceSampling, .-Vp9_ReadBitDepthColorSpaceSampling
	.align	2
	.global	Vp9_ReadCompressedHeader
	.type	Vp9_ReadCompressedHeader, %function
Vp9_ReadCompressedHeader:
	UNWIND(.fnstart)
	@ args = 24, pretend = 0, frame = 8
	@ frame_needed = 1, uses_anonymous_args = 0
	UNWIND(.movsp ip)
	mov	ip, sp
	stmfd	sp!, {r4, r5, r6, r7, r8, r9, r10, fp, ip, lr, pc}
	UNWIND(.pad #4)
	UNWIND(.save {r4, r5, r6, r7, r8, r9, r10, fp, ip, lr})
	UNWIND(.setfp fp, ip, #-4)
	sub	fp, ip, #4
	UNWIND(.pad #28)
	sub	sp, sp, #28
	ldr	lr, [fp, #16]
	mov	r4, #0
	mov	r7, r1
	cmp	lr, #0
	mov	r6, r2
	mov	r8, r3
	mov	r5, r0
	str	r4, [fp, #-48]
	ldr	r10, [fp, #8]
	ldr	r9, [fp, #12]
	beq	.L1772
.L1768:
	mov	r2, r5
	mov	r1, r4
	mov	r0, r7
	bl	Vp9_ReadCoefProbs
	ldr	r2, [fp, #4]
	mov	r0, r7
	mov	r3, r8
	sub	ip, fp, #48
	stmib	sp, {r9, r10}
	str	r2, [sp]
	mov	r1, r5
	mov	r2, r6
	str	ip, [sp, #12]
	bl	Vp9_PrepareReadModeInfo
	ldr	r3, [r5, #32]
	sub	r3, r3, #33
	cmn	r3, #-1073741790
	ldrhi	r3, [fp, #-48]
	movhi	r0, #0
	ldrhi	r2, [fp, #20]
	mvnls	r0, #0
	strhi	r3, [r2]
	ldrhi	r3, [fp, #24]
	strhi	r4, [r3]
	sub	sp, fp, #40
	ldmfd	sp, {r4, r5, r6, r7, r8, r9, r10, fp, sp, pc}
.L1772:
	bl	Vp9_ReadTxMode
	cmp	r0, #4
	mov	r4, r0
	bne	.L1768
	add	r0, r7, #2000
	mov	r1, r5
	add	r0, r0, #3
	bl	Vp9_ReadTxProbs
	b	.L1768
	UNWIND(.fnend)
	.size	Vp9_ReadCompressedHeader, .-Vp9_ReadCompressedHeader
	.align	2
	.global	Read_UnCompressed_Header
	.type	Read_UnCompressed_Header, %function
Read_UnCompressed_Header:
	UNWIND(.fnstart)
	@ args = 0, pretend = 0, frame = 0
	@ frame_needed = 1, uses_anonymous_args = 0
	UNWIND(.movsp ip)
	mov	ip, sp
	stmfd	sp!, {r4, r5, r6, r7, r8, r9, fp, ip, lr, pc}
	UNWIND(.pad #4)
	UNWIND(.save {r4, r5, r6, r7, r8, r9, fp, ip, lr})
	UNWIND(.setfp fp, ip, #-4)
	sub	fp, ip, #4
	UNWIND(.pad #8)
	sub	sp, sp, #8
	mov	r4, r1
	ldr	r3, [r4, #2440]
	mov	r1, #2
	mov	r5, r0
	str	r3, [r4, #2436]
	bl	BsGet
	cmp	r0, #2
	beq	.L1774
	ldr	r1, .L1808
	mov	r0, #1
	bl	dprint_vfmw
.L1774:
	mov	r0, r5
	bl	Vp9_Vfmw_ReadProfile
	mov	r1, #1
	str	r0, [r4, #2444]
	mov	r0, r5
	bl	BsGet
	subs	r6, r0, #0
	bne	.L1804
	mov	r1, #1
	str	r6, [r4, #2460]
	mov	r0, r5
	bl	BsGet
	mov	r1, #1
	str	r0, [r4, #2440]
	mov	r0, r5
	bl	BsGet
	mov	r1, #1
	str	r0, [r4, #2456]
	mov	r0, r5
	bl	BsGet
	ldr	r2, [r4, #2440]
	cmp	r2, #0
	mov	r3, r0
	str	r0, [r4, #2472]
	beq	.L1805
	ldr	r2, [r4, #2456]
	cmp	r2, #0
	strne	r6, [r4, #2540]
	beq	.L1806
.L1780:
	cmp	r3, #0
	beq	.L1781
	mov	r3, #0
	str	r3, [r4, #2544]
.L1782:
	ldr	r3, [r4, #2540]
	cmp	r3, #0
	beq	.L1783
	mov	r0, r5
	bl	Check_Sync_Code
	ldr	r3, [r4, #2444]
	cmp	r3, #1
	bls	.L1784
	mov	r1, r4
	mov	r0, r5
	bl	Vp9_ReadBitDepthColorSpaceSampling
.L1785:
	mov	r1, #8
	mov	r0, r5
	bl	BsGet
	mov	r1, r4
	str	r0, [r4, #2548]
	mov	r0, r5
	bl	Setup_Frame_Size
	b	.L1778
.L1804:
	mov	r1, #3
	mov	r0, r5
	bl	BsGet
	mov	r3, #0
	mov	r6, r3
	mov	r2, #1
	add	r0, r0, #36
	ldr	r1, [r4, r0, asl #2]
	str	r3, [r4, #2548]
	str	r3, [r4, #336]
	str	r1, [r4, #2464]
	str	r2, [r4, #2460]
	str	r2, [r4, #2456]
.L1776:
	mov	r0, r6
	sub	sp, fp, #36
	ldmfd	sp, {r4, r5, r6, r7, r8, r9, fp, sp, pc}
.L1783:
	mov	r1, #8
	mov	r0, r5
	bl	BsGet
	add	r7, r4, #172
	add	r8, r4, #184
	mov	r9, r7
	str	r0, [r4, #2548]
.L1786:
	mov	r1, #3
	mov	r0, r5
	bl	BsGet
	mov	r1, #1
	add	r3, r0, #36
	mov	r0, r5
	ldr	r3, [r4, r3, asl #2]
	str	r3, [r9, #4]!
	bl	BsGet
	cmp	r9, r8
	str	r0, [r9, #-116]
	bne	.L1786
	mov	r1, r4
	mov	r0, r5
	bl	setup_frame_size_with_refs
	ldr	r2, [r4, #2484]
	sub	r3, r2, #1
	cmp	r3, #4096
	ldr	r3, [r4, #2488]
	bcs	.L1788
	sub	r1, r3, #1
	cmp	r1, #4096
	bcs	.L1788
	mov	r1, #1
	mov	r0, r5
	bl	BsGet
	add	r9, r4, #2800
	add	r9, r9, #12
	str	r0, [r4, #48]
	mov	r0, r5
	bl	read_interp_filter_type
	str	r0, [r4, #2552]
.L1790:
	ldr	r1, [r7, #4]!
	mov	r0, r9
	ldr	ip, [r4, #2488]
	add	r9, r9, #16
	ldr	r3, [r4, #2484]
	add	r1, r4, r1, lsl #4
	add	r1, r1, #2656
	ldr	r2, [r1, #24]
	add	r1, r1, #12
	ldr	r1, [r1, #8]
	str	ip, [sp]
	bl	vp9_setup_scale_factors
	cmp	r8, r7
	bne	.L1790
	ldr	r3, [r4, #60]
	ldr	r1, [r4, #68]
	ldr	r2, [r4, #64]
	cmp	r2, r3
	cmpeq	r3, r1
	movne	r3, #1
	moveq	r3, #0
	str	r3, [r4, #52]
	b	.L1778
.L1805:
	mov	r0, r5
	bl	Check_Sync_Code
	mov	r1, r4
	mov	r0, r5
	bl	Vp9_ReadBitDepthColorSpaceSampling
	ldr	r3, [r4, #2432]
	mov	r2, #255
	mov	r1, r4
	str	r2, [r4, #2548]
	mov	r0, r5
	str	r3, [r4, #176]
	str	r3, [r4, #180]
	str	r3, [r4, #184]
	bl	Setup_Frame_Size
.L1778:
	ldr	r3, [r4, #2472]
	cmp	r3, #0
	movne	r3, #0
	strne	r3, [r4, #2512]
	strne	r3, [r4, #2516]
	beq	.L1807
.L1792:
	mov	r1, #2
	mov	r0, r5
	bl	BsGet
	ldr	r3, [r4, #2440]
	cmp	r3, #0
	str	r0, [r4, #2520]
	beq	.L1793
